ARM GAS  /tmp/cc4wQWsB.s 			page 1


   1              		.cpu cortex-m0
   2              		.eabi_attribute 20, 1
   3              		.eabi_attribute 21, 1
   4              		.eabi_attribute 23, 3
   5              		.eabi_attribute 24, 1
   6              		.eabi_attribute 25, 1
   7              		.eabi_attribute 26, 1
   8              		.eabi_attribute 30, 4
   9              		.eabi_attribute 34, 0
  10              		.eabi_attribute 18, 4
  11              		.file	"main.c"
  12              		.text
  13              		.global	__aeabi_fcmpge
  14              		.section	.text.check_usbpd,"ax",%progbits
  15              		.align	1
  16              		.global	check_usbpd
  17              		.arch armv6s-m
  18              		.syntax unified
  19              		.code	16
  20              		.thumb_func
  21              		.fpu softvfp
  23              	check_usbpd:
  24              		@ args = 0, pretend = 0, frame = 0
  25              		@ frame_needed = 0, uses_anonymous_args = 0
  26 0000 10B5     		push	{r4, lr}
  27 0002 084C     		ldr	r4, .L8
  28 0004 0849     		ldr	r1, .L8+4
  29 0006 A068     		ldr	r0, [r4, #8]
  30 0008 FFF7FEFF 		bl	__aeabi_fcmpge
  31 000c 0028     		cmp	r0, #0
  32 000e 06D0     		beq	.L2
  33 0010 FE21     		movs	r1, #254
  34 0012 6069     		ldr	r0, [r4, #20]
  35 0014 8905     		lsls	r1, r1, #22
  36 0016 FFF7FEFF 		bl	__aeabi_fcmpge
  37 001a 431E     		subs	r3, r0, #1
  38 001c 9841     		sbcs	r0, r0, r3
  39              	.L2:
  40              		@ sp needed
  41 001e C0B2     		uxtb	r0, r0
  42 0020 10BD     		pop	{r4, pc}
  43              	.L9:
  44 0022 C046     		.align	2
  45              	.L8:
  46 0024 00000000 		.word	.LANCHOR0
  47 0028 00007041 		.word	1097859072
  49              		.global	__aeabi_ui2f
  50              		.global	__aeabi_f2d
  51              		.global	__aeabi_ddiv
  52              		.global	__aeabi_dmul
  53              		.global	__aeabi_dsub
  54              		.global	__aeabi_d2f
  55              		.global	__aeabi_i2f
  56              		.global	__aeabi_fsub
  57              		.global	__aeabi_fmul
  58              		.global	__aeabi_fdiv
  59              		.global	__aeabi_fadd
ARM GAS  /tmp/cc4wQWsB.s 			page 2


  60              		.global	__aeabi_i2d
  61              		.global	__aeabi_dadd
  62              		.global	__aeabi_fcmple
  63              		.global	__aeabi_fcmpgt
  64              		.global	__aeabi_fcmplt
  65              		.global	__aeabi_f2iz
  66              		.global	__aeabi_dcmple
  67              		.section	.text.reg,"ax",%progbits
  68              		.align	1
  69              		.global	reg
  70              		.syntax unified
  71              		.code	16
  72              		.thumb_func
  73              		.fpu softvfp
  75              	reg:
  76              		@ args = 0, pretend = 0, frame = 24
  77              		@ frame_needed = 0, uses_anonymous_args = 0
  78 0000 F0B5     		push	{r4, r5, r6, r7, lr}
  79 0002 A84E     		ldr	r6, .L43
  80 0004 87B0     		sub	sp, sp, #28
  81 0006 F088     		ldrh	r0, [r6, #6]
  82 0008 FFF7FEFF 		bl	__aeabi_ui2f
  83 000c FFF7FEFF 		bl	__aeabi_f2d
  84 0010 0022     		movs	r2, #0
  85 0012 A54B     		ldr	r3, .L43+4
  86 0014 FFF7FEFF 		bl	__aeabi_ddiv
  87 0018 A44A     		ldr	r2, .L43+8
  88 001a A54B     		ldr	r3, .L43+12
  89 001c FFF7FEFF 		bl	__aeabi_dmul
  90 0020 0022     		movs	r2, #0
  91 0022 A44B     		ldr	r3, .L43+16
  92 0024 FFF7FEFF 		bl	__aeabi_dsub
  93 0028 A34A     		ldr	r2, .L43+20
  94 002a A44B     		ldr	r3, .L43+24
  95 002c FFF7FEFF 		bl	__aeabi_ddiv
  96 0030 FFF7FEFF 		bl	__aeabi_d2f
  97 0034 A24C     		ldr	r4, .L43+28
  98 0036 051C     		adds	r5, r0, #0
  99 0038 A061     		str	r0, [r4, #24]
 100 003a 7088     		ldrh	r0, [r6, #2]
 101 003c FFF7FEFF 		bl	__aeabi_i2f
 102 0040 A04F     		ldr	r7, .L43+32
 103 0042 3968     		ldr	r1, [r7]
 104 0044 FFF7FEFF 		bl	__aeabi_fsub
 105 0048 7968     		ldr	r1, [r7, #4]
 106 004a FFF7FEFF 		bl	__aeabi_fmul
 107 004e 9E49     		ldr	r1, .L43+36
 108 0050 FFF7FEFF 		bl	__aeabi_fdiv
 109 0054 291C     		adds	r1, r5, #0
 110 0056 FFF7FEFF 		bl	__aeabi_fadd
 111 005a 2060     		str	r0, [r4]
 112 005c 051C     		adds	r5, r0, #0
 113 005e B088     		ldrh	r0, [r6, #4]
 114 0060 FFF7FEFF 		bl	__aeabi_i2d
 115 0064 0022     		movs	r2, #0
 116 0066 904B     		ldr	r3, .L43+4
 117 0068 FFF7FEFF 		bl	__aeabi_ddiv
ARM GAS  /tmp/cc4wQWsB.s 			page 3


 118 006c 8F4A     		ldr	r2, .L43+8
 119 006e 904B     		ldr	r3, .L43+12
 120 0070 FFF7FEFF 		bl	__aeabi_dmul
 121 0074 8D4A     		ldr	r2, .L43+8
 122 0076 954B     		ldr	r3, .L43+40
 123 0078 FFF7FEFF 		bl	__aeabi_dmul
 124 007c FFF7FEFF 		bl	__aeabi_d2f
 125 0080 A060     		str	r0, [r4, #8]
 126 0082 3088     		ldrh	r0, [r6]
 127 0084 FFF7FEFF 		bl	__aeabi_i2d
 128 0088 0022     		movs	r2, #0
 129 008a 874B     		ldr	r3, .L43+4
 130 008c FFF7FEFF 		bl	__aeabi_ddiv
 131 0090 864A     		ldr	r2, .L43+8
 132 0092 874B     		ldr	r3, .L43+12
 133 0094 FFF7FEFF 		bl	__aeabi_dmul
 134 0098 8D4A     		ldr	r2, .L43+44
 135 009a 8E4B     		ldr	r3, .L43+48
 136 009c FFF7FEFF 		bl	__aeabi_dmul
 137 00a0 8D4A     		ldr	r2, .L43+52
 138 00a2 8E4B     		ldr	r3, .L43+56
 139 00a4 FFF7FEFF 		bl	__aeabi_ddiv
 140 00a8 0022     		movs	r2, #0
 141 00aa 8D4B     		ldr	r3, .L43+60
 142 00ac FFF7FEFF 		bl	__aeabi_dmul
 143 00b0 0600     		movs	r6, r0
 144 00b2 0F00     		movs	r7, r1
 145 00b4 E068     		ldr	r0, [r4, #12]
 146 00b6 8B49     		ldr	r1, .L43+64
 147 00b8 FFF7FEFF 		bl	__aeabi_fmul
 148 00bc FFF7FEFF 		bl	__aeabi_f2d
 149 00c0 0B00     		movs	r3, r1
 150 00c2 0200     		movs	r2, r0
 151 00c4 3900     		movs	r1, r7
 152 00c6 3000     		movs	r0, r6
 153 00c8 FFF7FEFF 		bl	__aeabi_dadd
 154 00cc FFF7FEFF 		bl	__aeabi_d2f
 155 00d0 8449     		ldr	r1, .L43+64
 156 00d2 0290     		str	r0, [sp, #8]
 157 00d4 E060     		str	r0, [r4, #12]
 158 00d6 6068     		ldr	r0, [r4, #4]
 159 00d8 FFF7FEFF 		bl	__aeabi_fmul
 160 00dc 8249     		ldr	r1, .L43+68
 161 00de 061C     		adds	r6, r0, #0
 162 00e0 281C     		adds	r0, r5, #0
 163 00e2 FFF7FEFF 		bl	__aeabi_fmul
 164 00e6 011C     		adds	r1, r0, #0
 165 00e8 301C     		adds	r0, r6, #0
 166 00ea FFF7FEFF 		bl	__aeabi_fadd
 167 00ee 051C     		adds	r5, r0, #0
 168 00f0 6060     		str	r0, [r4, #4]
 169 00f2 FFF7FEFF 		bl	check_usbpd
 170 00f6 7D4B     		ldr	r3, .L43+72
 171 00f8 1B68     		ldr	r3, [r3]
 172 00fa 0493     		str	r3, [sp, #16]
 173 00fc 0028     		cmp	r0, #0
 174 00fe 00D1     		bne	.LCB136
ARM GAS  /tmp/cc4wQWsB.s 			page 4


 175 0100 CAE0     		b	.L11	@long jump
 176              	.LCB136:
 177 0102 7B4C     		ldr	r4, .L43+76
 178 0104 2368     		ldr	r3, [r4]
 179 0106 0193     		str	r3, [sp, #4]
 180 0108 636A     		ldr	r3, [r4, #36]
 181 010a 0198     		ldr	r0, [sp, #4]
 182 010c 191C     		adds	r1, r3, #0
 183 010e 0393     		str	r3, [sp, #12]
 184 0110 FFF7FEFF 		bl	__aeabi_fsub
 185 0114 0590     		str	r0, [sp, #20]
 186 0116 011C     		adds	r1, r0, #0
 187 0118 281C     		adds	r0, r5, #0
 188 011a FFF7FEFF 		bl	__aeabi_fcmpge
 189 011e 0028     		cmp	r0, #0
 190 0120 69D0     		beq	.L12
 191 0122 0399     		ldr	r1, [sp, #12]
 192 0124 0198     		ldr	r0, [sp, #4]
 193 0126 FFF7FEFF 		bl	__aeabi_fadd
 194 012a 011C     		adds	r1, r0, #0
 195 012c 281C     		adds	r0, r5, #0
 196 012e FFF7FEFF 		bl	__aeabi_fcmple
 197 0132 0028     		cmp	r0, #0
 198 0134 5FD0     		beq	.L12
 199 0136 291C     		adds	r1, r5, #0
 200 0138 0198     		ldr	r0, [sp, #4]
 201 013a FFF7FEFF 		bl	__aeabi_fsub
 202 013e A169     		ldr	r1, [r4, #24]
 203 0140 6060     		str	r0, [r4, #4]
 204 0142 061C     		adds	r6, r0, #0
 205 0144 FFF7FEFF 		bl	__aeabi_fmul
 206 0148 A168     		ldr	r1, [r4, #8]
 207 014a FFF7FEFF 		bl	__aeabi_fadd
 208 014e E468     		ldr	r4, [r4, #12]
 209 0150 071C     		adds	r7, r0, #0
 210 0152 211C     		adds	r1, r4, #0
 211 0154 FFF7FEFF 		bl	__aeabi_fcmpgt
 212 0158 0028     		cmp	r0, #0
 213 015a 09D1     		bne	.L15
 214 015c 8023     		movs	r3, #128
 215 015e 1B06     		lsls	r3, r3, #24
 216 0160 E418     		adds	r4, r4, r3
 217 0162 211C     		adds	r1, r4, #0
 218 0164 381C     		adds	r0, r7, #0
 219 0166 FFF7FEFF 		bl	__aeabi_fcmplt
 220 016a 0028     		cmp	r0, #0
 221 016c 00D1     		bne	.L15
 222 016e 3C1C     		adds	r4, r7, #0
 223              	.L15:
 224 0170 5F4F     		ldr	r7, .L43+76
 225 0172 301C     		adds	r0, r6, #0
 226 0174 F969     		ldr	r1, [r7, #28]
 227 0176 BC60     		str	r4, [r7, #8]
 228 0178 FFF7FEFF 		bl	__aeabi_fmul
 229 017c 396A     		ldr	r1, [r7, #32]
 230 017e 061C     		adds	r6, r0, #0
 231 0180 201C     		adds	r0, r4, #0
ARM GAS  /tmp/cc4wQWsB.s 			page 5


 232 0182 FFF7FEFF 		bl	__aeabi_fmul
 233 0186 011C     		adds	r1, r0, #0
 234 0188 301C     		adds	r0, r6, #0
 235 018a FFF7FEFF 		bl	__aeabi_fadd
 236 018e FFF7FEFF 		bl	__aeabi_f2iz
 237 0192 584B     		ldr	r3, .L43+80
 238 0194 1B88     		ldrh	r3, [r3]
 239 0196 5843     		muls	r0, r3
 240 0198 B882     		strh	r0, [r7, #20]
 241              	.L16:
 242 019a 0298     		ldr	r0, [sp, #8]
 243 019c FFF7FEFF 		bl	__aeabi_f2d
 244 01a0 554A     		ldr	r2, .L43+84
 245 01a2 564B     		ldr	r3, .L43+88
 246 01a4 FFF7FEFF 		bl	__aeabi_dcmple
 247 01a8 454E     		ldr	r6, .L43+28
 248 01aa 514C     		ldr	r4, .L43+76
 249 01ac 544F     		ldr	r7, .L43+92
 250 01ae 0028     		cmp	r0, #0
 251 01b0 5ED0     		beq	.L19
 252 01b2 0599     		ldr	r1, [sp, #20]
 253 01b4 281C     		adds	r0, r5, #0
 254 01b6 FFF7FEFF 		bl	__aeabi_fcmpge
 255 01ba 0028     		cmp	r0, #0
 256 01bc 09D0     		beq	.L21
 257 01be 0399     		ldr	r1, [sp, #12]
 258 01c0 0198     		ldr	r0, [sp, #4]
 259 01c2 FFF7FEFF 		bl	__aeabi_fadd
 260 01c6 011C     		adds	r1, r0, #0
 261 01c8 281C     		adds	r0, r5, #0
 262 01ca FFF7FEFF 		bl	__aeabi_fcmple
 263 01ce 0028     		cmp	r0, #0
 264 01d0 4ED1     		bne	.L19
 265              	.L21:
 266 01d2 FA22     		movs	r2, #250
 267 01d4 3B88     		ldrh	r3, [r7]
 268 01d6 1201     		lsls	r2, r2, #4
 269 01d8 9342     		cmp	r3, r2
 270 01da 1ED9     		bls	.L23
 271 01dc 0023     		movs	r3, #0
 272 01de C821     		movs	r1, #200
 273 01e0 0022     		movs	r2, #0
 274 01e2 6360     		str	r3, [r4, #4]
 275 01e4 A360     		str	r3, [r4, #8]
 276 01e6 2361     		str	r3, [r4, #16]
 277 01e8 424B     		ldr	r3, .L43+80
 278 01ea 8900     		lsls	r1, r1, #2
 279 01ec 1980     		strh	r1, [r3]
 280 01ee A282     		strh	r2, [r4, #20]
 281 01f0 B31D     		adds	r3, r6, #6
 282              	.L42:
 283 01f2 DA77     		strb	r2, [r3, #31]
 284 01f4 13E0     		b	.L24
 285              	.L12:
 286 01f6 0199     		ldr	r1, [sp, #4]
 287 01f8 281C     		adds	r0, r5, #0
 288 01fa FFF7FEFF 		bl	__aeabi_fcmple
ARM GAS  /tmp/cc4wQWsB.s 			page 6


 289 01fe 0023     		movs	r3, #0
 290 0200 0028     		cmp	r0, #0
 291 0202 06D0     		beq	.L39
 292 0204 3B4A     		ldr	r2, .L43+80
 293 0206 1288     		ldrh	r2, [r2]
 294 0208 A282     		strh	r2, [r4, #20]
 295 020a 3E4A     		ldr	r2, .L43+96
 296 020c 6260     		str	r2, [r4, #4]
 297              	.L41:
 298 020e A360     		str	r3, [r4, #8]
 299 0210 C3E7     		b	.L16
 300              	.L39:
 301 0212 0022     		movs	r2, #0
 302 0214 6360     		str	r3, [r4, #4]
 303 0216 A282     		strh	r2, [r4, #20]
 304 0218 F9E7     		b	.L41
 305              	.L23:
 306 021a 0133     		adds	r3, r3, #1
 307 021c 3B80     		strh	r3, [r7]
 308              	.L24:
 309 021e 1423     		movs	r3, #20
 310 0220 E75E     		ldrsh	r7, [r4, r3]
 311 0222 3B1C     		adds	r3, r7, #0
 312 0224 002F     		cmp	r7, #0
 313 0226 00DA     		bge	.L25
 314 0228 0023     		movs	r3, #0
 315              	.L25:
 316 022a FA22     		movs	r2, #250
 317 022c 19B2     		sxth	r1, r3
 318 022e D200     		lsls	r2, r2, #3
 319 0230 9142     		cmp	r1, r2
 320 0232 00DD     		ble	.L26
 321 0234 131C     		adds	r3, r2, #0
 322              	.L26:
 323 0236 7169     		ldr	r1, [r6, #20]
 324 0238 0298     		ldr	r0, [sp, #8]
 325 023a A382     		strh	r3, [r4, #20]
 326 023c 1DB2     		sxth	r5, r3
 327 023e FFF7FEFF 		bl	__aeabi_fcmpgt
 328 0242 0028     		cmp	r0, #0
 329 0244 1CD0     		beq	.L40
 330 0246 C823     		movs	r3, #200
 331 0248 9B00     		lsls	r3, r3, #2
 332 024a 9F42     		cmp	r7, r3
 333 024c 15DD     		ble	.L29
 334 024e 294B     		ldr	r3, .L43+80
 335 0250 ADB2     		uxth	r5, r5
 336 0252 AA1E     		subs	r2, r5, #2
 337 0254 1A80     		strh	r2, [r3]
 338 0256 2C4B     		ldr	r3, .L43+100
 339 0258 ED18     		adds	r5, r5, r3
 340 025a A582     		strh	r5, [r4, #20]
 341              	.L30:
 342 025c 1422     		movs	r2, #20
 343 025e A35E     		ldrsh	r3, [r4, r2]
 344 0260 049A     		ldr	r2, [sp, #16]
 345 0262 5363     		str	r3, [r2, #52]
ARM GAS  /tmp/cc4wQWsB.s 			page 7


 346              	.L32:
 347 0264 FA23     		movs	r3, #250
 348 0266 049A     		ldr	r2, [sp, #16]
 349 0268 1B01     		lsls	r3, r3, #4
 350 026a 1364     		str	r3, [r2, #64]
 351 026c 07B0     		add	sp, sp, #28
 352              		@ sp needed
 353 026e F0BD     		pop	{r4, r5, r6, r7, pc}
 354              	.L19:
 355 0270 0023     		movs	r3, #0
 356 0272 0122     		movs	r2, #1
 357 0274 3B80     		strh	r3, [r7]
 358 0276 B31D     		adds	r3, r6, #6
 359 0278 BBE7     		b	.L42
 360              	.L29:
 361 027a 0023     		movs	r3, #0
 362 027c A382     		strh	r3, [r4, #20]
 363 027e EDE7     		b	.L30
 364              	.L40:
 365 0280 FA21     		movs	r1, #250
 366 0282 1C4A     		ldr	r2, .L43+80
 367 0284 C900     		lsls	r1, r1, #3
 368 0286 1388     		ldrh	r3, [r2]
 369 0288 6433     		adds	r3, r3, #100
 370 028a 9BB2     		uxth	r3, r3
 371 028c 8B42     		cmp	r3, r1
 372 028e 01D2     		bcs	.L31
 373 0290 1380     		strh	r3, [r2]
 374 0292 E3E7     		b	.L30
 375              	.L31:
 376 0294 1180     		strh	r1, [r2]
 377 0296 E1E7     		b	.L30
 378              	.L11:
 379 0298 049B     		ldr	r3, [sp, #16]
 380 029a 0634     		adds	r4, r4, #6
 381 029c E077     		strb	r0, [r4, #31]
 382 029e 5863     		str	r0, [r3, #52]
 383 02a0 E0E7     		b	.L32
 384              	.L44:
 385 02a2 C046     		.align	2
 386              	.L43:
 387 02a4 00000000 		.word	.LANCHOR1
 388 02a8 00FEAF40 		.word	1085275648
 389 02ac 66666666 		.word	1717986918
 390 02b0 66660A40 		.word	1074423398
 391 02b4 0000E03F 		.word	1071644672
 392 02b8 7B14AE47 		.word	1202590843
 393 02bc E17A843F 		.word	1065646817
 394 02c0 00000000 		.word	.LANCHOR0
 395 02c4 00000000 		.word	.LANCHOR2
 396 02c8 00007A44 		.word	1148846080
 397 02cc 66661A40 		.word	1075471974
 398 02d0 25068195 		.word	-1786706395
 399 02d4 438BFA3F 		.word	1073384259
 400 02d8 B81E85EB 		.word	-343597384
 401 02dc 51B8E63F 		.word	1072085073
 402 02e0 E07A843F 		.word	1065646816
ARM GAS  /tmp/cc4wQWsB.s 			page 8


 403 02e4 A4707D3F 		.word	1065185444
 404 02e8 00D7233C 		.word	1008981760
 405 02ec 00000000 		.word	.LANCHOR3
 406 02f0 00000000 		.word	.LANCHOR4
 407 02f4 00000000 		.word	.LANCHOR5
 408 02f8 FCA9F1D2 		.word	-755914244
 409 02fc 4D62503F 		.word	1062232653
 410 0300 00000000 		.word	.LANCHOR6
 411 0304 00004041 		.word	1094713344
 412 0308 E0FCFFFF 		.word	-800
 414              		.section	.text.HAL_TIM_PeriodElapsedCallback,"ax",%progbits
 415              		.align	1
 416              		.global	HAL_TIM_PeriodElapsedCallback
 417              		.syntax unified
 418              		.code	16
 419              		.thumb_func
 420              		.fpu softvfp
 422              	HAL_TIM_PeriodElapsedCallback:
 423              		@ args = 0, pretend = 0, frame = 0
 424              		@ frame_needed = 0, uses_anonymous_args = 0
 425 0000 084B     		ldr	r3, .L50
 426 0002 10B5     		push	{r4, lr}
 427 0004 1A68     		ldr	r2, [r3]
 428 0006 002A     		cmp	r2, #0
 429 0008 0BD0     		beq	.L45
 430 000a 0022     		movs	r2, #0
 431 000c 1A60     		str	r2, [r3]
 432 000e 8022     		movs	r2, #128
 433 0010 054C     		ldr	r4, .L50+4
 434 0012 0649     		ldr	r1, .L50+8
 435 0014 2000     		movs	r0, r4
 436 0016 9200     		lsls	r2, r2, #2
 437 0018 FFF7FEFF 		bl	USBD_CDC_SetTxBuffer
 438 001c 2000     		movs	r0, r4
 439 001e FFF7FEFF 		bl	USBD_CDC_TransmitPacket
 440              	.L45:
 441              		@ sp needed
 442 0022 10BD     		pop	{r4, pc}
 443              	.L51:
 444              		.align	2
 445              	.L50:
 446 0024 00000000 		.word	.LANCHOR7
 447 0028 00000000 		.word	USBD_Device
 448 002c 00000000 		.word	UserTxBuffer
 450              		.global	__aeabi_f2uiz
 451              		.section	.rodata.USB_printfloat.str1.1,"aMS",%progbits,1
 452              	.LC13:
 453 0000 25642E25 		.ascii	"%d.%d \015\012\000"
 453      64200D0A 
 453      00
 454              		.section	.text.USB_printfloat,"ax",%progbits
 455              		.align	1
 456              		.global	USB_printfloat
 457              		.syntax unified
 458              		.code	16
 459              		.thumb_func
 460              		.fpu softvfp
ARM GAS  /tmp/cc4wQWsB.s 			page 9


 462              	USB_printfloat:
 463              		@ args = 0, pretend = 0, frame = 0
 464              		@ frame_needed = 0, uses_anonymous_args = 0
 465 0000 8022     		movs	r2, #128
 466 0002 70B5     		push	{r4, r5, r6, lr}
 467 0004 104E     		ldr	r6, .L53
 468 0006 9200     		lsls	r2, r2, #2
 469 0008 051C     		adds	r5, r0, #0
 470 000a 0021     		movs	r1, #0
 471              		@ sp needed
 472 000c 3000     		movs	r0, r6
 473 000e FFF7FEFF 		bl	memset
 474 0012 281C     		adds	r0, r5, #0
 475 0014 FFF7FEFF 		bl	__aeabi_f2uiz
 476 0018 84B2     		uxth	r4, r0
 477 001a 2000     		movs	r0, r4
 478 001c FFF7FEFF 		bl	__aeabi_i2f
 479 0020 011C     		adds	r1, r0, #0
 480 0022 281C     		adds	r0, r5, #0
 481 0024 FFF7FEFF 		bl	__aeabi_fsub
 482 0028 0849     		ldr	r1, .L53+4
 483 002a FFF7FEFF 		bl	__aeabi_fmul
 484 002e FFF7FEFF 		bl	__aeabi_f2uiz
 485 0032 2200     		movs	r2, r4
 486 0034 83B2     		uxth	r3, r0
 487 0036 0649     		ldr	r1, .L53+8
 488 0038 3000     		movs	r0, r6
 489 003a FFF7FEFF 		bl	sprintf
 490 003e 0122     		movs	r2, #1
 491 0040 044B     		ldr	r3, .L53+12
 492 0042 1A60     		str	r2, [r3]
 493 0044 70BD     		pop	{r4, r5, r6, pc}
 494              	.L54:
 495 0046 C046     		.align	2
 496              	.L53:
 497 0048 00000000 		.word	UserTxBuffer
 498 004c 00002041 		.word	1092616192
 499 0050 00000000 		.word	.LC13
 500 0054 00000000 		.word	.LANCHOR7
 502              		.section	.text.disp_on,"ax",%progbits
 503              		.align	1
 504              		.global	disp_on
 505              		.syntax unified
 506              		.code	16
 507              		.thumb_func
 508              		.fpu softvfp
 510              	disp_on:
 511              		@ args = 0, pretend = 0, frame = 8
 512              		@ frame_needed = 0, uses_anonymous_args = 0
 513 0000 1FB5     		push	{r0, r1, r2, r3, r4, lr}
 514 0002 064B     		ldr	r3, .L56
 515 0004 03AA     		add	r2, sp, #12
 516 0006 1380     		strh	r3, [r2]
 517 0008 FA23     		movs	r3, #250
 518 000a 9B00     		lsls	r3, r3, #2
 519 000c 0093     		str	r3, [sp]
 520 000e 7821     		movs	r1, #120
ARM GAS  /tmp/cc4wQWsB.s 			page 10


 521 0010 0223     		movs	r3, #2
 522 0012 0348     		ldr	r0, .L56+4
 523 0014 FFF7FEFF 		bl	HAL_I2C_Master_Transmit
 524 0018 05B0     		add	sp, sp, #20
 525              		@ sp needed
 526 001a 00BD     		pop	{pc}
 527              	.L57:
 528              		.align	2
 529              	.L56:
 530 001c 80AFFFFF 		.word	-20608
 531 0020 00000000 		.word	.LANCHOR8
 533              		.section	.text.disp_off,"ax",%progbits
 534              		.align	1
 535              		.global	disp_off
 536              		.syntax unified
 537              		.code	16
 538              		.thumb_func
 539              		.fpu softvfp
 541              	disp_off:
 542              		@ args = 0, pretend = 0, frame = 8
 543              		@ frame_needed = 0, uses_anonymous_args = 0
 544 0000 1FB5     		push	{r0, r1, r2, r3, r4, lr}
 545 0002 064B     		ldr	r3, .L59
 546 0004 03AA     		add	r2, sp, #12
 547 0006 1380     		strh	r3, [r2]
 548 0008 FA23     		movs	r3, #250
 549 000a 9B00     		lsls	r3, r3, #2
 550 000c 0093     		str	r3, [sp]
 551 000e 7821     		movs	r1, #120
 552 0010 0223     		movs	r3, #2
 553 0012 0348     		ldr	r0, .L59+4
 554 0014 FFF7FEFF 		bl	HAL_I2C_Master_Transmit
 555 0018 05B0     		add	sp, sp, #20
 556              		@ sp needed
 557 001a 00BD     		pop	{pc}
 558              	.L60:
 559              		.align	2
 560              	.L59:
 561 001c 80AEFFFF 		.word	-20864
 562 0020 00000000 		.word	.LANCHOR8
 564              		.section	.text.refresh,"ax",%progbits
 565              		.align	1
 566              		.global	refresh
 567              		.syntax unified
 568              		.code	16
 569              		.thumb_func
 570              		.fpu softvfp
 572              	refresh:
 573              		@ args = 0, pretend = 0, frame = 0
 574              		@ frame_needed = 0, uses_anonymous_args = 0
 575 0000 FA23     		movs	r3, #250
 576 0002 07B5     		push	{r0, r1, r2, lr}
 577 0004 9B00     		lsls	r3, r3, #2
 578 0006 0093     		str	r3, [sp]
 579 0008 7821     		movs	r1, #120
 580              		@ sp needed
 581 000a D123     		movs	r3, #209
ARM GAS  /tmp/cc4wQWsB.s 			page 11


 582 000c 024A     		ldr	r2, .L62
 583 000e 0348     		ldr	r0, .L62+4
 584 0010 FFF7FEFF 		bl	HAL_I2C_Master_Transmit
 585 0014 07BD     		pop	{r0, r1, r2, pc}
 586              	.L63:
 587 0016 C046     		.align	2
 588              	.L62:
 589 0018 00000000 		.word	screenBuffer
 590 001c 00000000 		.word	.LANCHOR8
 592              		.section	.text.clear_screen,"ax",%progbits
 593              		.align	1
 594              		.global	clear_screen
 595              		.syntax unified
 596              		.code	16
 597              		.thumb_func
 598              		.fpu softvfp
 600              	clear_screen:
 601              		@ args = 0, pretend = 0, frame = 0
 602              		@ frame_needed = 0, uses_anonymous_args = 0
 603 0000 10B5     		push	{r4, lr}
 604 0002 C022     		movs	r2, #192
 605              		@ sp needed
 606 0004 0021     		movs	r1, #0
 607 0006 0248     		ldr	r0, .L65
 608 0008 FFF7FEFF 		bl	memset
 609 000c 10BD     		pop	{r4, pc}
 610              	.L66:
 611 000e C046     		.align	2
 612              	.L65:
 613 0010 11000000 		.word	screenBuffer+17
 615              		.section	.text.disp_init,"ax",%progbits
 616              		.align	1
 617              		.global	disp_init
 618              		.syntax unified
 619              		.code	16
 620              		.thumb_func
 621              		.fpu softvfp
 623              	disp_init:
 624              		@ args = 0, pretend = 0, frame = 0
 625              		@ frame_needed = 0, uses_anonymous_args = 0
 626 0000 07B5     		push	{r0, r1, r2, lr}
 627 0002 FFF7FEFF 		bl	disp_off
 628              		@ sp needed
 629 0006 1122     		movs	r2, #17
 630 0008 0A49     		ldr	r1, .L68
 631 000a 0B48     		ldr	r0, .L68+4
 632 000c FFF7FEFF 		bl	memcpy
 633 0010 FA23     		movs	r3, #250
 634 0012 9B00     		lsls	r3, r3, #2
 635 0014 7821     		movs	r1, #120
 636 0016 094A     		ldr	r2, .L68+8
 637 0018 0093     		str	r3, [sp]
 638 001a 0948     		ldr	r0, .L68+12
 639 001c 3023     		movs	r3, #48
 640 001e FFF7FEFF 		bl	HAL_I2C_Master_Transmit
 641 0022 FFF7FEFF 		bl	clear_screen
 642 0026 6420     		movs	r0, #100
ARM GAS  /tmp/cc4wQWsB.s 			page 12


 643 0028 FFF7FEFF 		bl	HAL_Delay
 644 002c FFF7FEFF 		bl	disp_on
 645 0030 07BD     		pop	{r0, r1, r2, pc}
 646              	.L69:
 647 0032 C046     		.align	2
 648              	.L68:
 649 0034 00000000 		.word	.LANCHOR9
 650 0038 00000000 		.word	screenBuffer
 651 003c 00000000 		.word	.LANCHOR10
 652 0040 00000000 		.word	.LANCHOR8
 654              		.section	.text.set_screen,"ax",%progbits
 655              		.align	1
 656              		.global	set_screen
 657              		.syntax unified
 658              		.code	16
 659              		.thumb_func
 660              		.fpu softvfp
 662              	set_screen:
 663              		@ args = 0, pretend = 0, frame = 0
 664              		@ frame_needed = 0, uses_anonymous_args = 0
 665 0000 10B5     		push	{r4, lr}
 666 0002 C022     		movs	r2, #192
 667              		@ sp needed
 668 0004 FF21     		movs	r1, #255
 669 0006 0248     		ldr	r0, .L71
 670 0008 FFF7FEFF 		bl	memset
 671 000c 10BD     		pop	{r4, pc}
 672              	.L72:
 673 000e C046     		.align	2
 674              	.L71:
 675 0010 11000000 		.word	screenBuffer+17
 677              		.section	.text.write_pixel,"ax",%progbits
 678              		.align	1
 679              		.global	write_pixel
 680              		.syntax unified
 681              		.code	16
 682              		.thumb_func
 683              		.fpu softvfp
 685              	write_pixel:
 686              		@ args = 0, pretend = 0, frame = 0
 687              		@ frame_needed = 0, uses_anonymous_args = 0
 688 0000 10B5     		push	{r4, lr}
 689 0002 5F28     		cmp	r0, #95
 690 0004 1BDC     		bgt	.L73
 691 0006 0F29     		cmp	r1, #15
 692 0008 19DC     		bgt	.L73
 693 000a 012A     		cmp	r2, #1
 694 000c 18D1     		bne	.L75
 695 000e 0723     		movs	r3, #7
 696 0010 CA17     		asrs	r2, r1, #31
 697 0012 1A40     		ands	r2, r3
 698 0014 5218     		adds	r2, r2, r1
 699 0016 5933     		adds	r3, r3, #89
 700 0018 D210     		asrs	r2, r2, #3
 701 001a 5A43     		muls	r2, r3
 702 001c 164B     		ldr	r3, .L78
 703 001e 1018     		adds	r0, r2, r0
ARM GAS  /tmp/cc4wQWsB.s 			page 13


 704 0020 1130     		adds	r0, r0, #17
 705 0022 164A     		ldr	r2, .L78+4
 706 0024 1940     		ands	r1, r3
 707 0026 04D5     		bpl	.L76
 708 0028 0823     		movs	r3, #8
 709 002a 0139     		subs	r1, r1, #1
 710 002c 5B42     		rsbs	r3, r3, #0
 711 002e 1943     		orrs	r1, r3
 712 0030 0131     		adds	r1, r1, #1
 713              	.L76:
 714 0032 0123     		movs	r3, #1
 715 0034 09B2     		sxth	r1, r1
 716 0036 8B40     		lsls	r3, r3, r1
 717 0038 115C     		ldrb	r1, [r2, r0]
 718 003a 0B43     		orrs	r3, r1
 719 003c 1354     		strb	r3, [r2, r0]
 720              	.L73:
 721              		@ sp needed
 722 003e 10BD     		pop	{r4, pc}
 723              	.L75:
 724 0040 002A     		cmp	r2, #0
 725 0042 FCD1     		bne	.L73
 726 0044 CB17     		asrs	r3, r1, #31
 727 0046 0732     		adds	r2, r2, #7
 728 0048 1340     		ands	r3, r2
 729 004a 5B18     		adds	r3, r3, r1
 730 004c DB10     		asrs	r3, r3, #3
 731 004e 5932     		adds	r2, r2, #89
 732 0050 5343     		muls	r3, r2
 733 0052 1818     		adds	r0, r3, r0
 734 0054 084B     		ldr	r3, .L78
 735 0056 094C     		ldr	r4, .L78+4
 736 0058 1130     		adds	r0, r0, #17
 737 005a 1940     		ands	r1, r3
 738 005c 04D5     		bpl	.L77
 739 005e 0823     		movs	r3, #8
 740 0060 0139     		subs	r1, r1, #1
 741 0062 5B42     		rsbs	r3, r3, #0
 742 0064 1943     		orrs	r1, r3
 743 0066 0131     		adds	r1, r1, #1
 744              	.L77:
 745 0068 0122     		movs	r2, #1
 746 006a 09B2     		sxth	r1, r1
 747 006c 8A40     		lsls	r2, r2, r1
 748 006e 235C     		ldrb	r3, [r4, r0]
 749 0070 9343     		bics	r3, r2
 750 0072 2354     		strb	r3, [r4, r0]
 751 0074 E3E7     		b	.L73
 752              	.L79:
 753 0076 C046     		.align	2
 754              	.L78:
 755 0078 07000080 		.word	-2147483641
 756 007c 00000000 		.word	screenBuffer
 758              		.section	.text.draw_v_line,"ax",%progbits
 759              		.align	1
 760              		.global	draw_v_line
 761              		.syntax unified
ARM GAS  /tmp/cc4wQWsB.s 			page 14


 762              		.code	16
 763              		.thumb_func
 764              		.fpu softvfp
 766              	draw_v_line:
 767              		@ args = 0, pretend = 0, frame = 8
 768              		@ frame_needed = 0, uses_anonymous_args = 0
 769 0000 F7B5     		push	{r0, r1, r2, r4, r5, r6, r7, lr}
 770 0002 0500     		movs	r5, r0
 771 0004 0F00     		movs	r7, r1
 772 0006 1E00     		movs	r6, r3
 773 0008 0024     		movs	r4, #0
 774 000a 0192     		str	r2, [sp, #4]
 775              	.L81:
 776 000c 3919     		adds	r1, r7, r4
 777 000e 3200     		movs	r2, r6
 778 0010 2800     		movs	r0, r5
 779 0012 09B2     		sxth	r1, r1
 780 0014 FFF7FEFF 		bl	write_pixel
 781 0018 019B     		ldr	r3, [sp, #4]
 782 001a 0134     		adds	r4, r4, #1
 783 001c A342     		cmp	r3, r4
 784 001e F5DA     		bge	.L81
 785              		@ sp needed
 786 0020 F7BD     		pop	{r0, r1, r2, r4, r5, r6, r7, pc}
 788              		.section	.text.draw_char,"ax",%progbits
 789              		.align	1
 790              		.global	draw_char
 791              		.syntax unified
 792              		.code	16
 793              		.thumb_func
 794              		.fpu softvfp
 796              	draw_char:
 797              		@ args = 0, pretend = 0, frame = 16
 798              		@ frame_needed = 0, uses_anonymous_args = 0
 799 0000 F0B5     		push	{r4, r5, r6, r7, lr}
 800 0002 85B0     		sub	sp, sp, #20
 801 0004 0300     		movs	r3, r0
 802 0006 0392     		str	r2, [sp, #12]
 803 0008 6022     		movs	r2, #96
 804 000a 0291     		str	r1, [sp, #8]
 805 000c 1340     		ands	r3, r2
 806 000e 1042     		tst	r0, r2
 807 0010 03D0     		beq	.L84
 808 0012 7F23     		movs	r3, #127
 809 0014 1840     		ands	r0, r3
 810 0016 2038     		subs	r0, r0, #32
 811 0018 C3B2     		uxtb	r3, r0
 812              	.L84:
 813 001a 0620     		movs	r0, #6
 814 001c 0024     		movs	r4, #0
 815 001e 0127     		movs	r7, #1
 816 0020 5843     		muls	r0, r3
 817 0022 0E4B     		ldr	r3, .L94
 818 0024 C318     		adds	r3, r0, r3
 819 0026 0193     		str	r3, [sp, #4]
 820              	.L85:
 821 0028 0025     		movs	r5, #0
ARM GAS  /tmp/cc4wQWsB.s 			page 15


 822 002a 029B     		ldr	r3, [sp, #8]
 823 002c E618     		adds	r6, r4, r3
 824 002e 36B2     		sxth	r6, r6
 825              	.L88:
 826 0030 039B     		ldr	r3, [sp, #12]
 827 0032 E918     		adds	r1, r5, r3
 828 0034 019B     		ldr	r3, [sp, #4]
 829 0036 09B2     		sxth	r1, r1
 830 0038 1B5D     		ldrb	r3, [r3, r4]
 831 003a 2B41     		asrs	r3, r3, r5
 832 003c 1A00     		movs	r2, r3
 833 003e 3A40     		ands	r2, r7
 834 0040 3B42     		tst	r3, r7
 835 0042 00D0     		beq	.L86
 836 0044 3A00     		movs	r2, r7
 837              	.L86:
 838 0046 3000     		movs	r0, r6
 839 0048 0135     		adds	r5, r5, #1
 840 004a FFF7FEFF 		bl	write_pixel
 841 004e 082D     		cmp	r5, #8
 842 0050 EED1     		bne	.L88
 843 0052 0134     		adds	r4, r4, #1
 844 0054 062C     		cmp	r4, #6
 845 0056 E7D1     		bne	.L85
 846 0058 05B0     		add	sp, sp, #20
 847              		@ sp needed
 848 005a F0BD     		pop	{r4, r5, r6, r7, pc}
 849              	.L95:
 850              		.align	2
 851              	.L94:
 852 005c 00000000 		.word	font
 854              		.section	.text.draw_string,"ax",%progbits
 855              		.align	1
 856              		.global	draw_string
 857              		.syntax unified
 858              		.code	16
 859              		.thumb_func
 860              		.fpu softvfp
 862              	draw_string:
 863              		@ args = 0, pretend = 0, frame = 0
 864              		@ frame_needed = 0, uses_anonymous_args = 0
 865 0000 F8B5     		push	{r3, r4, r5, r6, r7, lr}
 866 0002 0500     		movs	r5, r0
 867 0004 0C00     		movs	r4, r1
 868 0006 1600     		movs	r6, r2
 869 0008 1F00     		movs	r7, r3
 870              	.L97:
 871 000a 2878     		ldrb	r0, [r5]
 872 000c 0028     		cmp	r0, #0
 873 000e 00D1     		bne	.L98
 874              		@ sp needed
 875 0010 F8BD     		pop	{r3, r4, r5, r6, r7, pc}
 876              	.L98:
 877 0012 2100     		movs	r1, r4
 878 0014 3B00     		movs	r3, r7
 879 0016 3200     		movs	r2, r6
 880 0018 0634     		adds	r4, r4, #6
ARM GAS  /tmp/cc4wQWsB.s 			page 16


 881 001a FFF7FEFF 		bl	draw_char
 882 001e 0135     		adds	r5, r5, #1
 883 0020 E4B2     		uxtb	r4, r4
 884 0022 F2E7     		b	.L97
 886              		.section	.text.SystemClock_Config,"ax",%progbits
 887              		.align	1
 888              		.global	SystemClock_Config
 889              		.syntax unified
 890              		.code	16
 891              		.thumb_func
 892              		.fpu softvfp
 894              	SystemClock_Config:
 895              		@ args = 0, pretend = 0, frame = 96
 896              		@ frame_needed = 0, uses_anonymous_args = 0
 897 0000 30B5     		push	{r4, r5, lr}
 898 0002 1025     		movs	r5, #16
 899 0004 99B0     		sub	sp, sp, #100
 900 0006 2C22     		movs	r2, #44
 901 0008 0021     		movs	r1, #0
 902 000a 0CA8     		add	r0, sp, #48
 903 000c FFF7FEFF 		bl	memset
 904 0010 2A00     		movs	r2, r5
 905 0012 0021     		movs	r1, #0
 906 0014 6846     		mov	r0, sp
 907 0016 FFF7FEFF 		bl	memset
 908 001a 1C22     		movs	r2, #28
 909 001c 0021     		movs	r1, #0
 910 001e 04A8     		add	r0, sp, #16
 911 0020 FFF7FEFF 		bl	memset
 912 0024 3223     		movs	r3, #50
 913 0026 0B93     		str	r3, [sp, #44]
 914 0028 C023     		movs	r3, #192
 915 002a 0124     		movs	r4, #1
 916 002c 0F95     		str	r5, [sp, #60]
 917 002e 1195     		str	r5, [sp, #68]
 918 0030 5B02     		lsls	r3, r3, #9
 919 0032 0E3D     		subs	r5, r5, #14
 920 0034 0BA8     		add	r0, sp, #44
 921 0036 1495     		str	r5, [sp, #80]
 922 0038 1593     		str	r3, [sp, #84]
 923 003a 0E94     		str	r4, [sp, #56]
 924 003c 1394     		str	r4, [sp, #76]
 925 003e 1094     		str	r4, [sp, #64]
 926 0040 1794     		str	r4, [sp, #92]
 927 0042 FFF7FEFF 		bl	HAL_RCC_OscConfig
 928 0046 0723     		movs	r3, #7
 929 0048 0195     		str	r5, [sp, #4]
 930 004a 0025     		movs	r5, #0
 931 004c 2100     		movs	r1, r4
 932 004e 6846     		mov	r0, sp
 933 0050 0093     		str	r3, [sp]
 934 0052 0295     		str	r5, [sp, #8]
 935 0054 0395     		str	r5, [sp, #12]
 936 0056 FFF7FEFF 		bl	HAL_RCC_ClockConfig
 937 005a 044B     		ldr	r3, .L100
 938 005c 04A8     		add	r0, sp, #16
 939 005e 0493     		str	r3, [sp, #16]
ARM GAS  /tmp/cc4wQWsB.s 			page 17


 940 0060 0895     		str	r5, [sp, #32]
 941 0062 0A95     		str	r5, [sp, #40]
 942 0064 FFF7FEFF 		bl	HAL_RCCEx_PeriphCLKConfig
 943 0068 19B0     		add	sp, sp, #100
 944              		@ sp needed
 945 006a 30BD     		pop	{r4, r5, pc}
 946              	.L101:
 947              		.align	2
 948              	.L100:
 949 006c 20000200 		.word	131104
 951              		.section	.rodata.main.str1.1,"aMS",%progbits,1
 952              	.LC28:
 953 0000 41646A75 		.ascii	"Adjust\000"
 953      737400
 954              	.LC30:
 955 0007 50726F66 		.ascii	"Profile\000"
 955      696C6500 
 956              	.LC32:
 957 000f 21414354 		.ascii	"!ACTV\000"
 957      5600
 958              	.LC34:
 959 0015 21505752 		.ascii	"!PWRD\000"
 959      4400
 960              	.LC45:
 961 001b 50442025 		.ascii	"PD %s %1d\000"
 961      73202531 
 961      6400
 962              	.LC47:
 963 0025 2531642E 		.ascii	"%1d.%1d A %2d W\000"
 963      25316420 
 963      41202532 
 963      64205700 
 964              		.global	__aeabi_d2uiz
 965              	.LC49:
 966 0035 55534220 		.ascii	"USB !USB-PD\000"
 966      21555342 
 966      2D504400 
 967              	.LC51:
 968 0041 49726F6E 		.ascii	"Iron Disabled\000"
 968      20446973 
 968      61626C65 
 968      6400
 969              	.LC57:
 970 004f 25642043 		.ascii	"%d C   \000"
 970      20202000 
 971              	.LC59:
 972 0057 25642E25 		.ascii	"%d.%d C\000"
 972      64204300 
 973              	.LC61:
 974 005f 25642E25 		.ascii	"%d.%d V\000"
 974      64205600 
 975              	.LC63:
 976 0067 25642E25 		.ascii	"%d.%d A\000"
 976      64204100 
 977              		.section	.text.startup.main,"ax",%progbits
 978              		.align	1
 979              		.global	main
ARM GAS  /tmp/cc4wQWsB.s 			page 18


 980              		.syntax unified
 981              		.code	16
 982              		.thumb_func
 983              		.fpu softvfp
 985              	main:
 986              		@ args = 0, pretend = 0, frame = 128
 987              		@ frame_needed = 0, uses_anonymous_args = 0
 988 0000 F0B5     		push	{r4, r5, r6, r7, lr}
 989 0002 A3B0     		sub	sp, sp, #140
 990 0004 FFF7FEFF 		bl	HAL_Init
 991 0008 FFF7FEFF 		bl	SystemClock_Config
 992 000c 1022     		movs	r2, #16
 993 000e 0021     		movs	r1, #0
 994 0010 1CA8     		add	r0, sp, #112
 995 0012 FFF7FEFF 		bl	memset
 996 0016 8021     		movs	r1, #128
 997 0018 C84D     		ldr	r5, .L144
 998 001a 8902     		lsls	r1, r1, #10
 999 001c 6A69     		ldr	r2, [r5, #20]
 1000 001e 9020     		movs	r0, #144
 1001 0020 0A43     		orrs	r2, r1
 1002 0022 6A61     		str	r2, [r5, #20]
 1003 0024 6B69     		ldr	r3, [r5, #20]
 1004 0026 0226     		movs	r6, #2
 1005 0028 0B40     		ands	r3, r1
 1006 002a 8021     		movs	r1, #128
 1007 002c 0993     		str	r3, [sp, #36]
 1008 002e 099B     		ldr	r3, [sp, #36]
 1009 0030 6A69     		ldr	r2, [r5, #20]
 1010 0032 C902     		lsls	r1, r1, #11
 1011 0034 0A43     		orrs	r2, r1
 1012 0036 6A61     		str	r2, [r5, #20]
 1013 0038 6B69     		ldr	r3, [r5, #20]
 1014 003a C005     		lsls	r0, r0, #23
 1015 003c 0B40     		ands	r3, r1
 1016 003e 8021     		movs	r1, #128
 1017 0040 0A93     		str	r3, [sp, #40]
 1018 0042 0A9B     		ldr	r3, [sp, #40]
 1019 0044 6A69     		ldr	r2, [r5, #20]
 1020 0046 0903     		lsls	r1, r1, #12
 1021 0048 0A43     		orrs	r2, r1
 1022 004a 6A61     		str	r2, [r5, #20]
 1023 004c 6B69     		ldr	r3, [r5, #20]
 1024 004e 1D96     		str	r6, [sp, #116]
 1025 0050 0B40     		ands	r3, r1
 1026 0052 0B93     		str	r3, [sp, #44]
 1027 0054 0B9B     		ldr	r3, [sp, #44]
 1028 0056 1823     		movs	r3, #24
 1029 0058 1BA9     		add	r1, sp, #108
 1030 005a 1B93     		str	r3, [sp, #108]
 1031 005c FFF7FEFF 		bl	HAL_GPIO_Init
 1032 0060 8023     		movs	r3, #128
 1033 0062 0024     		movs	r4, #0
 1034 0064 9B01     		lsls	r3, r3, #6
 1035 0066 B648     		ldr	r0, .L144+4
 1036 0068 1BA9     		add	r1, sp, #108
 1037 006a 1B93     		str	r3, [sp, #108]
ARM GAS  /tmp/cc4wQWsB.s 			page 19


 1038 006c 1D96     		str	r6, [sp, #116]
 1039 006e 1C94     		str	r4, [sp, #112]
 1040 0070 FFF7FEFF 		bl	HAL_GPIO_Init
 1041 0074 8023     		movs	r3, #128
 1042 0076 0127     		movs	r7, #1
 1043 0078 5B01     		lsls	r3, r3, #5
 1044 007a B248     		ldr	r0, .L144+8
 1045 007c 1BA9     		add	r1, sp, #108
 1046 007e 1B93     		str	r3, [sp, #108]
 1047 0080 1C94     		str	r4, [sp, #112]
 1048 0082 1D94     		str	r4, [sp, #116]
 1049 0084 FFF7FEFF 		bl	HAL_GPIO_Init
 1050 0088 6B69     		ldr	r3, [r5, #20]
 1051 008a 2200     		movs	r2, r4
 1052 008c 3B43     		orrs	r3, r7
 1053 008e 6B61     		str	r3, [r5, #20]
 1054 0090 6B69     		ldr	r3, [r5, #20]
 1055 0092 2100     		movs	r1, r4
 1056 0094 3B40     		ands	r3, r7
 1057 0096 0920     		movs	r0, #9
 1058 0098 0893     		str	r3, [sp, #32]
 1059 009a 089B     		ldr	r3, [sp, #32]
 1060 009c FFF7FEFF 		bl	HAL_NVIC_SetPriority
 1061 00a0 0920     		movs	r0, #9
 1062 00a2 FFF7FEFF 		bl	HAL_NVIC_EnableIRQ
 1063 00a6 2200     		movs	r2, r4
 1064 00a8 2100     		movs	r1, r4
 1065 00aa 1020     		movs	r0, #16
 1066 00ac FFF7FEFF 		bl	HAL_NVIC_SetPriority
 1067 00b0 1020     		movs	r0, #16
 1068 00b2 FFF7FEFF 		bl	HAL_NVIC_EnableIRQ
 1069 00b6 8021     		movs	r1, #128
 1070 00b8 6B69     		ldr	r3, [r5, #20]
 1071 00ba 8900     		lsls	r1, r1, #2
 1072 00bc 3B43     		orrs	r3, r7
 1073 00be 6B61     		str	r3, [r5, #20]
 1074 00c0 6B69     		ldr	r3, [r5, #20]
 1075 00c2 1BA8     		add	r0, sp, #108
 1076 00c4 3B40     		ands	r3, r7
 1077 00c6 0693     		str	r3, [sp, #24]
 1078 00c8 069B     		ldr	r3, [sp, #24]
 1079 00ca AA69     		ldr	r2, [r5, #24]
 1080 00cc 0A43     		orrs	r2, r1
 1081 00ce AA61     		str	r2, [r5, #24]
 1082 00d0 AB69     		ldr	r3, [r5, #24]
 1083 00d2 0C22     		movs	r2, #12
 1084 00d4 0B40     		ands	r3, r1
 1085 00d6 0793     		str	r3, [sp, #28]
 1086 00d8 2100     		movs	r1, r4
 1087 00da 079B     		ldr	r3, [sp, #28]
 1088 00dc FFF7FEFF 		bl	memset
 1089 00e0 994E     		ldr	r6, .L144+12
 1090 00e2 9A4B     		ldr	r3, .L144+16
 1091 00e4 0820     		movs	r0, #8
 1092 00e6 3360     		str	r3, [r6]
 1093 00e8 4023     		movs	r3, #64
 1094 00ea B362     		str	r3, [r6, #40]
ARM GAS  /tmp/cc4wQWsB.s 			page 20


 1095 00ec 8023     		movs	r3, #128
 1096 00ee 7061     		str	r0, [r6, #20]
 1097 00f0 DB00     		lsls	r3, r3, #3
 1098 00f2 3000     		movs	r0, r6
 1099 00f4 3761     		str	r7, [r6, #16]
 1100 00f6 F362     		str	r3, [r6, #44]
 1101 00f8 3763     		str	r7, [r6, #48]
 1102 00fa 7763     		str	r7, [r6, #52]
 1103 00fc 7460     		str	r4, [r6, #4]
 1104 00fe B460     		str	r4, [r6, #8]
 1105 0100 F460     		str	r4, [r6, #12]
 1106 0102 B461     		str	r4, [r6, #24]
 1107 0104 F461     		str	r4, [r6, #28]
 1108 0106 3462     		str	r4, [r6, #32]
 1109 0108 7462     		str	r4, [r6, #36]
 1110 010a FFF7FEFF 		bl	HAL_ADC_Init
 1111 010e 0620     		movs	r0, #6
 1112 0110 8023     		movs	r3, #128
 1113 0112 1D90     		str	r0, [sp, #116]
 1114 0114 5B01     		lsls	r3, r3, #5
 1115 0116 1BA9     		add	r1, sp, #108
 1116 0118 3000     		movs	r0, r6
 1117 011a 1C93     		str	r3, [sp, #112]
 1118 011c 1B94     		str	r4, [sp, #108]
 1119 011e FFF7FEFF 		bl	HAL_ADC_ConfigChannel
 1120 0122 1BA9     		add	r1, sp, #108
 1121 0124 3000     		movs	r0, r6
 1122 0126 1B97     		str	r7, [sp, #108]
 1123 0128 FFF7FEFF 		bl	HAL_ADC_ConfigChannel
 1124 012c 0222     		movs	r2, #2
 1125 012e 1BA9     		add	r1, sp, #108
 1126 0130 3000     		movs	r0, r6
 1127 0132 1B92     		str	r2, [sp, #108]
 1128 0134 FFF7FEFF 		bl	HAL_ADC_ConfigChannel
 1129 0138 0523     		movs	r3, #5
 1130 013a 1BA9     		add	r1, sp, #108
 1131 013c 3000     		movs	r0, r6
 1132 013e 1B93     		str	r3, [sp, #108]
 1133 0140 FFF7FEFF 		bl	HAL_ADC_ConfigChannel
 1134 0144 3000     		movs	r0, r6
 1135 0146 FFF7FEFF 		bl	HAL_ADC_MspInit
 1136 014a 814F     		ldr	r7, .L144+20
 1137 014c 814B     		ldr	r3, .L144+24
 1138 014e 3800     		movs	r0, r7
 1139 0150 3B60     		str	r3, [r7]
 1140 0152 814B     		ldr	r3, .L144+28
 1141 0154 BC60     		str	r4, [r7, #8]
 1142 0156 7B60     		str	r3, [r7, #4]
 1143 0158 0123     		movs	r3, #1
 1144 015a 3C61     		str	r4, [r7, #16]
 1145 015c FB60     		str	r3, [r7, #12]
 1146 015e 7C61     		str	r4, [r7, #20]
 1147 0160 BC61     		str	r4, [r7, #24]
 1148 0162 FC61     		str	r4, [r7, #28]
 1149 0164 3C62     		str	r4, [r7, #32]
 1150 0166 FFF7FEFF 		bl	HAL_I2C_Init
 1151 016a 2100     		movs	r1, r4
ARM GAS  /tmp/cc4wQWsB.s 			page 21


 1152 016c 3800     		movs	r0, r7
 1153 016e FFF7FEFF 		bl	HAL_I2CEx_ConfigAnalogFilter
 1154 0172 2100     		movs	r1, r4
 1155 0174 3800     		movs	r0, r7
 1156 0176 FFF7FEFF 		bl	HAL_I2CEx_ConfigDigitalFilter
 1157 017a 8021     		movs	r1, #128
 1158 017c AA69     		ldr	r2, [r5, #24]
 1159 017e 0901     		lsls	r1, r1, #4
 1160 0180 0A43     		orrs	r2, r1
 1161 0182 AA61     		str	r2, [r5, #24]
 1162 0184 AB69     		ldr	r3, [r5, #24]
 1163 0186 10AF     		add	r7, sp, #64
 1164 0188 0B40     		ands	r3, r1
 1165 018a 1022     		movs	r2, #16
 1166 018c 2100     		movs	r1, r4
 1167 018e 3800     		movs	r0, r7
 1168 0190 0593     		str	r3, [sp, #20]
 1169 0192 0CAF     		add	r7, sp, #48
 1170 0194 059B     		ldr	r3, [sp, #20]
 1171 0196 FFF7FEFF 		bl	memset
 1172 019a 0822     		movs	r2, #8
 1173 019c 2100     		movs	r1, r4
 1174 019e 3800     		movs	r0, r7
 1175 01a0 14AF     		add	r7, sp, #80
 1176 01a2 FFF7FEFF 		bl	memset
 1177 01a6 1C22     		movs	r2, #28
 1178 01a8 2100     		movs	r1, r4
 1179 01aa 3800     		movs	r0, r7
 1180 01ac 1BAF     		add	r7, sp, #108
 1181 01ae FFF7FEFF 		bl	memset
 1182 01b2 1C22     		movs	r2, #28
 1183 01b4 2100     		movs	r1, r4
 1184 01b6 3800     		movs	r0, r7
 1185 01b8 FFF7FEFF 		bl	memset
 1186 01bc 674F     		ldr	r7, .L144+32
 1187 01be 684B     		ldr	r3, .L144+36
 1188 01c0 0620     		movs	r0, #6
 1189 01c2 3B60     		str	r3, [r7]
 1190 01c4 8023     		movs	r3, #128
 1191 01c6 5B01     		lsls	r3, r3, #5
 1192 01c8 FB60     		str	r3, [r7, #12]
 1193 01ca 8023     		movs	r3, #128
 1194 01cc 7860     		str	r0, [r7, #4]
 1195 01ce 3800     		movs	r0, r7
 1196 01d0 BB61     		str	r3, [r7, #24]
 1197 01d2 BC60     		str	r4, [r7, #8]
 1198 01d4 3C61     		str	r4, [r7, #16]
 1199 01d6 7C61     		str	r4, [r7, #20]
 1200 01d8 FFF7FEFF 		bl	HAL_TIM_Base_Init
 1201 01dc 8023     		movs	r3, #128
 1202 01de 10A9     		add	r1, sp, #64
 1203 01e0 5B01     		lsls	r3, r3, #5
 1204 01e2 3800     		movs	r0, r7
 1205 01e4 1093     		str	r3, [sp, #64]
 1206 01e6 FFF7FEFF 		bl	HAL_TIM_ConfigClockSource
 1207 01ea 3800     		movs	r0, r7
 1208 01ec FFF7FEFF 		bl	HAL_TIM_PWM_Init
ARM GAS  /tmp/cc4wQWsB.s 			page 22


 1209 01f0 3800     		movs	r0, r7
 1210 01f2 FFF7FEFF 		bl	HAL_TIM_OC_Init
 1211 01f6 0CA9     		add	r1, sp, #48
 1212 01f8 3800     		movs	r0, r7
 1213 01fa 0C94     		str	r4, [sp, #48]
 1214 01fc 0D94     		str	r4, [sp, #52]
 1215 01fe FFF7FEFF 		bl	HAL_TIMEx_MasterConfigSynchronization
 1216 0202 6023     		movs	r3, #96
 1217 0204 2200     		movs	r2, r4
 1218 0206 14A9     		add	r1, sp, #80
 1219 0208 3800     		movs	r0, r7
 1220 020a 1493     		str	r3, [sp, #80]
 1221 020c 1594     		str	r4, [sp, #84]
 1222 020e 1694     		str	r4, [sp, #88]
 1223 0210 1794     		str	r4, [sp, #92]
 1224 0212 1894     		str	r4, [sp, #96]
 1225 0214 1994     		str	r4, [sp, #100]
 1226 0216 1A94     		str	r4, [sp, #104]
 1227 0218 FFF7FEFF 		bl	HAL_TIM_PWM_ConfigChannel
 1228 021c 7023     		movs	r3, #112
 1229 021e 0C22     		movs	r2, #12
 1230 0220 1493     		str	r3, [sp, #80]
 1231 0222 14A9     		add	r1, sp, #80
 1232 0224 663B     		subs	r3, r3, #102
 1233 0226 3800     		movs	r0, r7
 1234 0228 1593     		str	r3, [sp, #84]
 1235 022a FFF7FEFF 		bl	HAL_TIM_OC_ConfigChannel
 1236 022e 8021     		movs	r1, #128
 1237 0230 8901     		lsls	r1, r1, #6
 1238 0232 2091     		str	r1, [sp, #128]
 1239 0234 3800     		movs	r0, r7
 1240 0236 1BA9     		add	r1, sp, #108
 1241 0238 1B94     		str	r4, [sp, #108]
 1242 023a 1C94     		str	r4, [sp, #112]
 1243 023c 1D94     		str	r4, [sp, #116]
 1244 023e 1E94     		str	r4, [sp, #120]
 1245 0240 1F94     		str	r4, [sp, #124]
 1246 0242 2194     		str	r4, [sp, #132]
 1247 0244 FFF7FEFF 		bl	HAL_TIMEx_ConfigBreakDeadTime
 1248 0248 3800     		movs	r0, r7
 1249 024a FFF7FEFF 		bl	HAL_TIM_MspPostInit
 1250 024e 0222     		movs	r2, #2
 1251 0250 EB69     		ldr	r3, [r5, #28]
 1252 0252 2100     		movs	r1, r4
 1253 0254 1343     		orrs	r3, r2
 1254 0256 EB61     		str	r3, [r5, #28]
 1255 0258 EB69     		ldr	r3, [r5, #28]
 1256 025a 1BA8     		add	r0, sp, #108
 1257 025c 1340     		ands	r3, r2
 1258 025e 0493     		str	r3, [sp, #16]
 1259 0260 0E32     		adds	r2, r2, #14
 1260 0262 049B     		ldr	r3, [sp, #16]
 1261 0264 FFF7FEFF 		bl	memset
 1262 0268 3E4D     		ldr	r5, .L144+40
 1263 026a 3F4B     		ldr	r3, .L144+44
 1264 026c 2800     		movs	r0, r5
 1265 026e 2B60     		str	r3, [r5]
ARM GAS  /tmp/cc4wQWsB.s 			page 23


 1266 0270 3E4B     		ldr	r3, .L144+48
 1267 0272 2C61     		str	r4, [r5, #16]
 1268 0274 EB60     		str	r3, [r5, #12]
 1269 0276 9023     		movs	r3, #144
 1270 0278 FF33     		adds	r3, r3, #255
 1271 027a 6B60     		str	r3, [r5, #4]
 1272 027c AC60     		str	r4, [r5, #8]
 1273 027e AC61     		str	r4, [r5, #24]
 1274 0280 FFF7FEFF 		bl	HAL_TIM_Base_Init
 1275 0284 8023     		movs	r3, #128
 1276 0286 1BA9     		add	r1, sp, #108
 1277 0288 5B01     		lsls	r3, r3, #5
 1278 028a 2800     		movs	r0, r5
 1279 028c 1B93     		str	r3, [sp, #108]
 1280 028e FFF7FEFF 		bl	HAL_TIM_ConfigClockSource
 1281 0292 FA22     		movs	r2, #250
 1282 0294 3649     		ldr	r1, .L144+52
 1283 0296 5200     		lsls	r2, r2, #1
 1284 0298 0120     		movs	r0, #1
 1285 029a FFF7FEFF 		bl	stusb_update_pdo
 1286 029e 354A     		ldr	r2, .L144+56
 1287 02a0 3549     		ldr	r1, .L144+60
 1288 02a2 0220     		movs	r0, #2
 1289 02a4 FFF7FEFF 		bl	stusb_update_pdo
 1290 02a8 FA22     		movs	r2, #250
 1291 02aa 3349     		ldr	r1, .L144+60
 1292 02ac 1201     		lsls	r2, r2, #4
 1293 02ae 0320     		movs	r0, #3
 1294 02b0 FFF7FEFF 		bl	stusb_update_pdo
 1295 02b4 0320     		movs	r0, #3
 1296 02b6 FFF7FEFF 		bl	stusb_set_valid_pdo
 1297 02ba C820     		movs	r0, #200
 1298 02bc 4000     		lsls	r0, r0, #1
 1299 02be FFF7FEFF 		bl	HAL_Delay
 1300 02c2 FFF7FEFF 		bl	disp_init
 1301 02c6 FFF7FEFF 		bl	clear_screen
 1302 02ca 2100     		movs	r1, r4
 1303 02cc 3800     		movs	r0, r7
 1304 02ce FFF7FEFF 		bl	HAL_TIM_PWM_Start
 1305 02d2 0C21     		movs	r1, #12
 1306 02d4 3800     		movs	r0, r7
 1307 02d6 FFF7FEFF 		bl	HAL_TIM_OC_Start
 1308 02da 2849     		ldr	r1, .L144+64
 1309 02dc 0422     		movs	r2, #4
 1310 02de 3000     		movs	r0, r6
 1311 02e0 FFF7FEFF 		bl	HAL_ADC_Start_DMA
 1312 02e4 9020     		movs	r0, #144
 1313 02e6 0821     		movs	r1, #8
 1314 02e8 C005     		lsls	r0, r0, #23
 1315 02ea FFF7FEFF 		bl	HAL_GPIO_ReadPin
 1316 02ee A042     		cmp	r0, r4
 1317 02f0 50D0     		beq	.L103
 1318 02f2 9020     		movs	r0, #144
 1319 02f4 1021     		movs	r1, #16
 1320 02f6 C005     		lsls	r0, r0, #23
 1321 02f8 FFF7FEFF 		bl	HAL_GPIO_ReadPin
 1322 02fc A042     		cmp	r0, r4
ARM GAS  /tmp/cc4wQWsB.s 			page 24


 1323 02fe 49D0     		beq	.L103
 1324 0300 0123     		movs	r3, #1
 1325 0302 1F4C     		ldr	r4, .L144+68
 1326 0304 1A00     		movs	r2, r3
 1327 0306 1900     		movs	r1, r3
 1328 0308 2068     		ldr	r0, [r4]
 1329 030a FFF7FEFF 		bl	draw_string
 1330 030e 0123     		movs	r3, #1
 1331 0310 0822     		movs	r2, #8
 1332 0312 1900     		movs	r1, r3
 1333 0314 2068     		ldr	r0, [r4]
 1334 0316 FFF7FEFF 		bl	draw_string
 1335 031a FFF7FEFF 		bl	refresh
 1336 031e 2820     		movs	r0, #40
 1337 0320 FFF7FEFF 		bl	HAL_Delay
 1338 0324 174B     		ldr	r3, .L144+72
 1339 0326 184A     		ldr	r2, .L144+76
 1340 0328 1A60     		str	r2, [r3]
 1341              		.syntax divided
 1342              	@ 429 "Drivers/CMSIS/Include/cmsis_gcc.h" 1
 1343 032a BFF34F8F 		dsb 0xF
 1344              	@ 0 "" 2
 1345              		.thumb
 1346              		.syntax unified
 1347 032e 174B     		ldr	r3, .L144+80
 1348 0330 174A     		ldr	r2, .L144+84
 1349 0332 DA60     		str	r2, [r3, #12]
 1350              		.syntax divided
 1351              	@ 429 "Drivers/CMSIS/Include/cmsis_gcc.h" 1
 1352 0334 BFF34F8F 		dsb 0xF
 1353              	@ 0 "" 2
 1354              		.thumb
 1355              		.syntax unified
 1356              	.L104:
 1357              		.syntax divided
 1358              	@ 375 "Drivers/CMSIS/Include/cmsis_gcc.h" 1
 1359 0338 C046     		nop
 1360              	@ 0 "" 2
 1361              		.thumb
 1362              		.syntax unified
 1363 033a FDE7     		b	.L104
 1364              	.L145:
 1365              		.align	2
 1366              	.L144:
 1367 033c 00100240 		.word	1073876992
 1368 0340 00080048 		.word	1207961600
 1369 0344 00040048 		.word	1207960576
 1370 0348 00000000 		.word	.LANCHOR11
 1371 034c 00240140 		.word	1073816576
 1372 0350 00000000 		.word	.LANCHOR8
 1373 0354 00540040 		.word	1073763328
 1374 0358 0B020000 		.word	523
 1375 035c 00000000 		.word	.LANCHOR3
 1376 0360 002C0140 		.word	1073818624
 1377 0364 00000000 		.word	.LANCHOR12
 1378 0368 00040040 		.word	1073742848
 1379 036c 0F270000 		.word	9999
ARM GAS  /tmp/cc4wQWsB.s 			page 25


 1380 0370 88130000 		.word	5000
 1381 0374 DC050000 		.word	1500
 1382 0378 204E0000 		.word	20000
 1383 037c 00000000 		.word	.LANCHOR1
 1384 0380 00000000 		.word	.LANCHOR13
 1385 0384 F03F0020 		.word	536887280
 1386 0388 EFBEADDE 		.word	-559038737
 1387 038c 00ED00E0 		.word	-536810240
 1388 0390 0400FA05 		.word	100270084
 1389              	.L103:
 1390 0394 0123     		movs	r3, #1
 1391 0396 F148     		ldr	r0, .L146
 1392 0398 1A00     		movs	r2, r3
 1393 039a 0F21     		movs	r1, #15
 1394 039c 0068     		ldr	r0, [r0]
 1395 039e FFF7FEFF 		bl	draw_string
 1396 03a2 EF48     		ldr	r0, .L146+4
 1397 03a4 0123     		movs	r3, #1
 1398 03a6 0922     		movs	r2, #9
 1399 03a8 0A21     		movs	r1, #10
 1400 03aa 0068     		ldr	r0, [r0]
 1401 03ac FFF7FEFF 		bl	draw_string
 1402 03b0 FFF7FEFF 		bl	refresh
 1403 03b4 FA20     		movs	r0, #250
 1404 03b6 4000     		lsls	r0, r0, #1
 1405 03b8 FFF7FEFF 		bl	HAL_Delay
 1406 03bc 1422     		movs	r2, #20
 1407 03be E94C     		ldr	r4, .L146+8
 1408 03c0 10A8     		add	r0, sp, #64
 1409 03c2 631D     		adds	r3, r4, #5
 1410 03c4 DA77     		strb	r2, [r3, #31]
 1411 03c6 FFF7FEFF 		bl	stusb_read_rdo
 1412 03ca E51D     		adds	r5, r4, #7
 1413 03cc 0023     		movs	r3, #0
 1414 03ce 0028     		cmp	r0, #0
 1415 03d0 0FD1     		bne	.L143
 1416 03d2 02AB     		add	r3, sp, #8
 1417 03d4 188F     		ldrh	r0, [r3, #56]
 1418 03d6 8005     		lsls	r0, r0, #22
 1419 03d8 800D     		lsrs	r0, r0, #22
 1420 03da FFF7FEFF 		bl	__aeabi_ui2f
 1421 03de E249     		ldr	r1, .L146+12
 1422 03e0 FFF7FEFF 		bl	__aeabi_fdiv
 1423 03e4 3B23     		movs	r3, #59
 1424 03e6 02AA     		add	r2, sp, #8
 1425 03e8 9B18     		adds	r3, r3, r2
 1426 03ea 1B78     		ldrb	r3, [r3]
 1427 03ec 6061     		str	r0, [r4, #20]
 1428 03ee 5B06     		lsls	r3, r3, #25
 1429 03f0 5B0F     		lsrs	r3, r3, #29
 1430              	.L143:
 1431 03f2 EB77     		strb	r3, [r5, #31]
 1432 03f4 0734     		adds	r4, r4, #7
 1433 03f6 E37F     		ldrb	r3, [r4, #31]
 1434 03f8 002B     		cmp	r3, #0
 1435 03fa 00D1     		bne	.LCB1450
 1436 03fc FEE1     		b	.L107	@long jump
ARM GAS  /tmp/cc4wQWsB.s 			page 26


 1437              	.LCB1450:
 1438 03fe DB4A     		ldr	r2, .L146+16
 1439 0400 032B     		cmp	r3, #3
 1440 0402 00D8     		bhi	.L108
 1441 0404 DA4A     		ldr	r2, .L146+20
 1442              	.L108:
 1443 0406 DB49     		ldr	r1, .L146+24
 1444 0408 14A8     		add	r0, sp, #80
 1445 040a FFF7FEFF 		bl	sprintf
 1446 040e D54E     		ldr	r6, .L146+8
 1447 0410 7569     		ldr	r5, [r6, #20]
 1448 0412 281C     		adds	r0, r5, #0
 1449 0414 FFF7FEFF 		bl	__aeabi_f2uiz
 1450 0418 84B2     		uxth	r4, r0
 1451 041a B068     		ldr	r0, [r6, #8]
 1452 041c FFF7FEFF 		bl	__aeabi_f2d
 1453 0420 FFF7FEFF 		bl	ceil
 1454 0424 0600     		movs	r6, r0
 1455 0426 2000     		movs	r0, r4
 1456 0428 0F00     		movs	r7, r1
 1457 042a FFF7FEFF 		bl	__aeabi_i2f
 1458 042e 011C     		adds	r1, r0, #0
 1459 0430 281C     		adds	r0, r5, #0
 1460 0432 FFF7FEFF 		bl	__aeabi_fsub
 1461 0436 D049     		ldr	r1, .L146+28
 1462 0438 FFF7FEFF 		bl	__aeabi_fmul
 1463 043c FFF7FEFF 		bl	__aeabi_f2uiz
 1464 0440 83B2     		uxth	r3, r0
 1465 0442 281C     		adds	r0, r5, #0
 1466 0444 0293     		str	r3, [sp, #8]
 1467 0446 FFF7FEFF 		bl	__aeabi_f2d
 1468 044a 3200     		movs	r2, r6
 1469 044c 3B00     		movs	r3, r7
 1470 044e FFF7FEFF 		bl	__aeabi_dmul
 1471 0452 FFF7FEFF 		bl	__aeabi_d2uiz
 1472 0456 80B2     		uxth	r0, r0
 1473 0458 0090     		str	r0, [sp]
 1474 045a 2200     		movs	r2, r4
 1475 045c 029B     		ldr	r3, [sp, #8]
 1476 045e C749     		ldr	r1, .L146+32
 1477 0460 1BA8     		add	r0, sp, #108
 1478 0462 FFF7FEFF 		bl	sprintf
 1479              	.L109:
 1480 0466 FFF7FEFF 		bl	clear_screen
 1481 046a 0123     		movs	r3, #1
 1482 046c 0A21     		movs	r1, #10
 1483 046e 1A00     		movs	r2, r3
 1484 0470 14A8     		add	r0, sp, #80
 1485 0472 FFF7FEFF 		bl	draw_string
 1486 0476 0123     		movs	r3, #1
 1487 0478 0922     		movs	r2, #9
 1488 047a 0A21     		movs	r1, #10
 1489 047c 1BA8     		add	r0, sp, #108
 1490 047e FFF7FEFF 		bl	draw_string
 1491 0482 FFF7FEFF 		bl	refresh
 1492 0486 FA20     		movs	r0, #250
 1493 0488 8000     		lsls	r0, r0, #2
ARM GAS  /tmp/cc4wQWsB.s 			page 27


 1494 048a FFF7FEFF 		bl	HAL_Delay
 1495 048e FA20     		movs	r0, #250
 1496 0490 8000     		lsls	r0, r0, #2
 1497 0492 FFF7FEFF 		bl	HAL_Delay
 1498 0496 BA48     		ldr	r0, .L146+36
 1499 0498 BA4B     		ldr	r3, .L146+40
 1500 049a 0360     		str	r3, [r0]
 1501 049c 0023     		movs	r3, #0
 1502 049e 4360     		str	r3, [r0, #4]
 1503 04a0 B94B     		ldr	r3, .L146+44
 1504 04a2 C360     		str	r3, [r0, #12]
 1505 04a4 8360     		str	r3, [r0, #8]
 1506 04a6 FFF7FEFF 		bl	HAL_IWDG_Init
 1507 04aa B84B     		ldr	r3, .L146+48
 1508 04ac B84C     		ldr	r4, .L146+52
 1509 04ae 1888     		ldrh	r0, [r3]
 1510 04b0 C823     		movs	r3, #200
 1511 04b2 5B00     		lsls	r3, r3, #1
 1512 04b4 9842     		cmp	r0, r3
 1513 04b6 00D3     		bcc	.LCB1532
 1514 04b8 A9E1     		b	.L110	@long jump
 1515              	.LCB1532:
 1516 04ba FFF7FEFF 		bl	__aeabi_ui2f
 1517 04be 2060     		str	r0, [r4]
 1518              	.L111:
 1519 04c0 0125     		movs	r5, #1
 1520              	.L126:
 1521 04c2 3220     		movs	r0, #50
 1522 04c4 FFF7FEFF 		bl	HAL_Delay
 1523 04c8 9020     		movs	r0, #144
 1524 04ca 0821     		movs	r1, #8
 1525 04cc C005     		lsls	r0, r0, #23
 1526 04ce FFF7FEFF 		bl	HAL_GPIO_ReadPin
 1527 04d2 A44C     		ldr	r4, .L146+8
 1528 04d4 1021     		movs	r1, #16
 1529 04d6 A077     		strb	r0, [r4, #30]
 1530 04d8 9020     		movs	r0, #144
 1531 04da C005     		lsls	r0, r0, #23
 1532 04dc FFF7FEFF 		bl	HAL_GPIO_ReadPin
 1533 04e0 8021     		movs	r1, #128
 1534 04e2 0600     		movs	r6, r0
 1535 04e4 8901     		lsls	r1, r1, #6
 1536 04e6 AB48     		ldr	r0, .L146+56
 1537 04e8 FFF7FEFF 		bl	HAL_GPIO_ReadPin
 1538 04ec 0643     		orrs	r6, r0
 1539 04ee F6B2     		uxtb	r6, r6
 1540 04f0 A74F     		ldr	r7, .L146+52
 1541 04f2 6677     		strb	r6, [r4, #29]
 1542 04f4 012E     		cmp	r6, #1
 1543 04f6 08D1     		bne	.L112
 1544 04f8 3868     		ldr	r0, [r7]
 1545 04fa A749     		ldr	r1, .L146+60
 1546 04fc FFF7FEFF 		bl	__aeabi_fsub
 1547 0500 3860     		str	r0, [r7]
 1548 0502 2820     		movs	r0, #40
 1549 0504 2677     		strb	r6, [r4, #28]
 1550 0506 FFF7FEFF 		bl	HAL_Delay
ARM GAS  /tmp/cc4wQWsB.s 			page 28


 1551              	.L112:
 1552 050a A67F     		ldrb	r6, [r4, #30]
 1553 050c 012E     		cmp	r6, #1
 1554 050e 08D1     		bne	.L113
 1555 0510 3868     		ldr	r0, [r7]
 1556 0512 A149     		ldr	r1, .L146+60
 1557 0514 FFF7FEFF 		bl	__aeabi_fadd
 1558 0518 3860     		str	r0, [r7]
 1559 051a 2820     		movs	r0, #40
 1560 051c 2677     		strb	r6, [r4, #28]
 1561 051e FFF7FEFF 		bl	HAL_Delay
 1562              	.L113:
 1563 0522 3E68     		ldr	r6, [r7]
 1564 0524 9D49     		ldr	r1, .L146+64
 1565 0526 301C     		adds	r0, r6, #0
 1566 0528 FFF7FEFF 		bl	__aeabi_fcmpgt
 1567 052c 0028     		cmp	r0, #0
 1568 052e 00D0     		beq	.LCB1598
 1569 0530 70E1     		b	.L128	@long jump
 1570              	.LCB1598:
 1571 0532 9B49     		ldr	r1, .L146+68
 1572 0534 301C     		adds	r0, r6, #0
 1573 0536 FFF7FEFF 		bl	__aeabi_fcmplt
 1574 053a 0028     		cmp	r0, #0
 1575 053c 00D0     		beq	.LCB1604
 1576 053e 6BE1     		b	.L129	@long jump
 1577              	.LCB1604:
 1578              	.L114:
 1579 0540 3E60     		str	r6, [r7]
 1580 0542 237F     		ldrb	r3, [r4, #28]
 1581 0544 012B     		cmp	r3, #1
 1582 0546 2BD1     		bne	.L115
 1583 0548 FFF7FEFF 		bl	HAL_FLASH_Unlock
 1584 054c 0222     		movs	r2, #2
 1585 054e 954B     		ldr	r3, .L146+72
 1586 0550 1969     		ldr	r1, [r3, #16]
 1587 0552 0A43     		orrs	r2, r1
 1588 0554 1A61     		str	r2, [r3, #16]
 1589 0556 8D4A     		ldr	r2, .L146+48
 1590 0558 5A61     		str	r2, [r3, #20]
 1591 055a 4022     		movs	r2, #64
 1592 055c 1969     		ldr	r1, [r3, #16]
 1593 055e 0A43     		orrs	r2, r1
 1594 0560 1A61     		str	r2, [r3, #16]
 1595              	.L116:
 1596 0562 DA68     		ldr	r2, [r3, #12]
 1597 0564 1600     		movs	r6, r2
 1598 0566 2E40     		ands	r6, r5
 1599 0568 2A42     		tst	r2, r5
 1600 056a FAD1     		bne	.L116
 1601 056c 2022     		movs	r2, #32
 1602 056e D968     		ldr	r1, [r3, #12]
 1603 0570 1142     		tst	r1, r2
 1604 0572 12D0     		beq	.L117
 1605 0574 D968     		ldr	r1, [r3, #12]
 1606 0576 3868     		ldr	r0, [r7]
 1607 0578 0A43     		orrs	r2, r1
ARM GAS  /tmp/cc4wQWsB.s 			page 29


 1608 057a 0221     		movs	r1, #2
 1609 057c DA60     		str	r2, [r3, #12]
 1610 057e 1A69     		ldr	r2, [r3, #16]
 1611 0580 8A43     		bics	r2, r1
 1612 0582 1A61     		str	r2, [r3, #16]
 1613 0584 FFF7FEFF 		bl	__aeabi_f2uiz
 1614 0588 3300     		movs	r3, r6
 1615 058a 82B2     		uxth	r2, r0
 1616 058c 7F49     		ldr	r1, .L146+48
 1617 058e 2800     		movs	r0, r5
 1618 0590 FFF7FEFF 		bl	HAL_FLASH_Program
 1619 0594 FFF7FEFF 		bl	HAL_FLASH_Lock
 1620 0598 2677     		strb	r6, [r4, #28]
 1621              	.L117:
 1622 059a 0C23     		movs	r3, #12
 1623 059c 0534     		adds	r4, r4, #5
 1624 059e E377     		strb	r3, [r4, #31]
 1625              	.L115:
 1626 05a0 814C     		ldr	r4, .L146+76
 1627 05a2 0B22     		movs	r2, #11
 1628 05a4 2100     		movs	r1, r4
 1629 05a6 0CA8     		add	r0, sp, #48
 1630 05a8 FFF7FEFF 		bl	memcpy
 1631 05ac 3320     		movs	r0, #51
 1632 05ae 02AB     		add	r3, sp, #8
 1633 05b0 C018     		adds	r0, r0, r3
 1634 05b2 0322     		movs	r2, #3
 1635 05b4 0021     		movs	r1, #0
 1636 05b6 FFF7FEFF 		bl	memset
 1637 05ba 2100     		movs	r1, r4
 1638 05bc 0B22     		movs	r2, #11
 1639 05be 10A8     		add	r0, sp, #64
 1640 05c0 FFF7FEFF 		bl	memcpy
 1641 05c4 4320     		movs	r0, #67
 1642 05c6 02AB     		add	r3, sp, #8
 1643 05c8 C018     		adds	r0, r0, r3
 1644 05ca 0322     		movs	r2, #3
 1645 05cc 0021     		movs	r1, #0
 1646 05ce FFF7FEFF 		bl	memset
 1647 05d2 2100     		movs	r1, r4
 1648 05d4 0B22     		movs	r2, #11
 1649 05d6 14A8     		add	r0, sp, #80
 1650 05d8 FFF7FEFF 		bl	memcpy
 1651 05dc 5320     		movs	r0, #83
 1652 05de 02AB     		add	r3, sp, #8
 1653 05e0 C018     		adds	r0, r0, r3
 1654 05e2 0322     		movs	r2, #3
 1655 05e4 0021     		movs	r1, #0
 1656 05e6 FFF7FEFF 		bl	memset
 1657 05ea 2100     		movs	r1, r4
 1658 05ec 0B22     		movs	r2, #11
 1659 05ee 1BA8     		add	r0, sp, #108
 1660 05f0 FFF7FEFF 		bl	memcpy
 1661 05f4 6F20     		movs	r0, #111
 1662 05f6 02AB     		add	r3, sp, #8
 1663 05f8 0322     		movs	r2, #3
 1664 05fa 0021     		movs	r1, #0
ARM GAS  /tmp/cc4wQWsB.s 			page 30


 1665 05fc C018     		adds	r0, r0, r3
 1666 05fe FFF7FEFF 		bl	memset
 1667 0602 634B     		ldr	r3, .L146+52
 1668 0604 1868     		ldr	r0, [r3]
 1669 0606 FFF7FEFF 		bl	__aeabi_f2uiz
 1670 060a 6849     		ldr	r1, .L146+80
 1671 060c 82B2     		uxth	r2, r0
 1672 060e 0CA8     		add	r0, sp, #48
 1673 0610 FFF7FEFF 		bl	sprintf
 1674 0614 534C     		ldr	r4, .L146+8
 1675 0616 6768     		ldr	r7, [r4, #4]
 1676 0618 381C     		adds	r0, r7, #0
 1677 061a FFF7FEFF 		bl	__aeabi_f2uiz
 1678 061e 86B2     		uxth	r6, r0
 1679 0620 3000     		movs	r0, r6
 1680 0622 FFF7FEFF 		bl	__aeabi_i2f
 1681 0626 011C     		adds	r1, r0, #0
 1682 0628 381C     		adds	r0, r7, #0
 1683 062a FFF7FEFF 		bl	__aeabi_fsub
 1684 062e 5249     		ldr	r1, .L146+28
 1685 0630 FFF7FEFF 		bl	__aeabi_fmul
 1686 0634 FFF7FEFF 		bl	__aeabi_f2uiz
 1687 0638 3200     		movs	r2, r6
 1688 063a 83B2     		uxth	r3, r0
 1689 063c 5C49     		ldr	r1, .L146+84
 1690 063e 10A8     		add	r0, sp, #64
 1691 0640 FFF7FEFF 		bl	sprintf
 1692 0644 A768     		ldr	r7, [r4, #8]
 1693 0646 381C     		adds	r0, r7, #0
 1694 0648 FFF7FEFF 		bl	__aeabi_f2uiz
 1695 064c 86B2     		uxth	r6, r0
 1696 064e 3000     		movs	r0, r6
 1697 0650 FFF7FEFF 		bl	__aeabi_i2f
 1698 0654 011C     		adds	r1, r0, #0
 1699 0656 381C     		adds	r0, r7, #0
 1700 0658 FFF7FEFF 		bl	__aeabi_fsub
 1701 065c 4649     		ldr	r1, .L146+28
 1702 065e FFF7FEFF 		bl	__aeabi_fmul
 1703 0662 FFF7FEFF 		bl	__aeabi_f2uiz
 1704 0666 3200     		movs	r2, r6
 1705 0668 83B2     		uxth	r3, r0
 1706 066a 5249     		ldr	r1, .L146+88
 1707 066c 14A8     		add	r0, sp, #80
 1708 066e FFF7FEFF 		bl	sprintf
 1709 0672 2769     		ldr	r7, [r4, #16]
 1710 0674 381C     		adds	r0, r7, #0
 1711 0676 FFF7FEFF 		bl	__aeabi_f2uiz
 1712 067a 86B2     		uxth	r6, r0
 1713 067c 3000     		movs	r0, r6
 1714 067e FFF7FEFF 		bl	__aeabi_i2f
 1715 0682 011C     		adds	r1, r0, #0
 1716 0684 381C     		adds	r0, r7, #0
 1717 0686 FFF7FEFF 		bl	__aeabi_fsub
 1718 068a 3B49     		ldr	r1, .L146+28
 1719 068c FFF7FEFF 		bl	__aeabi_fmul
 1720 0690 FFF7FEFF 		bl	__aeabi_f2uiz
 1721 0694 3200     		movs	r2, r6
ARM GAS  /tmp/cc4wQWsB.s 			page 31


 1722 0696 83B2     		uxth	r3, r0
 1723 0698 4749     		ldr	r1, .L146+92
 1724 069a 1BA8     		add	r0, sp, #108
 1725 069c FFF7FEFF 		bl	sprintf
 1726 06a0 FFF7FEFF 		bl	clear_screen
 1727 06a4 2B00     		movs	r3, r5
 1728 06a6 2A00     		movs	r2, r5
 1729 06a8 0A21     		movs	r1, #10
 1730 06aa 0CA8     		add	r0, sp, #48
 1731 06ac FFF7FEFF 		bl	draw_string
 1732 06b0 2B00     		movs	r3, r5
 1733 06b2 0922     		movs	r2, #9
 1734 06b4 0A21     		movs	r1, #10
 1735 06b6 10A8     		add	r0, sp, #64
 1736 06b8 FFF7FEFF 		bl	draw_string
 1737 06bc 2B00     		movs	r3, r5
 1738 06be 2A00     		movs	r2, r5
 1739 06c0 3C21     		movs	r1, #60
 1740 06c2 14A8     		add	r0, sp, #80
 1741 06c4 FFF7FEFF 		bl	draw_string
 1742 06c8 621D     		adds	r2, r4, #5
 1743 06ca D37F     		ldrb	r3, [r2, #31]
 1744 06cc 002B     		cmp	r3, #0
 1745 06ce 00D0     		beq	.LCB1789
 1746 06d0 A4E0     		b	.L118	@long jump
 1747              	.LCB1789:
 1748 06d2 2B00     		movs	r3, r5
 1749 06d4 2A00     		movs	r2, r5
 1750 06d6 0A21     		movs	r1, #10
 1751 06d8 1BA8     		add	r0, sp, #108
 1752 06da FFF7FEFF 		bl	draw_string
 1753              	.L119:
 1754 06de 3749     		ldr	r1, .L146+96
 1755 06e0 2069     		ldr	r0, [r4, #16]
 1756 06e2 FFF7FEFF 		bl	__aeabi_fmul
 1757 06e6 FFF7FEFF 		bl	__aeabi_f2d
 1758 06ea 0600     		movs	r6, r0
 1759 06ec E068     		ldr	r0, [r4, #12]
 1760 06ee 0F00     		movs	r7, r1
 1761 06f0 FFF7FEFF 		bl	__aeabi_f2d
 1762 06f4 0022     		movs	r2, #0
 1763 06f6 324B     		ldr	r3, .L146+100
 1764 06f8 FFF7FEFF 		bl	__aeabi_dmul
 1765 06fc 0B00     		movs	r3, r1
 1766 06fe 0200     		movs	r2, r0
 1767 0700 3900     		movs	r1, r7
 1768 0702 3000     		movs	r0, r6
 1769 0704 FFF7FEFF 		bl	__aeabi_dadd
 1770 0708 FFF7FEFF 		bl	__aeabi_d2f
 1771 070c A31D     		adds	r3, r4, #6
 1772 070e 2061     		str	r0, [r4, #16]
 1773 0710 DB7F     		ldrb	r3, [r3, #31]
 1774 0712 002B     		cmp	r3, #0
 1775 0714 00D1     		bne	.LCB1819
 1776 0716 8AE0     		b	.L120	@long jump
 1777              	.LCB1819:
 1778 0718 2849     		ldr	r1, .L146+96
ARM GAS  /tmp/cc4wQWsB.s 			page 32


 1779 071a 206A     		ldr	r0, [r4, #32]
 1780 071c FFF7FEFF 		bl	__aeabi_fmul
 1781 0720 FFF7FEFF 		bl	__aeabi_f2d
 1782 0724 1A4B     		ldr	r3, .L146+52
 1783 0726 0290     		str	r0, [sp, #8]
 1784 0728 0391     		str	r1, [sp, #12]
 1785 072a 2649     		ldr	r1, .L146+104
 1786 072c 5868     		ldr	r0, [r3, #4]
 1787 072e FFF7FEFF 		bl	__aeabi_fmul
 1788 0732 2549     		ldr	r1, .L146+108
 1789 0734 061C     		adds	r6, r0, #0
 1790 0736 FFF7FEFF 		bl	__aeabi_fcmpgt
 1791 073a 0028     		cmp	r0, #0
 1792 073c 71D1     		bne	.L130
 1793 073e 0021     		movs	r1, #0
 1794 0740 301C     		adds	r0, r6, #0
 1795 0742 FFF7FEFF 		bl	__aeabi_fcmplt
 1796 0746 0028     		cmp	r0, #0
 1797 0748 6ED1     		bne	.L131
 1798 074a 301C     		adds	r0, r6, #0
 1799 074c FFF7FEFF 		bl	__aeabi_f2d
 1800              	.L121:
 1801 0750 0022     		movs	r2, #0
 1802 0752 1B4B     		ldr	r3, .L146+100
 1803 0754 FFF7FEFF 		bl	__aeabi_dmul
 1804 0758 38E0     		b	.L147
 1805              	.L148:
 1806 075a C046     		.align	2
 1807              	.L146:
 1808 075c 00000000 		.word	.LANCHOR14
 1809 0760 00000000 		.word	.LANCHOR15
 1810 0764 00000000 		.word	.LANCHOR0
 1811 0768 0000C842 		.word	1120403456
 1812 076c 00000000 		.word	.LC28
 1813 0770 07000000 		.word	.LC30
 1814 0774 1B000000 		.word	.LC45
 1815 0778 00002041 		.word	1092616192
 1816 077c 25000000 		.word	.LC47
 1817 0780 00000000 		.word	.LANCHOR16
 1818 0784 00300040 		.word	1073754112
 1819 0788 FF0F0000 		.word	4095
 1820 078c 00E40008 		.word	134276096
 1821 0790 00000000 		.word	.LANCHOR4
 1822 0794 00080048 		.word	1207961600
 1823 0798 0000A040 		.word	1084227584
 1824 079c 0000C843 		.word	1137180672
 1825 07a0 0000A041 		.word	1101004800
 1826 07a4 00200240 		.word	1073881088
 1827 07a8 00000000 		.word	.LANCHOR17
 1828 07ac 4F000000 		.word	.LC57
 1829 07b0 57000000 		.word	.LC59
 1830 07b4 5F000000 		.word	.LC61
 1831 07b8 67000000 		.word	.LC63
 1832 07bc 6666663F 		.word	1063675494
 1833 07c0 9A99B93F 		.word	1069128090
 1834 07c4 00004040 		.word	1077936128
 1835 07c8 0000F041 		.word	1106247680
ARM GAS  /tmp/cc4wQWsB.s 			page 33


 1836              	.L147:
 1837 07cc 029A     		ldr	r2, [sp, #8]
 1838 07ce 039B     		ldr	r3, [sp, #12]
 1839 07d0 FFF7FEFF 		bl	__aeabi_dadd
 1840 07d4 FFF7FEFF 		bl	__aeabi_d2f
 1841 07d8 0026     		movs	r6, #0
 1842 07da 2062     		str	r0, [r4, #32]
 1843              	.L122:
 1844 07dc 206A     		ldr	r0, [r4, #32]
 1845 07de FFF7FEFF 		bl	__aeabi_f2iz
 1846 07e2 8642     		cmp	r6, r0
 1847 07e4 2EDC     		bgt	.L124
 1848 07e6 3000     		movs	r0, r6
 1849 07e8 0822     		movs	r2, #8
 1850 07ea 3C30     		adds	r0, r0, #60
 1851 07ec 2B00     		movs	r3, r5
 1852 07ee 1100     		movs	r1, r2
 1853 07f0 00B2     		sxth	r0, r0
 1854 07f2 0136     		adds	r6, r6, #1
 1855 07f4 FFF7FEFF 		bl	draw_v_line
 1856 07f8 B6B2     		uxth	r6, r6
 1857 07fa EFE7     		b	.L122
 1858              	.L107:
 1859 07fc 1449     		ldr	r1, .L149
 1860 07fe 14A8     		add	r0, sp, #80
 1861 0800 FFF7FEFF 		bl	strcpy
 1862 0804 1349     		ldr	r1, .L149+4
 1863 0806 1BA8     		add	r0, sp, #108
 1864 0808 FFF7FEFF 		bl	strcpy
 1865 080c 2BE6     		b	.L109
 1866              	.L110:
 1867 080e 124B     		ldr	r3, .L149+8
 1868 0810 2360     		str	r3, [r4]
 1869 0812 55E6     		b	.L111
 1870              	.L128:
 1871 0814 114E     		ldr	r6, .L149+12
 1872 0816 93E6     		b	.L114
 1873              	.L129:
 1874 0818 114E     		ldr	r6, .L149+16
 1875 081a 91E6     		b	.L114
 1876              	.L118:
 1877 081c 013B     		subs	r3, r3, #1
 1878 081e D377     		strb	r3, [r2, #31]
 1879 0820 5DE7     		b	.L119
 1880              	.L130:
 1881 0822 0020     		movs	r0, #0
 1882 0824 0F49     		ldr	r1, .L149+20
 1883 0826 93E7     		b	.L121
 1884              	.L131:
 1885 0828 0020     		movs	r0, #0
 1886 082a 0021     		movs	r1, #0
 1887 082c 90E7     		b	.L121
 1888              	.L120:
 1889 082e 0734     		adds	r4, r4, #7
 1890 0830 E37F     		ldrb	r3, [r4, #31]
 1891 0832 0D48     		ldr	r0, .L149+24
 1892 0834 002B     		cmp	r3, #0
ARM GAS  /tmp/cc4wQWsB.s 			page 34


 1893 0836 00D1     		bne	.L125
 1894 0838 0C48     		ldr	r0, .L149+28
 1895              	.L125:
 1896 083a 2B00     		movs	r3, r5
 1897 083c 0922     		movs	r2, #9
 1898 083e 3C21     		movs	r1, #60
 1899 0840 FFF7FEFF 		bl	draw_string
 1900              	.L124:
 1901 0844 FFF7FEFF 		bl	refresh
 1902 0848 0948     		ldr	r0, .L149+32
 1903 084a FFF7FEFF 		bl	HAL_IWDG_Refresh
 1904 084e 38E6     		b	.L126
 1905              	.L150:
 1906              		.align	2
 1907              	.L149:
 1908 0850 35000000 		.word	.LC49
 1909 0854 41000000 		.word	.LC51
 1910 0858 00005C43 		.word	1130102784
 1911 085c 0000C843 		.word	1137180672
 1912 0860 0000A041 		.word	1101004800
 1913 0864 00003E40 		.word	1077805056
 1914 0868 0F000000 		.word	.LC32
 1915 086c 15000000 		.word	.LC34
 1916 0870 00000000 		.word	.LANCHOR16
 1918              		.section	.text.Error_Handler,"ax",%progbits
 1919              		.align	1
 1920              		.global	Error_Handler
 1921              		.syntax unified
 1922              		.code	16
 1923              		.thumb_func
 1924              		.fpu softvfp
 1926              	Error_Handler:
 1927              		@ args = 0, pretend = 0, frame = 0
 1928              		@ frame_needed = 0, uses_anonymous_args = 0
 1929              		@ link register save eliminated.
 1930              		@ sp needed
 1931 0000 7047     		bx	lr
 1933              		.global	OLED_Setup_Array
 1934              		.global	REFRESH_COMMANDS
 1935              		.global	screenBuffer
 1936              		.global	by_string
 1937              		.section	.rodata.str1.1,"aMS",%progbits,1
 1938              	.LC68:
 1939 0000 6279204A 		.ascii	"by Jan Henrik\000"
 1939      616E2048 
 1939      656E7269 
 1939      6B00
 1940              		.global	otter_string
 1941              	.LC69:
 1942 000e 4F747465 		.ascii	"Otter-Iron\000"
 1942      722D4972 
 1942      6F6E00
 1943              		.global	dfu_string
 1944              	.LC70:
 1945 0019 64667564 		.ascii	"dfudfudfudfudfu\000"
 1945      66756466 
 1945      75646675 
ARM GAS  /tmp/cc4wQWsB.s 			page 35


 1945      64667500 
 1946              		.global	sendDataUSB
 1947              		.global	tipcal
 1948              		.global	r
 1949              		.global	s
 1950              		.global	USBD_Device
 1951              		.global	hiwdg
 1952              		.global	htim3
 1953              		.global	htim1
 1954              		.global	hi2c1
 1955              		.global	hdma_adc
 1956              		.global	hadc
 1957              		.global	wduty
 1958              		.global	font
 1959              		.section	.rodata
 1960              		.set	.LANCHOR17,. + 0
 1961              	.LC55:
 1962 0000 20202020 		.ascii	"          \000"
 1962      20202020 
 1962      202000
 1963 000b 000000   		.space	3
 1964              		.section	.bss.ADC_raw,"aw",%nobits
 1965              		.align	1
 1966              		.set	.LANCHOR1,. + 0
 1969              	ADC_raw:
 1970 0000 00000000 		.space	8
 1970      00000000 
 1971              		.section	.bss.USBD_Device,"aw",%nobits
 1972              		.align	2
 1975              	USBD_Device:
 1976 0000 00000000 		.space	548
 1976      00000000 
 1976      00000000 
 1976      00000000 
 1976      00000000 
 1977              		.section	.bss.count.0,"aw",%nobits
 1978              		.align	1
 1979              		.set	.LANCHOR6,. + 0
 1982              	count.0:
 1983 0000 0000     		.space	2
 1984              		.section	.bss.hadc,"aw",%nobits
 1985              		.align	2
 1986              		.set	.LANCHOR11,. + 0
 1989              	hadc:
 1990 0000 00000000 		.space	76
 1990      00000000 
 1990      00000000 
 1990      00000000 
 1990      00000000 
 1991              		.section	.bss.hdma_adc,"aw",%nobits
 1992              		.align	2
 1995              	hdma_adc:
 1996 0000 00000000 		.space	68
 1996      00000000 
 1996      00000000 
 1996      00000000 
 1996      00000000 
ARM GAS  /tmp/cc4wQWsB.s 			page 36


 1997              		.section	.bss.hi2c1,"aw",%nobits
 1998              		.align	2
 1999              		.set	.LANCHOR8,. + 0
 2002              	hi2c1:
 2003 0000 00000000 		.space	76
 2003      00000000 
 2003      00000000 
 2003      00000000 
 2003      00000000 
 2004              		.section	.bss.hiwdg,"aw",%nobits
 2005              		.align	2
 2006              		.set	.LANCHOR16,. + 0
 2009              	hiwdg:
 2010 0000 00000000 		.space	16
 2010      00000000 
 2010      00000000 
 2010      00000000 
 2011              		.section	.bss.htim1,"aw",%nobits
 2012              		.align	2
 2013              		.set	.LANCHOR3,. + 0
 2016              	htim1:
 2017 0000 00000000 		.space	64
 2017      00000000 
 2017      00000000 
 2017      00000000 
 2017      00000000 
 2018              		.section	.bss.htim3,"aw",%nobits
 2019              		.align	2
 2020              		.set	.LANCHOR12,. + 0
 2023              	htim3:
 2024 0000 00000000 		.space	64
 2024      00000000 
 2024      00000000 
 2024      00000000 
 2024      00000000 
 2025              		.section	.bss.screenBuffer,"aw",%nobits
 2028              	screenBuffer:
 2029 0000 00000000 		.space	218
 2029      00000000 
 2029      00000000 
 2029      00000000 
 2029      00000000 
 2030              		.section	.bss.sendDataUSB,"aw",%nobits
 2031              		.align	2
 2032              		.set	.LANCHOR7,. + 0
 2035              	sendDataUSB:
 2036 0000 00000000 		.space	4
 2037              		.section	.data.OLED_Setup_Array,"aw"
 2038              		.set	.LANCHOR10,. + 0
 2041              	OLED_Setup_Array:
 2042 0000 80AE80D5 		.ascii	"\200\256\200\325\200\200\200\250\200\017\200\310\200"
 2042      808080A8 
 2042      800F80C8 
 2042      80
 2043 000d D3800080 		.ascii	"\323\200\000\200@\200\240\200\215\200\024\200\332\200"
 2043      4080A080 
 2043      8D801480 
ARM GAS  /tmp/cc4wQWsB.s 			page 37


 2043      DA80
 2044 001b 02808180 		.ascii	"\002\200\201\2003\200\331\200\"\200\333\200@\200\244"
 2044      3380D980 
 2044      2280DB80 
 2044      4080A4
 2045 002a 80A68020 		.ascii	"\200\246\200 \200\000"
 2045      8000
 2046              		.section	.data.by_string,"aw"
 2047              		.align	2
 2048              		.set	.LANCHOR15,. + 0
 2051              	by_string:
 2052 0000 00000000 		.word	.LC68
 2053              		.section	.data.dfu_string,"aw"
 2054              		.align	2
 2055              		.set	.LANCHOR13,. + 0
 2058              	dfu_string:
 2059 0000 19000000 		.word	.LC70
 2060              		.section	.data.otter_string,"aw"
 2061              		.align	2
 2062              		.set	.LANCHOR14,. + 0
 2065              	otter_string:
 2066 0000 0E000000 		.word	.LC69
 2067              		.section	.data.r,"aw"
 2068              		.align	2
 2069              		.set	.LANCHOR4,. + 0
 2072              	r:
 2073 0000 00005C43 		.word	1130102784
 2074 0004 00000000 		.space	8
 2074      00000000 
 2075 000c 00002041 		.word	1092616192
 2076 0010 00000000 		.space	8
 2076      00000000 
 2077 0018 240B9838 		.word	949488420
 2078 001c 0000003F 		.word	1056964608
 2079 0020 0000803F 		.word	1065353216
 2080 0024 00007041 		.word	1097859072
 2081              		.section	.data.s,"aw"
 2082              		.align	2
 2083              		.set	.LANCHOR0,. + 0
 2086              	s:
 2087 0000 00000000 		.space	20
 2087      00000000 
 2087      00000000 
 2087      00000000 
 2087      00000000 
 2088 0014 0000C03F 		.word	1069547520
 2089 0018 00000000 		.space	4
 2090 001c 00       		.byte	0
 2091 001d 00000000 		.space	11
 2091      00000000 
 2091      000000
 2092              		.section	.data.tipcal,"aw"
 2093              		.align	2
 2094              		.set	.LANCHOR2,. + 0
 2097              	tipcal:
 2098 0000 0000F042 		.word	1123024896
 2099 0004 0000B842 		.word	1119354880
ARM GAS  /tmp/cc4wQWsB.s 			page 38


 2100              		.section	.data.wduty,"aw"
 2101              		.align	1
 2102              		.set	.LANCHOR5,. + 0
 2105              	wduty:
 2106 0000 2003     		.short	800
 2107              		.section	.rodata.REFRESH_COMMANDS,"a"
 2108              		.set	.LANCHOR9,. + 0
 2111              	REFRESH_COMMANDS:
 2112 0000 80AF8021 		.ascii	"\200\257\200!\200 \200\177\200\300\200\"\200\000\200"
 2112      8020807F 
 2112      80C08022 
 2112      800080
 2113 000f 0140     		.ascii	"\001@"
 2114              		.section	.rodata.font,"a"
 2117              	font:
 2118 0000 00000000 		.ascii	"\000\000\000\000\000\000"
 2118      0000
 2119 0006 2F000000 		.ascii	"/\000\000\000\000\000"
 2119      0000
 2120 000c 03000300 		.ascii	"\003\000\003\000\000\000"
 2120      0000
 2121 0012 123F1212 		.ascii	"\022?\022\022?\022"
 2121      3F12
 2122 0018 2E2A7F2A 		.ascii	".*\177*:\000"
 2122      3A00
 2123 001e 23130804 		.ascii	"#\023\010\00421"
 2123      3231
 2124 0024 102A252A 		.ascii	"\020*%*\020 "
 2124      1020
 2125 002a 02010000 		.ascii	"\002\001\000\000\000\000"
 2125      0000
 2126 0030 1E210000 		.ascii	"\036!\000\000\000\000"
 2126      0000
 2127 0036 211E0000 		.ascii	"!\036\000\000\000\000"
 2127      0000
 2128 003c 082A1C2A 		.ascii	"\010*\034*\010\010"
 2128      0808
 2129 0042 08083E08 		.ascii	"\010\010>\010\010\010"
 2129      0808
 2130 0048 80600000 		.ascii	"\200`\000\000\000\000"
 2130      0000
 2131 004e 08080808 		.ascii	"\010\010\010\010\010\000"
 2131      0800
 2132 0054 30300000 		.ascii	"00\000\000\000\000"
 2132      0000
 2133 005a 20100804 		.ascii	" \020\010\004\002\000"
 2133      0200
 2134 0060 1E312925 		.ascii	"\0361)%#\036"
 2134      231E
 2135 0066 22213F20 		.ascii	"\"!?   "
 2135      2020
 2136 006c 32292929 		.ascii	"2))))&"
 2136      2926
 2137 0072 12212125 		.ascii	"\022!!%%\032"
 2137      251A
 2138 0078 1814123F 		.ascii	"\030\024\022?\020\020"
 2138      1010
ARM GAS  /tmp/cc4wQWsB.s 			page 39


 2139 007e 17252525 		.ascii	"\027%%%%\031"
 2139      2519
 2140 0084 1E252525 		.ascii	"\036%%%%\030"
 2140      2518
 2141 008a 01013109 		.ascii	"\001\0011\011\005\003"
 2141      0503
 2142 0090 1A252525 		.ascii	"\032%%%%\032"
 2142      251A
 2143 0096 06292929 		.ascii	"\006))))\036"
 2143      291E
 2144 009c 24000000 		.ascii	"$\000\000\000\000\000"
 2144      0000
 2145 00a2 80640000 		.ascii	"\200d\000\000\000\000"
 2145      0000
 2146 00a8 08142200 		.ascii	"\010\024\"\000\000\000"
 2146      0000
 2147 00ae 14141414 		.ascii	"\024\024\024\024\024\000"
 2147      1400
 2148 00b4 22140800 		.ascii	"\"\024\010\000\000\000"
 2148      0000
 2149 00ba 02010129 		.ascii	"\002\001\001)\005\002"
 2149      0502
 2150 00c0 1E212D2B 		.ascii	"\036!-+-\016"
 2150      2D0E
 2151 00c6 3E090909 		.ascii	">\011\011\011\011>"
 2151      093E
 2152 00cc 3F252525 		.ascii	"?%%%%\032"
 2152      251A
 2153 00d2 1E212121 		.ascii	"\036!!!!\022"
 2153      2112
 2154 00d8 3F212121 		.ascii	"?!!!\022\014"
 2154      120C
 2155 00de 3F252525 		.ascii	"?%%%%!"
 2155      2521
 2156 00e4 3F050505 		.ascii	"?\005\005\005\005\001"
 2156      0501
 2157 00ea 1E212121 		.ascii	"\036!!!)\032"
 2157      291A
 2158 00f0 3F040404 		.ascii	"?\004\004\004\004?"
 2158      043F
 2159 00f6 21213F21 		.ascii	"!!?!!!"
 2159      2121
 2160 00fc 10202020 		.ascii	"\020    \037"
 2160      201F
 2161 0102 3F040C0A 		.ascii	"?\004\014\012\021 "
 2161      1120
 2162 0108 3F202020 		.ascii	"?     "
 2162      2020
 2163 010e 3F020404 		.ascii	"?\002\004\004\002?"
 2163      023F
 2164 0114 3F020408 		.ascii	"?\002\004\010\020?"
 2164      103F
 2165 011a 1E212121 		.ascii	"\036!!!!\036"
 2165      211E
 2166 0120 3F090909 		.ascii	"?\011\011\011\011\006"
 2166      0906
 2167 0126 1E212931 		.ascii	"\036!)1!\036"
ARM GAS  /tmp/cc4wQWsB.s 			page 40


 2167      211E
 2168 012c 3F090909 		.ascii	"?\011\011\011\031&"
 2168      1926
 2169 0132 12252525 		.ascii	"\022%%%%\030"
 2169      2518
 2170 0138 0101013F 		.ascii	"\001\001\001?\001\001"
 2170      0101
 2171 013e 1F202020 		.ascii	"\037    \037"
 2171      201F
 2172 0144 0F102020 		.ascii	"\017\020  \020\017"
 2172      100F
 2173 014a 1F201010 		.ascii	"\037 \020\020 \037"
 2173      201F
 2174 0150 21120C0C 		.ascii	"!\022\014\014\022!"
 2174      1221
 2175 0156 01020C38 		.ascii	"\001\002\0148\004\002"
 2175      0402
 2176 015c 21312925 		.ascii	"!1)%#!"
 2176      2321
 2177 0162 3F210000 		.ascii	"?!\000\000\000\000"
 2177      0000
 2178 0168 02040810 		.ascii	"\002\004\010\020 \000"
 2178      2000
 2179 016e 213F0000 		.ascii	"!?\000\000\000\000"
 2179      0000
 2180 0174 04023F02 		.ascii	"\004\002?\002\004\000"
 2180      0400
 2181 017a 40404040 		.ascii	"@@@@@@"
 2181      4040
 2182 0180 01020000 		.ascii	"\001\002\000\000\000\000"
 2182      0000
 2183 0186 10302A2A 		.ascii	"\0200**<\000"
 2183      3C00
 2184 018c 3F242424 		.ascii	"?$$$\030\000"
 2184      1800
 2185 0192 0C142222 		.ascii	"\014\024\"\"\000\000"
 2185      0000
 2186 0198 18242424 		.ascii	"\030$$$?\000"
 2186      3F00
 2187 019e 1C2C2A2A 		.ascii	"\034,**$\000"
 2187      2400
 2188 01a4 3E050100 		.ascii	">\005\001\000\000\000"
 2188      0000
 2189 01aa 1828A4A4 		.ascii	"\030(\244\244|\000"
 2189      7C00
 2190 01b0 3F04040C 		.ascii	"?\004\004\0140\000"
 2190      3000
 2191 01b6 243D2000 		.ascii	"$= \000\000\000"
 2191      0000
 2192 01bc 2040403D 		.ascii	" @@=\000\000"
 2192      0000
 2193 01c2 3F0C1220 		.ascii	"?\014\022 \000\000"
 2193      0000
 2194 01c8 1F202000 		.ascii	"\037  \000\000\000"
 2194      0000
 2195 01ce 3E023C02 		.ascii	">\002<\002<\000"
 2195      3C00
ARM GAS  /tmp/cc4wQWsB.s 			page 41


 2196 01d4 3E020202 		.ascii	">\002\002\002<\000"
 2196      3C00
 2197 01da 0C142232 		.ascii	"\014\024\"2\014\000"
 2197      0C00
 2198 01e0 FC242424 		.ascii	"\374$$$\030\000"
 2198      1800
 2199 01e6 18242424 		.ascii	"\030$$$\374\200"
 2199      FC80
 2200 01ec 3C040202 		.ascii	"<\004\002\002\000\000"
 2200      0000
 2201 01f2 242C2A2A 		.ascii	"$,**\020\000"
 2201      1000
 2202 01f8 021F2220 		.ascii	"\002\037\" \000\000"
 2202      0000
 2203 01fe 1E202020 		.ascii	"\036   \036\000"
 2203      1E00
 2204 0204 06182018 		.ascii	"\006\030 \030\006\000"
 2204      0600
 2205 020a 1E301C30 		.ascii	"\0360\0340\016\000"
 2205      0E00
 2206 0210 22140814 		.ascii	"\"\024\010\024\"\000"
 2206      2200
 2207 0216 0C10A0A0 		.ascii	"\014\020\240\240|\000"
 2207      7C00
 2208 021c 22322A26 		.ascii	"\"2*&\"\""
 2208      2222
 2209 0222 0C3F2100 		.ascii	"\014?!\000\000\000"
 2209      0000
 2210 0228 3F000000 		.ascii	"?\000\000\000\000\000"
 2210      0000
 2211 022e 213F0C00 		.ascii	"!?\014\000\000\000"
 2211      0000
 2212 0234 02010201 		.ascii	"\002\001\002\001\000\000"
 2212      0000
 2213 023a 00000000 		.ascii	"\000\000\000\000\000\000"
 2213      0000
 2214              		.ident	"GCC: (Arch Repository) 10.1.0"
ARM GAS  /tmp/cc4wQWsB.s 			page 42


DEFINED SYMBOLS
                            *ABS*:0000000000000000 main.c
     /tmp/cc4wQWsB.s:15     .text.check_usbpd:0000000000000000 $t
     /tmp/cc4wQWsB.s:23     .text.check_usbpd:0000000000000000 check_usbpd
     /tmp/cc4wQWsB.s:46     .text.check_usbpd:0000000000000024 $d
     /tmp/cc4wQWsB.s:68     .text.reg:0000000000000000 $t
     /tmp/cc4wQWsB.s:75     .text.reg:0000000000000000 reg
     /tmp/cc4wQWsB.s:387    .text.reg:00000000000002a4 $d
     /tmp/cc4wQWsB.s:415    .text.HAL_TIM_PeriodElapsedCallback:0000000000000000 $t
     /tmp/cc4wQWsB.s:422    .text.HAL_TIM_PeriodElapsedCallback:0000000000000000 HAL_TIM_PeriodElapsedCallback
     /tmp/cc4wQWsB.s:446    .text.HAL_TIM_PeriodElapsedCallback:0000000000000024 $d
     /tmp/cc4wQWsB.s:1975   .bss.USBD_Device:0000000000000000 USBD_Device
     /tmp/cc4wQWsB.s:455    .text.USB_printfloat:0000000000000000 $t
     /tmp/cc4wQWsB.s:462    .text.USB_printfloat:0000000000000000 USB_printfloat
     /tmp/cc4wQWsB.s:497    .text.USB_printfloat:0000000000000048 $d
     /tmp/cc4wQWsB.s:503    .text.disp_on:0000000000000000 $t
     /tmp/cc4wQWsB.s:510    .text.disp_on:0000000000000000 disp_on
     /tmp/cc4wQWsB.s:530    .text.disp_on:000000000000001c $d
     /tmp/cc4wQWsB.s:534    .text.disp_off:0000000000000000 $t
     /tmp/cc4wQWsB.s:541    .text.disp_off:0000000000000000 disp_off
     /tmp/cc4wQWsB.s:561    .text.disp_off:000000000000001c $d
     /tmp/cc4wQWsB.s:565    .text.refresh:0000000000000000 $t
     /tmp/cc4wQWsB.s:572    .text.refresh:0000000000000000 refresh
     /tmp/cc4wQWsB.s:589    .text.refresh:0000000000000018 $d
     /tmp/cc4wQWsB.s:2028   .bss.screenBuffer:0000000000000000 screenBuffer
     /tmp/cc4wQWsB.s:593    .text.clear_screen:0000000000000000 $t
     /tmp/cc4wQWsB.s:600    .text.clear_screen:0000000000000000 clear_screen
     /tmp/cc4wQWsB.s:613    .text.clear_screen:0000000000000010 $d
     /tmp/cc4wQWsB.s:616    .text.disp_init:0000000000000000 $t
     /tmp/cc4wQWsB.s:623    .text.disp_init:0000000000000000 disp_init
     /tmp/cc4wQWsB.s:649    .text.disp_init:0000000000000034 $d
     /tmp/cc4wQWsB.s:655    .text.set_screen:0000000000000000 $t
     /tmp/cc4wQWsB.s:662    .text.set_screen:0000000000000000 set_screen
     /tmp/cc4wQWsB.s:675    .text.set_screen:0000000000000010 $d
     /tmp/cc4wQWsB.s:678    .text.write_pixel:0000000000000000 $t
     /tmp/cc4wQWsB.s:685    .text.write_pixel:0000000000000000 write_pixel
     /tmp/cc4wQWsB.s:755    .text.write_pixel:0000000000000078 $d
     /tmp/cc4wQWsB.s:759    .text.draw_v_line:0000000000000000 $t
     /tmp/cc4wQWsB.s:766    .text.draw_v_line:0000000000000000 draw_v_line
     /tmp/cc4wQWsB.s:789    .text.draw_char:0000000000000000 $t
     /tmp/cc4wQWsB.s:796    .text.draw_char:0000000000000000 draw_char
     /tmp/cc4wQWsB.s:852    .text.draw_char:000000000000005c $d
     /tmp/cc4wQWsB.s:2117   .rodata.font:0000000000000000 font
     /tmp/cc4wQWsB.s:855    .text.draw_string:0000000000000000 $t
     /tmp/cc4wQWsB.s:862    .text.draw_string:0000000000000000 draw_string
     /tmp/cc4wQWsB.s:887    .text.SystemClock_Config:0000000000000000 $t
     /tmp/cc4wQWsB.s:894    .text.SystemClock_Config:0000000000000000 SystemClock_Config
     /tmp/cc4wQWsB.s:949    .text.SystemClock_Config:000000000000006c $d
     /tmp/cc4wQWsB.s:978    .text.startup.main:0000000000000000 $t
     /tmp/cc4wQWsB.s:985    .text.startup.main:0000000000000000 main
     /tmp/cc4wQWsB.s:1367   .text.startup.main:000000000000033c $d
     /tmp/cc4wQWsB.s:1390   .text.startup.main:0000000000000394 $t
     /tmp/cc4wQWsB.s:1808   .text.startup.main:000000000000075c $d
     /tmp/cc4wQWsB.s:1837   .text.startup.main:00000000000007cc $t
     /tmp/cc4wQWsB.s:1908   .text.startup.main:0000000000000850 $d
     /tmp/cc4wQWsB.s:1919   .text.Error_Handler:0000000000000000 $t
     /tmp/cc4wQWsB.s:1926   .text.Error_Handler:0000000000000000 Error_Handler
ARM GAS  /tmp/cc4wQWsB.s 			page 43


     /tmp/cc4wQWsB.s:2041   .data.OLED_Setup_Array:0000000000000000 OLED_Setup_Array
     /tmp/cc4wQWsB.s:2111   .rodata.REFRESH_COMMANDS:0000000000000000 REFRESH_COMMANDS
     /tmp/cc4wQWsB.s:2051   .data.by_string:0000000000000000 by_string
     /tmp/cc4wQWsB.s:2065   .data.otter_string:0000000000000000 otter_string
     /tmp/cc4wQWsB.s:2058   .data.dfu_string:0000000000000000 dfu_string
     /tmp/cc4wQWsB.s:2035   .bss.sendDataUSB:0000000000000000 sendDataUSB
     /tmp/cc4wQWsB.s:2097   .data.tipcal:0000000000000000 tipcal
     /tmp/cc4wQWsB.s:2072   .data.r:0000000000000000 r
     /tmp/cc4wQWsB.s:2086   .data.s:0000000000000000 s
     /tmp/cc4wQWsB.s:2009   .bss.hiwdg:0000000000000000 hiwdg
     /tmp/cc4wQWsB.s:2023   .bss.htim3:0000000000000000 htim3
     /tmp/cc4wQWsB.s:2016   .bss.htim1:0000000000000000 htim1
     /tmp/cc4wQWsB.s:2002   .bss.hi2c1:0000000000000000 hi2c1
     /tmp/cc4wQWsB.s:1995   .bss.hdma_adc:0000000000000000 hdma_adc
     /tmp/cc4wQWsB.s:1989   .bss.hadc:0000000000000000 hadc
     /tmp/cc4wQWsB.s:2105   .data.wduty:0000000000000000 wduty
     /tmp/cc4wQWsB.s:1963   .rodata:000000000000000b $d
     /tmp/cc4wQWsB.s:1965   .bss.ADC_raw:0000000000000000 $d
     /tmp/cc4wQWsB.s:1969   .bss.ADC_raw:0000000000000000 ADC_raw
     /tmp/cc4wQWsB.s:1972   .bss.USBD_Device:0000000000000000 $d
     /tmp/cc4wQWsB.s:1978   .bss.count.0:0000000000000000 $d
     /tmp/cc4wQWsB.s:1982   .bss.count.0:0000000000000000 count.0
     /tmp/cc4wQWsB.s:1985   .bss.hadc:0000000000000000 $d
     /tmp/cc4wQWsB.s:1992   .bss.hdma_adc:0000000000000000 $d
     /tmp/cc4wQWsB.s:1998   .bss.hi2c1:0000000000000000 $d
     /tmp/cc4wQWsB.s:2005   .bss.hiwdg:0000000000000000 $d
     /tmp/cc4wQWsB.s:2012   .bss.htim1:0000000000000000 $d
     /tmp/cc4wQWsB.s:2019   .bss.htim3:0000000000000000 $d
     /tmp/cc4wQWsB.s:2029   .bss.screenBuffer:0000000000000000 $d
     /tmp/cc4wQWsB.s:2031   .bss.sendDataUSB:0000000000000000 $d
     /tmp/cc4wQWsB.s:2047   .data.by_string:0000000000000000 $d
     /tmp/cc4wQWsB.s:2054   .data.dfu_string:0000000000000000 $d
     /tmp/cc4wQWsB.s:2061   .data.otter_string:0000000000000000 $d
     /tmp/cc4wQWsB.s:2068   .data.r:0000000000000000 $d
     /tmp/cc4wQWsB.s:2082   .data.s:0000000000000000 $d
     /tmp/cc4wQWsB.s:2093   .data.tipcal:0000000000000000 $d
     /tmp/cc4wQWsB.s:2101   .data.wduty:0000000000000000 $d

UNDEFINED SYMBOLS
__aeabi_fcmpge
__aeabi_ui2f
__aeabi_f2d
__aeabi_ddiv
__aeabi_dmul
__aeabi_dsub
__aeabi_d2f
__aeabi_i2f
__aeabi_fsub
__aeabi_fmul
__aeabi_fdiv
__aeabi_fadd
__aeabi_i2d
__aeabi_dadd
__aeabi_fcmple
__aeabi_fcmpgt
__aeabi_fcmplt
__aeabi_f2iz
ARM GAS  /tmp/cc4wQWsB.s 			page 44


__aeabi_dcmple
USBD_CDC_SetTxBuffer
USBD_CDC_TransmitPacket
UserTxBuffer
__aeabi_f2uiz
memset
sprintf
HAL_I2C_Master_Transmit
memcpy
HAL_Delay
HAL_RCC_OscConfig
HAL_RCC_ClockConfig
HAL_RCCEx_PeriphCLKConfig
__aeabi_d2uiz
HAL_Init
HAL_GPIO_Init
HAL_NVIC_SetPriority
HAL_NVIC_EnableIRQ
HAL_ADC_Init
HAL_ADC_ConfigChannel
HAL_ADC_MspInit
HAL_I2C_Init
HAL_I2CEx_ConfigAnalogFilter
HAL_I2CEx_ConfigDigitalFilter
HAL_TIM_Base_Init
HAL_TIM_ConfigClockSource
HAL_TIM_PWM_Init
HAL_TIM_OC_Init
HAL_TIMEx_MasterConfigSynchronization
HAL_TIM_PWM_ConfigChannel
HAL_TIM_OC_ConfigChannel
HAL_TIMEx_ConfigBreakDeadTime
HAL_TIM_MspPostInit
stusb_update_pdo
stusb_set_valid_pdo
HAL_TIM_PWM_Start
HAL_TIM_OC_Start
HAL_ADC_Start_DMA
HAL_GPIO_ReadPin
stusb_read_rdo
ceil
HAL_IWDG_Init
HAL_FLASH_Unlock
HAL_FLASH_Program
HAL_FLASH_Lock
strcpy
HAL_IWDG_Refresh
