ARM GAS  /tmp/ccVVivOE.s 			page 1


   1              		.cpu cortex-m0
   2              		.eabi_attribute 20, 1
   3              		.eabi_attribute 21, 1
   4              		.eabi_attribute 23, 3
   5              		.eabi_attribute 24, 1
   6              		.eabi_attribute 25, 1
   7              		.eabi_attribute 26, 1
   8              		.eabi_attribute 30, 4
   9              		.eabi_attribute 34, 0
  10              		.eabi_attribute 18, 4
  11              		.file	"main.c"
  12              		.text
  13              		.global	__aeabi_fcmpge
  14              		.section	.text.check_usbpd,"ax",%progbits
  15              		.align	1
  16              		.global	check_usbpd
  17              		.arch armv6s-m
  18              		.syntax unified
  19              		.code	16
  20              		.thumb_func
  21              		.fpu softvfp
  23              	check_usbpd:
  24              		@ args = 0, pretend = 0, frame = 0
  25              		@ frame_needed = 0, uses_anonymous_args = 0
  26 0000 10B5     		push	{r4, lr}
  27 0002 084C     		ldr	r4, .L8
  28 0004 0849     		ldr	r1, .L8+4
  29 0006 A068     		ldr	r0, [r4, #8]
  30 0008 FFF7FEFF 		bl	__aeabi_fcmpge
  31 000c 0028     		cmp	r0, #0
  32 000e 06D0     		beq	.L2
  33 0010 FE21     		movs	r1, #254
  34 0012 6069     		ldr	r0, [r4, #20]
  35 0014 8905     		lsls	r1, r1, #22
  36 0016 FFF7FEFF 		bl	__aeabi_fcmpge
  37 001a 431E     		subs	r3, r0, #1
  38 001c 9841     		sbcs	r0, r0, r3
  39              	.L2:
  40              		@ sp needed
  41 001e C0B2     		uxtb	r0, r0
  42 0020 10BD     		pop	{r4, pc}
  43              	.L9:
  44 0022 C046     		.align	2
  45              	.L8:
  46 0024 00000000 		.word	.LANCHOR0
  47 0028 00007041 		.word	1097859072
  49              		.global	__aeabi_ui2f
  50              		.global	__aeabi_f2d
  51              		.global	__aeabi_ddiv
  52              		.global	__aeabi_dmul
  53              		.global	__aeabi_dsub
  54              		.global	__aeabi_d2f
  55              		.global	__aeabi_i2f
  56              		.global	__aeabi_fsub
  57              		.global	__aeabi_fmul
  58              		.global	__aeabi_fdiv
  59              		.global	__aeabi_fadd
ARM GAS  /tmp/ccVVivOE.s 			page 2


  60              		.global	__aeabi_i2d
  61              		.global	__aeabi_dadd
  62              		.global	__aeabi_fcmple
  63              		.global	__aeabi_fcmpgt
  64              		.global	__aeabi_fcmplt
  65              		.global	__aeabi_f2iz
  66              		.global	__aeabi_dcmple
  67              		.section	.text.reg,"ax",%progbits
  68              		.align	1
  69              		.global	reg
  70              		.syntax unified
  71              		.code	16
  72              		.thumb_func
  73              		.fpu softvfp
  75              	reg:
  76              		@ args = 0, pretend = 0, frame = 24
  77              		@ frame_needed = 0, uses_anonymous_args = 0
  78 0000 F0B5     		push	{r4, r5, r6, r7, lr}
  79 0002 A84E     		ldr	r6, .L43
  80 0004 87B0     		sub	sp, sp, #28
  81 0006 F088     		ldrh	r0, [r6, #6]
  82 0008 FFF7FEFF 		bl	__aeabi_ui2f
  83 000c FFF7FEFF 		bl	__aeabi_f2d
  84 0010 0022     		movs	r2, #0
  85 0012 A54B     		ldr	r3, .L43+4
  86 0014 FFF7FEFF 		bl	__aeabi_ddiv
  87 0018 A44A     		ldr	r2, .L43+8
  88 001a A54B     		ldr	r3, .L43+12
  89 001c FFF7FEFF 		bl	__aeabi_dmul
  90 0020 0022     		movs	r2, #0
  91 0022 A44B     		ldr	r3, .L43+16
  92 0024 FFF7FEFF 		bl	__aeabi_dsub
  93 0028 A34A     		ldr	r2, .L43+20
  94 002a A44B     		ldr	r3, .L43+24
  95 002c FFF7FEFF 		bl	__aeabi_ddiv
  96 0030 FFF7FEFF 		bl	__aeabi_d2f
  97 0034 A24C     		ldr	r4, .L43+28
  98 0036 051C     		adds	r5, r0, #0
  99 0038 A061     		str	r0, [r4, #24]
 100 003a 7088     		ldrh	r0, [r6, #2]
 101 003c FFF7FEFF 		bl	__aeabi_i2f
 102 0040 A04F     		ldr	r7, .L43+32
 103 0042 3968     		ldr	r1, [r7]
 104 0044 FFF7FEFF 		bl	__aeabi_fsub
 105 0048 7968     		ldr	r1, [r7, #4]
 106 004a FFF7FEFF 		bl	__aeabi_fmul
 107 004e 9E49     		ldr	r1, .L43+36
 108 0050 FFF7FEFF 		bl	__aeabi_fdiv
 109 0054 291C     		adds	r1, r5, #0
 110 0056 FFF7FEFF 		bl	__aeabi_fadd
 111 005a 2060     		str	r0, [r4]
 112 005c 051C     		adds	r5, r0, #0
 113 005e B088     		ldrh	r0, [r6, #4]
 114 0060 FFF7FEFF 		bl	__aeabi_i2d
 115 0064 0022     		movs	r2, #0
 116 0066 904B     		ldr	r3, .L43+4
 117 0068 FFF7FEFF 		bl	__aeabi_ddiv
ARM GAS  /tmp/ccVVivOE.s 			page 3


 118 006c 8F4A     		ldr	r2, .L43+8
 119 006e 904B     		ldr	r3, .L43+12
 120 0070 FFF7FEFF 		bl	__aeabi_dmul
 121 0074 8D4A     		ldr	r2, .L43+8
 122 0076 954B     		ldr	r3, .L43+40
 123 0078 FFF7FEFF 		bl	__aeabi_dmul
 124 007c FFF7FEFF 		bl	__aeabi_d2f
 125 0080 A060     		str	r0, [r4, #8]
 126 0082 3088     		ldrh	r0, [r6]
 127 0084 FFF7FEFF 		bl	__aeabi_i2d
 128 0088 0022     		movs	r2, #0
 129 008a 874B     		ldr	r3, .L43+4
 130 008c FFF7FEFF 		bl	__aeabi_ddiv
 131 0090 864A     		ldr	r2, .L43+8
 132 0092 874B     		ldr	r3, .L43+12
 133 0094 FFF7FEFF 		bl	__aeabi_dmul
 134 0098 8D4A     		ldr	r2, .L43+44
 135 009a 8E4B     		ldr	r3, .L43+48
 136 009c FFF7FEFF 		bl	__aeabi_dmul
 137 00a0 8D4A     		ldr	r2, .L43+52
 138 00a2 8E4B     		ldr	r3, .L43+56
 139 00a4 FFF7FEFF 		bl	__aeabi_ddiv
 140 00a8 0022     		movs	r2, #0
 141 00aa 8D4B     		ldr	r3, .L43+60
 142 00ac FFF7FEFF 		bl	__aeabi_dmul
 143 00b0 0600     		movs	r6, r0
 144 00b2 0F00     		movs	r7, r1
 145 00b4 E068     		ldr	r0, [r4, #12]
 146 00b6 8B49     		ldr	r1, .L43+64
 147 00b8 FFF7FEFF 		bl	__aeabi_fmul
 148 00bc FFF7FEFF 		bl	__aeabi_f2d
 149 00c0 0B00     		movs	r3, r1
 150 00c2 0200     		movs	r2, r0
 151 00c4 3900     		movs	r1, r7
 152 00c6 3000     		movs	r0, r6
 153 00c8 FFF7FEFF 		bl	__aeabi_dadd
 154 00cc FFF7FEFF 		bl	__aeabi_d2f
 155 00d0 8449     		ldr	r1, .L43+64
 156 00d2 0290     		str	r0, [sp, #8]
 157 00d4 E060     		str	r0, [r4, #12]
 158 00d6 6068     		ldr	r0, [r4, #4]
 159 00d8 FFF7FEFF 		bl	__aeabi_fmul
 160 00dc 8249     		ldr	r1, .L43+68
 161 00de 061C     		adds	r6, r0, #0
 162 00e0 281C     		adds	r0, r5, #0
 163 00e2 FFF7FEFF 		bl	__aeabi_fmul
 164 00e6 011C     		adds	r1, r0, #0
 165 00e8 301C     		adds	r0, r6, #0
 166 00ea FFF7FEFF 		bl	__aeabi_fadd
 167 00ee 051C     		adds	r5, r0, #0
 168 00f0 6060     		str	r0, [r4, #4]
 169 00f2 FFF7FEFF 		bl	check_usbpd
 170 00f6 7D4B     		ldr	r3, .L43+72
 171 00f8 1B68     		ldr	r3, [r3]
 172 00fa 0493     		str	r3, [sp, #16]
 173 00fc 0028     		cmp	r0, #0
 174 00fe 00D1     		bne	.LCB136
ARM GAS  /tmp/ccVVivOE.s 			page 4


 175 0100 CAE0     		b	.L11	@long jump
 176              	.LCB136:
 177 0102 7B4C     		ldr	r4, .L43+76
 178 0104 2368     		ldr	r3, [r4]
 179 0106 0193     		str	r3, [sp, #4]
 180 0108 636A     		ldr	r3, [r4, #36]
 181 010a 0198     		ldr	r0, [sp, #4]
 182 010c 191C     		adds	r1, r3, #0
 183 010e 0393     		str	r3, [sp, #12]
 184 0110 FFF7FEFF 		bl	__aeabi_fsub
 185 0114 0590     		str	r0, [sp, #20]
 186 0116 011C     		adds	r1, r0, #0
 187 0118 281C     		adds	r0, r5, #0
 188 011a FFF7FEFF 		bl	__aeabi_fcmpge
 189 011e 0028     		cmp	r0, #0
 190 0120 69D0     		beq	.L12
 191 0122 0399     		ldr	r1, [sp, #12]
 192 0124 0198     		ldr	r0, [sp, #4]
 193 0126 FFF7FEFF 		bl	__aeabi_fadd
 194 012a 011C     		adds	r1, r0, #0
 195 012c 281C     		adds	r0, r5, #0
 196 012e FFF7FEFF 		bl	__aeabi_fcmple
 197 0132 0028     		cmp	r0, #0
 198 0134 5FD0     		beq	.L12
 199 0136 291C     		adds	r1, r5, #0
 200 0138 0198     		ldr	r0, [sp, #4]
 201 013a FFF7FEFF 		bl	__aeabi_fsub
 202 013e A169     		ldr	r1, [r4, #24]
 203 0140 6060     		str	r0, [r4, #4]
 204 0142 061C     		adds	r6, r0, #0
 205 0144 FFF7FEFF 		bl	__aeabi_fmul
 206 0148 A168     		ldr	r1, [r4, #8]
 207 014a FFF7FEFF 		bl	__aeabi_fadd
 208 014e E468     		ldr	r4, [r4, #12]
 209 0150 071C     		adds	r7, r0, #0
 210 0152 211C     		adds	r1, r4, #0
 211 0154 FFF7FEFF 		bl	__aeabi_fcmpgt
 212 0158 0028     		cmp	r0, #0
 213 015a 09D1     		bne	.L15
 214 015c 8023     		movs	r3, #128
 215 015e 1B06     		lsls	r3, r3, #24
 216 0160 E418     		adds	r4, r4, r3
 217 0162 211C     		adds	r1, r4, #0
 218 0164 381C     		adds	r0, r7, #0
 219 0166 FFF7FEFF 		bl	__aeabi_fcmplt
 220 016a 0028     		cmp	r0, #0
 221 016c 00D1     		bne	.L15
 222 016e 3C1C     		adds	r4, r7, #0
 223              	.L15:
 224 0170 5F4F     		ldr	r7, .L43+76
 225 0172 301C     		adds	r0, r6, #0
 226 0174 F969     		ldr	r1, [r7, #28]
 227 0176 BC60     		str	r4, [r7, #8]
 228 0178 FFF7FEFF 		bl	__aeabi_fmul
 229 017c 396A     		ldr	r1, [r7, #32]
 230 017e 061C     		adds	r6, r0, #0
 231 0180 201C     		adds	r0, r4, #0
ARM GAS  /tmp/ccVVivOE.s 			page 5


 232 0182 FFF7FEFF 		bl	__aeabi_fmul
 233 0186 011C     		adds	r1, r0, #0
 234 0188 301C     		adds	r0, r6, #0
 235 018a FFF7FEFF 		bl	__aeabi_fadd
 236 018e FFF7FEFF 		bl	__aeabi_f2iz
 237 0192 584B     		ldr	r3, .L43+80
 238 0194 1B88     		ldrh	r3, [r3]
 239 0196 5843     		muls	r0, r3
 240 0198 B882     		strh	r0, [r7, #20]
 241              	.L16:
 242 019a 0298     		ldr	r0, [sp, #8]
 243 019c FFF7FEFF 		bl	__aeabi_f2d
 244 01a0 554A     		ldr	r2, .L43+84
 245 01a2 564B     		ldr	r3, .L43+88
 246 01a4 FFF7FEFF 		bl	__aeabi_dcmple
 247 01a8 454E     		ldr	r6, .L43+28
 248 01aa 514C     		ldr	r4, .L43+76
 249 01ac 544F     		ldr	r7, .L43+92
 250 01ae 0028     		cmp	r0, #0
 251 01b0 5ED0     		beq	.L19
 252 01b2 0599     		ldr	r1, [sp, #20]
 253 01b4 281C     		adds	r0, r5, #0
 254 01b6 FFF7FEFF 		bl	__aeabi_fcmpge
 255 01ba 0028     		cmp	r0, #0
 256 01bc 09D0     		beq	.L21
 257 01be 0399     		ldr	r1, [sp, #12]
 258 01c0 0198     		ldr	r0, [sp, #4]
 259 01c2 FFF7FEFF 		bl	__aeabi_fadd
 260 01c6 011C     		adds	r1, r0, #0
 261 01c8 281C     		adds	r0, r5, #0
 262 01ca FFF7FEFF 		bl	__aeabi_fcmple
 263 01ce 0028     		cmp	r0, #0
 264 01d0 4ED1     		bne	.L19
 265              	.L21:
 266 01d2 FA22     		movs	r2, #250
 267 01d4 3B88     		ldrh	r3, [r7]
 268 01d6 1201     		lsls	r2, r2, #4
 269 01d8 9342     		cmp	r3, r2
 270 01da 1ED9     		bls	.L23
 271 01dc 0023     		movs	r3, #0
 272 01de C821     		movs	r1, #200
 273 01e0 0022     		movs	r2, #0
 274 01e2 6360     		str	r3, [r4, #4]
 275 01e4 A360     		str	r3, [r4, #8]
 276 01e6 2361     		str	r3, [r4, #16]
 277 01e8 424B     		ldr	r3, .L43+80
 278 01ea 8900     		lsls	r1, r1, #2
 279 01ec 1980     		strh	r1, [r3]
 280 01ee A282     		strh	r2, [r4, #20]
 281 01f0 B31D     		adds	r3, r6, #6
 282              	.L42:
 283 01f2 DA77     		strb	r2, [r3, #31]
 284 01f4 13E0     		b	.L24
 285              	.L12:
 286 01f6 0199     		ldr	r1, [sp, #4]
 287 01f8 281C     		adds	r0, r5, #0
 288 01fa FFF7FEFF 		bl	__aeabi_fcmple
ARM GAS  /tmp/ccVVivOE.s 			page 6


 289 01fe 0023     		movs	r3, #0
 290 0200 0028     		cmp	r0, #0
 291 0202 06D0     		beq	.L39
 292 0204 3B4A     		ldr	r2, .L43+80
 293 0206 1288     		ldrh	r2, [r2]
 294 0208 A282     		strh	r2, [r4, #20]
 295 020a 3E4A     		ldr	r2, .L43+96
 296 020c 6260     		str	r2, [r4, #4]
 297              	.L41:
 298 020e A360     		str	r3, [r4, #8]
 299 0210 C3E7     		b	.L16
 300              	.L39:
 301 0212 0022     		movs	r2, #0
 302 0214 6360     		str	r3, [r4, #4]
 303 0216 A282     		strh	r2, [r4, #20]
 304 0218 F9E7     		b	.L41
 305              	.L23:
 306 021a 0133     		adds	r3, r3, #1
 307 021c 3B80     		strh	r3, [r7]
 308              	.L24:
 309 021e 1423     		movs	r3, #20
 310 0220 E75E     		ldrsh	r7, [r4, r3]
 311 0222 3B1C     		adds	r3, r7, #0
 312 0224 002F     		cmp	r7, #0
 313 0226 00DA     		bge	.L25
 314 0228 0023     		movs	r3, #0
 315              	.L25:
 316 022a FA22     		movs	r2, #250
 317 022c 19B2     		sxth	r1, r3
 318 022e D200     		lsls	r2, r2, #3
 319 0230 9142     		cmp	r1, r2
 320 0232 00DD     		ble	.L26
 321 0234 131C     		adds	r3, r2, #0
 322              	.L26:
 323 0236 7169     		ldr	r1, [r6, #20]
 324 0238 0298     		ldr	r0, [sp, #8]
 325 023a A382     		strh	r3, [r4, #20]
 326 023c 1DB2     		sxth	r5, r3
 327 023e FFF7FEFF 		bl	__aeabi_fcmpgt
 328 0242 0028     		cmp	r0, #0
 329 0244 1CD0     		beq	.L40
 330 0246 C823     		movs	r3, #200
 331 0248 9B00     		lsls	r3, r3, #2
 332 024a 9F42     		cmp	r7, r3
 333 024c 15DD     		ble	.L29
 334 024e 294B     		ldr	r3, .L43+80
 335 0250 ADB2     		uxth	r5, r5
 336 0252 AA1E     		subs	r2, r5, #2
 337 0254 1A80     		strh	r2, [r3]
 338 0256 2C4B     		ldr	r3, .L43+100
 339 0258 ED18     		adds	r5, r5, r3
 340 025a A582     		strh	r5, [r4, #20]
 341              	.L30:
 342 025c 1422     		movs	r2, #20
 343 025e A35E     		ldrsh	r3, [r4, r2]
 344 0260 049A     		ldr	r2, [sp, #16]
 345 0262 5363     		str	r3, [r2, #52]
ARM GAS  /tmp/ccVVivOE.s 			page 7


 346              	.L32:
 347 0264 FA23     		movs	r3, #250
 348 0266 049A     		ldr	r2, [sp, #16]
 349 0268 1B01     		lsls	r3, r3, #4
 350 026a 1364     		str	r3, [r2, #64]
 351 026c 07B0     		add	sp, sp, #28
 352              		@ sp needed
 353 026e F0BD     		pop	{r4, r5, r6, r7, pc}
 354              	.L19:
 355 0270 0023     		movs	r3, #0
 356 0272 0122     		movs	r2, #1
 357 0274 3B80     		strh	r3, [r7]
 358 0276 B31D     		adds	r3, r6, #6
 359 0278 BBE7     		b	.L42
 360              	.L29:
 361 027a 0023     		movs	r3, #0
 362 027c A382     		strh	r3, [r4, #20]
 363 027e EDE7     		b	.L30
 364              	.L40:
 365 0280 FA21     		movs	r1, #250
 366 0282 1C4A     		ldr	r2, .L43+80
 367 0284 C900     		lsls	r1, r1, #3
 368 0286 1388     		ldrh	r3, [r2]
 369 0288 6433     		adds	r3, r3, #100
 370 028a 9BB2     		uxth	r3, r3
 371 028c 8B42     		cmp	r3, r1
 372 028e 01D2     		bcs	.L31
 373 0290 1380     		strh	r3, [r2]
 374 0292 E3E7     		b	.L30
 375              	.L31:
 376 0294 1180     		strh	r1, [r2]
 377 0296 E1E7     		b	.L30
 378              	.L11:
 379 0298 049B     		ldr	r3, [sp, #16]
 380 029a 0634     		adds	r4, r4, #6
 381 029c E077     		strb	r0, [r4, #31]
 382 029e 5863     		str	r0, [r3, #52]
 383 02a0 E0E7     		b	.L32
 384              	.L44:
 385 02a2 C046     		.align	2
 386              	.L43:
 387 02a4 00000000 		.word	.LANCHOR1
 388 02a8 00FEAF40 		.word	1085275648
 389 02ac 66666666 		.word	1717986918
 390 02b0 66660A40 		.word	1074423398
 391 02b4 0000E03F 		.word	1071644672
 392 02b8 7B14AE47 		.word	1202590843
 393 02bc E17A843F 		.word	1065646817
 394 02c0 00000000 		.word	.LANCHOR0
 395 02c4 00000000 		.word	.LANCHOR2
 396 02c8 00007A44 		.word	1148846080
 397 02cc 66661A40 		.word	1075471974
 398 02d0 25068195 		.word	-1786706395
 399 02d4 438BFA3F 		.word	1073384259
 400 02d8 B81E85EB 		.word	-343597384
 401 02dc 51B8E63F 		.word	1072085073
 402 02e0 E07A843F 		.word	1065646816
ARM GAS  /tmp/ccVVivOE.s 			page 8


 403 02e4 A4707D3F 		.word	1065185444
 404 02e8 00D7233C 		.word	1008981760
 405 02ec 00000000 		.word	.LANCHOR3
 406 02f0 00000000 		.word	.LANCHOR4
 407 02f4 00000000 		.word	.LANCHOR5
 408 02f8 FCA9F1D2 		.word	-755914244
 409 02fc 4D62503F 		.word	1062232653
 410 0300 00000000 		.word	.LANCHOR6
 411 0304 00004041 		.word	1094713344
 412 0308 E0FCFFFF 		.word	-800
 414              		.section	.text.HAL_TIM_PeriodElapsedCallback,"ax",%progbits
 415              		.align	1
 416              		.global	HAL_TIM_PeriodElapsedCallback
 417              		.syntax unified
 418              		.code	16
 419              		.thumb_func
 420              		.fpu softvfp
 422              	HAL_TIM_PeriodElapsedCallback:
 423              		@ args = 0, pretend = 0, frame = 0
 424              		@ frame_needed = 0, uses_anonymous_args = 0
 425 0000 084B     		ldr	r3, .L50
 426 0002 10B5     		push	{r4, lr}
 427 0004 1A68     		ldr	r2, [r3]
 428 0006 002A     		cmp	r2, #0
 429 0008 0BD0     		beq	.L45
 430 000a 0022     		movs	r2, #0
 431 000c 1A60     		str	r2, [r3]
 432 000e 8022     		movs	r2, #128
 433 0010 054C     		ldr	r4, .L50+4
 434 0012 0649     		ldr	r1, .L50+8
 435 0014 2000     		movs	r0, r4
 436 0016 9200     		lsls	r2, r2, #2
 437 0018 FFF7FEFF 		bl	USBD_CDC_SetTxBuffer
 438 001c 2000     		movs	r0, r4
 439 001e FFF7FEFF 		bl	USBD_CDC_TransmitPacket
 440              	.L45:
 441              		@ sp needed
 442 0022 10BD     		pop	{r4, pc}
 443              	.L51:
 444              		.align	2
 445              	.L50:
 446 0024 00000000 		.word	.LANCHOR7
 447 0028 00000000 		.word	USBD_Device
 448 002c 00000000 		.word	UserTxBuffer
 450              		.global	__aeabi_f2uiz
 451              		.section	.rodata.USB_printfloat.str1.1,"aMS",%progbits,1
 452              	.LC13:
 453 0000 25642E25 		.ascii	"%d.%d \015\012\000"
 453      64200D0A 
 453      00
 454              		.section	.text.USB_printfloat,"ax",%progbits
 455              		.align	1
 456              		.global	USB_printfloat
 457              		.syntax unified
 458              		.code	16
 459              		.thumb_func
 460              		.fpu softvfp
ARM GAS  /tmp/ccVVivOE.s 			page 9


 462              	USB_printfloat:
 463              		@ args = 0, pretend = 0, frame = 0
 464              		@ frame_needed = 0, uses_anonymous_args = 0
 465 0000 8022     		movs	r2, #128
 466 0002 70B5     		push	{r4, r5, r6, lr}
 467 0004 104E     		ldr	r6, .L53
 468 0006 9200     		lsls	r2, r2, #2
 469 0008 051C     		adds	r5, r0, #0
 470 000a 0021     		movs	r1, #0
 471              		@ sp needed
 472 000c 3000     		movs	r0, r6
 473 000e FFF7FEFF 		bl	memset
 474 0012 281C     		adds	r0, r5, #0
 475 0014 FFF7FEFF 		bl	__aeabi_f2uiz
 476 0018 84B2     		uxth	r4, r0
 477 001a 2000     		movs	r0, r4
 478 001c FFF7FEFF 		bl	__aeabi_i2f
 479 0020 011C     		adds	r1, r0, #0
 480 0022 281C     		adds	r0, r5, #0
 481 0024 FFF7FEFF 		bl	__aeabi_fsub
 482 0028 0849     		ldr	r1, .L53+4
 483 002a FFF7FEFF 		bl	__aeabi_fmul
 484 002e FFF7FEFF 		bl	__aeabi_f2uiz
 485 0032 2200     		movs	r2, r4
 486 0034 83B2     		uxth	r3, r0
 487 0036 0649     		ldr	r1, .L53+8
 488 0038 3000     		movs	r0, r6
 489 003a FFF7FEFF 		bl	sprintf
 490 003e 0122     		movs	r2, #1
 491 0040 044B     		ldr	r3, .L53+12
 492 0042 1A60     		str	r2, [r3]
 493 0044 70BD     		pop	{r4, r5, r6, pc}
 494              	.L54:
 495 0046 C046     		.align	2
 496              	.L53:
 497 0048 00000000 		.word	UserTxBuffer
 498 004c 00002041 		.word	1092616192
 499 0050 00000000 		.word	.LC13
 500 0054 00000000 		.word	.LANCHOR7
 502              		.section	.text.disp_on,"ax",%progbits
 503              		.align	1
 504              		.global	disp_on
 505              		.syntax unified
 506              		.code	16
 507              		.thumb_func
 508              		.fpu softvfp
 510              	disp_on:
 511              		@ args = 0, pretend = 0, frame = 8
 512              		@ frame_needed = 0, uses_anonymous_args = 0
 513 0000 1FB5     		push	{r0, r1, r2, r3, r4, lr}
 514 0002 064B     		ldr	r3, .L56
 515 0004 03AA     		add	r2, sp, #12
 516 0006 1380     		strh	r3, [r2]
 517 0008 FA23     		movs	r3, #250
 518 000a 9B00     		lsls	r3, r3, #2
 519 000c 0093     		str	r3, [sp]
 520 000e 7821     		movs	r1, #120
ARM GAS  /tmp/ccVVivOE.s 			page 10


 521 0010 0223     		movs	r3, #2
 522 0012 0348     		ldr	r0, .L56+4
 523 0014 FFF7FEFF 		bl	HAL_I2C_Master_Transmit
 524 0018 05B0     		add	sp, sp, #20
 525              		@ sp needed
 526 001a 00BD     		pop	{pc}
 527              	.L57:
 528              		.align	2
 529              	.L56:
 530 001c 80AFFFFF 		.word	-20608
 531 0020 00000000 		.word	.LANCHOR8
 533              		.section	.text.disp_off,"ax",%progbits
 534              		.align	1
 535              		.global	disp_off
 536              		.syntax unified
 537              		.code	16
 538              		.thumb_func
 539              		.fpu softvfp
 541              	disp_off:
 542              		@ args = 0, pretend = 0, frame = 8
 543              		@ frame_needed = 0, uses_anonymous_args = 0
 544 0000 1FB5     		push	{r0, r1, r2, r3, r4, lr}
 545 0002 064B     		ldr	r3, .L59
 546 0004 03AA     		add	r2, sp, #12
 547 0006 1380     		strh	r3, [r2]
 548 0008 FA23     		movs	r3, #250
 549 000a 9B00     		lsls	r3, r3, #2
 550 000c 0093     		str	r3, [sp]
 551 000e 7821     		movs	r1, #120
 552 0010 0223     		movs	r3, #2
 553 0012 0348     		ldr	r0, .L59+4
 554 0014 FFF7FEFF 		bl	HAL_I2C_Master_Transmit
 555 0018 05B0     		add	sp, sp, #20
 556              		@ sp needed
 557 001a 00BD     		pop	{pc}
 558              	.L60:
 559              		.align	2
 560              	.L59:
 561 001c 80AEFFFF 		.word	-20864
 562 0020 00000000 		.word	.LANCHOR8
 564              		.section	.text.refresh,"ax",%progbits
 565              		.align	1
 566              		.global	refresh
 567              		.syntax unified
 568              		.code	16
 569              		.thumb_func
 570              		.fpu softvfp
 572              	refresh:
 573              		@ args = 0, pretend = 0, frame = 0
 574              		@ frame_needed = 0, uses_anonymous_args = 0
 575 0000 FA23     		movs	r3, #250
 576 0002 07B5     		push	{r0, r1, r2, lr}
 577 0004 9B00     		lsls	r3, r3, #2
 578 0006 0093     		str	r3, [sp]
 579 0008 7821     		movs	r1, #120
 580              		@ sp needed
 581 000a D123     		movs	r3, #209
ARM GAS  /tmp/ccVVivOE.s 			page 11


 582 000c 024A     		ldr	r2, .L62
 583 000e 0348     		ldr	r0, .L62+4
 584 0010 FFF7FEFF 		bl	HAL_I2C_Master_Transmit
 585 0014 07BD     		pop	{r0, r1, r2, pc}
 586              	.L63:
 587 0016 C046     		.align	2
 588              	.L62:
 589 0018 00000000 		.word	screenBuffer
 590 001c 00000000 		.word	.LANCHOR8
 592              		.section	.text.clear_screen,"ax",%progbits
 593              		.align	1
 594              		.global	clear_screen
 595              		.syntax unified
 596              		.code	16
 597              		.thumb_func
 598              		.fpu softvfp
 600              	clear_screen:
 601              		@ args = 0, pretend = 0, frame = 0
 602              		@ frame_needed = 0, uses_anonymous_args = 0
 603 0000 10B5     		push	{r4, lr}
 604 0002 C022     		movs	r2, #192
 605              		@ sp needed
 606 0004 0021     		movs	r1, #0
 607 0006 0248     		ldr	r0, .L65
 608 0008 FFF7FEFF 		bl	memset
 609 000c 10BD     		pop	{r4, pc}
 610              	.L66:
 611 000e C046     		.align	2
 612              	.L65:
 613 0010 11000000 		.word	screenBuffer+17
 615              		.section	.text.disp_init,"ax",%progbits
 616              		.align	1
 617              		.global	disp_init
 618              		.syntax unified
 619              		.code	16
 620              		.thumb_func
 621              		.fpu softvfp
 623              	disp_init:
 624              		@ args = 0, pretend = 0, frame = 0
 625              		@ frame_needed = 0, uses_anonymous_args = 0
 626 0000 73B5     		push	{r0, r1, r4, r5, r6, lr}
 627 0002 FA26     		movs	r6, #250
 628              		@ sp needed
 629 0004 FFF7FEFF 		bl	disp_off
 630 0008 1122     		movs	r2, #17
 631 000a 1149     		ldr	r1, .L68
 632 000c 1148     		ldr	r0, .L68+4
 633 000e FFF7FEFF 		bl	memcpy
 634 0012 FFF7FEFF 		bl	refresh
 635 0016 104D     		ldr	r5, .L68+8
 636 0018 104C     		ldr	r4, .L68+12
 637 001a B600     		lsls	r6, r6, #2
 638 001c 2A00     		movs	r2, r5
 639 001e 2E23     		movs	r3, #46
 640 0020 7821     		movs	r1, #120
 641 0022 0096     		str	r6, [sp]
 642 0024 2000     		movs	r0, r4
ARM GAS  /tmp/ccVVivOE.s 			page 12


 643 0026 FFF7FEFF 		bl	HAL_I2C_Master_Transmit
 644 002a FFF7FEFF 		bl	disp_off
 645 002e 2A00     		movs	r2, r5
 646 0030 2E23     		movs	r3, #46
 647 0032 7821     		movs	r1, #120
 648 0034 0096     		str	r6, [sp]
 649 0036 2000     		movs	r0, r4
 650 0038 FFF7FEFF 		bl	HAL_I2C_Master_Transmit
 651 003c FFF7FEFF 		bl	clear_screen
 652 0040 FFF7FEFF 		bl	refresh
 653 0044 6420     		movs	r0, #100
 654 0046 FFF7FEFF 		bl	HAL_Delay
 655 004a FFF7FEFF 		bl	disp_on
 656 004e 73BD     		pop	{r0, r1, r4, r5, r6, pc}
 657              	.L69:
 658              		.align	2
 659              	.L68:
 660 0050 00000000 		.word	.LANCHOR9
 661 0054 00000000 		.word	screenBuffer
 662 0058 00000000 		.word	.LANCHOR10
 663 005c 00000000 		.word	.LANCHOR8
 665              		.section	.text.set_screen,"ax",%progbits
 666              		.align	1
 667              		.global	set_screen
 668              		.syntax unified
 669              		.code	16
 670              		.thumb_func
 671              		.fpu softvfp
 673              	set_screen:
 674              		@ args = 0, pretend = 0, frame = 0
 675              		@ frame_needed = 0, uses_anonymous_args = 0
 676 0000 10B5     		push	{r4, lr}
 677 0002 C022     		movs	r2, #192
 678              		@ sp needed
 679 0004 FF21     		movs	r1, #255
 680 0006 0248     		ldr	r0, .L71
 681 0008 FFF7FEFF 		bl	memset
 682 000c 10BD     		pop	{r4, pc}
 683              	.L72:
 684 000e C046     		.align	2
 685              	.L71:
 686 0010 11000000 		.word	screenBuffer+17
 688              		.section	.text.write_pixel,"ax",%progbits
 689              		.align	1
 690              		.global	write_pixel
 691              		.syntax unified
 692              		.code	16
 693              		.thumb_func
 694              		.fpu softvfp
 696              	write_pixel:
 697              		@ args = 0, pretend = 0, frame = 0
 698              		@ frame_needed = 0, uses_anonymous_args = 0
 699 0000 10B5     		push	{r4, lr}
 700 0002 5F28     		cmp	r0, #95
 701 0004 1BDC     		bgt	.L73
 702 0006 0F29     		cmp	r1, #15
 703 0008 19DC     		bgt	.L73
ARM GAS  /tmp/ccVVivOE.s 			page 13


 704 000a 012A     		cmp	r2, #1
 705 000c 18D1     		bne	.L75
 706 000e 0723     		movs	r3, #7
 707 0010 CA17     		asrs	r2, r1, #31
 708 0012 1A40     		ands	r2, r3
 709 0014 5218     		adds	r2, r2, r1
 710 0016 5933     		adds	r3, r3, #89
 711 0018 D210     		asrs	r2, r2, #3
 712 001a 5A43     		muls	r2, r3
 713 001c 164B     		ldr	r3, .L78
 714 001e 1018     		adds	r0, r2, r0
 715 0020 1130     		adds	r0, r0, #17
 716 0022 164A     		ldr	r2, .L78+4
 717 0024 1940     		ands	r1, r3
 718 0026 04D5     		bpl	.L76
 719 0028 0823     		movs	r3, #8
 720 002a 0139     		subs	r1, r1, #1
 721 002c 5B42     		rsbs	r3, r3, #0
 722 002e 1943     		orrs	r1, r3
 723 0030 0131     		adds	r1, r1, #1
 724              	.L76:
 725 0032 0123     		movs	r3, #1
 726 0034 09B2     		sxth	r1, r1
 727 0036 8B40     		lsls	r3, r3, r1
 728 0038 115C     		ldrb	r1, [r2, r0]
 729 003a 0B43     		orrs	r3, r1
 730 003c 1354     		strb	r3, [r2, r0]
 731              	.L73:
 732              		@ sp needed
 733 003e 10BD     		pop	{r4, pc}
 734              	.L75:
 735 0040 002A     		cmp	r2, #0
 736 0042 FCD1     		bne	.L73
 737 0044 CB17     		asrs	r3, r1, #31
 738 0046 0732     		adds	r2, r2, #7
 739 0048 1340     		ands	r3, r2
 740 004a 5B18     		adds	r3, r3, r1
 741 004c DB10     		asrs	r3, r3, #3
 742 004e 5932     		adds	r2, r2, #89
 743 0050 5343     		muls	r3, r2
 744 0052 1818     		adds	r0, r3, r0
 745 0054 084B     		ldr	r3, .L78
 746 0056 094C     		ldr	r4, .L78+4
 747 0058 1130     		adds	r0, r0, #17
 748 005a 1940     		ands	r1, r3
 749 005c 04D5     		bpl	.L77
 750 005e 0823     		movs	r3, #8
 751 0060 0139     		subs	r1, r1, #1
 752 0062 5B42     		rsbs	r3, r3, #0
 753 0064 1943     		orrs	r1, r3
 754 0066 0131     		adds	r1, r1, #1
 755              	.L77:
 756 0068 0122     		movs	r2, #1
 757 006a 09B2     		sxth	r1, r1
 758 006c 8A40     		lsls	r2, r2, r1
 759 006e 235C     		ldrb	r3, [r4, r0]
 760 0070 9343     		bics	r3, r2
ARM GAS  /tmp/ccVVivOE.s 			page 14


 761 0072 2354     		strb	r3, [r4, r0]
 762 0074 E3E7     		b	.L73
 763              	.L79:
 764 0076 C046     		.align	2
 765              	.L78:
 766 0078 07000080 		.word	-2147483641
 767 007c 00000000 		.word	screenBuffer
 769              		.section	.text.draw_v_line,"ax",%progbits
 770              		.align	1
 771              		.global	draw_v_line
 772              		.syntax unified
 773              		.code	16
 774              		.thumb_func
 775              		.fpu softvfp
 777              	draw_v_line:
 778              		@ args = 0, pretend = 0, frame = 8
 779              		@ frame_needed = 0, uses_anonymous_args = 0
 780 0000 F7B5     		push	{r0, r1, r2, r4, r5, r6, r7, lr}
 781 0002 0500     		movs	r5, r0
 782 0004 0F00     		movs	r7, r1
 783 0006 1E00     		movs	r6, r3
 784 0008 0024     		movs	r4, #0
 785 000a 0192     		str	r2, [sp, #4]
 786              	.L81:
 787 000c 3919     		adds	r1, r7, r4
 788 000e 3200     		movs	r2, r6
 789 0010 2800     		movs	r0, r5
 790 0012 09B2     		sxth	r1, r1
 791 0014 FFF7FEFF 		bl	write_pixel
 792 0018 019B     		ldr	r3, [sp, #4]
 793 001a 0134     		adds	r4, r4, #1
 794 001c A342     		cmp	r3, r4
 795 001e F5DA     		bge	.L81
 796              		@ sp needed
 797 0020 F7BD     		pop	{r0, r1, r2, r4, r5, r6, r7, pc}
 799              		.section	.text.draw_char,"ax",%progbits
 800              		.align	1
 801              		.global	draw_char
 802              		.syntax unified
 803              		.code	16
 804              		.thumb_func
 805              		.fpu softvfp
 807              	draw_char:
 808              		@ args = 0, pretend = 0, frame = 16
 809              		@ frame_needed = 0, uses_anonymous_args = 0
 810 0000 F0B5     		push	{r4, r5, r6, r7, lr}
 811 0002 85B0     		sub	sp, sp, #20
 812 0004 0300     		movs	r3, r0
 813 0006 0392     		str	r2, [sp, #12]
 814 0008 6022     		movs	r2, #96
 815 000a 0291     		str	r1, [sp, #8]
 816 000c 1340     		ands	r3, r2
 817 000e 1042     		tst	r0, r2
 818 0010 03D0     		beq	.L84
 819 0012 7F23     		movs	r3, #127
 820 0014 1840     		ands	r0, r3
 821 0016 2038     		subs	r0, r0, #32
ARM GAS  /tmp/ccVVivOE.s 			page 15


 822 0018 C3B2     		uxtb	r3, r0
 823              	.L84:
 824 001a 0620     		movs	r0, #6
 825 001c 0024     		movs	r4, #0
 826 001e 0127     		movs	r7, #1
 827 0020 5843     		muls	r0, r3
 828 0022 0E4B     		ldr	r3, .L94
 829 0024 C318     		adds	r3, r0, r3
 830 0026 0193     		str	r3, [sp, #4]
 831              	.L85:
 832 0028 0025     		movs	r5, #0
 833 002a 029B     		ldr	r3, [sp, #8]
 834 002c E618     		adds	r6, r4, r3
 835 002e 36B2     		sxth	r6, r6
 836              	.L88:
 837 0030 039B     		ldr	r3, [sp, #12]
 838 0032 E918     		adds	r1, r5, r3
 839 0034 019B     		ldr	r3, [sp, #4]
 840 0036 09B2     		sxth	r1, r1
 841 0038 1B5D     		ldrb	r3, [r3, r4]
 842 003a 2B41     		asrs	r3, r3, r5
 843 003c 1A00     		movs	r2, r3
 844 003e 3A40     		ands	r2, r7
 845 0040 3B42     		tst	r3, r7
 846 0042 00D0     		beq	.L86
 847 0044 3A00     		movs	r2, r7
 848              	.L86:
 849 0046 3000     		movs	r0, r6
 850 0048 0135     		adds	r5, r5, #1
 851 004a FFF7FEFF 		bl	write_pixel
 852 004e 082D     		cmp	r5, #8
 853 0050 EED1     		bne	.L88
 854 0052 0134     		adds	r4, r4, #1
 855 0054 062C     		cmp	r4, #6
 856 0056 E7D1     		bne	.L85
 857 0058 05B0     		add	sp, sp, #20
 858              		@ sp needed
 859 005a F0BD     		pop	{r4, r5, r6, r7, pc}
 860              	.L95:
 861              		.align	2
 862              	.L94:
 863 005c 00000000 		.word	font
 865              		.section	.text.draw_string,"ax",%progbits
 866              		.align	1
 867              		.global	draw_string
 868              		.syntax unified
 869              		.code	16
 870              		.thumb_func
 871              		.fpu softvfp
 873              	draw_string:
 874              		@ args = 0, pretend = 0, frame = 0
 875              		@ frame_needed = 0, uses_anonymous_args = 0
 876 0000 F8B5     		push	{r3, r4, r5, r6, r7, lr}
 877 0002 0500     		movs	r5, r0
 878 0004 0C00     		movs	r4, r1
 879 0006 1600     		movs	r6, r2
 880 0008 1F00     		movs	r7, r3
ARM GAS  /tmp/ccVVivOE.s 			page 16


 881              	.L97:
 882 000a 2878     		ldrb	r0, [r5]
 883 000c 0028     		cmp	r0, #0
 884 000e 00D1     		bne	.L98
 885              		@ sp needed
 886 0010 F8BD     		pop	{r3, r4, r5, r6, r7, pc}
 887              	.L98:
 888 0012 2100     		movs	r1, r4
 889 0014 3B00     		movs	r3, r7
 890 0016 3200     		movs	r2, r6
 891 0018 0634     		adds	r4, r4, #6
 892 001a FFF7FEFF 		bl	draw_char
 893 001e 0135     		adds	r5, r5, #1
 894 0020 E4B2     		uxtb	r4, r4
 895 0022 F2E7     		b	.L97
 897              		.section	.text.SystemClock_Config,"ax",%progbits
 898              		.align	1
 899              		.global	SystemClock_Config
 900              		.syntax unified
 901              		.code	16
 902              		.thumb_func
 903              		.fpu softvfp
 905              	SystemClock_Config:
 906              		@ args = 0, pretend = 0, frame = 96
 907              		@ frame_needed = 0, uses_anonymous_args = 0
 908 0000 30B5     		push	{r4, r5, lr}
 909 0002 1025     		movs	r5, #16
 910 0004 99B0     		sub	sp, sp, #100
 911 0006 2C22     		movs	r2, #44
 912 0008 0021     		movs	r1, #0
 913 000a 0CA8     		add	r0, sp, #48
 914 000c FFF7FEFF 		bl	memset
 915 0010 2A00     		movs	r2, r5
 916 0012 0021     		movs	r1, #0
 917 0014 6846     		mov	r0, sp
 918 0016 FFF7FEFF 		bl	memset
 919 001a 1C22     		movs	r2, #28
 920 001c 0021     		movs	r1, #0
 921 001e 04A8     		add	r0, sp, #16
 922 0020 FFF7FEFF 		bl	memset
 923 0024 3223     		movs	r3, #50
 924 0026 0B93     		str	r3, [sp, #44]
 925 0028 C023     		movs	r3, #192
 926 002a 0124     		movs	r4, #1
 927 002c 0F95     		str	r5, [sp, #60]
 928 002e 1195     		str	r5, [sp, #68]
 929 0030 5B02     		lsls	r3, r3, #9
 930 0032 0E3D     		subs	r5, r5, #14
 931 0034 0BA8     		add	r0, sp, #44
 932 0036 1495     		str	r5, [sp, #80]
 933 0038 1593     		str	r3, [sp, #84]
 934 003a 0E94     		str	r4, [sp, #56]
 935 003c 1394     		str	r4, [sp, #76]
 936 003e 1094     		str	r4, [sp, #64]
 937 0040 1794     		str	r4, [sp, #92]
 938 0042 FFF7FEFF 		bl	HAL_RCC_OscConfig
 939 0046 0723     		movs	r3, #7
ARM GAS  /tmp/ccVVivOE.s 			page 17


 940 0048 0195     		str	r5, [sp, #4]
 941 004a 0025     		movs	r5, #0
 942 004c 2100     		movs	r1, r4
 943 004e 6846     		mov	r0, sp
 944 0050 0093     		str	r3, [sp]
 945 0052 0295     		str	r5, [sp, #8]
 946 0054 0395     		str	r5, [sp, #12]
 947 0056 FFF7FEFF 		bl	HAL_RCC_ClockConfig
 948 005a 044B     		ldr	r3, .L100
 949 005c 04A8     		add	r0, sp, #16
 950 005e 0493     		str	r3, [sp, #16]
 951 0060 0895     		str	r5, [sp, #32]
 952 0062 0A95     		str	r5, [sp, #40]
 953 0064 FFF7FEFF 		bl	HAL_RCCEx_PeriphCLKConfig
 954 0068 19B0     		add	sp, sp, #100
 955              		@ sp needed
 956 006a 30BD     		pop	{r4, r5, pc}
 957              	.L101:
 958              		.align	2
 959              	.L100:
 960 006c 20000200 		.word	131104
 962              		.section	.rodata.main.str1.1,"aMS",%progbits,1
 963              	.LC28:
 964 0000 41646A75 		.ascii	"Adjust\000"
 964      737400
 965              	.LC30:
 966 0007 50726F66 		.ascii	"Profile\000"
 966      696C6500 
 967              	.LC32:
 968 000f 21414354 		.ascii	"!ACTV\000"
 968      5600
 969              	.LC34:
 970 0015 21505752 		.ascii	"!PWRD\000"
 970      4400
 971              	.LC45:
 972 001b 50442025 		.ascii	"PD %s %1d\000"
 972      73202531 
 972      6400
 973              	.LC47:
 974 0025 2531642E 		.ascii	"%1d.%1d A %2d W\000"
 974      25316420 
 974      41202532 
 974      64205700 
 975              		.global	__aeabi_d2uiz
 976              	.LC49:
 977 0035 55534220 		.ascii	"USB !USB-PD\000"
 977      21555342 
 977      2D504400 
 978              	.LC51:
 979 0041 49726F6E 		.ascii	"Iron Disabled\000"
 979      20446973 
 979      61626C65 
 979      6400
 980              	.LC57:
 981 004f 25642043 		.ascii	"%d C   \000"
 981      20202000 
 982              	.LC59:
ARM GAS  /tmp/ccVVivOE.s 			page 18


 983 0057 25642E25 		.ascii	"%d.%d C\000"
 983      64204300 
 984              	.LC61:
 985 005f 25642E25 		.ascii	"%d.%d V\000"
 985      64205600 
 986              	.LC63:
 987 0067 25642E25 		.ascii	"%d.%d A\000"
 987      64204100 
 988              		.section	.text.startup.main,"ax",%progbits
 989              		.align	1
 990              		.global	main
 991              		.syntax unified
 992              		.code	16
 993              		.thumb_func
 994              		.fpu softvfp
 996              	main:
 997              		@ args = 0, pretend = 0, frame = 128
 998              		@ frame_needed = 0, uses_anonymous_args = 0
 999 0000 F0B5     		push	{r4, r5, r6, r7, lr}
 1000 0002 A3B0     		sub	sp, sp, #140
 1001 0004 FFF7FEFF 		bl	HAL_Init
 1002 0008 FFF7FEFF 		bl	SystemClock_Config
 1003 000c 1022     		movs	r2, #16
 1004 000e 0021     		movs	r1, #0
 1005 0010 1CA8     		add	r0, sp, #112
 1006 0012 FFF7FEFF 		bl	memset
 1007 0016 8021     		movs	r1, #128
 1008 0018 C84D     		ldr	r5, .L144
 1009 001a 8902     		lsls	r1, r1, #10
 1010 001c 6A69     		ldr	r2, [r5, #20]
 1011 001e 9020     		movs	r0, #144
 1012 0020 0A43     		orrs	r2, r1
 1013 0022 6A61     		str	r2, [r5, #20]
 1014 0024 6B69     		ldr	r3, [r5, #20]
 1015 0026 0226     		movs	r6, #2
 1016 0028 0B40     		ands	r3, r1
 1017 002a 8021     		movs	r1, #128
 1018 002c 0993     		str	r3, [sp, #36]
 1019 002e 099B     		ldr	r3, [sp, #36]
 1020 0030 6A69     		ldr	r2, [r5, #20]
 1021 0032 C902     		lsls	r1, r1, #11
 1022 0034 0A43     		orrs	r2, r1
 1023 0036 6A61     		str	r2, [r5, #20]
 1024 0038 6B69     		ldr	r3, [r5, #20]
 1025 003a C005     		lsls	r0, r0, #23
 1026 003c 0B40     		ands	r3, r1
 1027 003e 8021     		movs	r1, #128
 1028 0040 0A93     		str	r3, [sp, #40]
 1029 0042 0A9B     		ldr	r3, [sp, #40]
 1030 0044 6A69     		ldr	r2, [r5, #20]
 1031 0046 0903     		lsls	r1, r1, #12
 1032 0048 0A43     		orrs	r2, r1
 1033 004a 6A61     		str	r2, [r5, #20]
 1034 004c 6B69     		ldr	r3, [r5, #20]
 1035 004e 1D96     		str	r6, [sp, #116]
 1036 0050 0B40     		ands	r3, r1
 1037 0052 0B93     		str	r3, [sp, #44]
ARM GAS  /tmp/ccVVivOE.s 			page 19


 1038 0054 0B9B     		ldr	r3, [sp, #44]
 1039 0056 1823     		movs	r3, #24
 1040 0058 1BA9     		add	r1, sp, #108
 1041 005a 1B93     		str	r3, [sp, #108]
 1042 005c FFF7FEFF 		bl	HAL_GPIO_Init
 1043 0060 8023     		movs	r3, #128
 1044 0062 0024     		movs	r4, #0
 1045 0064 9B01     		lsls	r3, r3, #6
 1046 0066 B648     		ldr	r0, .L144+4
 1047 0068 1BA9     		add	r1, sp, #108
 1048 006a 1B93     		str	r3, [sp, #108]
 1049 006c 1D96     		str	r6, [sp, #116]
 1050 006e 1C94     		str	r4, [sp, #112]
 1051 0070 FFF7FEFF 		bl	HAL_GPIO_Init
 1052 0074 8023     		movs	r3, #128
 1053 0076 0127     		movs	r7, #1
 1054 0078 5B01     		lsls	r3, r3, #5
 1055 007a B248     		ldr	r0, .L144+8
 1056 007c 1BA9     		add	r1, sp, #108
 1057 007e 1B93     		str	r3, [sp, #108]
 1058 0080 1C94     		str	r4, [sp, #112]
 1059 0082 1D94     		str	r4, [sp, #116]
 1060 0084 FFF7FEFF 		bl	HAL_GPIO_Init
 1061 0088 6B69     		ldr	r3, [r5, #20]
 1062 008a 2200     		movs	r2, r4
 1063 008c 3B43     		orrs	r3, r7
 1064 008e 6B61     		str	r3, [r5, #20]
 1065 0090 6B69     		ldr	r3, [r5, #20]
 1066 0092 2100     		movs	r1, r4
 1067 0094 3B40     		ands	r3, r7
 1068 0096 0920     		movs	r0, #9
 1069 0098 0893     		str	r3, [sp, #32]
 1070 009a 089B     		ldr	r3, [sp, #32]
 1071 009c FFF7FEFF 		bl	HAL_NVIC_SetPriority
 1072 00a0 0920     		movs	r0, #9
 1073 00a2 FFF7FEFF 		bl	HAL_NVIC_EnableIRQ
 1074 00a6 2200     		movs	r2, r4
 1075 00a8 2100     		movs	r1, r4
 1076 00aa 1020     		movs	r0, #16
 1077 00ac FFF7FEFF 		bl	HAL_NVIC_SetPriority
 1078 00b0 1020     		movs	r0, #16
 1079 00b2 FFF7FEFF 		bl	HAL_NVIC_EnableIRQ
 1080 00b6 8021     		movs	r1, #128
 1081 00b8 6B69     		ldr	r3, [r5, #20]
 1082 00ba 8900     		lsls	r1, r1, #2
 1083 00bc 3B43     		orrs	r3, r7
 1084 00be 6B61     		str	r3, [r5, #20]
 1085 00c0 6B69     		ldr	r3, [r5, #20]
 1086 00c2 1BA8     		add	r0, sp, #108
 1087 00c4 3B40     		ands	r3, r7
 1088 00c6 0693     		str	r3, [sp, #24]
 1089 00c8 069B     		ldr	r3, [sp, #24]
 1090 00ca AA69     		ldr	r2, [r5, #24]
 1091 00cc 0A43     		orrs	r2, r1
 1092 00ce AA61     		str	r2, [r5, #24]
 1093 00d0 AB69     		ldr	r3, [r5, #24]
 1094 00d2 0C22     		movs	r2, #12
ARM GAS  /tmp/ccVVivOE.s 			page 20


 1095 00d4 0B40     		ands	r3, r1
 1096 00d6 0793     		str	r3, [sp, #28]
 1097 00d8 2100     		movs	r1, r4
 1098 00da 079B     		ldr	r3, [sp, #28]
 1099 00dc FFF7FEFF 		bl	memset
 1100 00e0 994E     		ldr	r6, .L144+12
 1101 00e2 9A4B     		ldr	r3, .L144+16
 1102 00e4 0820     		movs	r0, #8
 1103 00e6 3360     		str	r3, [r6]
 1104 00e8 4023     		movs	r3, #64
 1105 00ea B362     		str	r3, [r6, #40]
 1106 00ec 8023     		movs	r3, #128
 1107 00ee 7061     		str	r0, [r6, #20]
 1108 00f0 DB00     		lsls	r3, r3, #3
 1109 00f2 3000     		movs	r0, r6
 1110 00f4 3761     		str	r7, [r6, #16]
 1111 00f6 F362     		str	r3, [r6, #44]
 1112 00f8 3763     		str	r7, [r6, #48]
 1113 00fa 7763     		str	r7, [r6, #52]
 1114 00fc 7460     		str	r4, [r6, #4]
 1115 00fe B460     		str	r4, [r6, #8]
 1116 0100 F460     		str	r4, [r6, #12]
 1117 0102 B461     		str	r4, [r6, #24]
 1118 0104 F461     		str	r4, [r6, #28]
 1119 0106 3462     		str	r4, [r6, #32]
 1120 0108 7462     		str	r4, [r6, #36]
 1121 010a FFF7FEFF 		bl	HAL_ADC_Init
 1122 010e 0620     		movs	r0, #6
 1123 0110 8023     		movs	r3, #128
 1124 0112 1D90     		str	r0, [sp, #116]
 1125 0114 5B01     		lsls	r3, r3, #5
 1126 0116 1BA9     		add	r1, sp, #108
 1127 0118 3000     		movs	r0, r6
 1128 011a 1C93     		str	r3, [sp, #112]
 1129 011c 1B94     		str	r4, [sp, #108]
 1130 011e FFF7FEFF 		bl	HAL_ADC_ConfigChannel
 1131 0122 1BA9     		add	r1, sp, #108
 1132 0124 3000     		movs	r0, r6
 1133 0126 1B97     		str	r7, [sp, #108]
 1134 0128 FFF7FEFF 		bl	HAL_ADC_ConfigChannel
 1135 012c 0222     		movs	r2, #2
 1136 012e 1BA9     		add	r1, sp, #108
 1137 0130 3000     		movs	r0, r6
 1138 0132 1B92     		str	r2, [sp, #108]
 1139 0134 FFF7FEFF 		bl	HAL_ADC_ConfigChannel
 1140 0138 0523     		movs	r3, #5
 1141 013a 1BA9     		add	r1, sp, #108
 1142 013c 3000     		movs	r0, r6
 1143 013e 1B93     		str	r3, [sp, #108]
 1144 0140 FFF7FEFF 		bl	HAL_ADC_ConfigChannel
 1145 0144 3000     		movs	r0, r6
 1146 0146 FFF7FEFF 		bl	HAL_ADC_MspInit
 1147 014a 814F     		ldr	r7, .L144+20
 1148 014c 814B     		ldr	r3, .L144+24
 1149 014e 3800     		movs	r0, r7
 1150 0150 3B60     		str	r3, [r7]
 1151 0152 814B     		ldr	r3, .L144+28
ARM GAS  /tmp/ccVVivOE.s 			page 21


 1152 0154 BC60     		str	r4, [r7, #8]
 1153 0156 7B60     		str	r3, [r7, #4]
 1154 0158 0123     		movs	r3, #1
 1155 015a 3C61     		str	r4, [r7, #16]
 1156 015c FB60     		str	r3, [r7, #12]
 1157 015e 7C61     		str	r4, [r7, #20]
 1158 0160 BC61     		str	r4, [r7, #24]
 1159 0162 FC61     		str	r4, [r7, #28]
 1160 0164 3C62     		str	r4, [r7, #32]
 1161 0166 FFF7FEFF 		bl	HAL_I2C_Init
 1162 016a 2100     		movs	r1, r4
 1163 016c 3800     		movs	r0, r7
 1164 016e FFF7FEFF 		bl	HAL_I2CEx_ConfigAnalogFilter
 1165 0172 2100     		movs	r1, r4
 1166 0174 3800     		movs	r0, r7
 1167 0176 FFF7FEFF 		bl	HAL_I2CEx_ConfigDigitalFilter
 1168 017a 8021     		movs	r1, #128
 1169 017c AA69     		ldr	r2, [r5, #24]
 1170 017e 0901     		lsls	r1, r1, #4
 1171 0180 0A43     		orrs	r2, r1
 1172 0182 AA61     		str	r2, [r5, #24]
 1173 0184 AB69     		ldr	r3, [r5, #24]
 1174 0186 10AF     		add	r7, sp, #64
 1175 0188 0B40     		ands	r3, r1
 1176 018a 1022     		movs	r2, #16
 1177 018c 2100     		movs	r1, r4
 1178 018e 3800     		movs	r0, r7
 1179 0190 0593     		str	r3, [sp, #20]
 1180 0192 0CAF     		add	r7, sp, #48
 1181 0194 059B     		ldr	r3, [sp, #20]
 1182 0196 FFF7FEFF 		bl	memset
 1183 019a 0822     		movs	r2, #8
 1184 019c 2100     		movs	r1, r4
 1185 019e 3800     		movs	r0, r7
 1186 01a0 14AF     		add	r7, sp, #80
 1187 01a2 FFF7FEFF 		bl	memset
 1188 01a6 1C22     		movs	r2, #28
 1189 01a8 2100     		movs	r1, r4
 1190 01aa 3800     		movs	r0, r7
 1191 01ac 1BAF     		add	r7, sp, #108
 1192 01ae FFF7FEFF 		bl	memset
 1193 01b2 1C22     		movs	r2, #28
 1194 01b4 2100     		movs	r1, r4
 1195 01b6 3800     		movs	r0, r7
 1196 01b8 FFF7FEFF 		bl	memset
 1197 01bc 674F     		ldr	r7, .L144+32
 1198 01be 684B     		ldr	r3, .L144+36
 1199 01c0 0620     		movs	r0, #6
 1200 01c2 3B60     		str	r3, [r7]
 1201 01c4 8023     		movs	r3, #128
 1202 01c6 5B01     		lsls	r3, r3, #5
 1203 01c8 FB60     		str	r3, [r7, #12]
 1204 01ca 8023     		movs	r3, #128
 1205 01cc 7860     		str	r0, [r7, #4]
 1206 01ce 3800     		movs	r0, r7
 1207 01d0 BB61     		str	r3, [r7, #24]
 1208 01d2 BC60     		str	r4, [r7, #8]
ARM GAS  /tmp/ccVVivOE.s 			page 22


 1209 01d4 3C61     		str	r4, [r7, #16]
 1210 01d6 7C61     		str	r4, [r7, #20]
 1211 01d8 FFF7FEFF 		bl	HAL_TIM_Base_Init
 1212 01dc 8023     		movs	r3, #128
 1213 01de 10A9     		add	r1, sp, #64
 1214 01e0 5B01     		lsls	r3, r3, #5
 1215 01e2 3800     		movs	r0, r7
 1216 01e4 1093     		str	r3, [sp, #64]
 1217 01e6 FFF7FEFF 		bl	HAL_TIM_ConfigClockSource
 1218 01ea 3800     		movs	r0, r7
 1219 01ec FFF7FEFF 		bl	HAL_TIM_PWM_Init
 1220 01f0 3800     		movs	r0, r7
 1221 01f2 FFF7FEFF 		bl	HAL_TIM_OC_Init
 1222 01f6 0CA9     		add	r1, sp, #48
 1223 01f8 3800     		movs	r0, r7
 1224 01fa 0C94     		str	r4, [sp, #48]
 1225 01fc 0D94     		str	r4, [sp, #52]
 1226 01fe FFF7FEFF 		bl	HAL_TIMEx_MasterConfigSynchronization
 1227 0202 6023     		movs	r3, #96
 1228 0204 2200     		movs	r2, r4
 1229 0206 14A9     		add	r1, sp, #80
 1230 0208 3800     		movs	r0, r7
 1231 020a 1493     		str	r3, [sp, #80]
 1232 020c 1594     		str	r4, [sp, #84]
 1233 020e 1694     		str	r4, [sp, #88]
 1234 0210 1794     		str	r4, [sp, #92]
 1235 0212 1894     		str	r4, [sp, #96]
 1236 0214 1994     		str	r4, [sp, #100]
 1237 0216 1A94     		str	r4, [sp, #104]
 1238 0218 FFF7FEFF 		bl	HAL_TIM_PWM_ConfigChannel
 1239 021c 7023     		movs	r3, #112
 1240 021e 0C22     		movs	r2, #12
 1241 0220 1493     		str	r3, [sp, #80]
 1242 0222 14A9     		add	r1, sp, #80
 1243 0224 663B     		subs	r3, r3, #102
 1244 0226 3800     		movs	r0, r7
 1245 0228 1593     		str	r3, [sp, #84]
 1246 022a FFF7FEFF 		bl	HAL_TIM_OC_ConfigChannel
 1247 022e 8021     		movs	r1, #128
 1248 0230 8901     		lsls	r1, r1, #6
 1249 0232 2091     		str	r1, [sp, #128]
 1250 0234 3800     		movs	r0, r7
 1251 0236 1BA9     		add	r1, sp, #108
 1252 0238 1B94     		str	r4, [sp, #108]
 1253 023a 1C94     		str	r4, [sp, #112]
 1254 023c 1D94     		str	r4, [sp, #116]
 1255 023e 1E94     		str	r4, [sp, #120]
 1256 0240 1F94     		str	r4, [sp, #124]
 1257 0242 2194     		str	r4, [sp, #132]
 1258 0244 FFF7FEFF 		bl	HAL_TIMEx_ConfigBreakDeadTime
 1259 0248 3800     		movs	r0, r7
 1260 024a FFF7FEFF 		bl	HAL_TIM_MspPostInit
 1261 024e 0222     		movs	r2, #2
 1262 0250 EB69     		ldr	r3, [r5, #28]
 1263 0252 2100     		movs	r1, r4
 1264 0254 1343     		orrs	r3, r2
 1265 0256 EB61     		str	r3, [r5, #28]
ARM GAS  /tmp/ccVVivOE.s 			page 23


 1266 0258 EB69     		ldr	r3, [r5, #28]
 1267 025a 1BA8     		add	r0, sp, #108
 1268 025c 1340     		ands	r3, r2
 1269 025e 0493     		str	r3, [sp, #16]
 1270 0260 0E32     		adds	r2, r2, #14
 1271 0262 049B     		ldr	r3, [sp, #16]
 1272 0264 FFF7FEFF 		bl	memset
 1273 0268 3E4D     		ldr	r5, .L144+40
 1274 026a 3F4B     		ldr	r3, .L144+44
 1275 026c 2800     		movs	r0, r5
 1276 026e 2B60     		str	r3, [r5]
 1277 0270 3E4B     		ldr	r3, .L144+48
 1278 0272 2C61     		str	r4, [r5, #16]
 1279 0274 EB60     		str	r3, [r5, #12]
 1280 0276 9023     		movs	r3, #144
 1281 0278 FF33     		adds	r3, r3, #255
 1282 027a 6B60     		str	r3, [r5, #4]
 1283 027c AC60     		str	r4, [r5, #8]
 1284 027e AC61     		str	r4, [r5, #24]
 1285 0280 FFF7FEFF 		bl	HAL_TIM_Base_Init
 1286 0284 8023     		movs	r3, #128
 1287 0286 1BA9     		add	r1, sp, #108
 1288 0288 5B01     		lsls	r3, r3, #5
 1289 028a 2800     		movs	r0, r5
 1290 028c 1B93     		str	r3, [sp, #108]
 1291 028e FFF7FEFF 		bl	HAL_TIM_ConfigClockSource
 1292 0292 FA22     		movs	r2, #250
 1293 0294 3649     		ldr	r1, .L144+52
 1294 0296 5200     		lsls	r2, r2, #1
 1295 0298 0120     		movs	r0, #1
 1296 029a FFF7FEFF 		bl	stusb_update_pdo
 1297 029e 354A     		ldr	r2, .L144+56
 1298 02a0 3549     		ldr	r1, .L144+60
 1299 02a2 0220     		movs	r0, #2
 1300 02a4 FFF7FEFF 		bl	stusb_update_pdo
 1301 02a8 FA22     		movs	r2, #250
 1302 02aa 3349     		ldr	r1, .L144+60
 1303 02ac 1201     		lsls	r2, r2, #4
 1304 02ae 0320     		movs	r0, #3
 1305 02b0 FFF7FEFF 		bl	stusb_update_pdo
 1306 02b4 0320     		movs	r0, #3
 1307 02b6 FFF7FEFF 		bl	stusb_set_valid_pdo
 1308 02ba C820     		movs	r0, #200
 1309 02bc FFF7FEFF 		bl	HAL_Delay
 1310 02c0 FFF7FEFF 		bl	disp_init
 1311 02c4 FFF7FEFF 		bl	clear_screen
 1312 02c8 2100     		movs	r1, r4
 1313 02ca 3800     		movs	r0, r7
 1314 02cc FFF7FEFF 		bl	HAL_TIM_PWM_Start
 1315 02d0 0C21     		movs	r1, #12
 1316 02d2 3800     		movs	r0, r7
 1317 02d4 FFF7FEFF 		bl	HAL_TIM_OC_Start
 1318 02d8 2849     		ldr	r1, .L144+64
 1319 02da 0422     		movs	r2, #4
 1320 02dc 3000     		movs	r0, r6
 1321 02de FFF7FEFF 		bl	HAL_ADC_Start_DMA
 1322 02e2 9020     		movs	r0, #144
ARM GAS  /tmp/ccVVivOE.s 			page 24


 1323 02e4 0821     		movs	r1, #8
 1324 02e6 C005     		lsls	r0, r0, #23
 1325 02e8 FFF7FEFF 		bl	HAL_GPIO_ReadPin
 1326 02ec A042     		cmp	r0, r4
 1327 02ee 51D0     		beq	.L103
 1328 02f0 9020     		movs	r0, #144
 1329 02f2 1021     		movs	r1, #16
 1330 02f4 C005     		lsls	r0, r0, #23
 1331 02f6 FFF7FEFF 		bl	HAL_GPIO_ReadPin
 1332 02fa A042     		cmp	r0, r4
 1333 02fc 4AD0     		beq	.L103
 1334 02fe 0123     		movs	r3, #1
 1335 0300 1F4C     		ldr	r4, .L144+68
 1336 0302 1A00     		movs	r2, r3
 1337 0304 1900     		movs	r1, r3
 1338 0306 2068     		ldr	r0, [r4]
 1339 0308 FFF7FEFF 		bl	draw_string
 1340 030c 0123     		movs	r3, #1
 1341 030e 0822     		movs	r2, #8
 1342 0310 1900     		movs	r1, r3
 1343 0312 2068     		ldr	r0, [r4]
 1344 0314 FFF7FEFF 		bl	draw_string
 1345 0318 FFF7FEFF 		bl	refresh
 1346 031c 2820     		movs	r0, #40
 1347 031e FFF7FEFF 		bl	HAL_Delay
 1348 0322 184B     		ldr	r3, .L144+72
 1349 0324 184A     		ldr	r2, .L144+76
 1350 0326 1A60     		str	r2, [r3]
 1351              		.syntax divided
 1352              	@ 429 "Drivers/CMSIS/Include/cmsis_gcc.h" 1
 1353 0328 BFF34F8F 		dsb 0xF
 1354              	@ 0 "" 2
 1355              		.thumb
 1356              		.syntax unified
 1357 032c 174B     		ldr	r3, .L144+80
 1358 032e 184A     		ldr	r2, .L144+84
 1359 0330 DA60     		str	r2, [r3, #12]
 1360              		.syntax divided
 1361              	@ 429 "Drivers/CMSIS/Include/cmsis_gcc.h" 1
 1362 0332 BFF34F8F 		dsb 0xF
 1363              	@ 0 "" 2
 1364              		.thumb
 1365              		.syntax unified
 1366              	.L104:
 1367              		.syntax divided
 1368              	@ 375 "Drivers/CMSIS/Include/cmsis_gcc.h" 1
 1369 0336 C046     		nop
 1370              	@ 0 "" 2
 1371              		.thumb
 1372              		.syntax unified
 1373 0338 FDE7     		b	.L104
 1374              	.L145:
 1375 033a C046     		.align	2
 1376              	.L144:
 1377 033c 00100240 		.word	1073876992
 1378 0340 00080048 		.word	1207961600
 1379 0344 00040048 		.word	1207960576
ARM GAS  /tmp/ccVVivOE.s 			page 25


 1380 0348 00000000 		.word	.LANCHOR11
 1381 034c 00240140 		.word	1073816576
 1382 0350 00000000 		.word	.LANCHOR8
 1383 0354 00540040 		.word	1073763328
 1384 0358 0B020000 		.word	523
 1385 035c 00000000 		.word	.LANCHOR3
 1386 0360 002C0140 		.word	1073818624
 1387 0364 00000000 		.word	.LANCHOR12
 1388 0368 00040040 		.word	1073742848
 1389 036c 0F270000 		.word	9999
 1390 0370 88130000 		.word	5000
 1391 0374 DC050000 		.word	1500
 1392 0378 204E0000 		.word	20000
 1393 037c 00000000 		.word	.LANCHOR1
 1394 0380 00000000 		.word	.LANCHOR13
 1395 0384 F03F0020 		.word	536887280
 1396 0388 EFBEADDE 		.word	-559038737
 1397 038c 00ED00E0 		.word	-536810240
 1398 0390 0400FA05 		.word	100270084
 1399              	.L103:
 1400 0394 0123     		movs	r3, #1
 1401 0396 F148     		ldr	r0, .L146
 1402 0398 1A00     		movs	r2, r3
 1403 039a 0F21     		movs	r1, #15
 1404 039c 0068     		ldr	r0, [r0]
 1405 039e FFF7FEFF 		bl	draw_string
 1406 03a2 EF48     		ldr	r0, .L146+4
 1407 03a4 0123     		movs	r3, #1
 1408 03a6 0922     		movs	r2, #9
 1409 03a8 0A21     		movs	r1, #10
 1410 03aa 0068     		ldr	r0, [r0]
 1411 03ac FFF7FEFF 		bl	draw_string
 1412 03b0 FFF7FEFF 		bl	refresh
 1413 03b4 FA20     		movs	r0, #250
 1414 03b6 4000     		lsls	r0, r0, #1
 1415 03b8 FFF7FEFF 		bl	HAL_Delay
 1416 03bc 1422     		movs	r2, #20
 1417 03be E94C     		ldr	r4, .L146+8
 1418 03c0 10A8     		add	r0, sp, #64
 1419 03c2 631D     		adds	r3, r4, #5
 1420 03c4 DA77     		strb	r2, [r3, #31]
 1421 03c6 FFF7FEFF 		bl	stusb_read_rdo
 1422 03ca E51D     		adds	r5, r4, #7
 1423 03cc 0023     		movs	r3, #0
 1424 03ce 0028     		cmp	r0, #0
 1425 03d0 0FD1     		bne	.L143
 1426 03d2 02AB     		add	r3, sp, #8
 1427 03d4 188F     		ldrh	r0, [r3, #56]
 1428 03d6 8005     		lsls	r0, r0, #22
 1429 03d8 800D     		lsrs	r0, r0, #22
 1430 03da FFF7FEFF 		bl	__aeabi_ui2f
 1431 03de E249     		ldr	r1, .L146+12
 1432 03e0 FFF7FEFF 		bl	__aeabi_fdiv
 1433 03e4 3B23     		movs	r3, #59
 1434 03e6 02AA     		add	r2, sp, #8
 1435 03e8 9B18     		adds	r3, r3, r2
 1436 03ea 1B78     		ldrb	r3, [r3]
ARM GAS  /tmp/ccVVivOE.s 			page 26


 1437 03ec 6061     		str	r0, [r4, #20]
 1438 03ee 5B06     		lsls	r3, r3, #25
 1439 03f0 5B0F     		lsrs	r3, r3, #29
 1440              	.L143:
 1441 03f2 EB77     		strb	r3, [r5, #31]
 1442 03f4 0734     		adds	r4, r4, #7
 1443 03f6 E37F     		ldrb	r3, [r4, #31]
 1444 03f8 002B     		cmp	r3, #0
 1445 03fa 00D1     		bne	.LCB1463
 1446 03fc FEE1     		b	.L107	@long jump
 1447              	.LCB1463:
 1448 03fe DB4A     		ldr	r2, .L146+16
 1449 0400 032B     		cmp	r3, #3
 1450 0402 00D8     		bhi	.L108
 1451 0404 DA4A     		ldr	r2, .L146+20
 1452              	.L108:
 1453 0406 DB49     		ldr	r1, .L146+24
 1454 0408 14A8     		add	r0, sp, #80
 1455 040a FFF7FEFF 		bl	sprintf
 1456 040e D54E     		ldr	r6, .L146+8
 1457 0410 7569     		ldr	r5, [r6, #20]
 1458 0412 281C     		adds	r0, r5, #0
 1459 0414 FFF7FEFF 		bl	__aeabi_f2uiz
 1460 0418 84B2     		uxth	r4, r0
 1461 041a B068     		ldr	r0, [r6, #8]
 1462 041c FFF7FEFF 		bl	__aeabi_f2d
 1463 0420 FFF7FEFF 		bl	ceil
 1464 0424 0600     		movs	r6, r0
 1465 0426 2000     		movs	r0, r4
 1466 0428 0F00     		movs	r7, r1
 1467 042a FFF7FEFF 		bl	__aeabi_i2f
 1468 042e 011C     		adds	r1, r0, #0
 1469 0430 281C     		adds	r0, r5, #0
 1470 0432 FFF7FEFF 		bl	__aeabi_fsub
 1471 0436 D049     		ldr	r1, .L146+28
 1472 0438 FFF7FEFF 		bl	__aeabi_fmul
 1473 043c FFF7FEFF 		bl	__aeabi_f2uiz
 1474 0440 83B2     		uxth	r3, r0
 1475 0442 281C     		adds	r0, r5, #0
 1476 0444 0293     		str	r3, [sp, #8]
 1477 0446 FFF7FEFF 		bl	__aeabi_f2d
 1478 044a 3200     		movs	r2, r6
 1479 044c 3B00     		movs	r3, r7
 1480 044e FFF7FEFF 		bl	__aeabi_dmul
 1481 0452 FFF7FEFF 		bl	__aeabi_d2uiz
 1482 0456 80B2     		uxth	r0, r0
 1483 0458 0090     		str	r0, [sp]
 1484 045a 2200     		movs	r2, r4
 1485 045c 029B     		ldr	r3, [sp, #8]
 1486 045e C749     		ldr	r1, .L146+32
 1487 0460 1BA8     		add	r0, sp, #108
 1488 0462 FFF7FEFF 		bl	sprintf
 1489              	.L109:
 1490 0466 FFF7FEFF 		bl	clear_screen
 1491 046a 0123     		movs	r3, #1
 1492 046c 0A21     		movs	r1, #10
 1493 046e 1A00     		movs	r2, r3
ARM GAS  /tmp/ccVVivOE.s 			page 27


 1494 0470 14A8     		add	r0, sp, #80
 1495 0472 FFF7FEFF 		bl	draw_string
 1496 0476 0123     		movs	r3, #1
 1497 0478 0922     		movs	r2, #9
 1498 047a 0A21     		movs	r1, #10
 1499 047c 1BA8     		add	r0, sp, #108
 1500 047e FFF7FEFF 		bl	draw_string
 1501 0482 FFF7FEFF 		bl	refresh
 1502 0486 FA20     		movs	r0, #250
 1503 0488 8000     		lsls	r0, r0, #2
 1504 048a FFF7FEFF 		bl	HAL_Delay
 1505 048e FA20     		movs	r0, #250
 1506 0490 8000     		lsls	r0, r0, #2
 1507 0492 FFF7FEFF 		bl	HAL_Delay
 1508 0496 BA48     		ldr	r0, .L146+36
 1509 0498 BA4B     		ldr	r3, .L146+40
 1510 049a 0360     		str	r3, [r0]
 1511 049c 0023     		movs	r3, #0
 1512 049e 4360     		str	r3, [r0, #4]
 1513 04a0 B94B     		ldr	r3, .L146+44
 1514 04a2 C360     		str	r3, [r0, #12]
 1515 04a4 8360     		str	r3, [r0, #8]
 1516 04a6 FFF7FEFF 		bl	HAL_IWDG_Init
 1517 04aa B84B     		ldr	r3, .L146+48
 1518 04ac B84C     		ldr	r4, .L146+52
 1519 04ae 1888     		ldrh	r0, [r3]
 1520 04b0 C823     		movs	r3, #200
 1521 04b2 5B00     		lsls	r3, r3, #1
 1522 04b4 9842     		cmp	r0, r3
 1523 04b6 00D3     		bcc	.LCB1545
 1524 04b8 A9E1     		b	.L110	@long jump
 1525              	.LCB1545:
 1526 04ba FFF7FEFF 		bl	__aeabi_ui2f
 1527 04be 2060     		str	r0, [r4]
 1528              	.L111:
 1529 04c0 0125     		movs	r5, #1
 1530              	.L126:
 1531 04c2 3220     		movs	r0, #50
 1532 04c4 FFF7FEFF 		bl	HAL_Delay
 1533 04c8 9020     		movs	r0, #144
 1534 04ca 0821     		movs	r1, #8
 1535 04cc C005     		lsls	r0, r0, #23
 1536 04ce FFF7FEFF 		bl	HAL_GPIO_ReadPin
 1537 04d2 A44C     		ldr	r4, .L146+8
 1538 04d4 1021     		movs	r1, #16
 1539 04d6 A077     		strb	r0, [r4, #30]
 1540 04d8 9020     		movs	r0, #144
 1541 04da C005     		lsls	r0, r0, #23
 1542 04dc FFF7FEFF 		bl	HAL_GPIO_ReadPin
 1543 04e0 8021     		movs	r1, #128
 1544 04e2 0600     		movs	r6, r0
 1545 04e4 8901     		lsls	r1, r1, #6
 1546 04e6 AB48     		ldr	r0, .L146+56
 1547 04e8 FFF7FEFF 		bl	HAL_GPIO_ReadPin
 1548 04ec 0643     		orrs	r6, r0
 1549 04ee F6B2     		uxtb	r6, r6
 1550 04f0 A74F     		ldr	r7, .L146+52
ARM GAS  /tmp/ccVVivOE.s 			page 28


 1551 04f2 6677     		strb	r6, [r4, #29]
 1552 04f4 012E     		cmp	r6, #1
 1553 04f6 08D1     		bne	.L112
 1554 04f8 3868     		ldr	r0, [r7]
 1555 04fa A749     		ldr	r1, .L146+60
 1556 04fc FFF7FEFF 		bl	__aeabi_fsub
 1557 0500 3860     		str	r0, [r7]
 1558 0502 2820     		movs	r0, #40
 1559 0504 2677     		strb	r6, [r4, #28]
 1560 0506 FFF7FEFF 		bl	HAL_Delay
 1561              	.L112:
 1562 050a A67F     		ldrb	r6, [r4, #30]
 1563 050c 012E     		cmp	r6, #1
 1564 050e 08D1     		bne	.L113
 1565 0510 3868     		ldr	r0, [r7]
 1566 0512 A149     		ldr	r1, .L146+60
 1567 0514 FFF7FEFF 		bl	__aeabi_fadd
 1568 0518 3860     		str	r0, [r7]
 1569 051a 2820     		movs	r0, #40
 1570 051c 2677     		strb	r6, [r4, #28]
 1571 051e FFF7FEFF 		bl	HAL_Delay
 1572              	.L113:
 1573 0522 3E68     		ldr	r6, [r7]
 1574 0524 9D49     		ldr	r1, .L146+64
 1575 0526 301C     		adds	r0, r6, #0
 1576 0528 FFF7FEFF 		bl	__aeabi_fcmpgt
 1577 052c 0028     		cmp	r0, #0
 1578 052e 00D0     		beq	.LCB1611
 1579 0530 70E1     		b	.L128	@long jump
 1580              	.LCB1611:
 1581 0532 9B49     		ldr	r1, .L146+68
 1582 0534 301C     		adds	r0, r6, #0
 1583 0536 FFF7FEFF 		bl	__aeabi_fcmplt
 1584 053a 0028     		cmp	r0, #0
 1585 053c 00D0     		beq	.LCB1617
 1586 053e 6BE1     		b	.L129	@long jump
 1587              	.LCB1617:
 1588              	.L114:
 1589 0540 3E60     		str	r6, [r7]
 1590 0542 237F     		ldrb	r3, [r4, #28]
 1591 0544 012B     		cmp	r3, #1
 1592 0546 2BD1     		bne	.L115
 1593 0548 FFF7FEFF 		bl	HAL_FLASH_Unlock
 1594 054c 0222     		movs	r2, #2
 1595 054e 954B     		ldr	r3, .L146+72
 1596 0550 1969     		ldr	r1, [r3, #16]
 1597 0552 0A43     		orrs	r2, r1
 1598 0554 1A61     		str	r2, [r3, #16]
 1599 0556 8D4A     		ldr	r2, .L146+48
 1600 0558 5A61     		str	r2, [r3, #20]
 1601 055a 4022     		movs	r2, #64
 1602 055c 1969     		ldr	r1, [r3, #16]
 1603 055e 0A43     		orrs	r2, r1
 1604 0560 1A61     		str	r2, [r3, #16]
 1605              	.L116:
 1606 0562 DA68     		ldr	r2, [r3, #12]
 1607 0564 1600     		movs	r6, r2
ARM GAS  /tmp/ccVVivOE.s 			page 29


 1608 0566 2E40     		ands	r6, r5
 1609 0568 2A42     		tst	r2, r5
 1610 056a FAD1     		bne	.L116
 1611 056c 2022     		movs	r2, #32
 1612 056e D968     		ldr	r1, [r3, #12]
 1613 0570 1142     		tst	r1, r2
 1614 0572 12D0     		beq	.L117
 1615 0574 D968     		ldr	r1, [r3, #12]
 1616 0576 3868     		ldr	r0, [r7]
 1617 0578 0A43     		orrs	r2, r1
 1618 057a 0221     		movs	r1, #2
 1619 057c DA60     		str	r2, [r3, #12]
 1620 057e 1A69     		ldr	r2, [r3, #16]
 1621 0580 8A43     		bics	r2, r1
 1622 0582 1A61     		str	r2, [r3, #16]
 1623 0584 FFF7FEFF 		bl	__aeabi_f2uiz
 1624 0588 3300     		movs	r3, r6
 1625 058a 82B2     		uxth	r2, r0
 1626 058c 7F49     		ldr	r1, .L146+48
 1627 058e 2800     		movs	r0, r5
 1628 0590 FFF7FEFF 		bl	HAL_FLASH_Program
 1629 0594 FFF7FEFF 		bl	HAL_FLASH_Lock
 1630 0598 2677     		strb	r6, [r4, #28]
 1631              	.L117:
 1632 059a 0C23     		movs	r3, #12
 1633 059c 0534     		adds	r4, r4, #5
 1634 059e E377     		strb	r3, [r4, #31]
 1635              	.L115:
 1636 05a0 814C     		ldr	r4, .L146+76
 1637 05a2 0B22     		movs	r2, #11
 1638 05a4 2100     		movs	r1, r4
 1639 05a6 0CA8     		add	r0, sp, #48
 1640 05a8 FFF7FEFF 		bl	memcpy
 1641 05ac 3320     		movs	r0, #51
 1642 05ae 02AB     		add	r3, sp, #8
 1643 05b0 C018     		adds	r0, r0, r3
 1644 05b2 0322     		movs	r2, #3
 1645 05b4 0021     		movs	r1, #0
 1646 05b6 FFF7FEFF 		bl	memset
 1647 05ba 2100     		movs	r1, r4
 1648 05bc 0B22     		movs	r2, #11
 1649 05be 10A8     		add	r0, sp, #64
 1650 05c0 FFF7FEFF 		bl	memcpy
 1651 05c4 4320     		movs	r0, #67
 1652 05c6 02AB     		add	r3, sp, #8
 1653 05c8 C018     		adds	r0, r0, r3
 1654 05ca 0322     		movs	r2, #3
 1655 05cc 0021     		movs	r1, #0
 1656 05ce FFF7FEFF 		bl	memset
 1657 05d2 2100     		movs	r1, r4
 1658 05d4 0B22     		movs	r2, #11
 1659 05d6 14A8     		add	r0, sp, #80
 1660 05d8 FFF7FEFF 		bl	memcpy
 1661 05dc 5320     		movs	r0, #83
 1662 05de 02AB     		add	r3, sp, #8
 1663 05e0 C018     		adds	r0, r0, r3
 1664 05e2 0322     		movs	r2, #3
ARM GAS  /tmp/ccVVivOE.s 			page 30


 1665 05e4 0021     		movs	r1, #0
 1666 05e6 FFF7FEFF 		bl	memset
 1667 05ea 2100     		movs	r1, r4
 1668 05ec 0B22     		movs	r2, #11
 1669 05ee 1BA8     		add	r0, sp, #108
 1670 05f0 FFF7FEFF 		bl	memcpy
 1671 05f4 6F20     		movs	r0, #111
 1672 05f6 02AB     		add	r3, sp, #8
 1673 05f8 0322     		movs	r2, #3
 1674 05fa 0021     		movs	r1, #0
 1675 05fc C018     		adds	r0, r0, r3
 1676 05fe FFF7FEFF 		bl	memset
 1677 0602 634B     		ldr	r3, .L146+52
 1678 0604 1868     		ldr	r0, [r3]
 1679 0606 FFF7FEFF 		bl	__aeabi_f2uiz
 1680 060a 6849     		ldr	r1, .L146+80
 1681 060c 82B2     		uxth	r2, r0
 1682 060e 0CA8     		add	r0, sp, #48
 1683 0610 FFF7FEFF 		bl	sprintf
 1684 0614 534C     		ldr	r4, .L146+8
 1685 0616 6768     		ldr	r7, [r4, #4]
 1686 0618 381C     		adds	r0, r7, #0
 1687 061a FFF7FEFF 		bl	__aeabi_f2uiz
 1688 061e 86B2     		uxth	r6, r0
 1689 0620 3000     		movs	r0, r6
 1690 0622 FFF7FEFF 		bl	__aeabi_i2f
 1691 0626 011C     		adds	r1, r0, #0
 1692 0628 381C     		adds	r0, r7, #0
 1693 062a FFF7FEFF 		bl	__aeabi_fsub
 1694 062e 5249     		ldr	r1, .L146+28
 1695 0630 FFF7FEFF 		bl	__aeabi_fmul
 1696 0634 FFF7FEFF 		bl	__aeabi_f2uiz
 1697 0638 3200     		movs	r2, r6
 1698 063a 83B2     		uxth	r3, r0
 1699 063c 5C49     		ldr	r1, .L146+84
 1700 063e 10A8     		add	r0, sp, #64
 1701 0640 FFF7FEFF 		bl	sprintf
 1702 0644 A768     		ldr	r7, [r4, #8]
 1703 0646 381C     		adds	r0, r7, #0
 1704 0648 FFF7FEFF 		bl	__aeabi_f2uiz
 1705 064c 86B2     		uxth	r6, r0
 1706 064e 3000     		movs	r0, r6
 1707 0650 FFF7FEFF 		bl	__aeabi_i2f
 1708 0654 011C     		adds	r1, r0, #0
 1709 0656 381C     		adds	r0, r7, #0
 1710 0658 FFF7FEFF 		bl	__aeabi_fsub
 1711 065c 4649     		ldr	r1, .L146+28
 1712 065e FFF7FEFF 		bl	__aeabi_fmul
 1713 0662 FFF7FEFF 		bl	__aeabi_f2uiz
 1714 0666 3200     		movs	r2, r6
 1715 0668 83B2     		uxth	r3, r0
 1716 066a 5249     		ldr	r1, .L146+88
 1717 066c 14A8     		add	r0, sp, #80
 1718 066e FFF7FEFF 		bl	sprintf
 1719 0672 2769     		ldr	r7, [r4, #16]
 1720 0674 381C     		adds	r0, r7, #0
 1721 0676 FFF7FEFF 		bl	__aeabi_f2uiz
ARM GAS  /tmp/ccVVivOE.s 			page 31


 1722 067a 86B2     		uxth	r6, r0
 1723 067c 3000     		movs	r0, r6
 1724 067e FFF7FEFF 		bl	__aeabi_i2f
 1725 0682 011C     		adds	r1, r0, #0
 1726 0684 381C     		adds	r0, r7, #0
 1727 0686 FFF7FEFF 		bl	__aeabi_fsub
 1728 068a 3B49     		ldr	r1, .L146+28
 1729 068c FFF7FEFF 		bl	__aeabi_fmul
 1730 0690 FFF7FEFF 		bl	__aeabi_f2uiz
 1731 0694 3200     		movs	r2, r6
 1732 0696 83B2     		uxth	r3, r0
 1733 0698 4749     		ldr	r1, .L146+92
 1734 069a 1BA8     		add	r0, sp, #108
 1735 069c FFF7FEFF 		bl	sprintf
 1736 06a0 FFF7FEFF 		bl	clear_screen
 1737 06a4 2B00     		movs	r3, r5
 1738 06a6 2A00     		movs	r2, r5
 1739 06a8 0A21     		movs	r1, #10
 1740 06aa 0CA8     		add	r0, sp, #48
 1741 06ac FFF7FEFF 		bl	draw_string
 1742 06b0 2B00     		movs	r3, r5
 1743 06b2 0922     		movs	r2, #9
 1744 06b4 0A21     		movs	r1, #10
 1745 06b6 10A8     		add	r0, sp, #64
 1746 06b8 FFF7FEFF 		bl	draw_string
 1747 06bc 2B00     		movs	r3, r5
 1748 06be 2A00     		movs	r2, r5
 1749 06c0 3C21     		movs	r1, #60
 1750 06c2 14A8     		add	r0, sp, #80
 1751 06c4 FFF7FEFF 		bl	draw_string
 1752 06c8 621D     		adds	r2, r4, #5
 1753 06ca D37F     		ldrb	r3, [r2, #31]
 1754 06cc 002B     		cmp	r3, #0
 1755 06ce 00D0     		beq	.LCB1802
 1756 06d0 A4E0     		b	.L118	@long jump
 1757              	.LCB1802:
 1758 06d2 2B00     		movs	r3, r5
 1759 06d4 2A00     		movs	r2, r5
 1760 06d6 0A21     		movs	r1, #10
 1761 06d8 1BA8     		add	r0, sp, #108
 1762 06da FFF7FEFF 		bl	draw_string
 1763              	.L119:
 1764 06de 3749     		ldr	r1, .L146+96
 1765 06e0 2069     		ldr	r0, [r4, #16]
 1766 06e2 FFF7FEFF 		bl	__aeabi_fmul
 1767 06e6 FFF7FEFF 		bl	__aeabi_f2d
 1768 06ea 0600     		movs	r6, r0
 1769 06ec E068     		ldr	r0, [r4, #12]
 1770 06ee 0F00     		movs	r7, r1
 1771 06f0 FFF7FEFF 		bl	__aeabi_f2d
 1772 06f4 0022     		movs	r2, #0
 1773 06f6 324B     		ldr	r3, .L146+100
 1774 06f8 FFF7FEFF 		bl	__aeabi_dmul
 1775 06fc 0B00     		movs	r3, r1
 1776 06fe 0200     		movs	r2, r0
 1777 0700 3900     		movs	r1, r7
 1778 0702 3000     		movs	r0, r6
ARM GAS  /tmp/ccVVivOE.s 			page 32


 1779 0704 FFF7FEFF 		bl	__aeabi_dadd
 1780 0708 FFF7FEFF 		bl	__aeabi_d2f
 1781 070c A31D     		adds	r3, r4, #6
 1782 070e 2061     		str	r0, [r4, #16]
 1783 0710 DB7F     		ldrb	r3, [r3, #31]
 1784 0712 002B     		cmp	r3, #0
 1785 0714 00D1     		bne	.LCB1832
 1786 0716 8AE0     		b	.L120	@long jump
 1787              	.LCB1832:
 1788 0718 2849     		ldr	r1, .L146+96
 1789 071a 206A     		ldr	r0, [r4, #32]
 1790 071c FFF7FEFF 		bl	__aeabi_fmul
 1791 0720 FFF7FEFF 		bl	__aeabi_f2d
 1792 0724 1A4B     		ldr	r3, .L146+52
 1793 0726 0290     		str	r0, [sp, #8]
 1794 0728 0391     		str	r1, [sp, #12]
 1795 072a 2649     		ldr	r1, .L146+104
 1796 072c 5868     		ldr	r0, [r3, #4]
 1797 072e FFF7FEFF 		bl	__aeabi_fmul
 1798 0732 2549     		ldr	r1, .L146+108
 1799 0734 061C     		adds	r6, r0, #0
 1800 0736 FFF7FEFF 		bl	__aeabi_fcmpgt
 1801 073a 0028     		cmp	r0, #0
 1802 073c 71D1     		bne	.L130
 1803 073e 0021     		movs	r1, #0
 1804 0740 301C     		adds	r0, r6, #0
 1805 0742 FFF7FEFF 		bl	__aeabi_fcmplt
 1806 0746 0028     		cmp	r0, #0
 1807 0748 6ED1     		bne	.L131
 1808 074a 301C     		adds	r0, r6, #0
 1809 074c FFF7FEFF 		bl	__aeabi_f2d
 1810              	.L121:
 1811 0750 0022     		movs	r2, #0
 1812 0752 1B4B     		ldr	r3, .L146+100
 1813 0754 FFF7FEFF 		bl	__aeabi_dmul
 1814 0758 38E0     		b	.L147
 1815              	.L148:
 1816 075a C046     		.align	2
 1817              	.L146:
 1818 075c 00000000 		.word	.LANCHOR14
 1819 0760 00000000 		.word	.LANCHOR15
 1820 0764 00000000 		.word	.LANCHOR0
 1821 0768 0000C842 		.word	1120403456
 1822 076c 00000000 		.word	.LC28
 1823 0770 07000000 		.word	.LC30
 1824 0774 1B000000 		.word	.LC45
 1825 0778 00002041 		.word	1092616192
 1826 077c 25000000 		.word	.LC47
 1827 0780 00000000 		.word	.LANCHOR16
 1828 0784 00300040 		.word	1073754112
 1829 0788 FF0F0000 		.word	4095
 1830 078c 00E40008 		.word	134276096
 1831 0790 00000000 		.word	.LANCHOR4
 1832 0794 00080048 		.word	1207961600
 1833 0798 0000A040 		.word	1084227584
 1834 079c 0000C843 		.word	1137180672
 1835 07a0 0000A041 		.word	1101004800
ARM GAS  /tmp/ccVVivOE.s 			page 33


 1836 07a4 00200240 		.word	1073881088
 1837 07a8 00000000 		.word	.LANCHOR17
 1838 07ac 4F000000 		.word	.LC57
 1839 07b0 57000000 		.word	.LC59
 1840 07b4 5F000000 		.word	.LC61
 1841 07b8 67000000 		.word	.LC63
 1842 07bc 6666663F 		.word	1063675494
 1843 07c0 9A99B93F 		.word	1069128090
 1844 07c4 00004040 		.word	1077936128
 1845 07c8 0000F041 		.word	1106247680
 1846              	.L147:
 1847 07cc 029A     		ldr	r2, [sp, #8]
 1848 07ce 039B     		ldr	r3, [sp, #12]
 1849 07d0 FFF7FEFF 		bl	__aeabi_dadd
 1850 07d4 FFF7FEFF 		bl	__aeabi_d2f
 1851 07d8 0026     		movs	r6, #0
 1852 07da 2062     		str	r0, [r4, #32]
 1853              	.L122:
 1854 07dc 206A     		ldr	r0, [r4, #32]
 1855 07de FFF7FEFF 		bl	__aeabi_f2iz
 1856 07e2 8642     		cmp	r6, r0
 1857 07e4 2EDC     		bgt	.L124
 1858 07e6 3000     		movs	r0, r6
 1859 07e8 0822     		movs	r2, #8
 1860 07ea 3C30     		adds	r0, r0, #60
 1861 07ec 2B00     		movs	r3, r5
 1862 07ee 1100     		movs	r1, r2
 1863 07f0 00B2     		sxth	r0, r0
 1864 07f2 0136     		adds	r6, r6, #1
 1865 07f4 FFF7FEFF 		bl	draw_v_line
 1866 07f8 B6B2     		uxth	r6, r6
 1867 07fa EFE7     		b	.L122
 1868              	.L107:
 1869 07fc 1449     		ldr	r1, .L149
 1870 07fe 14A8     		add	r0, sp, #80
 1871 0800 FFF7FEFF 		bl	strcpy
 1872 0804 1349     		ldr	r1, .L149+4
 1873 0806 1BA8     		add	r0, sp, #108
 1874 0808 FFF7FEFF 		bl	strcpy
 1875 080c 2BE6     		b	.L109
 1876              	.L110:
 1877 080e 124B     		ldr	r3, .L149+8
 1878 0810 2360     		str	r3, [r4]
 1879 0812 55E6     		b	.L111
 1880              	.L128:
 1881 0814 114E     		ldr	r6, .L149+12
 1882 0816 93E6     		b	.L114
 1883              	.L129:
 1884 0818 114E     		ldr	r6, .L149+16
 1885 081a 91E6     		b	.L114
 1886              	.L118:
 1887 081c 013B     		subs	r3, r3, #1
 1888 081e D377     		strb	r3, [r2, #31]
 1889 0820 5DE7     		b	.L119
 1890              	.L130:
 1891 0822 0020     		movs	r0, #0
 1892 0824 0F49     		ldr	r1, .L149+20
ARM GAS  /tmp/ccVVivOE.s 			page 34


 1893 0826 93E7     		b	.L121
 1894              	.L131:
 1895 0828 0020     		movs	r0, #0
 1896 082a 0021     		movs	r1, #0
 1897 082c 90E7     		b	.L121
 1898              	.L120:
 1899 082e 0734     		adds	r4, r4, #7
 1900 0830 E37F     		ldrb	r3, [r4, #31]
 1901 0832 0D48     		ldr	r0, .L149+24
 1902 0834 002B     		cmp	r3, #0
 1903 0836 00D1     		bne	.L125
 1904 0838 0C48     		ldr	r0, .L149+28
 1905              	.L125:
 1906 083a 2B00     		movs	r3, r5
 1907 083c 0922     		movs	r2, #9
 1908 083e 3C21     		movs	r1, #60
 1909 0840 FFF7FEFF 		bl	draw_string
 1910              	.L124:
 1911 0844 FFF7FEFF 		bl	refresh
 1912 0848 0948     		ldr	r0, .L149+32
 1913 084a FFF7FEFF 		bl	HAL_IWDG_Refresh
 1914 084e 38E6     		b	.L126
 1915              	.L150:
 1916              		.align	2
 1917              	.L149:
 1918 0850 35000000 		.word	.LC49
 1919 0854 41000000 		.word	.LC51
 1920 0858 00005C43 		.word	1130102784
 1921 085c 0000C843 		.word	1137180672
 1922 0860 0000A041 		.word	1101004800
 1923 0864 00003E40 		.word	1077805056
 1924 0868 0F000000 		.word	.LC32
 1925 086c 15000000 		.word	.LC34
 1926 0870 00000000 		.word	.LANCHOR16
 1928              		.section	.text.Error_Handler,"ax",%progbits
 1929              		.align	1
 1930              		.global	Error_Handler
 1931              		.syntax unified
 1932              		.code	16
 1933              		.thumb_func
 1934              		.fpu softvfp
 1936              	Error_Handler:
 1937              		@ args = 0, pretend = 0, frame = 0
 1938              		@ frame_needed = 0, uses_anonymous_args = 0
 1939              		@ link register save eliminated.
 1940              		@ sp needed
 1941 0000 7047     		bx	lr
 1943              		.global	OLED_Setup_Array
 1944              		.global	REFRESH_COMMANDS
 1945              		.global	screenBuffer
 1946              		.global	by_string
 1947              		.section	.rodata.str1.1,"aMS",%progbits,1
 1948              	.LC68:
 1949 0000 6279204A 		.ascii	"by Jan Henrik\000"
 1949      616E2048 
 1949      656E7269 
 1949      6B00
ARM GAS  /tmp/ccVVivOE.s 			page 35


 1950              		.global	otter_string
 1951              	.LC69:
 1952 000e 4F747465 		.ascii	"Otter-Iron\000"
 1952      722D4972 
 1952      6F6E00
 1953              		.global	dfu_string
 1954              	.LC70:
 1955 0019 64667564 		.ascii	"dfudfudfudfudfu\000"
 1955      66756466 
 1955      75646675 
 1955      64667500 
 1956              		.global	sendDataUSB
 1957              		.global	tipcal
 1958              		.global	r
 1959              		.global	s
 1960              		.global	USBD_Device
 1961              		.global	hiwdg
 1962              		.global	htim3
 1963              		.global	htim1
 1964              		.global	hi2c1
 1965              		.global	hdma_adc
 1966              		.global	hadc
 1967              		.global	wduty
 1968              		.global	font
 1969              		.section	.rodata
 1970              		.set	.LANCHOR17,. + 0
 1971              	.LC55:
 1972 0000 20202020 		.ascii	"          \000"
 1972      20202020 
 1972      202000
 1973 000b 000000   		.space	3
 1974              		.section	.bss.ADC_raw,"aw",%nobits
 1975              		.align	1
 1976              		.set	.LANCHOR1,. + 0
 1979              	ADC_raw:
 1980 0000 00000000 		.space	8
 1980      00000000 
 1981              		.section	.bss.USBD_Device,"aw",%nobits
 1982              		.align	2
 1985              	USBD_Device:
 1986 0000 00000000 		.space	548
 1986      00000000 
 1986      00000000 
 1986      00000000 
 1986      00000000 
 1987              		.section	.bss.count.0,"aw",%nobits
 1988              		.align	1
 1989              		.set	.LANCHOR6,. + 0
 1992              	count.0:
 1993 0000 0000     		.space	2
 1994              		.section	.bss.hadc,"aw",%nobits
 1995              		.align	2
 1996              		.set	.LANCHOR11,. + 0
 1999              	hadc:
 2000 0000 00000000 		.space	76
 2000      00000000 
 2000      00000000 
ARM GAS  /tmp/ccVVivOE.s 			page 36


 2000      00000000 
 2000      00000000 
 2001              		.section	.bss.hdma_adc,"aw",%nobits
 2002              		.align	2
 2005              	hdma_adc:
 2006 0000 00000000 		.space	68
 2006      00000000 
 2006      00000000 
 2006      00000000 
 2006      00000000 
 2007              		.section	.bss.hi2c1,"aw",%nobits
 2008              		.align	2
 2009              		.set	.LANCHOR8,. + 0
 2012              	hi2c1:
 2013 0000 00000000 		.space	76
 2013      00000000 
 2013      00000000 
 2013      00000000 
 2013      00000000 
 2014              		.section	.bss.hiwdg,"aw",%nobits
 2015              		.align	2
 2016              		.set	.LANCHOR16,. + 0
 2019              	hiwdg:
 2020 0000 00000000 		.space	16
 2020      00000000 
 2020      00000000 
 2020      00000000 
 2021              		.section	.bss.htim1,"aw",%nobits
 2022              		.align	2
 2023              		.set	.LANCHOR3,. + 0
 2026              	htim1:
 2027 0000 00000000 		.space	64
 2027      00000000 
 2027      00000000 
 2027      00000000 
 2027      00000000 
 2028              		.section	.bss.htim3,"aw",%nobits
 2029              		.align	2
 2030              		.set	.LANCHOR12,. + 0
 2033              	htim3:
 2034 0000 00000000 		.space	64
 2034      00000000 
 2034      00000000 
 2034      00000000 
 2034      00000000 
 2035              		.section	.bss.screenBuffer,"aw",%nobits
 2038              	screenBuffer:
 2039 0000 00000000 		.space	218
 2039      00000000 
 2039      00000000 
 2039      00000000 
 2039      00000000 
 2040              		.section	.bss.sendDataUSB,"aw",%nobits
 2041              		.align	2
 2042              		.set	.LANCHOR7,. + 0
 2045              	sendDataUSB:
 2046 0000 00000000 		.space	4
ARM GAS  /tmp/ccVVivOE.s 			page 37


 2047              		.section	.data.OLED_Setup_Array,"aw"
 2048              		.set	.LANCHOR10,. + 0
 2051              	OLED_Setup_Array:
 2052 0000 80D58080 		.ascii	"\200\325\200\200\200\250\200\017\200\310\200\323\200"
 2052      80A8800F 
 2052      80C880D3 
 2052      80
 2053 000d 00804080 		.ascii	"\000\200@\200\240\200\215\200\024\200\332\200\002\200"
 2053      A0808D80 
 2053      1480DA80 
 2053      0280
 2054 001b 81803380 		.ascii	"\201\2003\200\331\200\"\200\333\200@\200\244\200\246"
 2054      D9802280 
 2054      DB804080 
 2054      A480A6
 2055 002a 80208000 		.ascii	"\200 \200\000"
 2056              		.section	.data.by_string,"aw"
 2057              		.align	2
 2058              		.set	.LANCHOR15,. + 0
 2061              	by_string:
 2062 0000 00000000 		.word	.LC68
 2063              		.section	.data.dfu_string,"aw"
 2064              		.align	2
 2065              		.set	.LANCHOR13,. + 0
 2068              	dfu_string:
 2069 0000 19000000 		.word	.LC70
 2070              		.section	.data.otter_string,"aw"
 2071              		.align	2
 2072              		.set	.LANCHOR14,. + 0
 2075              	otter_string:
 2076 0000 0E000000 		.word	.LC69
 2077              		.section	.data.r,"aw"
 2078              		.align	2
 2079              		.set	.LANCHOR4,. + 0
 2082              	r:
 2083 0000 00005C43 		.word	1130102784
 2084 0004 00000000 		.space	8
 2084      00000000 
 2085 000c 00002041 		.word	1092616192
 2086 0010 00000000 		.space	8
 2086      00000000 
 2087 0018 240B9838 		.word	949488420
 2088 001c 0000003F 		.word	1056964608
 2089 0020 0000803F 		.word	1065353216
 2090 0024 00007041 		.word	1097859072
 2091              		.section	.data.s,"aw"
 2092              		.align	2
 2093              		.set	.LANCHOR0,. + 0
 2096              	s:
 2097 0000 00000000 		.space	20
 2097      00000000 
 2097      00000000 
 2097      00000000 
 2097      00000000 
 2098 0014 0000C03F 		.word	1069547520
 2099 0018 00000000 		.space	4
 2100 001c 00       		.byte	0
ARM GAS  /tmp/ccVVivOE.s 			page 38


 2101 001d 00000000 		.space	11
 2101      00000000 
 2101      000000
 2102              		.section	.data.tipcal,"aw"
 2103              		.align	2
 2104              		.set	.LANCHOR2,. + 0
 2107              	tipcal:
 2108 0000 0000F042 		.word	1123024896
 2109 0004 0000B842 		.word	1119354880
 2110              		.section	.data.wduty,"aw"
 2111              		.align	1
 2112              		.set	.LANCHOR5,. + 0
 2115              	wduty:
 2116 0000 2003     		.short	800
 2117              		.section	.rodata.REFRESH_COMMANDS,"a"
 2118              		.set	.LANCHOR9,. + 0
 2121              	REFRESH_COMMANDS:
 2122 0000 80AF8021 		.ascii	"\200\257\200!\200 \200\177\200\300\200\"\200\000\200"
 2122      8020807F 
 2122      80C08022 
 2122      800080
 2123 000f 0140     		.ascii	"\001@"
 2124              		.section	.rodata.font,"a"
 2127              	font:
 2128 0000 00000000 		.ascii	"\000\000\000\000\000\000"
 2128      0000
 2129 0006 2F000000 		.ascii	"/\000\000\000\000\000"
 2129      0000
 2130 000c 03000300 		.ascii	"\003\000\003\000\000\000"
 2130      0000
 2131 0012 123F1212 		.ascii	"\022?\022\022?\022"
 2131      3F12
 2132 0018 2E2A7F2A 		.ascii	".*\177*:\000"
 2132      3A00
 2133 001e 23130804 		.ascii	"#\023\010\00421"
 2133      3231
 2134 0024 102A252A 		.ascii	"\020*%*\020 "
 2134      1020
 2135 002a 02010000 		.ascii	"\002\001\000\000\000\000"
 2135      0000
 2136 0030 1E210000 		.ascii	"\036!\000\000\000\000"
 2136      0000
 2137 0036 211E0000 		.ascii	"!\036\000\000\000\000"
 2137      0000
 2138 003c 082A1C2A 		.ascii	"\010*\034*\010\010"
 2138      0808
 2139 0042 08083E08 		.ascii	"\010\010>\010\010\010"
 2139      0808
 2140 0048 80600000 		.ascii	"\200`\000\000\000\000"
 2140      0000
 2141 004e 08080808 		.ascii	"\010\010\010\010\010\000"
 2141      0800
 2142 0054 30300000 		.ascii	"00\000\000\000\000"
 2142      0000
 2143 005a 20100804 		.ascii	" \020\010\004\002\000"
 2143      0200
 2144 0060 1E312925 		.ascii	"\0361)%#\036"
ARM GAS  /tmp/ccVVivOE.s 			page 39


 2144      231E
 2145 0066 22213F20 		.ascii	"\"!?   "
 2145      2020
 2146 006c 32292929 		.ascii	"2))))&"
 2146      2926
 2147 0072 12212125 		.ascii	"\022!!%%\032"
 2147      251A
 2148 0078 1814123F 		.ascii	"\030\024\022?\020\020"
 2148      1010
 2149 007e 17252525 		.ascii	"\027%%%%\031"
 2149      2519
 2150 0084 1E252525 		.ascii	"\036%%%%\030"
 2150      2518
 2151 008a 01013109 		.ascii	"\001\0011\011\005\003"
 2151      0503
 2152 0090 1A252525 		.ascii	"\032%%%%\032"
 2152      251A
 2153 0096 06292929 		.ascii	"\006))))\036"
 2153      291E
 2154 009c 24000000 		.ascii	"$\000\000\000\000\000"
 2154      0000
 2155 00a2 80640000 		.ascii	"\200d\000\000\000\000"
 2155      0000
 2156 00a8 08142200 		.ascii	"\010\024\"\000\000\000"
 2156      0000
 2157 00ae 14141414 		.ascii	"\024\024\024\024\024\000"
 2157      1400
 2158 00b4 22140800 		.ascii	"\"\024\010\000\000\000"
 2158      0000
 2159 00ba 02010129 		.ascii	"\002\001\001)\005\002"
 2159      0502
 2160 00c0 1E212D2B 		.ascii	"\036!-+-\016"
 2160      2D0E
 2161 00c6 3E090909 		.ascii	">\011\011\011\011>"
 2161      093E
 2162 00cc 3F252525 		.ascii	"?%%%%\032"
 2162      251A
 2163 00d2 1E212121 		.ascii	"\036!!!!\022"
 2163      2112
 2164 00d8 3F212121 		.ascii	"?!!!\022\014"
 2164      120C
 2165 00de 3F252525 		.ascii	"?%%%%!"
 2165      2521
 2166 00e4 3F050505 		.ascii	"?\005\005\005\005\001"
 2166      0501
 2167 00ea 1E212121 		.ascii	"\036!!!)\032"
 2167      291A
 2168 00f0 3F040404 		.ascii	"?\004\004\004\004?"
 2168      043F
 2169 00f6 21213F21 		.ascii	"!!?!!!"
 2169      2121
 2170 00fc 10202020 		.ascii	"\020    \037"
 2170      201F
 2171 0102 3F040C0A 		.ascii	"?\004\014\012\021 "
 2171      1120
 2172 0108 3F202020 		.ascii	"?     "
 2172      2020
ARM GAS  /tmp/ccVVivOE.s 			page 40


 2173 010e 3F020404 		.ascii	"?\002\004\004\002?"
 2173      023F
 2174 0114 3F020408 		.ascii	"?\002\004\010\020?"
 2174      103F
 2175 011a 1E212121 		.ascii	"\036!!!!\036"
 2175      211E
 2176 0120 3F090909 		.ascii	"?\011\011\011\011\006"
 2176      0906
 2177 0126 1E212931 		.ascii	"\036!)1!\036"
 2177      211E
 2178 012c 3F090909 		.ascii	"?\011\011\011\031&"
 2178      1926
 2179 0132 12252525 		.ascii	"\022%%%%\030"
 2179      2518
 2180 0138 0101013F 		.ascii	"\001\001\001?\001\001"
 2180      0101
 2181 013e 1F202020 		.ascii	"\037    \037"
 2181      201F
 2182 0144 0F102020 		.ascii	"\017\020  \020\017"
 2182      100F
 2183 014a 1F201010 		.ascii	"\037 \020\020 \037"
 2183      201F
 2184 0150 21120C0C 		.ascii	"!\022\014\014\022!"
 2184      1221
 2185 0156 01020C38 		.ascii	"\001\002\0148\004\002"
 2185      0402
 2186 015c 21312925 		.ascii	"!1)%#!"
 2186      2321
 2187 0162 3F210000 		.ascii	"?!\000\000\000\000"
 2187      0000
 2188 0168 02040810 		.ascii	"\002\004\010\020 \000"
 2188      2000
 2189 016e 213F0000 		.ascii	"!?\000\000\000\000"
 2189      0000
 2190 0174 04023F02 		.ascii	"\004\002?\002\004\000"
 2190      0400
 2191 017a 40404040 		.ascii	"@@@@@@"
 2191      4040
 2192 0180 01020000 		.ascii	"\001\002\000\000\000\000"
 2192      0000
 2193 0186 10302A2A 		.ascii	"\0200**<\000"
 2193      3C00
 2194 018c 3F242424 		.ascii	"?$$$\030\000"
 2194      1800
 2195 0192 0C142222 		.ascii	"\014\024\"\"\000\000"
 2195      0000
 2196 0198 18242424 		.ascii	"\030$$$?\000"
 2196      3F00
 2197 019e 1C2C2A2A 		.ascii	"\034,**$\000"
 2197      2400
 2198 01a4 3E050100 		.ascii	">\005\001\000\000\000"
 2198      0000
 2199 01aa 1828A4A4 		.ascii	"\030(\244\244|\000"
 2199      7C00
 2200 01b0 3F04040C 		.ascii	"?\004\004\0140\000"
 2200      3000
 2201 01b6 243D2000 		.ascii	"$= \000\000\000"
ARM GAS  /tmp/ccVVivOE.s 			page 41


 2201      0000
 2202 01bc 2040403D 		.ascii	" @@=\000\000"
 2202      0000
 2203 01c2 3F0C1220 		.ascii	"?\014\022 \000\000"
 2203      0000
 2204 01c8 1F202000 		.ascii	"\037  \000\000\000"
 2204      0000
 2205 01ce 3E023C02 		.ascii	">\002<\002<\000"
 2205      3C00
 2206 01d4 3E020202 		.ascii	">\002\002\002<\000"
 2206      3C00
 2207 01da 0C142232 		.ascii	"\014\024\"2\014\000"
 2207      0C00
 2208 01e0 FC242424 		.ascii	"\374$$$\030\000"
 2208      1800
 2209 01e6 18242424 		.ascii	"\030$$$\374\200"
 2209      FC80
 2210 01ec 3C040202 		.ascii	"<\004\002\002\000\000"
 2210      0000
 2211 01f2 242C2A2A 		.ascii	"$,**\020\000"
 2211      1000
 2212 01f8 021F2220 		.ascii	"\002\037\" \000\000"
 2212      0000
 2213 01fe 1E202020 		.ascii	"\036   \036\000"
 2213      1E00
 2214 0204 06182018 		.ascii	"\006\030 \030\006\000"
 2214      0600
 2215 020a 1E301C30 		.ascii	"\0360\0340\016\000"
 2215      0E00
 2216 0210 22140814 		.ascii	"\"\024\010\024\"\000"
 2216      2200
 2217 0216 0C10A0A0 		.ascii	"\014\020\240\240|\000"
 2217      7C00
 2218 021c 22322A26 		.ascii	"\"2*&\"\""
 2218      2222
 2219 0222 0C3F2100 		.ascii	"\014?!\000\000\000"
 2219      0000
 2220 0228 3F000000 		.ascii	"?\000\000\000\000\000"
 2220      0000
 2221 022e 213F0C00 		.ascii	"!?\014\000\000\000"
 2221      0000
 2222 0234 02010201 		.ascii	"\002\001\002\001\000\000"
 2222      0000
 2223 023a 00000000 		.ascii	"\000\000\000\000\000\000"
 2223      0000
 2224              		.ident	"GCC: (Arch Repository) 10.1.0"
ARM GAS  /tmp/ccVVivOE.s 			page 42

