ARM GAS  /tmp/cc1fCVpA.s 			page 1


   1              		.cpu cortex-m0
   2              		.eabi_attribute 20, 1
   3              		.eabi_attribute 21, 1
   4              		.eabi_attribute 23, 3
   5              		.eabi_attribute 24, 1
   6              		.eabi_attribute 25, 1
   7              		.eabi_attribute 26, 1
   8              		.eabi_attribute 30, 4
   9              		.eabi_attribute 34, 0
  10              		.eabi_attribute 18, 4
  11              		.file	"stm32f0xx_hal_pcd.c"
  12              		.text
  13              		.section	.text.HAL_PCD_MspInit,"ax",%progbits
  14              		.align	1
  15              		.weak	HAL_PCD_MspInit
  16              		.arch armv6s-m
  17              		.syntax unified
  18              		.code	16
  19              		.thumb_func
  20              		.fpu softvfp
  22              	HAL_PCD_MspInit:
  23              		@ args = 0, pretend = 0, frame = 0
  24              		@ frame_needed = 0, uses_anonymous_args = 0
  25              		@ link register save eliminated.
  26              		@ sp needed
  27 0000 7047     		bx	lr
  29              		.section	.text.HAL_PCD_Init,"ax",%progbits
  30              		.align	1
  31              		.global	HAL_PCD_Init
  32              		.syntax unified
  33              		.code	16
  34              		.thumb_func
  35              		.fpu softvfp
  37              	HAL_PCD_Init:
  38              		@ args = 0, pretend = 0, frame = 0
  39              		@ frame_needed = 0, uses_anonymous_args = 0
  40 0000 70B5     		push	{r4, r5, r6, lr}
  41 0002 0400     		movs	r4, r0
  42 0004 0120     		movs	r0, #1
  43 0006 002C     		cmp	r4, #0
  44 0008 2BD0     		beq	.L3
  45 000a EA25     		movs	r5, #234
  46 000c FF35     		adds	r5, r5, #255
  47 000e 635D     		ldrb	r3, [r4, r5]
  48 0010 DAB2     		uxtb	r2, r3
  49 0012 002B     		cmp	r3, #0
  50 0014 05D1     		bne	.L4
  51 0016 E933     		adds	r3, r3, #233
  52 0018 FF33     		adds	r3, r3, #255
  53 001a 2000     		movs	r0, r4
  54 001c E254     		strb	r2, [r4, r3]
  55 001e FFF7FEFF 		bl	HAL_PCD_MspInit
  56              	.L4:
  57 0022 0323     		movs	r3, #3
  58 0024 0022     		movs	r2, #0
  59 0026 6355     		strb	r3, [r4, r5]
  60 0028 2300     		movs	r3, r4
ARM GAS  /tmp/cc1fCVpA.s 			page 2


  61 002a 1100     		movs	r1, r2
  62 002c 0126     		movs	r6, #1
  63 002e 6068     		ldr	r0, [r4, #4]
  64 0030 2833     		adds	r3, r3, #40
  65              	.L5:
  66 0032 9042     		cmp	r0, r2
  67 0034 16D1     		bne	.L6
  68 0036 0021     		movs	r1, #0
  69 0038 2300     		movs	r3, r4
  70 003a 0800     		movs	r0, r1
  71 003c 0933     		adds	r3, r3, #9
  72 003e FF33     		adds	r3, r3, #255
  73              	.L7:
  74 0040 8A42     		cmp	r2, r1
  75 0042 18D1     		bne	.L8
  76 0044 0020     		movs	r0, #0
  77 0046 0121     		movs	r1, #1
  78 0048 2368     		ldr	r3, [r4]
  79 004a 9A1C     		adds	r2, r3, #2
  80 004c 9E1D     		adds	r6, r3, #6
  81 004e 5033     		adds	r3, r3, #80
  82 0050 D187     		strh	r1, [r2, #62]
  83 0052 D087     		strh	r0, [r2, #62]
  84 0054 F087     		strh	r0, [r6, #62]
  85 0056 1880     		strh	r0, [r3]
  86 0058 0B4B     		ldr	r3, .L10
  87 005a D387     		strh	r3, [r2, #62]
  88 005c 631D     		adds	r3, r4, #5
  89 005e D877     		strb	r0, [r3, #31]
  90 0060 6155     		strb	r1, [r4, r5]
  91              	.L3:
  92              		@ sp needed
  93 0062 70BD     		pop	{r4, r5, r6, pc}
  94              	.L6:
  95 0064 1A70     		strb	r2, [r3]
  96 0066 5E70     		strb	r6, [r3, #1]
  97 0068 D970     		strb	r1, [r3, #3]
  98 006a D960     		str	r1, [r3, #12]
  99 006c 1961     		str	r1, [r3, #16]
 100 006e 5961     		str	r1, [r3, #20]
 101 0070 0132     		adds	r2, r2, #1
 102 0072 1C33     		adds	r3, r3, #28
 103 0074 DDE7     		b	.L5
 104              	.L8:
 105 0076 1970     		strb	r1, [r3]
 106 0078 5870     		strb	r0, [r3, #1]
 107 007a D870     		strb	r0, [r3, #3]
 108 007c D860     		str	r0, [r3, #12]
 109 007e 1861     		str	r0, [r3, #16]
 110 0080 5861     		str	r0, [r3, #20]
 111 0082 0131     		adds	r1, r1, #1
 112 0084 1C33     		adds	r3, r3, #28
 113 0086 DBE7     		b	.L7
 114              	.L11:
 115              		.align	2
 116              	.L10:
 117 0088 00BFFFFF 		.word	-16640
ARM GAS  /tmp/cc1fCVpA.s 			page 3


 119              		.section	.text.HAL_PCD_MspDeInit,"ax",%progbits
 120              		.align	1
 121              		.weak	HAL_PCD_MspDeInit
 122              		.syntax unified
 123              		.code	16
 124              		.thumb_func
 125              		.fpu softvfp
 127              	HAL_PCD_MspDeInit:
 128              		@ args = 0, pretend = 0, frame = 0
 129              		@ frame_needed = 0, uses_anonymous_args = 0
 130              		@ link register save eliminated.
 131              		@ sp needed
 132 0000 7047     		bx	lr
 134              		.section	.text.HAL_PCD_Start,"ax",%progbits
 135              		.align	1
 136              		.global	HAL_PCD_Start
 137              		.syntax unified
 138              		.code	16
 139              		.thumb_func
 140              		.fpu softvfp
 142              	HAL_PCD_Start:
 143              		@ args = 0, pretend = 0, frame = 0
 144              		@ frame_needed = 0, uses_anonymous_args = 0
 145              		@ link register save eliminated.
 146 0000 8021     		movs	r1, #128
 147              		@ sp needed
 148 0002 0368     		ldr	r3, [r0]
 149 0004 0902     		lsls	r1, r1, #8
 150 0006 5833     		adds	r3, r3, #88
 151 0008 1A88     		ldrh	r2, [r3]
 152 000a 0020     		movs	r0, #0
 153 000c 0A43     		orrs	r2, r1
 154 000e 1A80     		strh	r2, [r3]
 155 0010 7047     		bx	lr
 157              		.section	.text.HAL_PCD_Stop,"ax",%progbits
 158              		.align	1
 159              		.global	HAL_PCD_Stop
 160              		.syntax unified
 161              		.code	16
 162              		.thumb_func
 163              		.fpu softvfp
 165              	HAL_PCD_Stop:
 166              		@ args = 0, pretend = 0, frame = 0
 167              		@ frame_needed = 0, uses_anonymous_args = 0
 168 0000 F421     		movs	r1, #244
 169 0002 10B5     		push	{r4, lr}
 170 0004 4900     		lsls	r1, r1, #1
 171 0006 425C     		ldrb	r2, [r0, r1]
 172 0008 0300     		movs	r3, r0
 173 000a 0220     		movs	r0, #2
 174 000c 012A     		cmp	r2, #1
 175 000e 09D0     		beq	.L15
 176 0010 1A68     		ldr	r2, [r3]
 177 0012 1418     		adds	r4, r2, r0
 178 0014 0138     		subs	r0, r0, #1
 179 0016 E087     		strh	r0, [r4, #62]
 180 0018 0020     		movs	r0, #0
ARM GAS  /tmp/cc1fCVpA.s 			page 4


 181 001a 0632     		adds	r2, r2, #6
 182 001c D087     		strh	r0, [r2, #62]
 183 001e 0322     		movs	r2, #3
 184 0020 E287     		strh	r2, [r4, #62]
 185 0022 5854     		strb	r0, [r3, r1]
 186              	.L15:
 187              		@ sp needed
 188 0024 10BD     		pop	{r4, pc}
 190              		.section	.text.HAL_PCD_DeInit,"ax",%progbits
 191              		.align	1
 192              		.global	HAL_PCD_DeInit
 193              		.syntax unified
 194              		.code	16
 195              		.thumb_func
 196              		.fpu softvfp
 198              	HAL_PCD_DeInit:
 199              		@ args = 0, pretend = 0, frame = 0
 200              		@ frame_needed = 0, uses_anonymous_args = 0
 201 0000 70B5     		push	{r4, r5, r6, lr}
 202 0002 0400     		movs	r4, r0
 203 0004 0120     		movs	r0, #1
 204 0006 002C     		cmp	r4, #0
 205 0008 0BD0     		beq	.L18
 206 000a EA25     		movs	r5, #234
 207 000c 0323     		movs	r3, #3
 208 000e FF35     		adds	r5, r5, #255
 209 0010 6355     		strb	r3, [r4, r5]
 210 0012 2000     		movs	r0, r4
 211 0014 FFF7FEFF 		bl	HAL_PCD_Stop
 212 0018 2000     		movs	r0, r4
 213 001a FFF7FEFF 		bl	HAL_PCD_MspDeInit
 214 001e 0020     		movs	r0, #0
 215 0020 6055     		strb	r0, [r4, r5]
 216              	.L18:
 217              		@ sp needed
 218 0022 70BD     		pop	{r4, r5, r6, pc}
 220              		.section	.text.HAL_PCD_DataOutStageCallback,"ax",%progbits
 221              		.align	1
 222              		.weak	HAL_PCD_DataOutStageCallback
 223              		.syntax unified
 224              		.code	16
 225              		.thumb_func
 226              		.fpu softvfp
 228              	HAL_PCD_DataOutStageCallback:
 229              		@ args = 0, pretend = 0, frame = 0
 230              		@ frame_needed = 0, uses_anonymous_args = 0
 231              		@ link register save eliminated.
 232              		@ sp needed
 233 0000 7047     		bx	lr
 235              		.section	.text.HAL_PCD_DataInStageCallback,"ax",%progbits
 236              		.align	1
 237              		.weak	HAL_PCD_DataInStageCallback
 238              		.syntax unified
 239              		.code	16
 240              		.thumb_func
 241              		.fpu softvfp
 243              	HAL_PCD_DataInStageCallback:
ARM GAS  /tmp/cc1fCVpA.s 			page 5


 244              		@ args = 0, pretend = 0, frame = 0
 245              		@ frame_needed = 0, uses_anonymous_args = 0
 246              		@ link register save eliminated.
 247              		@ sp needed
 248 0000 7047     		bx	lr
 250              		.section	.text.HAL_PCD_SetupStageCallback,"ax",%progbits
 251              		.align	1
 252              		.weak	HAL_PCD_SetupStageCallback
 253              		.syntax unified
 254              		.code	16
 255              		.thumb_func
 256              		.fpu softvfp
 258              	HAL_PCD_SetupStageCallback:
 259              		@ args = 0, pretend = 0, frame = 0
 260              		@ frame_needed = 0, uses_anonymous_args = 0
 261              		@ link register save eliminated.
 262              		@ sp needed
 263 0000 7047     		bx	lr
 265              		.section	.text.HAL_PCD_SOFCallback,"ax",%progbits
 266              		.align	1
 267              		.weak	HAL_PCD_SOFCallback
 268              		.syntax unified
 269              		.code	16
 270              		.thumb_func
 271              		.fpu softvfp
 273              	HAL_PCD_SOFCallback:
 274              		@ args = 0, pretend = 0, frame = 0
 275              		@ frame_needed = 0, uses_anonymous_args = 0
 276              		@ link register save eliminated.
 277              		@ sp needed
 278 0000 7047     		bx	lr
 280              		.section	.text.HAL_PCD_ResetCallback,"ax",%progbits
 281              		.align	1
 282              		.weak	HAL_PCD_ResetCallback
 283              		.syntax unified
 284              		.code	16
 285              		.thumb_func
 286              		.fpu softvfp
 288              	HAL_PCD_ResetCallback:
 289              		@ args = 0, pretend = 0, frame = 0
 290              		@ frame_needed = 0, uses_anonymous_args = 0
 291              		@ link register save eliminated.
 292              		@ sp needed
 293 0000 7047     		bx	lr
 295              		.section	.text.HAL_PCD_SuspendCallback,"ax",%progbits
 296              		.align	1
 297              		.weak	HAL_PCD_SuspendCallback
 298              		.syntax unified
 299              		.code	16
 300              		.thumb_func
 301              		.fpu softvfp
 303              	HAL_PCD_SuspendCallback:
 304              		@ args = 0, pretend = 0, frame = 0
 305              		@ frame_needed = 0, uses_anonymous_args = 0
 306              		@ link register save eliminated.
 307              		@ sp needed
 308 0000 7047     		bx	lr
ARM GAS  /tmp/cc1fCVpA.s 			page 6


 310              		.section	.text.HAL_PCD_ResumeCallback,"ax",%progbits
 311              		.align	1
 312              		.weak	HAL_PCD_ResumeCallback
 313              		.syntax unified
 314              		.code	16
 315              		.thumb_func
 316              		.fpu softvfp
 318              	HAL_PCD_ResumeCallback:
 319              		@ args = 0, pretend = 0, frame = 0
 320              		@ frame_needed = 0, uses_anonymous_args = 0
 321              		@ link register save eliminated.
 322              		@ sp needed
 323 0000 7047     		bx	lr
 325              		.section	.text.HAL_PCD_ISOOUTIncompleteCallback,"ax",%progbits
 326              		.align	1
 327              		.weak	HAL_PCD_ISOOUTIncompleteCallback
 328              		.syntax unified
 329              		.code	16
 330              		.thumb_func
 331              		.fpu softvfp
 333              	HAL_PCD_ISOOUTIncompleteCallback:
 334              		@ args = 0, pretend = 0, frame = 0
 335              		@ frame_needed = 0, uses_anonymous_args = 0
 336              		@ link register save eliminated.
 337              		@ sp needed
 338 0000 7047     		bx	lr
 340              		.section	.text.HAL_PCD_ISOINIncompleteCallback,"ax",%progbits
 341              		.align	1
 342              		.weak	HAL_PCD_ISOINIncompleteCallback
 343              		.syntax unified
 344              		.code	16
 345              		.thumb_func
 346              		.fpu softvfp
 348              	HAL_PCD_ISOINIncompleteCallback:
 349              		@ args = 0, pretend = 0, frame = 0
 350              		@ frame_needed = 0, uses_anonymous_args = 0
 351              		@ link register save eliminated.
 352              		@ sp needed
 353 0000 7047     		bx	lr
 355              		.section	.text.HAL_PCD_ConnectCallback,"ax",%progbits
 356              		.align	1
 357              		.weak	HAL_PCD_ConnectCallback
 358              		.syntax unified
 359              		.code	16
 360              		.thumb_func
 361              		.fpu softvfp
 363              	HAL_PCD_ConnectCallback:
 364              		@ args = 0, pretend = 0, frame = 0
 365              		@ frame_needed = 0, uses_anonymous_args = 0
 366              		@ link register save eliminated.
 367              		@ sp needed
 368 0000 7047     		bx	lr
 370              		.section	.text.HAL_PCD_DisconnectCallback,"ax",%progbits
 371              		.align	1
 372              		.weak	HAL_PCD_DisconnectCallback
 373              		.syntax unified
 374              		.code	16
ARM GAS  /tmp/cc1fCVpA.s 			page 7


 375              		.thumb_func
 376              		.fpu softvfp
 378              	HAL_PCD_DisconnectCallback:
 379              		@ args = 0, pretend = 0, frame = 0
 380              		@ frame_needed = 0, uses_anonymous_args = 0
 381              		@ link register save eliminated.
 382              		@ sp needed
 383 0000 7047     		bx	lr
 385              		.section	.text.HAL_PCD_DevConnect,"ax",%progbits
 386              		.align	1
 387              		.global	HAL_PCD_DevConnect
 388              		.syntax unified
 389              		.code	16
 390              		.thumb_func
 391              		.fpu softvfp
 393              	HAL_PCD_DevConnect:
 394              		@ args = 0, pretend = 0, frame = 0
 395              		@ frame_needed = 0, uses_anonymous_args = 0
 396 0000 10B5     		push	{r4, lr}
 397 0002 F424     		movs	r4, #244
 398 0004 6400     		lsls	r4, r4, #1
 399 0006 025D     		ldrb	r2, [r0, r4]
 400 0008 0300     		movs	r3, r0
 401 000a 0220     		movs	r0, #2
 402 000c 012A     		cmp	r2, #1
 403 000e 08D0     		beq	.L32
 404 0010 8020     		movs	r0, #128
 405 0012 1A68     		ldr	r2, [r3]
 406 0014 0002     		lsls	r0, r0, #8
 407 0016 5832     		adds	r2, r2, #88
 408 0018 1188     		ldrh	r1, [r2]
 409 001a 0143     		orrs	r1, r0
 410 001c 0020     		movs	r0, #0
 411 001e 1180     		strh	r1, [r2]
 412 0020 1855     		strb	r0, [r3, r4]
 413              	.L32:
 414              		@ sp needed
 415 0022 10BD     		pop	{r4, pc}
 417              		.section	.text.HAL_PCD_DevDisconnect,"ax",%progbits
 418              		.align	1
 419              		.global	HAL_PCD_DevDisconnect
 420              		.syntax unified
 421              		.code	16
 422              		.thumb_func
 423              		.fpu softvfp
 425              	HAL_PCD_DevDisconnect:
 426              		@ args = 0, pretend = 0, frame = 0
 427              		@ frame_needed = 0, uses_anonymous_args = 0
 428 0000 10B5     		push	{r4, lr}
 429 0002 F424     		movs	r4, #244
 430 0004 6400     		lsls	r4, r4, #1
 431 0006 025D     		ldrb	r2, [r0, r4]
 432 0008 0300     		movs	r3, r0
 433 000a 0220     		movs	r0, #2
 434 000c 012A     		cmp	r2, #1
 435 000e 07D0     		beq	.L35
 436 0010 0020     		movs	r0, #0
ARM GAS  /tmp/cc1fCVpA.s 			page 8


 437 0012 1968     		ldr	r1, [r3]
 438 0014 5831     		adds	r1, r1, #88
 439 0016 0A88     		ldrh	r2, [r1]
 440 0018 5204     		lsls	r2, r2, #17
 441 001a 520C     		lsrs	r2, r2, #17
 442 001c 0A80     		strh	r2, [r1]
 443 001e 1855     		strb	r0, [r3, r4]
 444              	.L35:
 445              		@ sp needed
 446 0020 10BD     		pop	{r4, pc}
 448              		.section	.text.HAL_PCD_SetAddress,"ax",%progbits
 449              		.align	1
 450              		.global	HAL_PCD_SetAddress
 451              		.syntax unified
 452              		.code	16
 453              		.thumb_func
 454              		.fpu softvfp
 456              	HAL_PCD_SetAddress:
 457              		@ args = 0, pretend = 0, frame = 0
 458              		@ frame_needed = 0, uses_anonymous_args = 0
 459 0000 F422     		movs	r2, #244
 460 0002 10B5     		push	{r4, lr}
 461 0004 5200     		lsls	r2, r2, #1
 462 0006 845C     		ldrb	r4, [r0, r2]
 463 0008 0300     		movs	r3, r0
 464 000a 0220     		movs	r0, #2
 465 000c 012C     		cmp	r4, #1
 466 000e 09D0     		beq	.L38
 467 0010 0138     		subs	r0, r0, #1
 468 0012 9854     		strb	r0, [r3, r2]
 469 0014 0029     		cmp	r1, #0
 470 0016 06D1     		bne	.L39
 471 0018 1968     		ldr	r1, [r3]
 472 001a 7F30     		adds	r0, r0, #127
 473 001c 4C31     		adds	r1, r1, #76
 474 001e 0880     		strh	r0, [r1]
 475              	.L40:
 476 0020 0020     		movs	r0, #0
 477 0022 9854     		strb	r0, [r3, r2]
 478              	.L38:
 479              		@ sp needed
 480 0024 10BD     		pop	{r4, pc}
 481              	.L39:
 482 0026 581D     		adds	r0, r3, #5
 483 0028 C177     		strb	r1, [r0, #31]
 484 002a F9E7     		b	.L40
 486              		.section	.text.HAL_PCD_EP_Open,"ax",%progbits
 487              		.align	1
 488              		.global	HAL_PCD_EP_Open
 489              		.syntax unified
 490              		.code	16
 491              		.thumb_func
 492              		.fpu softvfp
 494              	HAL_PCD_EP_Open:
 495              		@ args = 0, pretend = 0, frame = 16
 496              		@ frame_needed = 0, uses_anonymous_args = 0
 497 0000 F0B5     		push	{r4, r5, r6, r7, lr}
ARM GAS  /tmp/cc1fCVpA.s 			page 9


 498 0002 7F26     		movs	r6, #127
 499 0004 85B0     		sub	sp, sp, #20
 500 0006 0500     		movs	r5, r0
 501 0008 1800     		movs	r0, r3
 502 000a 4BB2     		sxtb	r3, r1
 503 000c 1C24     		movs	r4, #28
 504 000e 0192     		str	r2, [sp, #4]
 505 0010 0393     		str	r3, [sp, #12]
 506 0012 0E40     		ands	r6, r1
 507 0014 002B     		cmp	r3, #0
 508 0016 1DDA     		bge	.L43
 509 0018 7443     		muls	r4, r6
 510 001a 2100     		movs	r1, r4
 511 001c 2831     		adds	r1, r1, #40
 512              	.L88:
 513 001e F424     		movs	r4, #244
 514 0020 039B     		ldr	r3, [sp, #12]
 515 0022 6918     		adds	r1, r5, r1
 516 0024 DB0F     		lsrs	r3, r3, #31
 517 0026 4B70     		strb	r3, [r1, #1]
 518 0028 019B     		ldr	r3, [sp, #4]
 519 002a 0E70     		strb	r6, [r1]
 520 002c CB60     		str	r3, [r1, #12]
 521 002e C870     		strb	r0, [r1, #3]
 522 0030 6400     		lsls	r4, r4, #1
 523 0032 2F5D     		ldrb	r7, [r5, r4]
 524 0034 0223     		movs	r3, #2
 525 0036 012F     		cmp	r7, #1
 526 0038 00D1     		bne	.LCB457
 527 003a D2E0     		b	.L45	@long jump
 528              	.LCB457:
 529 003c 013B     		subs	r3, r3, #1
 530 003e 2B55     		strb	r3, [r5, r4]
 531 0040 B300     		lsls	r3, r6, #2
 532 0042 0328     		cmp	r0, #3
 533 0044 15D8     		bhi	.L46
 534 0046 2C68     		ldr	r4, [r5]
 535 0048 774F     		ldr	r7, .L94
 536 004a E418     		adds	r4, r4, r3
 537 004c FFF7FEFF 		bl	__gnu_thumb1_case_uqi
 538              	.L48:
 539 0050 06       		.byte	(.L51-.L48)/2
 540 0051 47       		.byte	(.L50-.L48)/2
 541 0052 0B       		.byte	(.L49-.L48)/2
 542 0053 43       		.byte	(.L47-.L48)/2
 543              		.p2align 1
 544              	.L43:
 545 0054 6143     		muls	r1, r4
 546 0056 0931     		adds	r1, r1, #9
 547 0058 FF31     		adds	r1, r1, #255
 548 005a E0E7     		b	.L88
 549              	.L51:
 550 005c 2088     		ldrh	r0, [r4]
 551 005e 0740     		ands	r7, r0
 552 0060 7248     		ldr	r0, .L94+4
 553              	.L89:
 554 0062 0743     		orrs	r7, r0
ARM GAS  /tmp/cc1fCVpA.s 			page 10


 555 0064 04E0     		b	.L90
 556              	.L49:
 557 0066 2088     		ldrh	r0, [r4]
 558 0068 0740     		ands	r7, r0
 559 006a 7148     		ldr	r0, .L94+8
 560 006c 0743     		orrs	r7, r0
 561 006e BFB2     		uxth	r7, r7
 562              	.L90:
 563 0070 2780     		strh	r7, [r4]
 564              	.L46:
 565 0072 2C68     		ldr	r4, [r5]
 566 0074 6F48     		ldr	r0, .L94+12
 567 0076 E318     		adds	r3, r4, r3
 568 0078 1F88     		ldrh	r7, [r3]
 569 007a 6D4A     		ldr	r2, .L94+8
 570 007c 0740     		ands	r7, r0
 571 007e 3743     		orrs	r7, r6
 572 0080 1743     		orrs	r7, r2
 573 0082 BFB2     		uxth	r7, r7
 574 0084 F200     		lsls	r2, r6, #3
 575 0086 1F80     		strh	r7, [r3]
 576 0088 0292     		str	r2, [sp, #8]
 577 008a 8E7A     		ldrb	r6, [r1, #10]
 578 008c 002E     		cmp	r6, #0
 579 008e 5AD1     		bne	.L52
 580 0090 0122     		movs	r2, #1
 581 0092 2700     		movs	r7, r4
 582 0094 8E88     		ldrh	r6, [r1, #4]
 583 0096 9446     		mov	ip, r2
 584 0098 9643     		bics	r6, r2
 585 009a 039A     		ldr	r2, [sp, #12]
 586 009c 5037     		adds	r7, r7, #80
 587 009e 002A     		cmp	r2, #0
 588 00a0 21DA     		bge	.L53
 589 00a2 3A88     		ldrh	r2, [r7]
 590 00a4 0299     		ldr	r1, [sp, #8]
 591 00a6 5218     		adds	r2, r2, r1
 592 00a8 1419     		adds	r4, r2, r4
 593 00aa 8022     		movs	r2, #128
 594 00ac D200     		lsls	r2, r2, #3
 595 00ae A418     		adds	r4, r4, r2
 596 00b0 2680     		strh	r6, [r4]
 597 00b2 1A88     		ldrh	r2, [r3]
 598 00b4 5206     		lsls	r2, r2, #25
 599 00b6 04D5     		bpl	.L54
 600 00b8 1A88     		ldrh	r2, [r3]
 601 00ba 1040     		ands	r0, r2
 602 00bc 5E4A     		ldr	r2, .L94+16
 603 00be 1043     		orrs	r0, r2
 604 00c0 1880     		strh	r0, [r3]
 605              	.L54:
 606 00c2 1A88     		ldrh	r2, [r3]
 607 00c4 5D49     		ldr	r1, .L94+20
 608 00c6 1140     		ands	r1, r2
 609 00c8 2022     		movs	r2, #32
 610              	.L93:
 611 00ca 4A40     		eors	r2, r1
ARM GAS  /tmp/cc1fCVpA.s 			page 11


 612 00cc 5849     		ldr	r1, .L94+8
 613 00ce 0A43     		orrs	r2, r1
 614              	.L92:
 615 00d0 92B2     		uxth	r2, r2
 616 00d2 1A80     		strh	r2, [r3]
 617 00d4 81E0     		b	.L55
 618              	.L47:
 619 00d6 2088     		ldrh	r0, [r4]
 620 00d8 0740     		ands	r7, r0
 621 00da 5948     		ldr	r0, .L94+24
 622 00dc C1E7     		b	.L89
 623              	.L50:
 624 00de 2088     		ldrh	r0, [r4]
 625 00e0 0740     		ands	r7, r0
 626 00e2 5848     		ldr	r0, .L94+28
 627 00e4 BDE7     		b	.L89
 628              	.L53:
 629 00e6 3988     		ldrh	r1, [r7]
 630 00e8 029A     		ldr	r2, [sp, #8]
 631 00ea 8918     		adds	r1, r1, r2
 632 00ec 564A     		ldr	r2, .L94+32
 633 00ee 0919     		adds	r1, r1, r4
 634 00f0 8918     		adds	r1, r1, r2
 635 00f2 0E80     		strh	r6, [r1]
 636 00f4 029A     		ldr	r2, [sp, #8]
 637 00f6 3988     		ldrh	r1, [r7]
 638 00f8 8918     		adds	r1, r1, r2
 639 00fa 544A     		ldr	r2, .L94+36
 640 00fc A418     		adds	r4, r4, r2
 641 00fe 019A     		ldr	r2, [sp, #4]
 642 0100 0C19     		adds	r4, r1, r4
 643 0102 3E2A     		cmp	r2, #62
 644 0104 16D9     		bls	.L56
 645 0106 5109     		lsrs	r1, r2, #5
 646 0108 D206     		lsls	r2, r2, #27
 647 010a 01D1     		bne	.L57
 648 010c 0139     		subs	r1, r1, #1
 649 010e 89B2     		uxth	r1, r1
 650              	.L57:
 651 0110 4F4A     		ldr	r2, .L94+40
 652 0112 8902     		lsls	r1, r1, #10
 653 0114 1143     		orrs	r1, r2
 654              	.L91:
 655 0116 2180     		strh	r1, [r4]
 656 0118 1A88     		ldrh	r2, [r3]
 657 011a 5204     		lsls	r2, r2, #17
 658 011c 04D5     		bpl	.L60
 659 011e 1A88     		ldrh	r2, [r3]
 660 0120 1040     		ands	r0, r2
 661 0122 4C4A     		ldr	r2, .L94+44
 662 0124 1043     		orrs	r0, r2
 663 0126 1880     		strh	r0, [r3]
 664              	.L60:
 665 0128 1A88     		ldrh	r2, [r3]
 666 012a 4B49     		ldr	r1, .L94+48
 667 012c 1140     		ands	r1, r2
 668 012e C022     		movs	r2, #192
ARM GAS  /tmp/cc1fCVpA.s 			page 12


 669 0130 9201     		lsls	r2, r2, #6
 670 0132 CAE7     		b	.L93
 671              	.L56:
 672 0134 019A     		ldr	r2, [sp, #4]
 673 0136 019E     		ldr	r6, [sp, #4]
 674 0138 5108     		lsrs	r1, r2, #1
 675 013a 6246     		mov	r2, ip
 676 013c 1642     		tst	r6, r2
 677 013e 00D0     		beq	.L59
 678 0140 0131     		adds	r1, r1, #1
 679              	.L59:
 680 0142 8902     		lsls	r1, r1, #10
 681 0144 E7E7     		b	.L91
 682              	.L52:
 683 0146 1E88     		ldrh	r6, [r3]
 684 0148 444A     		ldr	r2, .L94+52
 685 014a 0127     		movs	r7, #1
 686 014c 3240     		ands	r2, r6
 687 014e 444E     		ldr	r6, .L94+56
 688 0150 3243     		orrs	r2, r6
 689 0152 1A80     		strh	r2, [r3]
 690 0154 5022     		movs	r2, #80
 691 0156 9446     		mov	ip, r2
 692 0158 A444     		add	ip, ip, r4
 693 015a 6246     		mov	r2, ip
 694 015c 1288     		ldrh	r2, [r2]
 695 015e 029E     		ldr	r6, [sp, #8]
 696 0160 A218     		adds	r2, r4, r2
 697 0162 9219     		adds	r2, r2, r6
 698 0164 8026     		movs	r6, #128
 699 0166 F600     		lsls	r6, r6, #3
 700 0168 9219     		adds	r2, r2, r6
 701 016a CE88     		ldrh	r6, [r1, #6]
 702 016c BE43     		bics	r6, r7
 703 016e 1680     		strh	r6, [r2]
 704 0170 6246     		mov	r2, ip
 705 0172 1288     		ldrh	r2, [r2]
 706 0174 314E     		ldr	r6, .L94+20
 707 0176 A418     		adds	r4, r4, r2
 708 0178 029A     		ldr	r2, [sp, #8]
 709 017a A418     		adds	r4, r4, r2
 710 017c 324A     		ldr	r2, .L94+32
 711 017e A418     		adds	r4, r4, r2
 712 0180 0A89     		ldrh	r2, [r1, #8]
 713 0182 0399     		ldr	r1, [sp, #12]
 714 0184 BA43     		bics	r2, r7
 715 0186 2280     		strh	r2, [r4]
 716 0188 8022     		movs	r2, #128
 717 018a 334C     		ldr	r4, .L94+48
 718 018c D201     		lsls	r2, r2, #7
 719 018e 0029     		cmp	r1, #0
 720 0190 2ADB     		blt	.L61
 721 0192 1988     		ldrh	r1, [r3]
 722 0194 1142     		tst	r1, r2
 723 0196 04D0     		beq	.L62
 724 0198 1A88     		ldrh	r2, [r3]
 725 019a 2E49     		ldr	r1, .L94+44
ARM GAS  /tmp/cc1fCVpA.s 			page 13


 726 019c 0240     		ands	r2, r0
 727 019e 0A43     		orrs	r2, r1
 728 01a0 1A80     		strh	r2, [r3]
 729              	.L62:
 730 01a2 1A88     		ldrh	r2, [r3]
 731 01a4 2F49     		ldr	r1, .L94+60
 732 01a6 5206     		lsls	r2, r2, #25
 733 01a8 04D5     		bpl	.L63
 734 01aa 1A88     		ldrh	r2, [r3]
 735 01ac 0240     		ands	r2, r0
 736 01ae 0A43     		orrs	r2, r1
 737 01b0 92B2     		uxth	r2, r2
 738 01b2 1A80     		strh	r2, [r3]
 739              	.L63:
 740 01b4 1A88     		ldrh	r2, [r3]
 741 01b6 1040     		ands	r0, r2
 742 01b8 0143     		orrs	r1, r0
 743 01ba 89B2     		uxth	r1, r1
 744 01bc 1980     		strh	r1, [r3]
 745 01be 1A88     		ldrh	r2, [r3]
 746 01c0 2240     		ands	r2, r4
 747 01c2 C024     		movs	r4, #192
 748 01c4 A401     		lsls	r4, r4, #6
 749 01c6 5440     		eors	r4, r2
 750 01c8 194A     		ldr	r2, .L94+8
 751 01ca 1443     		orrs	r4, r2
 752 01cc A4B2     		uxth	r4, r4
 753 01ce 1C80     		strh	r4, [r3]
 754 01d0 1988     		ldrh	r1, [r3]
 755 01d2 3140     		ands	r1, r6
 756 01d4 1143     		orrs	r1, r2
 757 01d6 89B2     		uxth	r1, r1
 758 01d8 1980     		strh	r1, [r3]
 759              	.L55:
 760 01da F422     		movs	r2, #244
 761 01dc 0023     		movs	r3, #0
 762 01de 5200     		lsls	r2, r2, #1
 763 01e0 AB54     		strb	r3, [r5, r2]
 764              	.L45:
 765 01e2 1800     		movs	r0, r3
 766 01e4 05B0     		add	sp, sp, #20
 767              		@ sp needed
 768 01e6 F0BD     		pop	{r4, r5, r6, r7, pc}
 769              	.L61:
 770 01e8 1F88     		ldrh	r7, [r3]
 771 01ea 1F49     		ldr	r1, .L94+64
 772 01ec 1742     		tst	r7, r2
 773 01ee 04D0     		beq	.L64
 774 01f0 1A88     		ldrh	r2, [r3]
 775 01f2 0240     		ands	r2, r0
 776 01f4 0A43     		orrs	r2, r1
 777 01f6 92B2     		uxth	r2, r2
 778 01f8 1A80     		strh	r2, [r3]
 779              	.L64:
 780 01fa 1A88     		ldrh	r2, [r3]
 781 01fc 5206     		lsls	r2, r2, #25
 782 01fe 04D5     		bpl	.L65
ARM GAS  /tmp/cc1fCVpA.s 			page 14


 783 0200 1A88     		ldrh	r2, [r3]
 784 0202 0D4F     		ldr	r7, .L94+16
 785 0204 0240     		ands	r2, r0
 786 0206 3A43     		orrs	r2, r7
 787 0208 1A80     		strh	r2, [r3]
 788              	.L65:
 789 020a 1A88     		ldrh	r2, [r3]
 790 020c 1040     		ands	r0, r2
 791 020e 0143     		orrs	r1, r0
 792 0210 89B2     		uxth	r1, r1
 793 0212 1980     		strh	r1, [r3]
 794 0214 1988     		ldrh	r1, [r3]
 795 0216 0648     		ldr	r0, .L94+8
 796 0218 3140     		ands	r1, r6
 797 021a 0143     		orrs	r1, r0
 798 021c 89B2     		uxth	r1, r1
 799 021e 1980     		strh	r1, [r3]
 800 0220 1A88     		ldrh	r2, [r3]
 801 0222 2240     		ands	r2, r4
 802 0224 0243     		orrs	r2, r0
 803 0226 53E7     		b	.L92
 804              	.L95:
 805              		.align	2
 806              	.L94:
 807 0228 0F090000 		.word	2319
 808 022c 80820000 		.word	33408
 809 0230 8080FFFF 		.word	-32640
 810 0234 0F0F0000 		.word	3855
 811 0238 C0800000 		.word	32960
 812 023c BF8FFFFF 		.word	-28737
 813 0240 80860000 		.word	34432
 814 0244 80840000 		.word	33920
 815 0248 04040000 		.word	1028
 816 024c 06040000 		.word	1030
 817 0250 0080FFFF 		.word	-32768
 818 0254 80C00000 		.word	49280
 819 0258 8FBFFFFF 		.word	-16497
 820 025c 0F0E0000 		.word	3599
 821 0260 80810000 		.word	33152
 822 0264 C080FFFF 		.word	-32576
 823 0268 80C0FFFF 		.word	-16256
 825              		.section	.text.HAL_PCD_EP_Close,"ax",%progbits
 826              		.align	1
 827              		.global	HAL_PCD_EP_Close
 828              		.syntax unified
 829              		.code	16
 830              		.thumb_func
 831              		.fpu softvfp
 833              	HAL_PCD_EP_Close:
 834              		@ args = 0, pretend = 0, frame = 0
 835              		@ frame_needed = 0, uses_anonymous_args = 0
 836 0000 7F23     		movs	r3, #127
 837 0002 F0B5     		push	{r4, r5, r6, r7, lr}
 838 0004 4DB2     		sxtb	r5, r1
 839 0006 0400     		movs	r4, r0
 840 0008 1C22     		movs	r2, #28
 841 000a 0B40     		ands	r3, r1
ARM GAS  /tmp/cc1fCVpA.s 			page 15


 842 000c 002D     		cmp	r5, #0
 843 000e 2CDA     		bge	.L97
 844 0010 5A43     		muls	r2, r3
 845 0012 2832     		adds	r2, r2, #40
 846 0014 1100     		movs	r1, r2
 847              	.L129:
 848 0016 6118     		adds	r1, r4, r1
 849 0018 EA0F     		lsrs	r2, r5, #31
 850 001a 4A70     		strb	r2, [r1, #1]
 851 001c F422     		movs	r2, #244
 852 001e 0B70     		strb	r3, [r1]
 853 0020 5200     		lsls	r2, r2, #1
 854 0022 A65C     		ldrb	r6, [r4, r2]
 855 0024 0220     		movs	r0, #2
 856 0026 012E     		cmp	r6, #1
 857 0028 1ED0     		beq	.L99
 858 002a 0138     		subs	r0, r0, #1
 859 002c A054     		strb	r0, [r4, r2]
 860 002e 8A7A     		ldrb	r2, [r1, #10]
 861 0030 2168     		ldr	r1, [r4]
 862 0032 9B00     		lsls	r3, r3, #2
 863 0034 8C46     		mov	ip, r1
 864 0036 3949     		ldr	r1, .L132
 865 0038 002A     		cmp	r2, #0
 866 003a 25D1     		bne	.L100
 867 003c 6344     		add	r3, r3, ip
 868 003e 1A88     		ldrh	r2, [r3]
 869 0040 002D     		cmp	r5, #0
 870 0042 16DA     		bge	.L101
 871 0044 5206     		lsls	r2, r2, #25
 872 0046 05D5     		bpl	.L102
 873 0048 1A88     		ldrh	r2, [r3]
 874 004a 3548     		ldr	r0, .L132+4
 875 004c 0240     		ands	r2, r0
 876 004e 3548     		ldr	r0, .L132+8
 877 0050 0243     		orrs	r2, r0
 878 0052 1A80     		strh	r2, [r3]
 879              	.L102:
 880 0054 1A88     		ldrh	r2, [r3]
 881 0056 3448     		ldr	r0, .L132+12
 882              	.L131:
 883 0058 0240     		ands	r2, r0
 884              	.L130:
 885 005a 0A43     		orrs	r2, r1
 886 005c 92B2     		uxth	r2, r2
 887 005e 1A80     		strh	r2, [r3]
 888 0060 F423     		movs	r3, #244
 889 0062 0020     		movs	r0, #0
 890 0064 5B00     		lsls	r3, r3, #1
 891 0066 E054     		strb	r0, [r4, r3]
 892              	.L99:
 893              		@ sp needed
 894 0068 F0BD     		pop	{r4, r5, r6, r7, pc}
 895              	.L97:
 896 006a 5143     		muls	r1, r2
 897 006c 0931     		adds	r1, r1, #9
 898 006e FF31     		adds	r1, r1, #255
ARM GAS  /tmp/cc1fCVpA.s 			page 16


 899 0070 D1E7     		b	.L129
 900              	.L101:
 901 0072 5204     		lsls	r2, r2, #17
 902 0074 05D5     		bpl	.L104
 903 0076 1A88     		ldrh	r2, [r3]
 904 0078 2948     		ldr	r0, .L132+4
 905 007a 0240     		ands	r2, r0
 906 007c 2B48     		ldr	r0, .L132+16
 907 007e 0243     		orrs	r2, r0
 908 0080 1A80     		strh	r2, [r3]
 909              	.L104:
 910 0082 1A88     		ldrh	r2, [r3]
 911 0084 2A48     		ldr	r0, .L132+20
 912 0086 E7E7     		b	.L131
 913              	.L100:
 914 0088 254A     		ldr	r2, .L132+4
 915 008a 274F     		ldr	r7, .L132+12
 916 008c 284E     		ldr	r6, .L132+20
 917 008e 6344     		add	r3, r3, ip
 918 0090 002D     		cmp	r5, #0
 919 0092 1FDB     		blt	.L105
 920 0094 8020     		movs	r0, #128
 921 0096 1D88     		ldrh	r5, [r3]
 922 0098 C001     		lsls	r0, r0, #7
 923 009a 0542     		tst	r5, r0
 924 009c 04D0     		beq	.L106
 925 009e 1888     		ldrh	r0, [r3]
 926 00a0 224D     		ldr	r5, .L132+16
 927 00a2 1040     		ands	r0, r2
 928 00a4 2843     		orrs	r0, r5
 929 00a6 1880     		strh	r0, [r3]
 930              	.L106:
 931 00a8 1888     		ldrh	r0, [r3]
 932 00aa 224D     		ldr	r5, .L132+24
 933 00ac 4006     		lsls	r0, r0, #25
 934 00ae 04D5     		bpl	.L107
 935 00b0 1888     		ldrh	r0, [r3]
 936 00b2 1040     		ands	r0, r2
 937 00b4 2843     		orrs	r0, r5
 938 00b6 80B2     		uxth	r0, r0
 939 00b8 1880     		strh	r0, [r3]
 940              	.L107:
 941 00ba 1888     		ldrh	r0, [r3]
 942 00bc 0240     		ands	r2, r0
 943 00be 1543     		orrs	r5, r2
 944 00c0 ADB2     		uxth	r5, r5
 945 00c2 1D80     		strh	r5, [r3]
 946 00c4 1A88     		ldrh	r2, [r3]
 947 00c6 1640     		ands	r6, r2
 948 00c8 0E43     		orrs	r6, r1
 949 00ca B6B2     		uxth	r6, r6
 950 00cc 1E80     		strh	r6, [r3]
 951 00ce 1A88     		ldrh	r2, [r3]
 952 00d0 3A40     		ands	r2, r7
 953 00d2 C2E7     		b	.L130
 954              	.L105:
 955 00d4 1848     		ldr	r0, .L132+28
ARM GAS  /tmp/cc1fCVpA.s 			page 17


 956 00d6 1D88     		ldrh	r5, [r3]
 957 00d8 8446     		mov	ip, r0
 958 00da 8020     		movs	r0, #128
 959 00dc C001     		lsls	r0, r0, #7
 960 00de 0542     		tst	r5, r0
 961 00e0 05D0     		beq	.L108
 962 00e2 6046     		mov	r0, ip
 963 00e4 1D88     		ldrh	r5, [r3]
 964 00e6 1540     		ands	r5, r2
 965 00e8 0543     		orrs	r5, r0
 966 00ea ADB2     		uxth	r5, r5
 967 00ec 1D80     		strh	r5, [r3]
 968              	.L108:
 969 00ee 1888     		ldrh	r0, [r3]
 970 00f0 4006     		lsls	r0, r0, #25
 971 00f2 04D5     		bpl	.L109
 972 00f4 1888     		ldrh	r0, [r3]
 973 00f6 0B4D     		ldr	r5, .L132+8
 974 00f8 1040     		ands	r0, r2
 975 00fa 2843     		orrs	r0, r5
 976 00fc 1880     		strh	r0, [r3]
 977              	.L109:
 978 00fe 1888     		ldrh	r0, [r3]
 979 0100 0240     		ands	r2, r0
 980 0102 6046     		mov	r0, ip
 981 0104 1043     		orrs	r0, r2
 982 0106 82B2     		uxth	r2, r0
 983 0108 1A80     		strh	r2, [r3]
 984 010a 1888     		ldrh	r0, [r3]
 985 010c 3840     		ands	r0, r7
 986 010e 0843     		orrs	r0, r1
 987 0110 80B2     		uxth	r0, r0
 988 0112 1880     		strh	r0, [r3]
 989 0114 1A88     		ldrh	r2, [r3]
 990 0116 3240     		ands	r2, r6
 991 0118 9FE7     		b	.L130
 992              	.L133:
 993 011a C046     		.align	2
 994              	.L132:
 995 011c 8080FFFF 		.word	-32640
 996 0120 0F0F0000 		.word	3855
 997 0124 C0800000 		.word	32960
 998 0128 BF8FFFFF 		.word	-28737
 999 012c 80C00000 		.word	49280
 1000 0130 8FBFFFFF 		.word	-16497
 1001 0134 C080FFFF 		.word	-32576
 1002 0138 80C0FFFF 		.word	-16256
 1004              		.section	.text.HAL_PCD_EP_Receive,"ax",%progbits
 1005              		.align	1
 1006              		.global	HAL_PCD_EP_Receive
 1007              		.syntax unified
 1008              		.code	16
 1009              		.thumb_func
 1010              		.fpu softvfp
 1012              	HAL_PCD_EP_Receive:
 1013              		@ args = 0, pretend = 0, frame = 0
 1014              		@ frame_needed = 0, uses_anonymous_args = 0
ARM GAS  /tmp/cc1fCVpA.s 			page 18


 1015 0000 F0B5     		push	{r4, r5, r6, r7, lr}
 1016 0002 7F24     		movs	r4, #127
 1017 0004 2140     		ands	r1, r4
 1018 0006 633C     		subs	r4, r4, #99
 1019 0008 2500     		movs	r5, r4
 1020 000a 4D43     		muls	r5, r1
 1021 000c 4519     		adds	r5, r0, r5
 1022 000e 2E00     		movs	r6, r5
 1023 0010 FC36     		adds	r6, r6, #252
 1024 0012 F261     		str	r2, [r6, #28]
 1025 0014 0022     		movs	r2, #0
 1026 0016 FF35     		adds	r5, r5, #255
 1027 0018 7262     		str	r2, [r6, #36]
 1028 001a AA72     		strb	r2, [r5, #10]
 1029 001c 6972     		strb	r1, [r5, #9]
 1030 001e B669     		ldr	r6, [r6, #24]
 1031 0020 1500     		movs	r5, r2
 1032 0022 9E42     		cmp	r6, r3
 1033 0024 01D2     		bcs	.L135
 1034 0026 9D1B     		subs	r5, r3, r6
 1035 0028 3300     		movs	r3, r6
 1036              	.L135:
 1037 002a 2200     		movs	r2, r4
 1038 002c 4A43     		muls	r2, r1
 1039 002e 8218     		adds	r2, r0, r2
 1040 0030 1400     		movs	r4, r2
 1041 0032 FC34     		adds	r4, r4, #252
 1042 0034 2562     		str	r5, [r4, #32]
 1043 0036 0468     		ldr	r4, [r0]
 1044 0038 FF32     		adds	r2, r2, #255
 1045 003a 2500     		movs	r5, r4
 1046 003c 5035     		adds	r5, r5, #80
 1047 003e 2E88     		ldrh	r6, [r5]
 1048 0040 D27C     		ldrb	r2, [r2, #19]
 1049 0042 CF00     		lsls	r7, r1, #3
 1050 0044 F619     		adds	r6, r6, r7
 1051 0046 002A     		cmp	r2, #0
 1052 0048 28D1     		bne	.L136
 1053 004a 364A     		ldr	r2, .L162
 1054 004c A218     		adds	r2, r4, r2
 1055 004e B618     		adds	r6, r6, r2
 1056 0050 3E2B     		cmp	r3, #62
 1057 0052 1BD9     		bls	.L137
 1058 0054 5A09     		lsrs	r2, r3, #5
 1059 0056 92B2     		uxth	r2, r2
 1060 0058 DB06     		lsls	r3, r3, #27
 1061 005a 01D1     		bne	.L138
 1062 005c 013A     		subs	r2, r2, #1
 1063 005e 92B2     		uxth	r2, r2
 1064              	.L138:
 1065 0060 314B     		ldr	r3, .L162+4
 1066 0062 9202     		lsls	r2, r2, #10
 1067 0064 1A43     		orrs	r2, r3
 1068              	.L160:
 1069 0066 3280     		strh	r2, [r6]
 1070              	.L139:
 1071 0068 1C23     		movs	r3, #28
ARM GAS  /tmp/cc1fCVpA.s 			page 19


 1072              		@ sp needed
 1073 006a 5943     		muls	r1, r3
 1074 006c 4018     		adds	r0, r0, r1
 1075 006e FF30     		adds	r0, r0, #255
 1076 0070 437A     		ldrb	r3, [r0, #9]
 1077 0072 2E4A     		ldr	r2, .L162+8
 1078 0074 9B00     		lsls	r3, r3, #2
 1079 0076 E418     		adds	r4, r4, r3
 1080 0078 2388     		ldrh	r3, [r4]
 1081 007a 0020     		movs	r0, #0
 1082 007c 1A40     		ands	r2, r3
 1083 007e C023     		movs	r3, #192
 1084 0080 9B01     		lsls	r3, r3, #6
 1085 0082 5340     		eors	r3, r2
 1086 0084 2A4A     		ldr	r2, .L162+12
 1087 0086 1343     		orrs	r3, r2
 1088 0088 2380     		strh	r3, [r4]
 1089 008a F0BD     		pop	{r4, r5, r6, r7, pc}
 1090              	.L137:
 1091 008c 5A08     		lsrs	r2, r3, #1
 1092 008e 92B2     		uxth	r2, r2
 1093 0090 DB07     		lsls	r3, r3, #31
 1094 0092 01D5     		bpl	.L140
 1095 0094 0132     		adds	r2, r2, #1
 1096 0096 92B2     		uxth	r2, r2
 1097              	.L140:
 1098 0098 9202     		lsls	r2, r2, #10
 1099 009a E4E7     		b	.L160
 1100              	.L136:
 1101 009c 254A     		ldr	r2, .L162+16
 1102 009e A218     		adds	r2, r4, r2
 1103 00a0 B618     		adds	r6, r6, r2
 1104 00a2 3E2B     		cmp	r3, #62
 1105 00a4 24D9     		bls	.L141
 1106 00a6 5A09     		lsrs	r2, r3, #5
 1107 00a8 92B2     		uxth	r2, r2
 1108 00aa DF06     		lsls	r7, r3, #27
 1109 00ac 01D1     		bne	.L142
 1110 00ae 013A     		subs	r2, r2, #1
 1111 00b0 92B2     		uxth	r2, r2
 1112              	.L142:
 1113 00b2 1D4F     		ldr	r7, .L162+4
 1114 00b4 9202     		lsls	r2, r2, #10
 1115 00b6 3A43     		orrs	r2, r7
 1116              	.L159:
 1117 00b8 3280     		strh	r2, [r6]
 1118 00ba 1C22     		movs	r2, #28
 1119 00bc 4A43     		muls	r2, r1
 1120 00be 8218     		adds	r2, r0, r2
 1121 00c0 FF32     		adds	r2, r2, #255
 1122 00c2 967A     		ldrb	r6, [r2, #10]
 1123 00c4 527A     		ldrb	r2, [r2, #9]
 1124 00c6 002E     		cmp	r6, #0
 1125 00c8 22D1     		bne	.L145
 1126 00ca 2D88     		ldrh	r5, [r5]
 1127 00cc D200     		lsls	r2, r2, #3
 1128 00ce 5219     		adds	r2, r2, r5
ARM GAS  /tmp/cc1fCVpA.s 			page 20


 1129 00d0 144D     		ldr	r5, .L162
 1130 00d2 6519     		adds	r5, r4, r5
 1131 00d4 5219     		adds	r2, r2, r5
 1132 00d6 3E2B     		cmp	r3, #62
 1133 00d8 12D9     		bls	.L146
 1134 00da 5D09     		lsrs	r5, r3, #5
 1135 00dc ADB2     		uxth	r5, r5
 1136 00de DB06     		lsls	r3, r3, #27
 1137 00e0 01D1     		bne	.L147
 1138 00e2 013D     		subs	r5, r5, #1
 1139 00e4 ADB2     		uxth	r5, r5
 1140              	.L147:
 1141 00e6 104B     		ldr	r3, .L162+4
 1142 00e8 AD02     		lsls	r5, r5, #10
 1143 00ea 1D43     		orrs	r5, r3
 1144              	.L161:
 1145 00ec 1580     		strh	r5, [r2]
 1146 00ee BBE7     		b	.L139
 1147              	.L141:
 1148 00f0 5A08     		lsrs	r2, r3, #1
 1149 00f2 92B2     		uxth	r2, r2
 1150 00f4 DF07     		lsls	r7, r3, #31
 1151 00f6 01D5     		bpl	.L144
 1152 00f8 0132     		adds	r2, r2, #1
 1153 00fa 92B2     		uxth	r2, r2
 1154              	.L144:
 1155 00fc 9202     		lsls	r2, r2, #10
 1156 00fe DBE7     		b	.L159
 1157              	.L146:
 1158 0100 5D08     		lsrs	r5, r3, #1
 1159 0102 ADB2     		uxth	r5, r5
 1160 0104 DB07     		lsls	r3, r3, #31
 1161 0106 01D5     		bpl	.L148
 1162 0108 0135     		adds	r5, r5, #1
 1163 010a ADB2     		uxth	r5, r5
 1164              	.L148:
 1165 010c AD02     		lsls	r5, r5, #10
 1166 010e EDE7     		b	.L161
 1167              	.L145:
 1168 0110 012E     		cmp	r6, #1
 1169 0112 A9D1     		bne	.L139
 1170 0114 2D88     		ldrh	r5, [r5]
 1171 0116 D200     		lsls	r2, r2, #3
 1172 0118 5219     		adds	r2, r2, r5
 1173 011a 024D     		ldr	r5, .L162
 1174 011c A218     		adds	r2, r4, r2
 1175 011e 5219     		adds	r2, r2, r5
 1176 0120 1380     		strh	r3, [r2]
 1177 0122 A1E7     		b	.L139
 1178              	.L163:
 1179              		.align	2
 1180              	.L162:
 1181 0124 06040000 		.word	1030
 1182 0128 0080FFFF 		.word	-32768
 1183 012c 8FBFFFFF 		.word	-16497
 1184 0130 80800000 		.word	32896
 1185 0134 02040000 		.word	1026
ARM GAS  /tmp/cc1fCVpA.s 			page 21


 1187              		.section	.text.HAL_PCD_EP_GetRxCount,"ax",%progbits
 1188              		.align	1
 1189              		.global	HAL_PCD_EP_GetRxCount
 1190              		.syntax unified
 1191              		.code	16
 1192              		.thumb_func
 1193              		.fpu softvfp
 1195              	HAL_PCD_EP_GetRxCount:
 1196              		@ args = 0, pretend = 0, frame = 0
 1197              		@ frame_needed = 0, uses_anonymous_args = 0
 1198              		@ link register save eliminated.
 1199 0000 7F23     		movs	r3, #127
 1200              		@ sp needed
 1201 0002 0B40     		ands	r3, r1
 1202 0004 1C21     		movs	r1, #28
 1203 0006 5943     		muls	r1, r3
 1204 0008 4018     		adds	r0, r0, r1
 1205 000a FC30     		adds	r0, r0, #252
 1206 000c 406A     		ldr	r0, [r0, #36]
 1207 000e 80B2     		uxth	r0, r0
 1208 0010 7047     		bx	lr
 1210              		.section	.text.HAL_PCD_EP_SetStall,"ax",%progbits
 1211              		.align	1
 1212              		.global	HAL_PCD_EP_SetStall
 1213              		.syntax unified
 1214              		.code	16
 1215              		.thumb_func
 1216              		.fpu softvfp
 1218              	HAL_PCD_EP_SetStall:
 1219              		@ args = 0, pretend = 0, frame = 0
 1220              		@ frame_needed = 0, uses_anonymous_args = 0
 1221 0000 F423     		movs	r3, #244
 1222 0002 30B5     		push	{r4, r5, lr}
 1223 0004 5B00     		lsls	r3, r3, #1
 1224 0006 C25C     		ldrb	r2, [r0, r3]
 1225 0008 0400     		movs	r4, r0
 1226 000a 0220     		movs	r0, #2
 1227 000c 012A     		cmp	r2, #1
 1228 000e 21D0     		beq	.L166
 1229 0010 0122     		movs	r2, #1
 1230 0012 E254     		strb	r2, [r4, r3]
 1231 0014 6A3B     		subs	r3, r3, #106
 1232 0016 FF3B     		subs	r3, r3, #255
 1233 0018 48B2     		sxtb	r0, r1
 1234 001a 0B40     		ands	r3, r1
 1235 001c 1B32     		adds	r2, r2, #27
 1236 001e 0028     		cmp	r0, #0
 1237 0020 19DA     		bge	.L167
 1238 0022 5A43     		muls	r2, r3
 1239 0024 2832     		adds	r2, r2, #40
 1240 0026 1100     		movs	r1, r2
 1241              	.L173:
 1242 0028 0122     		movs	r2, #1
 1243 002a 6118     		adds	r1, r4, r1
 1244 002c 8A70     		strb	r2, [r1, #2]
 1245 002e C20F     		lsrs	r2, r0, #31
 1246 0030 4A70     		strb	r2, [r1, #1]
ARM GAS  /tmp/cc1fCVpA.s 			page 22


 1247 0032 0B70     		strb	r3, [r1]
 1248 0034 2568     		ldr	r5, [r4]
 1249 0036 134A     		ldr	r2, .L175
 1250 0038 002B     		cmp	r3, #0
 1251 003a 10D1     		bne	.L169
 1252 003c 2988     		ldrh	r1, [r5]
 1253 003e 124B     		ldr	r3, .L175+4
 1254 0040 0B40     		ands	r3, r1
 1255 0042 1249     		ldr	r1, .L175+8
 1256 0044 5940     		eors	r1, r3
 1257 0046 0A43     		orrs	r2, r1
 1258 0048 92B2     		uxth	r2, r2
 1259 004a 2A80     		strh	r2, [r5]
 1260              	.L170:
 1261 004c F423     		movs	r3, #244
 1262 004e 0020     		movs	r0, #0
 1263 0050 5B00     		lsls	r3, r3, #1
 1264 0052 E054     		strb	r0, [r4, r3]
 1265              	.L166:
 1266              		@ sp needed
 1267 0054 30BD     		pop	{r4, r5, pc}
 1268              	.L167:
 1269 0056 5143     		muls	r1, r2
 1270 0058 0931     		adds	r1, r1, #9
 1271 005a FF31     		adds	r1, r1, #255
 1272 005c E4E7     		b	.L173
 1273              	.L169:
 1274 005e 9B00     		lsls	r3, r3, #2
 1275 0060 EB18     		adds	r3, r5, r3
 1276 0062 1988     		ldrh	r1, [r3]
 1277 0064 0028     		cmp	r0, #0
 1278 0066 07DA     		bge	.L171
 1279 0068 0948     		ldr	r0, .L175+12
 1280 006a 0840     		ands	r0, r1
 1281 006c 1021     		movs	r1, #16
 1282              	.L174:
 1283 006e 4140     		eors	r1, r0
 1284 0070 0A43     		orrs	r2, r1
 1285 0072 92B2     		uxth	r2, r2
 1286 0074 1A80     		strh	r2, [r3]
 1287 0076 E9E7     		b	.L170
 1288              	.L171:
 1289 0078 0648     		ldr	r0, .L175+16
 1290 007a 0840     		ands	r0, r1
 1291 007c 8021     		movs	r1, #128
 1292 007e 4901     		lsls	r1, r1, #5
 1293 0080 F5E7     		b	.L174
 1294              	.L176:
 1295 0082 C046     		.align	2
 1296              	.L175:
 1297 0084 8080FFFF 		.word	-32640
 1298 0088 BFBFFFFF 		.word	-16449
 1299 008c 10100000 		.word	4112
 1300 0090 BF8FFFFF 		.word	-28737
 1301 0094 8FBFFFFF 		.word	-16497
 1303              		.section	.text.HAL_PCD_EP_ClrStall,"ax",%progbits
 1304              		.align	1
ARM GAS  /tmp/cc1fCVpA.s 			page 23


 1305              		.global	HAL_PCD_EP_ClrStall
 1306              		.syntax unified
 1307              		.code	16
 1308              		.thumb_func
 1309              		.fpu softvfp
 1311              	HAL_PCD_EP_ClrStall:
 1312              		@ args = 0, pretend = 0, frame = 0
 1313              		@ frame_needed = 0, uses_anonymous_args = 0
 1314 0000 30B5     		push	{r4, r5, lr}
 1315 0002 7F25     		movs	r5, #127
 1316 0004 4CB2     		sxtb	r4, r1
 1317 0006 0200     		movs	r2, r0
 1318 0008 1C23     		movs	r3, #28
 1319 000a 0D40     		ands	r5, r1
 1320 000c 002C     		cmp	r4, #0
 1321 000e 2CDA     		bge	.L178
 1322 0010 6B43     		muls	r3, r5
 1323 0012 2833     		adds	r3, r3, #40
 1324 0014 1900     		movs	r1, r3
 1325              	.L192:
 1326 0016 0023     		movs	r3, #0
 1327 0018 5118     		adds	r1, r2, r1
 1328 001a 8B70     		strb	r3, [r1, #2]
 1329 001c E30F     		lsrs	r3, r4, #31
 1330 001e 4B70     		strb	r3, [r1, #1]
 1331 0020 F423     		movs	r3, #244
 1332 0022 0D70     		strb	r5, [r1]
 1333 0024 5B00     		lsls	r3, r3, #1
 1334 0026 D15C     		ldrb	r1, [r2, r3]
 1335 0028 0220     		movs	r0, #2
 1336 002a 0129     		cmp	r1, #1
 1337 002c 1CD0     		beq	.L180
 1338 002e 0121     		movs	r1, #1
 1339 0030 8540     		lsls	r5, r5, r0
 1340 0032 D154     		strb	r1, [r2, r3]
 1341 0034 1368     		ldr	r3, [r2]
 1342 0036 1648     		ldr	r0, .L194
 1343 0038 5B19     		adds	r3, r3, r5
 1344 003a 1988     		ldrh	r1, [r3]
 1345 003c 002C     		cmp	r4, #0
 1346 003e 18DA     		bge	.L181
 1347 0040 4906     		lsls	r1, r1, #25
 1348 0042 05D5     		bpl	.L182
 1349 0044 1988     		ldrh	r1, [r3]
 1350 0046 134C     		ldr	r4, .L194+4
 1351 0048 2140     		ands	r1, r4
 1352 004a 134C     		ldr	r4, .L194+8
 1353 004c 2143     		orrs	r1, r4
 1354 004e 1980     		strh	r1, [r3]
 1355              	.L182:
 1356 0050 1988     		ldrh	r1, [r3]
 1357 0052 124C     		ldr	r4, .L194+12
 1358 0054 0C40     		ands	r4, r1
 1359 0056 3021     		movs	r1, #48
 1360              	.L193:
 1361 0058 6140     		eors	r1, r4
 1362 005a 0143     		orrs	r1, r0
ARM GAS  /tmp/cc1fCVpA.s 			page 24


 1363 005c 89B2     		uxth	r1, r1
 1364 005e 1980     		strh	r1, [r3]
 1365 0060 F423     		movs	r3, #244
 1366 0062 0020     		movs	r0, #0
 1367 0064 5B00     		lsls	r3, r3, #1
 1368 0066 D054     		strb	r0, [r2, r3]
 1369              	.L180:
 1370              		@ sp needed
 1371 0068 30BD     		pop	{r4, r5, pc}
 1372              	.L178:
 1373 006a 5943     		muls	r1, r3
 1374 006c 0931     		adds	r1, r1, #9
 1375 006e FF31     		adds	r1, r1, #255
 1376 0070 D1E7     		b	.L192
 1377              	.L181:
 1378 0072 4904     		lsls	r1, r1, #17
 1379 0074 05D5     		bpl	.L184
 1380 0076 1988     		ldrh	r1, [r3]
 1381 0078 064C     		ldr	r4, .L194+4
 1382 007a 2140     		ands	r1, r4
 1383 007c 084C     		ldr	r4, .L194+16
 1384 007e 2143     		orrs	r1, r4
 1385 0080 1980     		strh	r1, [r3]
 1386              	.L184:
 1387 0082 1988     		ldrh	r1, [r3]
 1388 0084 074C     		ldr	r4, .L194+20
 1389 0086 0C40     		ands	r4, r1
 1390 0088 C021     		movs	r1, #192
 1391 008a 8901     		lsls	r1, r1, #6
 1392 008c E4E7     		b	.L193
 1393              	.L195:
 1394 008e C046     		.align	2
 1395              	.L194:
 1396 0090 8080FFFF 		.word	-32640
 1397 0094 0F0F0000 		.word	3855
 1398 0098 C0800000 		.word	32960
 1399 009c BF8FFFFF 		.word	-28737
 1400 00a0 80C00000 		.word	49280
 1401 00a4 8FBFFFFF 		.word	-16497
 1403              		.section	.text.HAL_PCD_EP_Flush,"ax",%progbits
 1404              		.align	1
 1405              		.global	HAL_PCD_EP_Flush
 1406              		.syntax unified
 1407              		.code	16
 1408              		.thumb_func
 1409              		.fpu softvfp
 1411              	HAL_PCD_EP_Flush:
 1412              		@ args = 0, pretend = 0, frame = 0
 1413              		@ frame_needed = 0, uses_anonymous_args = 0
 1414              		@ link register save eliminated.
 1415 0000 0020     		movs	r0, #0
 1416              		@ sp needed
 1417 0002 7047     		bx	lr
 1419              		.section	.text.HAL_PCD_ActivateRemoteWakeup,"ax",%progbits
 1420              		.align	1
 1421              		.global	HAL_PCD_ActivateRemoteWakeup
 1422              		.syntax unified
ARM GAS  /tmp/cc1fCVpA.s 			page 25


 1423              		.code	16
 1424              		.thumb_func
 1425              		.fpu softvfp
 1427              	HAL_PCD_ActivateRemoteWakeup:
 1428              		@ args = 0, pretend = 0, frame = 0
 1429              		@ frame_needed = 0, uses_anonymous_args = 0
 1430              		@ link register save eliminated.
 1431 0000 0368     		ldr	r3, [r0]
 1432 0002 C269     		ldr	r2, [r0, #28]
 1433 0004 0233     		adds	r3, r3, #2
 1434 0006 D98F     		ldrh	r1, [r3, #62]
 1435 0008 012A     		cmp	r2, #1
 1436 000a 04D1     		bne	.L198
 1437 000c 1F32     		adds	r2, r2, #31
 1438              	.L200:
 1439 000e 0A43     		orrs	r2, r1
 1440 0010 0020     		movs	r0, #0
 1441              		@ sp needed
 1442 0012 DA87     		strh	r2, [r3, #62]
 1443 0014 7047     		bx	lr
 1444              	.L198:
 1445 0016 1022     		movs	r2, #16
 1446 0018 F9E7     		b	.L200
 1448              		.section	.text.HAL_PCD_DeActivateRemoteWakeup,"ax",%progbits
 1449              		.align	1
 1450              		.global	HAL_PCD_DeActivateRemoteWakeup
 1451              		.syntax unified
 1452              		.code	16
 1453              		.thumb_func
 1454              		.fpu softvfp
 1456              	HAL_PCD_DeActivateRemoteWakeup:
 1457              		@ args = 0, pretend = 0, frame = 0
 1458              		@ frame_needed = 0, uses_anonymous_args = 0
 1459              		@ link register save eliminated.
 1460 0000 0368     		ldr	r3, [r0]
 1461 0002 C269     		ldr	r2, [r0, #28]
 1462 0004 0233     		adds	r3, r3, #2
 1463 0006 012A     		cmp	r2, #1
 1464 0008 05D1     		bne	.L202
 1465 000a 2021     		movs	r1, #32
 1466 000c DA8F     		ldrh	r2, [r3, #62]
 1467              	.L204:
 1468 000e 8A43     		bics	r2, r1
 1469 0010 0020     		movs	r0, #0
 1470              		@ sp needed
 1471 0012 DA87     		strh	r2, [r3, #62]
 1472 0014 7047     		bx	lr
 1473              	.L202:
 1474 0016 1021     		movs	r1, #16
 1475 0018 DA8F     		ldrh	r2, [r3, #62]
 1476 001a F8E7     		b	.L204
 1478              		.section	.text.HAL_PCD_GetState,"ax",%progbits
 1479              		.align	1
 1480              		.global	HAL_PCD_GetState
 1481              		.syntax unified
 1482              		.code	16
 1483              		.thumb_func
ARM GAS  /tmp/cc1fCVpA.s 			page 26


 1484              		.fpu softvfp
 1486              	HAL_PCD_GetState:
 1487              		@ args = 0, pretend = 0, frame = 0
 1488              		@ frame_needed = 0, uses_anonymous_args = 0
 1489              		@ link register save eliminated.
 1490 0000 EA23     		movs	r3, #234
 1491              		@ sp needed
 1492 0002 FF33     		adds	r3, r3, #255
 1493 0004 C05C     		ldrb	r0, [r0, r3]
 1494 0006 C0B2     		uxtb	r0, r0
 1495 0008 7047     		bx	lr
 1497              		.section	.text.PCD_WritePMA,"ax",%progbits
 1498              		.align	1
 1499              		.global	PCD_WritePMA
 1500              		.syntax unified
 1501              		.code	16
 1502              		.thumb_func
 1503              		.fpu softvfp
 1505              	PCD_WritePMA:
 1506              		@ args = 0, pretend = 0, frame = 0
 1507              		@ frame_needed = 0, uses_anonymous_args = 0
 1508 0000 30B5     		push	{r4, r5, lr}
 1509 0002 8024     		movs	r4, #128
 1510 0004 0133     		adds	r3, r3, #1
 1511 0006 E400     		lsls	r4, r4, #3
 1512 0008 0019     		adds	r0, r0, r4
 1513 000a 5B08     		lsrs	r3, r3, #1
 1514 000c 8018     		adds	r0, r0, r2
 1515 000e 5B00     		lsls	r3, r3, #1
 1516 0010 CB18     		adds	r3, r1, r3
 1517 0012 401A     		subs	r0, r0, r1
 1518              	.L207:
 1519 0014 4418     		adds	r4, r0, r1
 1520 0016 9942     		cmp	r1, r3
 1521 0018 00D1     		bne	.L208
 1522              		@ sp needed
 1523 001a 30BD     		pop	{r4, r5, pc}
 1524              	.L208:
 1525 001c 4A78     		ldrb	r2, [r1, #1]
 1526 001e 0D78     		ldrb	r5, [r1]
 1527 0020 1202     		lsls	r2, r2, #8
 1528 0022 2A43     		orrs	r2, r5
 1529 0024 2280     		strh	r2, [r4]
 1530 0026 0231     		adds	r1, r1, #2
 1531 0028 F4E7     		b	.L207
 1533              		.section	.text.HAL_PCD_EP_Transmit,"ax",%progbits
 1534              		.align	1
 1535              		.global	HAL_PCD_EP_Transmit
 1536              		.syntax unified
 1537              		.code	16
 1538              		.thumb_func
 1539              		.fpu softvfp
 1541              	HAL_PCD_EP_Transmit:
 1542              		@ args = 0, pretend = 0, frame = 0
 1543              		@ frame_needed = 0, uses_anonymous_args = 0
 1544 0000 F8B5     		push	{r3, r4, r5, r6, r7, lr}
 1545 0002 1C24     		movs	r4, #28
ARM GAS  /tmp/cc1fCVpA.s 			page 27


 1546 0004 0F00     		movs	r7, r1
 1547 0006 1100     		movs	r1, r2
 1548 0008 7F22     		movs	r2, #127
 1549 000a 0600     		movs	r6, r0
 1550 000c 2000     		movs	r0, r4
 1551 000e 1740     		ands	r7, r2
 1552 0010 7843     		muls	r0, r7
 1553 0012 3018     		adds	r0, r6, r0
 1554 0014 0022     		movs	r2, #0
 1555 0016 0500     		movs	r5, r0
 1556 0018 0264     		str	r2, [r0, #64]
 1557 001a 2935     		adds	r5, r5, #41
 1558 001c 0132     		adds	r2, r2, #1
 1559 001e 8163     		str	r1, [r0, #56]
 1560 0020 013D     		subs	r5, r5, #1
 1561 0022 6A70     		strb	r2, [r5, #1]
 1562 0024 2F70     		strb	r7, [r5]
 1563 0026 406B     		ldr	r0, [r0, #52]
 1564 0028 0022     		movs	r2, #0
 1565 002a 9842     		cmp	r0, r3
 1566 002c 01D2     		bcs	.L210
 1567 002e 1A1A     		subs	r2, r3, r0
 1568 0030 0300     		movs	r3, r0
 1569              	.L210:
 1570 0032 7C43     		muls	r4, r7
 1571 0034 3419     		adds	r4, r6, r4
 1572 0036 9DB2     		uxth	r5, r3
 1573 0038 2300     		movs	r3, r4
 1574 003a E263     		str	r2, [r4, #60]
 1575 003c 3233     		adds	r3, r3, #50
 1576 003e 1B78     		ldrb	r3, [r3]
 1577 0040 3068     		ldr	r0, [r6]
 1578 0042 002B     		cmp	r3, #0
 1579 0044 21D1     		bne	.L211
 1580 0046 A28D     		ldrh	r2, [r4, #44]
 1581 0048 2B00     		movs	r3, r5
 1582 004a FFF7FEFF 		bl	PCD_WritePMA
 1583 004e 3368     		ldr	r3, [r6]
 1584 0050 2834     		adds	r4, r4, #40
 1585 0052 1A00     		movs	r2, r3
 1586 0054 5032     		adds	r2, r2, #80
 1587 0056 1188     		ldrh	r1, [r2]
 1588 0058 2278     		ldrb	r2, [r4]
 1589 005a D200     		lsls	r2, r2, #3
 1590 005c 9B18     		adds	r3, r3, r2
 1591 005e 264A     		ldr	r2, .L218
 1592 0060 5B18     		adds	r3, r3, r1
 1593 0062 9B18     		adds	r3, r3, r2
 1594 0064 1D80     		strh	r5, [r3]
 1595              	.L212:
 1596 0066 1C21     		movs	r1, #28
 1597              		@ sp needed
 1598 0068 4F43     		muls	r7, r1
 1599 006a F719     		adds	r7, r6, r7
 1600 006c 2837     		adds	r7, r7, #40
 1601 006e 3B78     		ldrb	r3, [r7]
 1602 0070 3268     		ldr	r2, [r6]
ARM GAS  /tmp/cc1fCVpA.s 			page 28


 1603 0072 9B00     		lsls	r3, r3, #2
 1604 0074 D218     		adds	r2, r2, r3
 1605 0076 1388     		ldrh	r3, [r2]
 1606 0078 2049     		ldr	r1, .L218+4
 1607 007a 0020     		movs	r0, #0
 1608 007c 1940     		ands	r1, r3
 1609 007e 3023     		movs	r3, #48
 1610 0080 4B40     		eors	r3, r1
 1611 0082 1F49     		ldr	r1, .L218+8
 1612 0084 0B43     		orrs	r3, r1
 1613 0086 1380     		strh	r3, [r2]
 1614 0088 F8BD     		pop	{r3, r4, r5, r6, r7, pc}
 1615              	.L211:
 1616 008a BB00     		lsls	r3, r7, #2
 1617 008c C318     		adds	r3, r0, r3
 1618 008e 1988     		ldrh	r1, [r3]
 1619 0090 0300     		movs	r3, r0
 1620 0092 5033     		adds	r3, r3, #80
 1621 0094 1B88     		ldrh	r3, [r3]
 1622 0096 FA00     		lsls	r2, r7, #3
 1623 0098 C318     		adds	r3, r0, r3
 1624 009a 9B18     		adds	r3, r3, r2
 1625 009c 4906     		lsls	r1, r1, #25
 1626 009e 1BD5     		bpl	.L213
 1627 00a0 184A     		ldr	r2, .L218+12
 1628 00a2 9B18     		adds	r3, r3, r2
 1629 00a4 1D80     		strh	r5, [r3]
 1630 00a6 228E     		ldrh	r2, [r4, #48]
 1631              	.L214:
 1632 00a8 1C24     		movs	r4, #28
 1633 00aa 7C43     		muls	r4, r7
 1634 00ac 3419     		adds	r4, r6, r4
 1635 00ae 2B00     		movs	r3, r5
 1636 00b0 A16B     		ldr	r1, [r4, #56]
 1637 00b2 FFF7FEFF 		bl	PCD_WritePMA
 1638 00b6 2300     		movs	r3, r4
 1639 00b8 2933     		adds	r3, r3, #41
 1640 00ba 1B78     		ldrb	r3, [r3]
 1641 00bc 3268     		ldr	r2, [r6]
 1642 00be 002B     		cmp	r3, #0
 1643 00c0 0FD1     		bne	.L215
 1644 00c2 2834     		adds	r4, r4, #40
 1645 00c4 2378     		ldrb	r3, [r4]
 1646 00c6 1049     		ldr	r1, .L218+16
 1647 00c8 9B00     		lsls	r3, r3, #2
 1648 00ca D318     		adds	r3, r2, r3
 1649 00cc 1A88     		ldrh	r2, [r3]
 1650 00ce 0A40     		ands	r2, r1
 1651 00d0 0E49     		ldr	r1, .L218+20
 1652              	.L217:
 1653 00d2 0A43     		orrs	r2, r1
 1654 00d4 1A80     		strh	r2, [r3]
 1655 00d6 C6E7     		b	.L212
 1656              	.L213:
 1657 00d8 074A     		ldr	r2, .L218
 1658 00da 9B18     		adds	r3, r3, r2
 1659 00dc 1D80     		strh	r5, [r3]
ARM GAS  /tmp/cc1fCVpA.s 			page 29


 1660 00de E28D     		ldrh	r2, [r4, #46]
 1661 00e0 E2E7     		b	.L214
 1662              	.L215:
 1663 00e2 012B     		cmp	r3, #1
 1664 00e4 BFD1     		bne	.L212
 1665 00e6 2834     		adds	r4, r4, #40
 1666 00e8 2378     		ldrb	r3, [r4]
 1667 00ea 0749     		ldr	r1, .L218+16
 1668 00ec 9B00     		lsls	r3, r3, #2
 1669 00ee D318     		adds	r3, r2, r3
 1670 00f0 1A88     		ldrh	r2, [r3]
 1671 00f2 0A40     		ands	r2, r1
 1672 00f4 0649     		ldr	r1, .L218+24
 1673 00f6 ECE7     		b	.L217
 1674              	.L219:
 1675              		.align	2
 1676              	.L218:
 1677 00f8 02040000 		.word	1026
 1678 00fc BF8FFFFF 		.word	-28737
 1679 0100 80800000 		.word	32896
 1680 0104 06040000 		.word	1030
 1681 0108 0F0F0000 		.word	3855
 1682 010c C0800000 		.word	32960
 1683 0110 80C00000 		.word	49280
 1685              		.section	.text.PCD_ReadPMA,"ax",%progbits
 1686              		.align	1
 1687              		.global	PCD_ReadPMA
 1688              		.syntax unified
 1689              		.code	16
 1690              		.thumb_func
 1691              		.fpu softvfp
 1693              	PCD_ReadPMA:
 1694              		@ args = 0, pretend = 0, frame = 0
 1695              		@ frame_needed = 0, uses_anonymous_args = 0
 1696 0000 F0B5     		push	{r4, r5, r6, r7, lr}
 1697 0002 8025     		movs	r5, #128
 1698 0004 ED00     		lsls	r5, r5, #3
 1699 0006 4019     		adds	r0, r0, r5
 1700 0008 5C08     		lsrs	r4, r3, #1
 1701 000a 8218     		adds	r2, r0, r2
 1702 000c 2600     		movs	r6, r4
 1703 000e 0800     		movs	r0, r1
 1704 0010 571A     		subs	r7, r2, r1
 1705              	.L221:
 1706 0012 3D18     		adds	r5, r7, r0
 1707 0014 002E     		cmp	r6, #0
 1708 0016 07D1     		bne	.L222
 1709 0018 6400     		lsls	r4, r4, #1
 1710 001a 0919     		adds	r1, r1, r4
 1711 001c 1419     		adds	r4, r2, r4
 1712 001e DB07     		lsls	r3, r3, #31
 1713 0020 01D5     		bpl	.L220
 1714 0022 2388     		ldrh	r3, [r4]
 1715 0024 0B70     		strb	r3, [r1]
 1716              	.L220:
 1717              		@ sp needed
 1718 0026 F0BD     		pop	{r4, r5, r6, r7, pc}
ARM GAS  /tmp/cc1fCVpA.s 			page 30


 1719              	.L222:
 1720 0028 2D88     		ldrh	r5, [r5]
 1721 002a 013E     		subs	r6, r6, #1
 1722 002c 0570     		strb	r5, [r0]
 1723 002e 2D0A     		lsrs	r5, r5, #8
 1724 0030 4570     		strb	r5, [r0, #1]
 1725 0032 0230     		adds	r0, r0, #2
 1726 0034 EDE7     		b	.L221
 1728              		.section	.text.HAL_PCD_IRQHandler,"ax",%progbits
 1729              		.align	1
 1730              		.global	HAL_PCD_IRQHandler
 1731              		.syntax unified
 1732              		.code	16
 1733              		.thumb_func
 1734              		.fpu softvfp
 1736              	HAL_PCD_IRQHandler:
 1737              		@ args = 0, pretend = 0, frame = 16
 1738              		@ frame_needed = 0, uses_anonymous_args = 0
 1739 0000 F0B5     		push	{r4, r5, r6, r7, lr}
 1740 0002 0368     		ldr	r3, [r0]
 1741 0004 0400     		movs	r4, r0
 1742 0006 0633     		adds	r3, r3, #6
 1743 0008 DB8F     		ldrh	r3, [r3, #62]
 1744 000a 85B0     		sub	sp, sp, #20
 1745 000c 1BB2     		sxth	r3, r3
 1746 000e 002B     		cmp	r3, #0
 1747 0010 00DA     		bge	.LCB1976
 1748 0012 61E0     		b	.L228	@long jump
 1749              	.LCB1976:
 1750              	.L258:
 1751 0014 2368     		ldr	r3, [r4]
 1752 0016 0633     		adds	r3, r3, #6
 1753 0018 DA8F     		ldrh	r2, [r3, #62]
 1754 001a 5205     		lsls	r2, r2, #21
 1755 001c 0AD5     		bpl	.L230
 1756 001e DA8F     		ldrh	r2, [r3, #62]
 1757 0020 8949     		ldr	r1, .L312
 1758 0022 2000     		movs	r0, r4
 1759 0024 0A40     		ands	r2, r1
 1760 0026 DA87     		strh	r2, [r3, #62]
 1761 0028 FFF7FEFF 		bl	HAL_PCD_ResetCallback
 1762 002c 0021     		movs	r1, #0
 1763 002e 2000     		movs	r0, r4
 1764 0030 FFF7FEFF 		bl	HAL_PCD_SetAddress
 1765              	.L230:
 1766 0034 2268     		ldr	r2, [r4]
 1767 0036 931D     		adds	r3, r2, #6
 1768 0038 D98F     		ldrh	r1, [r3, #62]
 1769 003a 4904     		lsls	r1, r1, #17
 1770 003c 03D5     		bpl	.L259
 1771 003e D98F     		ldrh	r1, [r3, #62]
 1772 0040 8248     		ldr	r0, .L312+4
 1773 0042 0140     		ands	r1, r0
 1774 0044 D987     		strh	r1, [r3, #62]
 1775              	.L259:
 1776 0046 D98F     		ldrh	r1, [r3, #62]
 1777 0048 8904     		lsls	r1, r1, #18
ARM GAS  /tmp/cc1fCVpA.s 			page 31


 1778 004a 03D5     		bpl	.L260
 1779 004c D98F     		ldrh	r1, [r3, #62]
 1780 004e 8048     		ldr	r0, .L312+8
 1781 0050 0140     		ands	r1, r0
 1782 0052 D987     		strh	r1, [r3, #62]
 1783              	.L260:
 1784 0054 DB8F     		ldrh	r3, [r3, #62]
 1785 0056 DB04     		lsls	r3, r3, #19
 1786 0058 0FD5     		bpl	.L261
 1787 005a 0421     		movs	r1, #4
 1788 005c 931C     		adds	r3, r2, #2
 1789 005e DA8F     		ldrh	r2, [r3, #62]
 1790 0060 2000     		movs	r0, r4
 1791 0062 8A43     		bics	r2, r1
 1792 0064 DA87     		strh	r2, [r3, #62]
 1793 0066 7B4A     		ldr	r2, .L312+12
 1794 0068 DA87     		strh	r2, [r3, #62]
 1795 006a FFF7FEFF 		bl	HAL_PCD_ResumeCallback
 1796 006e 2368     		ldr	r3, [r4]
 1797 0070 7949     		ldr	r1, .L312+16
 1798 0072 0633     		adds	r3, r3, #6
 1799 0074 DA8F     		ldrh	r2, [r3, #62]
 1800 0076 0A40     		ands	r2, r1
 1801 0078 DA87     		strh	r2, [r3, #62]
 1802              	.L261:
 1803 007a 2368     		ldr	r3, [r4]
 1804 007c 9A1D     		adds	r2, r3, #6
 1805 007e D18F     		ldrh	r1, [r2, #62]
 1806 0080 0905     		lsls	r1, r1, #20
 1807 0082 12D5     		bpl	.L263
 1808 0084 D18F     		ldrh	r1, [r2, #62]
 1809 0086 7548     		ldr	r0, .L312+20
 1810 0088 0233     		adds	r3, r3, #2
 1811 008a 0140     		ands	r1, r0
 1812 008c D187     		strh	r1, [r2, #62]
 1813 008e 0821     		movs	r1, #8
 1814 0090 D88F     		ldrh	r0, [r3, #62]
 1815 0092 0143     		orrs	r1, r0
 1816 0094 D987     		strh	r1, [r3, #62]
 1817 0096 0421     		movs	r1, #4
 1818 0098 D88F     		ldrh	r0, [r3, #62]
 1819 009a 0143     		orrs	r1, r0
 1820 009c D987     		strh	r1, [r3, #62]
 1821 009e D38F     		ldrh	r3, [r2, #62]
 1822 00a0 DB04     		lsls	r3, r3, #19
 1823 00a2 02D4     		bmi	.L263
 1824 00a4 2000     		movs	r0, r4
 1825 00a6 FFF7FEFF 		bl	HAL_PCD_SuspendCallback
 1826              	.L263:
 1827 00aa 2368     		ldr	r3, [r4]
 1828 00ac 0633     		adds	r3, r3, #6
 1829 00ae DA8F     		ldrh	r2, [r3, #62]
 1830 00b0 9205     		lsls	r2, r2, #22
 1831 00b2 06D5     		bpl	.L265
 1832 00b4 DA8F     		ldrh	r2, [r3, #62]
 1833 00b6 6A49     		ldr	r1, .L312+24
 1834 00b8 2000     		movs	r0, r4
ARM GAS  /tmp/cc1fCVpA.s 			page 32


 1835 00ba 0A40     		ands	r2, r1
 1836 00bc DA87     		strh	r2, [r3, #62]
 1837 00be FFF7FEFF 		bl	HAL_PCD_SOFCallback
 1838              	.L265:
 1839 00c2 2368     		ldr	r3, [r4]
 1840 00c4 0633     		adds	r3, r3, #6
 1841 00c6 DA8F     		ldrh	r2, [r3, #62]
 1842 00c8 D205     		lsls	r2, r2, #23
 1843 00ca 03D5     		bpl	.L227
 1844 00cc DA8F     		ldrh	r2, [r3, #62]
 1845 00ce 6549     		ldr	r1, .L312+28
 1846 00d0 0A40     		ands	r2, r1
 1847 00d2 DA87     		strh	r2, [r3, #62]
 1848              	.L227:
 1849 00d4 05B0     		add	sp, sp, #20
 1850              		@ sp needed
 1851 00d6 F0BD     		pop	{r4, r5, r6, r7, pc}
 1852              	.L228:
 1853 00d8 02AB     		add	r3, sp, #8
 1854 00da 9F1D     		adds	r7, r3, #6
 1855 00dc 0023     		movs	r3, #0
 1856 00de 3B80     		strh	r3, [r7]
 1857              	.L231:
 1858 00e0 2068     		ldr	r0, [r4]
 1859 00e2 03AA     		add	r2, sp, #12
 1860 00e4 831D     		adds	r3, r0, #6
 1861 00e6 DB8F     		ldrh	r3, [r3, #62]
 1862 00e8 9BB2     		uxth	r3, r3
 1863 00ea 1380     		strh	r3, [r2]
 1864 00ec 1BB2     		sxth	r3, r3
 1865 00ee 002B     		cmp	r3, #0
 1866 00f0 00DB     		blt	.LCB2166
 1867 00f2 8FE7     		b	.L258	@long jump
 1868              	.LCB2166:
 1869 00f4 0F25     		movs	r5, #15
 1870 00f6 0F21     		movs	r1, #15
 1871 00f8 1388     		ldrh	r3, [r2]
 1872 00fa 1D40     		ands	r5, r3
 1873 00fc 0B42     		tst	r3, r1
 1874 00fe 00D0     		beq	.LCB2174
 1875 0100 C0E0     		b	.L232	@long jump
 1876              	.LCB2174:
 1877 0102 1288     		ldrh	r2, [r2]
 1878 0104 1023     		movs	r3, #16
 1879 0106 1100     		movs	r1, r2
 1880 0108 1940     		ands	r1, r3
 1881 010a 1A42     		tst	r2, r3
 1882 010c 27D1     		bne	.L233
 1883 010e 0388     		ldrh	r3, [r0]
 1884 0110 554A     		ldr	r2, .L312+32
 1885 0112 1340     		ands	r3, r2
 1886 0114 0380     		strh	r3, [r0]
 1887 0116 0300     		movs	r3, r0
 1888 0118 5033     		adds	r3, r3, #80
 1889 011a 1A88     		ldrh	r2, [r3]
 1890 011c 2300     		movs	r3, r4
 1891 011e 2833     		adds	r3, r3, #40
ARM GAS  /tmp/cc1fCVpA.s 			page 33


 1892 0120 1B78     		ldrb	r3, [r3]
 1893 0122 DB00     		lsls	r3, r3, #3
 1894 0124 C318     		adds	r3, r0, r3
 1895 0126 9B18     		adds	r3, r3, r2
 1896 0128 504A     		ldr	r2, .L312+36
 1897 012a 2000     		movs	r0, r4
 1898 012c 9B18     		adds	r3, r3, r2
 1899 012e 1B88     		ldrh	r3, [r3]
 1900 0130 A26B     		ldr	r2, [r4, #56]
 1901 0132 9B05     		lsls	r3, r3, #22
 1902 0134 9B0D     		lsrs	r3, r3, #22
 1903 0136 2364     		str	r3, [r4, #64]
 1904 0138 D318     		adds	r3, r2, r3
 1905 013a A363     		str	r3, [r4, #56]
 1906 013c FFF7FEFF 		bl	HAL_PCD_DataInStageCallback
 1907 0140 631D     		adds	r3, r4, #5
 1908 0142 DA7F     		ldrb	r2, [r3, #31]
 1909 0144 002A     		cmp	r2, #0
 1910 0146 CBD0     		beq	.L231
 1911 0148 E06B     		ldr	r0, [r4, #60]
 1912 014a 0028     		cmp	r0, #0
 1913 014c C8D1     		bne	.L231
 1914 014e 8022     		movs	r2, #128
 1915 0150 D97F     		ldrb	r1, [r3, #31]
 1916 0152 1143     		orrs	r1, r2
 1917 0154 2268     		ldr	r2, [r4]
 1918 0156 4C32     		adds	r2, r2, #76
 1919 0158 1180     		strh	r1, [r2]
 1920 015a D877     		strb	r0, [r3, #31]
 1921 015c C0E7     		b	.L231
 1922              	.L233:
 1923 015e 0388     		ldrh	r3, [r0]
 1924 0160 9BB2     		uxth	r3, r3
 1925 0162 3B80     		strh	r3, [r7]
 1926 0164 3B88     		ldrh	r3, [r7]
 1927 0166 1B05     		lsls	r3, r3, #20
 1928 0168 20D5     		bpl	.L237
 1929 016a 0300     		movs	r3, r0
 1930 016c 5033     		adds	r3, r3, #80
 1931 016e 1988     		ldrh	r1, [r3]
 1932 0170 8423     		movs	r3, #132
 1933 0172 5B00     		lsls	r3, r3, #1
 1934 0174 E35C     		ldrb	r3, [r4, r3]
 1935 0176 3E4A     		ldr	r2, .L312+40
 1936 0178 DB00     		lsls	r3, r3, #3
 1937 017a C318     		adds	r3, r0, r3
 1938 017c 5B18     		adds	r3, r3, r1
 1939 017e 9B18     		adds	r3, r3, r2
 1940 0180 2200     		movs	r2, r4
 1941 0182 2100     		movs	r1, r4
 1942 0184 1B88     		ldrh	r3, [r3]
 1943 0186 0932     		adds	r2, r2, #9
 1944 0188 9B05     		lsls	r3, r3, #22
 1945 018a 9B0D     		lsrs	r3, r3, #22
 1946 018c FF32     		adds	r2, r2, #255
 1947 018e ED31     		adds	r1, r1, #237
 1948 0190 9361     		str	r3, [r2, #24]
ARM GAS  /tmp/cc1fCVpA.s 			page 34


 1949 0192 FF31     		adds	r1, r1, #255
 1950 0194 9288     		ldrh	r2, [r2, #4]
 1951 0196 FFF7FEFF 		bl	PCD_ReadPMA
 1952 019a 2268     		ldr	r2, [r4]
 1953 019c 3549     		ldr	r1, .L312+44
 1954 019e 1388     		ldrh	r3, [r2]
 1955 01a0 2000     		movs	r0, r4
 1956 01a2 0B40     		ands	r3, r1
 1957 01a4 1380     		strh	r3, [r2]
 1958 01a6 FFF7FEFF 		bl	HAL_PCD_SetupStageCallback
 1959 01aa 99E7     		b	.L231
 1960              	.L237:
 1961 01ac 3B88     		ldrh	r3, [r7]
 1962 01ae 1BB2     		sxth	r3, r3
 1963 01b0 002B     		cmp	r3, #0
 1964 01b2 95DA     		bge	.L231
 1965 01b4 0388     		ldrh	r3, [r0]
 1966 01b6 2F4A     		ldr	r2, .L312+44
 1967 01b8 2500     		movs	r5, r4
 1968 01ba 1340     		ands	r3, r2
 1969 01bc 0380     		strh	r3, [r0]
 1970 01be 0300     		movs	r3, r0
 1971 01c0 5033     		adds	r3, r3, #80
 1972 01c2 1988     		ldrh	r1, [r3]
 1973 01c4 8423     		movs	r3, #132
 1974 01c6 5B00     		lsls	r3, r3, #1
 1975 01c8 E35C     		ldrb	r3, [r4, r3]
 1976 01ca 294A     		ldr	r2, .L312+40
 1977 01cc DB00     		lsls	r3, r3, #3
 1978 01ce C318     		adds	r3, r0, r3
 1979 01d0 5B18     		adds	r3, r3, r1
 1980 01d2 9B18     		adds	r3, r3, r2
 1981 01d4 1B88     		ldrh	r3, [r3]
 1982 01d6 0935     		adds	r5, r5, #9
 1983 01d8 9B05     		lsls	r3, r3, #22
 1984 01da 9B0D     		lsrs	r3, r3, #22
 1985 01dc FF35     		adds	r5, r5, #255
 1986 01de AB61     		str	r3, [r5, #24]
 1987 01e0 002B     		cmp	r3, #0
 1988 01e2 07D0     		beq	.L238
 1989 01e4 AA88     		ldrh	r2, [r5, #4]
 1990 01e6 2969     		ldr	r1, [r5, #16]
 1991 01e8 FFF7FEFF 		bl	PCD_ReadPMA
 1992 01ec 2B69     		ldr	r3, [r5, #16]
 1993 01ee AA69     		ldr	r2, [r5, #24]
 1994 01f0 9B18     		adds	r3, r3, r2
 1995 01f2 2B61     		str	r3, [r5, #16]
 1996              	.L238:
 1997 01f4 0021     		movs	r1, #0
 1998 01f6 2000     		movs	r0, r4
 1999 01f8 FFF7FEFF 		bl	HAL_PCD_DataOutStageCallback
 2000 01fc 2268     		ldr	r2, [r4]
 2001 01fe 1C49     		ldr	r1, .L312+40
 2002 0200 1300     		movs	r3, r2
 2003 0202 5033     		adds	r3, r3, #80
 2004 0204 1B88     		ldrh	r3, [r3]
 2005 0206 E868     		ldr	r0, [r5, #12]
ARM GAS  /tmp/cc1fCVpA.s 			page 35


 2006 0208 5118     		adds	r1, r2, r1
 2007 020a C918     		adds	r1, r1, r3
 2008 020c 3E28     		cmp	r0, #62
 2009 020e 13D9     		bls	.L239
 2010 0210 4309     		lsrs	r3, r0, #5
 2011 0212 9BB2     		uxth	r3, r3
 2012 0214 C006     		lsls	r0, r0, #27
 2013 0216 01D1     		bne	.L240
 2014 0218 013B     		subs	r3, r3, #1
 2015 021a 9BB2     		uxth	r3, r3
 2016              	.L240:
 2017 021c 1648     		ldr	r0, .L312+48
 2018 021e 9B02     		lsls	r3, r3, #10
 2019 0220 0343     		orrs	r3, r0
 2020              	.L309:
 2021 0222 0B80     		strh	r3, [r1]
 2022 0224 1388     		ldrh	r3, [r2]
 2023 0226 1549     		ldr	r1, .L312+52
 2024 0228 1940     		ands	r1, r3
 2025 022a C023     		movs	r3, #192
 2026 022c 9B01     		lsls	r3, r3, #6
 2027 022e 4B40     		eors	r3, r1
 2028 0230 1349     		ldr	r1, .L312+56
 2029 0232 0B43     		orrs	r3, r1
 2030 0234 1380     		strh	r3, [r2]
 2031 0236 53E7     		b	.L231
 2032              	.L239:
 2033 0238 4308     		lsrs	r3, r0, #1
 2034 023a 9BB2     		uxth	r3, r3
 2035 023c C007     		lsls	r0, r0, #31
 2036 023e 01D5     		bpl	.L242
 2037 0240 0133     		adds	r3, r3, #1
 2038 0242 9BB2     		uxth	r3, r3
 2039              	.L242:
 2040 0244 9B02     		lsls	r3, r3, #10
 2041 0246 ECE7     		b	.L309
 2042              	.L313:
 2043              		.align	2
 2044              	.L312:
 2045 0248 FFFBFFFF 		.word	-1025
 2046 024c FFBFFFFF 		.word	-16385
 2047 0250 FFDFFFFF 		.word	-8193
 2048 0254 00BDFFFF 		.word	-17152
 2049 0258 FFEFFFFF 		.word	-4097
 2050 025c FFF7FFFF 		.word	-2049
 2051 0260 FFFDFFFF 		.word	-513
 2052 0264 FFFEFFFF 		.word	-257
 2053 0268 0F8FFFFF 		.word	-28913
 2054 026c 02040000 		.word	1026
 2055 0270 06040000 		.word	1030
 2056 0274 8F0F0000 		.word	3983
 2057 0278 0080FFFF 		.word	-32768
 2058 027c 8FBFFFFF 		.word	-16497
 2059 0280 80800000 		.word	32896
 2060              	.L232:
 2061 0284 AB00     		lsls	r3, r5, #2
 2062 0286 0193     		str	r3, [sp, #4]
ARM GAS  /tmp/cc1fCVpA.s 			page 36


 2063 0288 C318     		adds	r3, r0, r3
 2064 028a 1A88     		ldrh	r2, [r3]
 2065 028c 92B2     		uxth	r2, r2
 2066 028e 3A80     		strh	r2, [r7]
 2067 0290 3A88     		ldrh	r2, [r7]
 2068 0292 12B2     		sxth	r2, r2
 2069 0294 002A     		cmp	r2, #0
 2070 0296 3CDA     		bge	.L243
 2071 0298 1A88     		ldrh	r2, [r3]
 2072 029a 7649     		ldr	r1, .L314
 2073 029c 0A40     		ands	r2, r1
 2074 029e 1A80     		strh	r2, [r3]
 2075 02a0 1C23     		movs	r3, #28
 2076 02a2 6B43     		muls	r3, r5
 2077 02a4 E318     		adds	r3, r4, r3
 2078 02a6 1A00     		movs	r2, r3
 2079 02a8 0100     		movs	r1, r0
 2080 02aa FF32     		adds	r2, r2, #255
 2081 02ac D67C     		ldrb	r6, [r2, #19]
 2082 02ae 5031     		adds	r1, r1, #80
 2083 02b0 527A     		ldrb	r2, [r2, #9]
 2084 02b2 002E     		cmp	r6, #0
 2085 02b4 71D1     		bne	.L244
 2086 02b6 0988     		ldrh	r1, [r1]
 2087 02b8 D200     		lsls	r2, r2, #3
 2088 02ba 5218     		adds	r2, r2, r1
 2089 02bc 6E49     		ldr	r1, .L314+4
 2090 02be 1218     		adds	r2, r2, r0
 2091 02c0 5218     		adds	r2, r2, r1
 2092 02c2 1288     		ldrh	r2, [r2]
 2093 02c4 9205     		lsls	r2, r2, #22
 2094 02c6 960D     		lsrs	r6, r2, #22
 2095 02c8 002A     		cmp	r2, #0
 2096 02ca 08D0     		beq	.L245
 2097 02cc 1A00     		movs	r2, r3
 2098 02ce FC33     		adds	r3, r3, #252
 2099 02d0 1900     		movs	r1, r3
 2100 02d2 FE32     		adds	r2, r2, #254
 2101 02d4 3300     		movs	r3, r6
 2102 02d6 D289     		ldrh	r2, [r2, #14]
 2103 02d8 C969     		ldr	r1, [r1, #28]
 2104 02da FFF7FEFF 		bl	PCD_ReadPMA
 2105              	.L245:
 2106 02de 1C21     		movs	r1, #28
 2107 02e0 6943     		muls	r1, r5
 2108 02e2 6118     		adds	r1, r4, r1
 2109 02e4 0B00     		movs	r3, r1
 2110 02e6 FC33     		adds	r3, r3, #252
 2111 02e8 5A6A     		ldr	r2, [r3, #36]
 2112 02ea 186A     		ldr	r0, [r3, #32]
 2113 02ec 9219     		adds	r2, r2, r6
 2114 02ee 5A62     		str	r2, [r3, #36]
 2115 02f0 DA69     		ldr	r2, [r3, #28]
 2116 02f2 9219     		adds	r2, r2, r6
 2117 02f4 DA61     		str	r2, [r3, #28]
 2118 02f6 0028     		cmp	r0, #0
 2119 02f8 03D0     		beq	.L248
ARM GAS  /tmp/cc1fCVpA.s 			page 37


 2120 02fa 9B69     		ldr	r3, [r3, #24]
 2121 02fc 9E42     		cmp	r6, r3
 2122 02fe 00D3     		bcc	.LCB2479
 2123 0300 7EE0     		b	.L249	@long jump
 2124              	.LCB2479:
 2125              	.L248:
 2126 0302 1C23     		movs	r3, #28
 2127 0304 6B43     		muls	r3, r5
 2128 0306 E318     		adds	r3, r4, r3
 2129 0308 FF33     		adds	r3, r3, #255
 2130 030a 2000     		movs	r0, r4
 2131 030c 597A     		ldrb	r1, [r3, #9]
 2132 030e FFF7FEFF 		bl	HAL_PCD_DataOutStageCallback
 2133              	.L243:
 2134 0312 8022     		movs	r2, #128
 2135 0314 3B88     		ldrh	r3, [r7]
 2136 0316 1342     		tst	r3, r2
 2137 0318 00D1     		bne	.LCB2496
 2138 031a E1E6     		b	.L231	@long jump
 2139              	.LCB2496:
 2140 031c 2068     		ldr	r0, [r4]
 2141 031e AB00     		lsls	r3, r5, #2
 2142 0320 C318     		adds	r3, r0, r3
 2143 0322 1A88     		ldrh	r2, [r3]
 2144 0324 5549     		ldr	r1, .L314+8
 2145 0326 0600     		movs	r6, r0
 2146 0328 0A40     		ands	r2, r1
 2147 032a 1C21     		movs	r1, #28
 2148 032c 6943     		muls	r1, r5
 2149 032e 6118     		adds	r1, r4, r1
 2150 0330 1A80     		strh	r2, [r3]
 2151 0332 0B00     		movs	r3, r1
 2152 0334 3233     		adds	r3, r3, #50
 2153 0336 1A78     		ldrb	r2, [r3]
 2154 0338 5036     		adds	r6, r6, #80
 2155 033a 0A3B     		subs	r3, r3, #10
 2156 033c 002A     		cmp	r2, #0
 2157 033e 66D1     		bne	.L250
 2158 0340 1B78     		ldrb	r3, [r3]
 2159 0342 3688     		ldrh	r6, [r6]
 2160 0344 DB00     		lsls	r3, r3, #3
 2161 0346 4E4A     		ldr	r2, .L314+12
 2162 0348 9B19     		adds	r3, r3, r6
 2163 034a 1B18     		adds	r3, r3, r0
 2164 034c 9B18     		adds	r3, r3, r2
 2165 034e 1B88     		ldrh	r3, [r3]
 2166 0350 9B05     		lsls	r3, r3, #22
 2167 0352 9B0D     		lsrs	r3, r3, #22
 2168 0354 0B64     		str	r3, [r1, #64]
 2169 0356 03D0     		beq	.L251
 2170 0358 8A8D     		ldrh	r2, [r1, #44]
 2171 035a 896B     		ldr	r1, [r1, #56]
 2172 035c FFF7FEFF 		bl	PCD_WritePMA
 2173              	.L251:
 2174 0360 1C21     		movs	r1, #28
 2175 0362 4D43     		muls	r5, r1
 2176 0364 6519     		adds	r5, r4, r5
ARM GAS  /tmp/cc1fCVpA.s 			page 38


 2177 0366 2368     		ldr	r3, [r4]
 2178 0368 2900     		movs	r1, r5
 2179 036a 1A00     		movs	r2, r3
 2180 036c 2831     		adds	r1, r1, #40
 2181 036e 0978     		ldrb	r1, [r1]
 2182 0370 5032     		adds	r2, r2, #80
 2183 0372 1288     		ldrh	r2, [r2]
 2184 0374 C800     		lsls	r0, r1, #3
 2185 0376 1B18     		adds	r3, r3, r0
 2186 0378 9B18     		adds	r3, r3, r2
 2187 037a 414A     		ldr	r2, .L314+12
 2188 037c 2000     		movs	r0, r4
 2189 037e 9B18     		adds	r3, r3, r2
 2190 0380 1A88     		ldrh	r2, [r3]
 2191 0382 AB6B     		ldr	r3, [r5, #56]
 2192 0384 9205     		lsls	r2, r2, #22
 2193 0386 920D     		lsrs	r2, r2, #22
 2194 0388 2A64     		str	r2, [r5, #64]
 2195 038a 9A18     		adds	r2, r3, r2
 2196 038c EB6B     		ldr	r3, [r5, #60]
 2197 038e AA63     		str	r2, [r5, #56]
 2198 0390 002B     		cmp	r3, #0
 2199 0392 6CD1     		bne	.L256
 2200 0394 FFF7FEFF 		bl	HAL_PCD_DataInStageCallback
 2201 0398 A2E6     		b	.L231
 2202              	.L244:
 2203 039a 9600     		lsls	r6, r2, #2
 2204 039c 8619     		adds	r6, r0, r6
 2205 039e 3688     		ldrh	r6, [r6]
 2206 03a0 0988     		ldrh	r1, [r1]
 2207 03a2 D200     		lsls	r2, r2, #3
 2208 03a4 8A18     		adds	r2, r1, r2
 2209 03a6 1218     		adds	r2, r2, r0
 2210 03a8 7604     		lsls	r6, r6, #17
 2211 03aa 1ED5     		bpl	.L246
 2212 03ac 3449     		ldr	r1, .L314+12
 2213 03ae 5218     		adds	r2, r2, r1
 2214 03b0 1288     		ldrh	r2, [r2]
 2215 03b2 9205     		lsls	r2, r2, #22
 2216 03b4 960D     		lsrs	r6, r2, #22
 2217 03b6 002A     		cmp	r2, #0
 2218 03b8 08D0     		beq	.L247
 2219 03ba 1A00     		movs	r2, r3
 2220 03bc FE32     		adds	r2, r2, #254
 2221 03be 128A     		ldrh	r2, [r2, #16]
 2222              	.L310:
 2223 03c0 FC33     		adds	r3, r3, #252
 2224 03c2 1900     		movs	r1, r3
 2225 03c4 3300     		movs	r3, r6
 2226 03c6 C969     		ldr	r1, [r1, #28]
 2227 03c8 FFF7FEFF 		bl	PCD_ReadPMA
 2228              	.L247:
 2229 03cc 1C23     		movs	r3, #28
 2230 03ce 6B43     		muls	r3, r5
 2231 03d0 E318     		adds	r3, r4, r3
 2232 03d2 FF33     		adds	r3, r3, #255
 2233 03d4 5A7A     		ldrb	r2, [r3, #9]
ARM GAS  /tmp/cc1fCVpA.s 			page 39


 2234 03d6 2368     		ldr	r3, [r4]
 2235 03d8 9200     		lsls	r2, r2, #2
 2236 03da 9A18     		adds	r2, r3, r2
 2237 03dc 1388     		ldrh	r3, [r2]
 2238 03de 2949     		ldr	r1, .L314+16
 2239 03e0 0B40     		ands	r3, r1
 2240 03e2 2949     		ldr	r1, .L314+20
 2241 03e4 0B43     		orrs	r3, r1
 2242 03e6 1380     		strh	r3, [r2]
 2243 03e8 79E7     		b	.L245
 2244              	.L246:
 2245 03ea 2349     		ldr	r1, .L314+4
 2246 03ec 5218     		adds	r2, r2, r1
 2247 03ee 1288     		ldrh	r2, [r2]
 2248 03f0 9205     		lsls	r2, r2, #22
 2249 03f2 960D     		lsrs	r6, r2, #22
 2250 03f4 002A     		cmp	r2, #0
 2251 03f6 E9D0     		beq	.L247
 2252 03f8 1A00     		movs	r2, r3
 2253 03fa FE32     		adds	r2, r2, #254
 2254 03fc 528A     		ldrh	r2, [r2, #18]
 2255 03fe DFE7     		b	.L310
 2256              	.L249:
 2257 0400 FF31     		adds	r1, r1, #255
 2258 0402 0300     		movs	r3, r0
 2259 0404 497A     		ldrb	r1, [r1, #9]
 2260 0406 2000     		movs	r0, r4
 2261 0408 FFF7FEFF 		bl	HAL_PCD_EP_Receive
 2262 040c 81E7     		b	.L243
 2263              	.L250:
 2264 040e 1A78     		ldrb	r2, [r3]
 2265 0410 9300     		lsls	r3, r2, #2
 2266 0412 C318     		adds	r3, r0, r3
 2267 0414 1B88     		ldrh	r3, [r3]
 2268 0416 D200     		lsls	r2, r2, #3
 2269 0418 5B06     		lsls	r3, r3, #25
 2270 041a 1CD5     		bpl	.L252
 2271 041c 3388     		ldrh	r3, [r6]
 2272 041e C318     		adds	r3, r0, r3
 2273 0420 9B18     		adds	r3, r3, r2
 2274 0422 174A     		ldr	r2, .L314+12
 2275 0424 9B18     		adds	r3, r3, r2
 2276 0426 1B88     		ldrh	r3, [r3]
 2277 0428 9B05     		lsls	r3, r3, #22
 2278 042a 9B0D     		lsrs	r3, r3, #22
 2279 042c 0B64     		str	r3, [r1, #64]
 2280 042e 03D0     		beq	.L254
 2281 0430 CA8D     		ldrh	r2, [r1, #46]
 2282              	.L311:
 2283 0432 896B     		ldr	r1, [r1, #56]
 2284 0434 FFF7FEFF 		bl	PCD_WritePMA
 2285              	.L254:
 2286 0438 1C23     		movs	r3, #28
 2287 043a 6B43     		muls	r3, r5
 2288 043c E318     		adds	r3, r4, r3
 2289 043e 2833     		adds	r3, r3, #40
 2290 0440 1A78     		ldrb	r2, [r3]
ARM GAS  /tmp/cc1fCVpA.s 			page 40


 2291 0442 2368     		ldr	r3, [r4]
 2292 0444 9200     		lsls	r2, r2, #2
 2293 0446 9A18     		adds	r2, r3, r2
 2294 0448 1388     		ldrh	r3, [r2]
 2295 044a 0E49     		ldr	r1, .L314+16
 2296 044c 0B40     		ands	r3, r1
 2297 044e 0F49     		ldr	r1, .L314+24
 2298 0450 0B43     		orrs	r3, r1
 2299 0452 1380     		strh	r3, [r2]
 2300 0454 84E7     		b	.L251
 2301              	.L252:
 2302 0456 3388     		ldrh	r3, [r6]
 2303 0458 C318     		adds	r3, r0, r3
 2304 045a 9B18     		adds	r3, r3, r2
 2305 045c 064A     		ldr	r2, .L314+4
 2306 045e 9B18     		adds	r3, r3, r2
 2307 0460 1B88     		ldrh	r3, [r3]
 2308 0462 9B05     		lsls	r3, r3, #22
 2309 0464 9B0D     		lsrs	r3, r3, #22
 2310 0466 0B64     		str	r3, [r1, #64]
 2311 0468 E6D0     		beq	.L254
 2312 046a 0A8E     		ldrh	r2, [r1, #48]
 2313 046c E1E7     		b	.L311
 2314              	.L256:
 2315 046e FFF7FEFF 		bl	HAL_PCD_EP_Transmit
 2316 0472 35E6     		b	.L231
 2317              	.L315:
 2318              		.align	2
 2319              	.L314:
 2320 0474 8F0F0000 		.word	3983
 2321 0478 06040000 		.word	1030
 2322 047c 0F8FFFFF 		.word	-28913
 2323 0480 02040000 		.word	1026
 2324 0484 0F0F0000 		.word	3855
 2325 0488 C0800000 		.word	32960
 2326 048c 80C00000 		.word	49280
 2328              		.ident	"GCC: (Arch Repository) 10.1.0"
ARM GAS  /tmp/cc1fCVpA.s 			page 41

