ARM GAS  /tmp/cc282nGC.s 			page 1


   1              		.cpu cortex-m0
   2              		.eabi_attribute 20, 1
   3              		.eabi_attribute 21, 1
   4              		.eabi_attribute 23, 3
   5              		.eabi_attribute 24, 1
   6              		.eabi_attribute 25, 1
   7              		.eabi_attribute 26, 1
   8              		.eabi_attribute 30, 4
   9              		.eabi_attribute 34, 0
  10              		.eabi_attribute 18, 4
  11              		.file	"stm32f0xx_it.c"
  12              		.text
  13              		.section	.text.NMI_Handler,"ax",%progbits
  14              		.align	1
  15              		.global	NMI_Handler
  16              		.arch armv6s-m
  17              		.syntax unified
  18              		.code	16
  19              		.thumb_func
  20              		.fpu softvfp
  22              	NMI_Handler:
  23              		@ args = 0, pretend = 0, frame = 0
  24              		@ frame_needed = 0, uses_anonymous_args = 0
  25              		@ link register save eliminated.
  26              		@ sp needed
  27 0000 7047     		bx	lr
  29              		.section	.text.HardFault_Handler,"ax",%progbits
  30              		.align	1
  31              		.global	HardFault_Handler
  32              		.syntax unified
  33              		.code	16
  34              		.thumb_func
  35              		.fpu softvfp
  37              	HardFault_Handler:
  38              		@ Volatile: function does not return.
  39              		@ args = 0, pretend = 0, frame = 0
  40              		@ frame_needed = 0, uses_anonymous_args = 0
  41              		@ link register save eliminated.
  42              	.L3:
  43 0000 FEE7     		b	.L3
  45              		.section	.text.SVC_Handler,"ax",%progbits
  46              		.align	1
  47              		.global	SVC_Handler
  48              		.syntax unified
  49              		.code	16
  50              		.thumb_func
  51              		.fpu softvfp
  53              	SVC_Handler:
  54              		@ args = 0, pretend = 0, frame = 0
  55              		@ frame_needed = 0, uses_anonymous_args = 0
  56              		@ link register save eliminated.
  57              		@ sp needed
  58 0000 7047     		bx	lr
  60              		.section	.text.PendSV_Handler,"ax",%progbits
  61              		.align	1
  62              		.global	PendSV_Handler
  63              		.syntax unified
ARM GAS  /tmp/cc282nGC.s 			page 2


  64              		.code	16
  65              		.thumb_func
  66              		.fpu softvfp
  68              	PendSV_Handler:
  69              		@ args = 0, pretend = 0, frame = 0
  70              		@ frame_needed = 0, uses_anonymous_args = 0
  71              		@ link register save eliminated.
  72              		@ sp needed
  73 0000 7047     		bx	lr
  75              		.section	.text.SysTick_Handler,"ax",%progbits
  76              		.align	1
  77              		.global	SysTick_Handler
  78              		.syntax unified
  79              		.code	16
  80              		.thumb_func
  81              		.fpu softvfp
  83              	SysTick_Handler:
  84              		@ args = 0, pretend = 0, frame = 0
  85              		@ frame_needed = 0, uses_anonymous_args = 0
  86 0000 10B5     		push	{r4, lr}
  87 0002 FFF7FEFF 		bl	HAL_IncTick
  88              		@ sp needed
  89 0006 10BD     		pop	{r4, pc}
  91              		.section	.text.USB_IRQHandler,"ax",%progbits
  92              		.align	1
  93              		.global	USB_IRQHandler
  94              		.syntax unified
  95              		.code	16
  96              		.thumb_func
  97              		.fpu softvfp
  99              	USB_IRQHandler:
 100              		@ args = 0, pretend = 0, frame = 0
 101              		@ frame_needed = 0, uses_anonymous_args = 0
 102 0000 10B5     		push	{r4, lr}
 103 0002 0248     		ldr	r0, .L8
 104 0004 FFF7FEFF 		bl	HAL_PCD_IRQHandler
 105              		@ sp needed
 106 0008 10BD     		pop	{r4, pc}
 107              	.L9:
 108 000a C046     		.align	2
 109              	.L8:
 110 000c 00000000 		.word	hpcd
 112              		.section	.text.ADC1_COMP_IRQHandler,"ax",%progbits
 113              		.align	1
 114              		.global	ADC1_COMP_IRQHandler
 115              		.syntax unified
 116              		.code	16
 117              		.thumb_func
 118              		.fpu softvfp
 120              	ADC1_COMP_IRQHandler:
 121              		@ args = 0, pretend = 0, frame = 0
 122              		@ frame_needed = 0, uses_anonymous_args = 0
 123 0000 10B5     		push	{r4, lr}
 124 0002 0248     		ldr	r0, .L11
 125 0004 FFF7FEFF 		bl	HAL_ADC_IRQHandler
 126              		@ sp needed
 127 0008 10BD     		pop	{r4, pc}
ARM GAS  /tmp/cc282nGC.s 			page 3


 128              	.L12:
 129 000a C046     		.align	2
 130              	.L11:
 131 000c 00000000 		.word	hadc
 133              		.section	.text.DMA1_Channel1_IRQHandler,"ax",%progbits
 134              		.align	1
 135              		.global	DMA1_Channel1_IRQHandler
 136              		.syntax unified
 137              		.code	16
 138              		.thumb_func
 139              		.fpu softvfp
 141              	DMA1_Channel1_IRQHandler:
 142              		@ args = 0, pretend = 0, frame = 0
 143              		@ frame_needed = 0, uses_anonymous_args = 0
 144 0000 10B5     		push	{r4, lr}
 145 0002 0348     		ldr	r0, .L14
 146 0004 FFF7FEFF 		bl	HAL_DMA_IRQHandler
 147              		@ sp needed
 148 0008 FFF7FEFF 		bl	reg
 149 000c 10BD     		pop	{r4, pc}
 150              	.L15:
 151 000e C046     		.align	2
 152              	.L14:
 153 0010 00000000 		.word	hdma_adc
 155              		.section	.text.TIM1_BRK_UP_TRG_COM_IRQHandler,"ax",%progbits
 156              		.align	1
 157              		.global	TIM1_BRK_UP_TRG_COM_IRQHandler
 158              		.syntax unified
 159              		.code	16
 160              		.thumb_func
 161              		.fpu softvfp
 163              	TIM1_BRK_UP_TRG_COM_IRQHandler:
 164              		@ args = 0, pretend = 0, frame = 0
 165              		@ frame_needed = 0, uses_anonymous_args = 0
 166 0000 10B5     		push	{r4, lr}
 167 0002 0248     		ldr	r0, .L17
 168 0004 FFF7FEFF 		bl	HAL_TIM_IRQHandler
 169              		@ sp needed
 170 0008 10BD     		pop	{r4, pc}
 171              	.L18:
 172 000a C046     		.align	2
 173              	.L17:
 174 000c 00000000 		.word	htim1
 176              		.section	.text.TIM1_CC_IRQHandler,"ax",%progbits
 177              		.align	1
 178              		.global	TIM1_CC_IRQHandler
 179              		.syntax unified
 180              		.code	16
 181              		.thumb_func
 182              		.fpu softvfp
 184              	TIM1_CC_IRQHandler:
 185              		@ args = 0, pretend = 0, frame = 0
 186              		@ frame_needed = 0, uses_anonymous_args = 0
 187 0000 10B5     		push	{r4, lr}
 188 0002 FFF7FEFF 		bl	TIM1_BRK_UP_TRG_COM_IRQHandler
 189              		@ sp needed
 190 0006 10BD     		pop	{r4, pc}
ARM GAS  /tmp/cc282nGC.s 			page 4


 192              		.section	.text.TIM3_IRQHandler,"ax",%progbits
 193              		.align	1
 194              		.global	TIM3_IRQHandler
 195              		.syntax unified
 196              		.code	16
 197              		.thumb_func
 198              		.fpu softvfp
 200              	TIM3_IRQHandler:
 201              		@ args = 0, pretend = 0, frame = 0
 202              		@ frame_needed = 0, uses_anonymous_args = 0
 203 0000 10B5     		push	{r4, lr}
 204 0002 0248     		ldr	r0, .L21
 205 0004 FFF7FEFF 		bl	HAL_TIM_IRQHandler
 206              		@ sp needed
 207 0008 10BD     		pop	{r4, pc}
 208              	.L22:
 209 000a C046     		.align	2
 210              	.L21:
 211 000c 00000000 		.word	htim3
 213              		.ident	"GCC: (Arch Repository) 10.1.0"
ARM GAS  /tmp/cc282nGC.s 			page 5

