ARM GAS  /tmp/cc68hz7R.s 			page 1


   1              		.cpu cortex-m0
   2              		.eabi_attribute 20, 1
   3              		.eabi_attribute 21, 1
   4              		.eabi_attribute 23, 3
   5              		.eabi_attribute 24, 1
   6              		.eabi_attribute 25, 1
   7              		.eabi_attribute 26, 1
   8              		.eabi_attribute 30, 1
   9              		.eabi_attribute 34, 0
  10              		.eabi_attribute 18, 4
  11              		.file	"stm32f0xx_hal_rcc.c"
  12              		.text
  13              	.Ltext0:
  14              		.cfi_sections	.debug_frame
  15              		.section	.text.HAL_RCC_DeInit,"ax",%progbits
  16              		.align	1
  17              		.global	HAL_RCC_DeInit
  18              		.arch armv6s-m
  19              		.syntax unified
  20              		.code	16
  21              		.thumb_func
  22              		.fpu softvfp
  24              	HAL_RCC_DeInit:
  25              	.LFB37:
  26              		.file 1 "Drivers/STM32F0xx_HAL_Driver/Src/stm32f0xx_hal_rcc.c"
   1:Drivers/STM32F0xx_HAL_Driver/Src/stm32f0xx_hal_rcc.c **** /**
   2:Drivers/STM32F0xx_HAL_Driver/Src/stm32f0xx_hal_rcc.c ****   ******************************************************************************
   3:Drivers/STM32F0xx_HAL_Driver/Src/stm32f0xx_hal_rcc.c ****   * @file    stm32f0xx_hal_rcc.c
   4:Drivers/STM32F0xx_HAL_Driver/Src/stm32f0xx_hal_rcc.c ****   * @author  MCD Application Team
   5:Drivers/STM32F0xx_HAL_Driver/Src/stm32f0xx_hal_rcc.c ****   * @brief   RCC HAL module driver.
   6:Drivers/STM32F0xx_HAL_Driver/Src/stm32f0xx_hal_rcc.c ****   *          This file provides firmware functions to manage the following 
   7:Drivers/STM32F0xx_HAL_Driver/Src/stm32f0xx_hal_rcc.c ****   *          functionalities of the Reset and Clock Control (RCC) peripheral:
   8:Drivers/STM32F0xx_HAL_Driver/Src/stm32f0xx_hal_rcc.c ****   *           + Initialization and de-initialization functions
   9:Drivers/STM32F0xx_HAL_Driver/Src/stm32f0xx_hal_rcc.c ****   *           + Peripheral Control functions
  10:Drivers/STM32F0xx_HAL_Driver/Src/stm32f0xx_hal_rcc.c ****   *       
  11:Drivers/STM32F0xx_HAL_Driver/Src/stm32f0xx_hal_rcc.c ****   @verbatim                
  12:Drivers/STM32F0xx_HAL_Driver/Src/stm32f0xx_hal_rcc.c ****   ==============================================================================
  13:Drivers/STM32F0xx_HAL_Driver/Src/stm32f0xx_hal_rcc.c ****                       ##### RCC specific features #####
  14:Drivers/STM32F0xx_HAL_Driver/Src/stm32f0xx_hal_rcc.c ****   ==============================================================================
  15:Drivers/STM32F0xx_HAL_Driver/Src/stm32f0xx_hal_rcc.c ****     [..]  
  16:Drivers/STM32F0xx_HAL_Driver/Src/stm32f0xx_hal_rcc.c ****       After reset the device is running from Internal High Speed oscillator
  17:Drivers/STM32F0xx_HAL_Driver/Src/stm32f0xx_hal_rcc.c ****       (HSI 8MHz) with Flash 0 wait state, Flash prefetch buffer is enabled, 
  18:Drivers/STM32F0xx_HAL_Driver/Src/stm32f0xx_hal_rcc.c ****       and all peripherals are off except internal SRAM, Flash and JTAG.
  19:Drivers/STM32F0xx_HAL_Driver/Src/stm32f0xx_hal_rcc.c ****       (+) There is no prescaler on High speed (AHB) and Low speed (APB) buses;
  20:Drivers/STM32F0xx_HAL_Driver/Src/stm32f0xx_hal_rcc.c ****           all peripherals mapped on these buses are running at HSI speed.
  21:Drivers/STM32F0xx_HAL_Driver/Src/stm32f0xx_hal_rcc.c ****       (+) The clock for all peripherals is switched off, except the SRAM and FLASH.
  22:Drivers/STM32F0xx_HAL_Driver/Src/stm32f0xx_hal_rcc.c ****       (+) All GPIOs are in input floating state, except the JTAG pins which
  23:Drivers/STM32F0xx_HAL_Driver/Src/stm32f0xx_hal_rcc.c ****           are assigned to be used for debug purpose.
  24:Drivers/STM32F0xx_HAL_Driver/Src/stm32f0xx_hal_rcc.c ****     [..] Once the device started from reset, the user application has to:
  25:Drivers/STM32F0xx_HAL_Driver/Src/stm32f0xx_hal_rcc.c ****       (+) Configure the clock source to be used to drive the System clock
  26:Drivers/STM32F0xx_HAL_Driver/Src/stm32f0xx_hal_rcc.c ****           (if the application needs higher frequency/performance)
  27:Drivers/STM32F0xx_HAL_Driver/Src/stm32f0xx_hal_rcc.c ****       (+) Configure the System clock frequency and Flash settings  
  28:Drivers/STM32F0xx_HAL_Driver/Src/stm32f0xx_hal_rcc.c ****       (+) Configure the AHB and APB buses prescalers
  29:Drivers/STM32F0xx_HAL_Driver/Src/stm32f0xx_hal_rcc.c ****       (+) Enable the clock for the peripheral(s) to be used
  30:Drivers/STM32F0xx_HAL_Driver/Src/stm32f0xx_hal_rcc.c ****       (+) Configure the clock source(s) for peripherals whose clocks are not
  31:Drivers/STM32F0xx_HAL_Driver/Src/stm32f0xx_hal_rcc.c ****           derived from the System clock (RTC, ADC, I2C, USART, TIM, USB FS, etc..)
  32:Drivers/STM32F0xx_HAL_Driver/Src/stm32f0xx_hal_rcc.c **** 
ARM GAS  /tmp/cc68hz7R.s 			page 2


  33:Drivers/STM32F0xx_HAL_Driver/Src/stm32f0xx_hal_rcc.c ****                       ##### RCC Limitations #####
  34:Drivers/STM32F0xx_HAL_Driver/Src/stm32f0xx_hal_rcc.c ****   ==============================================================================
  35:Drivers/STM32F0xx_HAL_Driver/Src/stm32f0xx_hal_rcc.c ****     [..]  
  36:Drivers/STM32F0xx_HAL_Driver/Src/stm32f0xx_hal_rcc.c ****       A delay between an RCC peripheral clock enable and the effective peripheral 
  37:Drivers/STM32F0xx_HAL_Driver/Src/stm32f0xx_hal_rcc.c ****       enabling should be taken into account in order to manage the peripheral read/write 
  38:Drivers/STM32F0xx_HAL_Driver/Src/stm32f0xx_hal_rcc.c ****       from/to registers.
  39:Drivers/STM32F0xx_HAL_Driver/Src/stm32f0xx_hal_rcc.c ****       (+) This delay depends on the peripheral mapping.
  40:Drivers/STM32F0xx_HAL_Driver/Src/stm32f0xx_hal_rcc.c ****         (++) AHB & APB peripherals, 1 dummy read is necessary
  41:Drivers/STM32F0xx_HAL_Driver/Src/stm32f0xx_hal_rcc.c **** 
  42:Drivers/STM32F0xx_HAL_Driver/Src/stm32f0xx_hal_rcc.c ****     [..]  
  43:Drivers/STM32F0xx_HAL_Driver/Src/stm32f0xx_hal_rcc.c ****       Workarounds:
  44:Drivers/STM32F0xx_HAL_Driver/Src/stm32f0xx_hal_rcc.c ****       (#) For AHB & APB peripherals, a dummy read to the peripheral register has been
  45:Drivers/STM32F0xx_HAL_Driver/Src/stm32f0xx_hal_rcc.c ****           inserted in each __HAL_RCC_PPP_CLK_ENABLE() macro.
  46:Drivers/STM32F0xx_HAL_Driver/Src/stm32f0xx_hal_rcc.c **** 
  47:Drivers/STM32F0xx_HAL_Driver/Src/stm32f0xx_hal_rcc.c ****   @endverbatim
  48:Drivers/STM32F0xx_HAL_Driver/Src/stm32f0xx_hal_rcc.c ****   ******************************************************************************
  49:Drivers/STM32F0xx_HAL_Driver/Src/stm32f0xx_hal_rcc.c ****   * @attention
  50:Drivers/STM32F0xx_HAL_Driver/Src/stm32f0xx_hal_rcc.c ****   *
  51:Drivers/STM32F0xx_HAL_Driver/Src/stm32f0xx_hal_rcc.c ****   * <h2><center>&copy; COPYRIGHT(c) 2016 STMicroelectronics</center></h2>
  52:Drivers/STM32F0xx_HAL_Driver/Src/stm32f0xx_hal_rcc.c ****   *
  53:Drivers/STM32F0xx_HAL_Driver/Src/stm32f0xx_hal_rcc.c ****   * Redistribution and use in source and binary forms, with or without modification,
  54:Drivers/STM32F0xx_HAL_Driver/Src/stm32f0xx_hal_rcc.c ****   * are permitted provided that the following conditions are met:
  55:Drivers/STM32F0xx_HAL_Driver/Src/stm32f0xx_hal_rcc.c ****   *   1. Redistributions of source code must retain the above copyright notice,
  56:Drivers/STM32F0xx_HAL_Driver/Src/stm32f0xx_hal_rcc.c ****   *      this list of conditions and the following disclaimer.
  57:Drivers/STM32F0xx_HAL_Driver/Src/stm32f0xx_hal_rcc.c ****   *   2. Redistributions in binary form must reproduce the above copyright notice,
  58:Drivers/STM32F0xx_HAL_Driver/Src/stm32f0xx_hal_rcc.c ****   *      this list of conditions and the following disclaimer in the documentation
  59:Drivers/STM32F0xx_HAL_Driver/Src/stm32f0xx_hal_rcc.c ****   *      and/or other materials provided with the distribution.
  60:Drivers/STM32F0xx_HAL_Driver/Src/stm32f0xx_hal_rcc.c ****   *   3. Neither the name of STMicroelectronics nor the names of its contributors
  61:Drivers/STM32F0xx_HAL_Driver/Src/stm32f0xx_hal_rcc.c ****   *      may be used to endorse or promote products derived from this software
  62:Drivers/STM32F0xx_HAL_Driver/Src/stm32f0xx_hal_rcc.c ****   *      without specific prior written permission.
  63:Drivers/STM32F0xx_HAL_Driver/Src/stm32f0xx_hal_rcc.c ****   *
  64:Drivers/STM32F0xx_HAL_Driver/Src/stm32f0xx_hal_rcc.c ****   * THIS SOFTWARE IS PROVIDED BY THE COPYRIGHT HOLDERS AND CONTRIBUTORS "AS IS"
  65:Drivers/STM32F0xx_HAL_Driver/Src/stm32f0xx_hal_rcc.c ****   * AND ANY EXPRESS OR IMPLIED WARRANTIES, INCLUDING, BUT NOT LIMITED TO, THE
  66:Drivers/STM32F0xx_HAL_Driver/Src/stm32f0xx_hal_rcc.c ****   * IMPLIED WARRANTIES OF MERCHANTABILITY AND FITNESS FOR A PARTICULAR PURPOSE ARE
  67:Drivers/STM32F0xx_HAL_Driver/Src/stm32f0xx_hal_rcc.c ****   * DISCLAIMED. IN NO EVENT SHALL THE COPYRIGHT HOLDER OR CONTRIBUTORS BE LIABLE
  68:Drivers/STM32F0xx_HAL_Driver/Src/stm32f0xx_hal_rcc.c ****   * FOR ANY DIRECT, INDIRECT, INCIDENTAL, SPECIAL, EXEMPLARY, OR CONSEQUENTIAL
  69:Drivers/STM32F0xx_HAL_Driver/Src/stm32f0xx_hal_rcc.c ****   * DAMAGES (INCLUDING, BUT NOT LIMITED TO, PROCUREMENT OF SUBSTITUTE GOODS OR
  70:Drivers/STM32F0xx_HAL_Driver/Src/stm32f0xx_hal_rcc.c ****   * SERVICES; LOSS OF USE, DATA, OR PROFITS; OR BUSINESS INTERRUPTION) HOWEVER
  71:Drivers/STM32F0xx_HAL_Driver/Src/stm32f0xx_hal_rcc.c ****   * CAUSED AND ON ANY THEORY OF LIABILITY, WHETHER IN CONTRACT, STRICT LIABILITY,
  72:Drivers/STM32F0xx_HAL_Driver/Src/stm32f0xx_hal_rcc.c ****   * OR TORT (INCLUDING NEGLIGENCE OR OTHERWISE) ARISING IN ANY WAY OUT OF THE USE
  73:Drivers/STM32F0xx_HAL_Driver/Src/stm32f0xx_hal_rcc.c ****   * OF THIS SOFTWARE, EVEN IF ADVISED OF THE POSSIBILITY OF SUCH DAMAGE.
  74:Drivers/STM32F0xx_HAL_Driver/Src/stm32f0xx_hal_rcc.c ****   *
  75:Drivers/STM32F0xx_HAL_Driver/Src/stm32f0xx_hal_rcc.c ****   ******************************************************************************  
  76:Drivers/STM32F0xx_HAL_Driver/Src/stm32f0xx_hal_rcc.c **** */
  77:Drivers/STM32F0xx_HAL_Driver/Src/stm32f0xx_hal_rcc.c **** 
  78:Drivers/STM32F0xx_HAL_Driver/Src/stm32f0xx_hal_rcc.c **** /* Includes ------------------------------------------------------------------*/
  79:Drivers/STM32F0xx_HAL_Driver/Src/stm32f0xx_hal_rcc.c **** #include "stm32f0xx_hal.h"
  80:Drivers/STM32F0xx_HAL_Driver/Src/stm32f0xx_hal_rcc.c **** 
  81:Drivers/STM32F0xx_HAL_Driver/Src/stm32f0xx_hal_rcc.c **** /** @addtogroup STM32F0xx_HAL_Driver
  82:Drivers/STM32F0xx_HAL_Driver/Src/stm32f0xx_hal_rcc.c ****   * @{
  83:Drivers/STM32F0xx_HAL_Driver/Src/stm32f0xx_hal_rcc.c ****   */
  84:Drivers/STM32F0xx_HAL_Driver/Src/stm32f0xx_hal_rcc.c **** 
  85:Drivers/STM32F0xx_HAL_Driver/Src/stm32f0xx_hal_rcc.c **** /** @defgroup RCC RCC
  86:Drivers/STM32F0xx_HAL_Driver/Src/stm32f0xx_hal_rcc.c **** * @brief RCC HAL module driver
  87:Drivers/STM32F0xx_HAL_Driver/Src/stm32f0xx_hal_rcc.c ****   * @{
  88:Drivers/STM32F0xx_HAL_Driver/Src/stm32f0xx_hal_rcc.c ****   */
  89:Drivers/STM32F0xx_HAL_Driver/Src/stm32f0xx_hal_rcc.c **** 
ARM GAS  /tmp/cc68hz7R.s 			page 3


  90:Drivers/STM32F0xx_HAL_Driver/Src/stm32f0xx_hal_rcc.c **** #ifdef HAL_RCC_MODULE_ENABLED
  91:Drivers/STM32F0xx_HAL_Driver/Src/stm32f0xx_hal_rcc.c **** 
  92:Drivers/STM32F0xx_HAL_Driver/Src/stm32f0xx_hal_rcc.c **** /* Private typedef -----------------------------------------------------------*/
  93:Drivers/STM32F0xx_HAL_Driver/Src/stm32f0xx_hal_rcc.c **** /* Private define ------------------------------------------------------------*/
  94:Drivers/STM32F0xx_HAL_Driver/Src/stm32f0xx_hal_rcc.c **** /** @defgroup RCC_Private_Constants RCC Private Constants
  95:Drivers/STM32F0xx_HAL_Driver/Src/stm32f0xx_hal_rcc.c ****  * @{
  96:Drivers/STM32F0xx_HAL_Driver/Src/stm32f0xx_hal_rcc.c ****  */
  97:Drivers/STM32F0xx_HAL_Driver/Src/stm32f0xx_hal_rcc.c **** /**
  98:Drivers/STM32F0xx_HAL_Driver/Src/stm32f0xx_hal_rcc.c ****   * @}
  99:Drivers/STM32F0xx_HAL_Driver/Src/stm32f0xx_hal_rcc.c ****   */
 100:Drivers/STM32F0xx_HAL_Driver/Src/stm32f0xx_hal_rcc.c **** /* Private macro -------------------------------------------------------------*/
 101:Drivers/STM32F0xx_HAL_Driver/Src/stm32f0xx_hal_rcc.c **** /** @defgroup RCC_Private_Macros RCC Private Macros
 102:Drivers/STM32F0xx_HAL_Driver/Src/stm32f0xx_hal_rcc.c ****   * @{
 103:Drivers/STM32F0xx_HAL_Driver/Src/stm32f0xx_hal_rcc.c ****   */
 104:Drivers/STM32F0xx_HAL_Driver/Src/stm32f0xx_hal_rcc.c **** 
 105:Drivers/STM32F0xx_HAL_Driver/Src/stm32f0xx_hal_rcc.c **** #define MCO1_CLK_ENABLE()     __HAL_RCC_GPIOA_CLK_ENABLE()
 106:Drivers/STM32F0xx_HAL_Driver/Src/stm32f0xx_hal_rcc.c **** #define MCO1_GPIO_PORT        GPIOA
 107:Drivers/STM32F0xx_HAL_Driver/Src/stm32f0xx_hal_rcc.c **** #define MCO1_PIN              GPIO_PIN_8
 108:Drivers/STM32F0xx_HAL_Driver/Src/stm32f0xx_hal_rcc.c **** 
 109:Drivers/STM32F0xx_HAL_Driver/Src/stm32f0xx_hal_rcc.c **** /**
 110:Drivers/STM32F0xx_HAL_Driver/Src/stm32f0xx_hal_rcc.c ****   * @}
 111:Drivers/STM32F0xx_HAL_Driver/Src/stm32f0xx_hal_rcc.c ****   */
 112:Drivers/STM32F0xx_HAL_Driver/Src/stm32f0xx_hal_rcc.c **** 
 113:Drivers/STM32F0xx_HAL_Driver/Src/stm32f0xx_hal_rcc.c **** /* Private variables ---------------------------------------------------------*/
 114:Drivers/STM32F0xx_HAL_Driver/Src/stm32f0xx_hal_rcc.c **** /** @defgroup RCC_Private_Variables RCC Private Variables
 115:Drivers/STM32F0xx_HAL_Driver/Src/stm32f0xx_hal_rcc.c ****   * @{
 116:Drivers/STM32F0xx_HAL_Driver/Src/stm32f0xx_hal_rcc.c ****   */
 117:Drivers/STM32F0xx_HAL_Driver/Src/stm32f0xx_hal_rcc.c **** /**
 118:Drivers/STM32F0xx_HAL_Driver/Src/stm32f0xx_hal_rcc.c ****   * @}
 119:Drivers/STM32F0xx_HAL_Driver/Src/stm32f0xx_hal_rcc.c ****   */
 120:Drivers/STM32F0xx_HAL_Driver/Src/stm32f0xx_hal_rcc.c **** 
 121:Drivers/STM32F0xx_HAL_Driver/Src/stm32f0xx_hal_rcc.c **** /* Private function prototypes -----------------------------------------------*/
 122:Drivers/STM32F0xx_HAL_Driver/Src/stm32f0xx_hal_rcc.c **** /* Exported functions ---------------------------------------------------------*/
 123:Drivers/STM32F0xx_HAL_Driver/Src/stm32f0xx_hal_rcc.c **** 
 124:Drivers/STM32F0xx_HAL_Driver/Src/stm32f0xx_hal_rcc.c **** /** @defgroup RCC_Exported_Functions RCC Exported Functions
 125:Drivers/STM32F0xx_HAL_Driver/Src/stm32f0xx_hal_rcc.c ****   * @{
 126:Drivers/STM32F0xx_HAL_Driver/Src/stm32f0xx_hal_rcc.c ****   */
 127:Drivers/STM32F0xx_HAL_Driver/Src/stm32f0xx_hal_rcc.c **** 
 128:Drivers/STM32F0xx_HAL_Driver/Src/stm32f0xx_hal_rcc.c **** /** @defgroup RCC_Exported_Functions_Group1 Initialization and de-initialization functions 
 129:Drivers/STM32F0xx_HAL_Driver/Src/stm32f0xx_hal_rcc.c ****   *  @brief    Initialization and Configuration functions 
 130:Drivers/STM32F0xx_HAL_Driver/Src/stm32f0xx_hal_rcc.c ****   *
 131:Drivers/STM32F0xx_HAL_Driver/Src/stm32f0xx_hal_rcc.c ****   @verbatim    
 132:Drivers/STM32F0xx_HAL_Driver/Src/stm32f0xx_hal_rcc.c ****   ===============================================================================
 133:Drivers/STM32F0xx_HAL_Driver/Src/stm32f0xx_hal_rcc.c ****            ##### Initialization and de-initialization functions #####
 134:Drivers/STM32F0xx_HAL_Driver/Src/stm32f0xx_hal_rcc.c ****   ===============================================================================
 135:Drivers/STM32F0xx_HAL_Driver/Src/stm32f0xx_hal_rcc.c ****     [..]
 136:Drivers/STM32F0xx_HAL_Driver/Src/stm32f0xx_hal_rcc.c ****       This section provides functions allowing to configure the internal/external oscillators
 137:Drivers/STM32F0xx_HAL_Driver/Src/stm32f0xx_hal_rcc.c ****       (HSE, HSI, HSI14, HSI48, LSE, LSI, PLL, CSS and MCO) and the System buses clocks (SYSCLK, 
 138:Drivers/STM32F0xx_HAL_Driver/Src/stm32f0xx_hal_rcc.c ****       AHB and APB1).
 139:Drivers/STM32F0xx_HAL_Driver/Src/stm32f0xx_hal_rcc.c **** 
 140:Drivers/STM32F0xx_HAL_Driver/Src/stm32f0xx_hal_rcc.c ****     [..] Internal/external clock and PLL configuration
 141:Drivers/STM32F0xx_HAL_Driver/Src/stm32f0xx_hal_rcc.c ****       (#) HSI (high-speed internal), 8 MHz factory-trimmed RC used directly or through
 142:Drivers/STM32F0xx_HAL_Driver/Src/stm32f0xx_hal_rcc.c ****           the PLL as System clock source.
 143:Drivers/STM32F0xx_HAL_Driver/Src/stm32f0xx_hal_rcc.c ****           The HSI clock can be used also to clock the USART and I2C peripherals.
 144:Drivers/STM32F0xx_HAL_Driver/Src/stm32f0xx_hal_rcc.c **** 
 145:Drivers/STM32F0xx_HAL_Driver/Src/stm32f0xx_hal_rcc.c ****       (#) HSI14 (high-speed internal), 14 MHz factory-trimmed RC used directly to clock 
 146:Drivers/STM32F0xx_HAL_Driver/Src/stm32f0xx_hal_rcc.c ****           the ADC peripheral.
ARM GAS  /tmp/cc68hz7R.s 			page 4


 147:Drivers/STM32F0xx_HAL_Driver/Src/stm32f0xx_hal_rcc.c **** 
 148:Drivers/STM32F0xx_HAL_Driver/Src/stm32f0xx_hal_rcc.c ****       (#) LSI (low-speed internal), ~40 KHz low consumption RC used as IWDG and/or RTC
 149:Drivers/STM32F0xx_HAL_Driver/Src/stm32f0xx_hal_rcc.c ****           clock source.
 150:Drivers/STM32F0xx_HAL_Driver/Src/stm32f0xx_hal_rcc.c **** 
 151:Drivers/STM32F0xx_HAL_Driver/Src/stm32f0xx_hal_rcc.c ****       (#) HSE (high-speed external), 4 to 32 MHz crystal oscillator used directly or
 152:Drivers/STM32F0xx_HAL_Driver/Src/stm32f0xx_hal_rcc.c ****           through the PLL as System clock source. Can be used also as RTC clock source.
 153:Drivers/STM32F0xx_HAL_Driver/Src/stm32f0xx_hal_rcc.c **** 
 154:Drivers/STM32F0xx_HAL_Driver/Src/stm32f0xx_hal_rcc.c ****       (#) LSE (low-speed external), 32 KHz oscillator used as RTC clock source.   
 155:Drivers/STM32F0xx_HAL_Driver/Src/stm32f0xx_hal_rcc.c **** 
 156:Drivers/STM32F0xx_HAL_Driver/Src/stm32f0xx_hal_rcc.c ****       (#) PLL (clocked by HSI, HSI48 or HSE), featuring different output clocks:
 157:Drivers/STM32F0xx_HAL_Driver/Src/stm32f0xx_hal_rcc.c ****        (++) The first output is used to generate the high speed system clock (up to 48 MHz)
 158:Drivers/STM32F0xx_HAL_Driver/Src/stm32f0xx_hal_rcc.c ****        (++) The second output is used to generate the clock for the USB FS (48 MHz)
 159:Drivers/STM32F0xx_HAL_Driver/Src/stm32f0xx_hal_rcc.c ****        (++) The third output may be used to generate the clock for the TIM, I2C and USART 
 160:Drivers/STM32F0xx_HAL_Driver/Src/stm32f0xx_hal_rcc.c ****             peripherals (up to 48 MHz)
 161:Drivers/STM32F0xx_HAL_Driver/Src/stm32f0xx_hal_rcc.c **** 
 162:Drivers/STM32F0xx_HAL_Driver/Src/stm32f0xx_hal_rcc.c ****       (#) CSS (Clock security system), once enable using the macro __HAL_RCC_CSS_ENABLE()
 163:Drivers/STM32F0xx_HAL_Driver/Src/stm32f0xx_hal_rcc.c ****           and if a HSE clock failure occurs(HSE used directly or through PLL as System 
 164:Drivers/STM32F0xx_HAL_Driver/Src/stm32f0xx_hal_rcc.c ****           clock source), the System clocks automatically switched to HSI and an interrupt
 165:Drivers/STM32F0xx_HAL_Driver/Src/stm32f0xx_hal_rcc.c ****           is generated if enabled. The interrupt is linked to the Cortex-M0 NMI 
 166:Drivers/STM32F0xx_HAL_Driver/Src/stm32f0xx_hal_rcc.c ****           (Non-Maskable Interrupt) exception vector.   
 167:Drivers/STM32F0xx_HAL_Driver/Src/stm32f0xx_hal_rcc.c **** 
 168:Drivers/STM32F0xx_HAL_Driver/Src/stm32f0xx_hal_rcc.c ****       (#) MCO (microcontroller clock output), used to output SYSCLK, HSI, HSE, LSI, LSE or PLL
 169:Drivers/STM32F0xx_HAL_Driver/Src/stm32f0xx_hal_rcc.c ****           clock (divided by 2) output on pin (such as PA8 pin).
 170:Drivers/STM32F0xx_HAL_Driver/Src/stm32f0xx_hal_rcc.c **** 
 171:Drivers/STM32F0xx_HAL_Driver/Src/stm32f0xx_hal_rcc.c ****     [..] System, AHB and APB buses clocks configuration
 172:Drivers/STM32F0xx_HAL_Driver/Src/stm32f0xx_hal_rcc.c ****       (#) Several clock sources can be used to drive the System clock (SYSCLK): HSI,
 173:Drivers/STM32F0xx_HAL_Driver/Src/stm32f0xx_hal_rcc.c ****           HSE and PLL.
 174:Drivers/STM32F0xx_HAL_Driver/Src/stm32f0xx_hal_rcc.c ****           The AHB clock (HCLK) is derived from System clock through configurable
 175:Drivers/STM32F0xx_HAL_Driver/Src/stm32f0xx_hal_rcc.c ****           prescaler and used to clock the CPU, memory and peripherals mapped
 176:Drivers/STM32F0xx_HAL_Driver/Src/stm32f0xx_hal_rcc.c ****           on AHB bus (DMA, GPIO...). APB1 (PCLK1) clock is derived
 177:Drivers/STM32F0xx_HAL_Driver/Src/stm32f0xx_hal_rcc.c ****           from AHB clock through configurable prescalers and used to clock
 178:Drivers/STM32F0xx_HAL_Driver/Src/stm32f0xx_hal_rcc.c ****           the peripherals mapped on these buses. You can use
 179:Drivers/STM32F0xx_HAL_Driver/Src/stm32f0xx_hal_rcc.c ****           "@ref HAL_RCC_GetSysClockFreq()" function to retrieve the frequencies of these clocks.
 180:Drivers/STM32F0xx_HAL_Driver/Src/stm32f0xx_hal_rcc.c **** 
 181:Drivers/STM32F0xx_HAL_Driver/Src/stm32f0xx_hal_rcc.c ****       (#) All the peripheral clocks are derived from the System clock (SYSCLK) except:
 182:Drivers/STM32F0xx_HAL_Driver/Src/stm32f0xx_hal_rcc.c ****         (++) The FLASH program/erase clock  which is always HSI 8MHz clock.
 183:Drivers/STM32F0xx_HAL_Driver/Src/stm32f0xx_hal_rcc.c ****         (++) The USB 48 MHz clock which is derived from the PLL VCO clock.
 184:Drivers/STM32F0xx_HAL_Driver/Src/stm32f0xx_hal_rcc.c ****         (++) The USART clock which can be derived as well from HSI 8MHz, LSI or LSE.
 185:Drivers/STM32F0xx_HAL_Driver/Src/stm32f0xx_hal_rcc.c ****         (++) The I2C clock which can be derived as well from HSI 8MHz clock.
 186:Drivers/STM32F0xx_HAL_Driver/Src/stm32f0xx_hal_rcc.c ****         (++) The ADC clock which is derived from PLL output.
 187:Drivers/STM32F0xx_HAL_Driver/Src/stm32f0xx_hal_rcc.c ****         (++) The RTC clock which is derived from the LSE, LSI or 1 MHz HSE_RTC
 188:Drivers/STM32F0xx_HAL_Driver/Src/stm32f0xx_hal_rcc.c ****              (HSE divided by a programmable prescaler). The System clock (SYSCLK)
 189:Drivers/STM32F0xx_HAL_Driver/Src/stm32f0xx_hal_rcc.c ****              frequency must be higher or equal to the RTC clock frequency.
 190:Drivers/STM32F0xx_HAL_Driver/Src/stm32f0xx_hal_rcc.c ****         (++) IWDG clock which is always the LSI clock.
 191:Drivers/STM32F0xx_HAL_Driver/Src/stm32f0xx_hal_rcc.c **** 
 192:Drivers/STM32F0xx_HAL_Driver/Src/stm32f0xx_hal_rcc.c ****       (#) For the STM32F0xx devices, the maximum frequency of the SYSCLK, HCLK and PCLK1 is 48 MHz,
 193:Drivers/STM32F0xx_HAL_Driver/Src/stm32f0xx_hal_rcc.c ****           Depending on the SYSCLK frequency, the flash latency should be adapted accordingly.
 194:Drivers/STM32F0xx_HAL_Driver/Src/stm32f0xx_hal_rcc.c **** 
 195:Drivers/STM32F0xx_HAL_Driver/Src/stm32f0xx_hal_rcc.c ****       (#) After reset, the System clock source is the HSI (8 MHz) with 0 WS and
 196:Drivers/STM32F0xx_HAL_Driver/Src/stm32f0xx_hal_rcc.c ****           prefetch is disabled.
 197:Drivers/STM32F0xx_HAL_Driver/Src/stm32f0xx_hal_rcc.c ****   @endverbatim
 198:Drivers/STM32F0xx_HAL_Driver/Src/stm32f0xx_hal_rcc.c ****   * @{
 199:Drivers/STM32F0xx_HAL_Driver/Src/stm32f0xx_hal_rcc.c ****   */
 200:Drivers/STM32F0xx_HAL_Driver/Src/stm32f0xx_hal_rcc.c ****   
 201:Drivers/STM32F0xx_HAL_Driver/Src/stm32f0xx_hal_rcc.c **** /*
 202:Drivers/STM32F0xx_HAL_Driver/Src/stm32f0xx_hal_rcc.c ****   Additional consideration on the SYSCLK based on Latency settings:
 203:Drivers/STM32F0xx_HAL_Driver/Src/stm32f0xx_hal_rcc.c ****           +-----------------------------------------------+
ARM GAS  /tmp/cc68hz7R.s 			page 5


 204:Drivers/STM32F0xx_HAL_Driver/Src/stm32f0xx_hal_rcc.c ****           | Latency       | SYSCLK clock frequency (MHz)  |
 205:Drivers/STM32F0xx_HAL_Driver/Src/stm32f0xx_hal_rcc.c ****           |---------------|-------------------------------|
 206:Drivers/STM32F0xx_HAL_Driver/Src/stm32f0xx_hal_rcc.c ****           |0WS(1CPU cycle)|       0 < SYSCLK <= 24        |
 207:Drivers/STM32F0xx_HAL_Driver/Src/stm32f0xx_hal_rcc.c ****           |---------------|-------------------------------|
 208:Drivers/STM32F0xx_HAL_Driver/Src/stm32f0xx_hal_rcc.c ****           |1WS(2CPU cycle)|      24 < SYSCLK <= 48        |
 209:Drivers/STM32F0xx_HAL_Driver/Src/stm32f0xx_hal_rcc.c ****           +-----------------------------------------------+
 210:Drivers/STM32F0xx_HAL_Driver/Src/stm32f0xx_hal_rcc.c ****   */
 211:Drivers/STM32F0xx_HAL_Driver/Src/stm32f0xx_hal_rcc.c **** 
 212:Drivers/STM32F0xx_HAL_Driver/Src/stm32f0xx_hal_rcc.c **** /**
 213:Drivers/STM32F0xx_HAL_Driver/Src/stm32f0xx_hal_rcc.c ****   * @brief  Resets the RCC clock configuration to the default reset state.
 214:Drivers/STM32F0xx_HAL_Driver/Src/stm32f0xx_hal_rcc.c ****   * @note   The default reset state of the clock configuration is given below:
 215:Drivers/STM32F0xx_HAL_Driver/Src/stm32f0xx_hal_rcc.c ****   *            - HSI ON and used as system clock source
 216:Drivers/STM32F0xx_HAL_Driver/Src/stm32f0xx_hal_rcc.c ****   *            - HSE and PLL OFF
 217:Drivers/STM32F0xx_HAL_Driver/Src/stm32f0xx_hal_rcc.c ****   *            - AHB, APB1 prescaler set to 1.
 218:Drivers/STM32F0xx_HAL_Driver/Src/stm32f0xx_hal_rcc.c ****   *            - CSS and MCO1 OFF
 219:Drivers/STM32F0xx_HAL_Driver/Src/stm32f0xx_hal_rcc.c ****   *            - All interrupts disabled
 220:Drivers/STM32F0xx_HAL_Driver/Src/stm32f0xx_hal_rcc.c ****   * @note   This function does not modify the configuration of the
 221:Drivers/STM32F0xx_HAL_Driver/Src/stm32f0xx_hal_rcc.c ****   *            - Peripheral clocks
 222:Drivers/STM32F0xx_HAL_Driver/Src/stm32f0xx_hal_rcc.c ****   *            - LSI, LSE and RTC clocks
 223:Drivers/STM32F0xx_HAL_Driver/Src/stm32f0xx_hal_rcc.c ****   * @retval None
 224:Drivers/STM32F0xx_HAL_Driver/Src/stm32f0xx_hal_rcc.c ****   */
 225:Drivers/STM32F0xx_HAL_Driver/Src/stm32f0xx_hal_rcc.c **** void HAL_RCC_DeInit(void)
 226:Drivers/STM32F0xx_HAL_Driver/Src/stm32f0xx_hal_rcc.c **** {
  27              		.loc 1 226 1 view -0
  28              		.cfi_startproc
  29              		@ args = 0, pretend = 0, frame = 0
  30              		@ frame_needed = 0, uses_anonymous_args = 0
  31              		@ link register save eliminated.
 227:Drivers/STM32F0xx_HAL_Driver/Src/stm32f0xx_hal_rcc.c ****   /* Set HSION bit, HSITRIM[4:0] bits to the reset value*/
 228:Drivers/STM32F0xx_HAL_Driver/Src/stm32f0xx_hal_rcc.c ****   SET_BIT(RCC->CR, RCC_CR_HSION | RCC_CR_HSITRIM_4); 
  32              		.loc 1 228 3 view .LVU1
  33 0000 0C4B     		ldr	r3, .L2
  34 0002 1A68     		ldr	r2, [r3]
  35 0004 8121     		movs	r1, #129
  36 0006 0A43     		orrs	r2, r1
  37 0008 1A60     		str	r2, [r3]
 229:Drivers/STM32F0xx_HAL_Driver/Src/stm32f0xx_hal_rcc.c **** 
 230:Drivers/STM32F0xx_HAL_Driver/Src/stm32f0xx_hal_rcc.c ****   /* Reset SW[1:0], HPRE[3:0], PPRE[2:0] and MCOSEL[2:0] bits */
 231:Drivers/STM32F0xx_HAL_Driver/Src/stm32f0xx_hal_rcc.c ****   CLEAR_BIT(RCC->CFGR, RCC_CFGR_SW | RCC_CFGR_HPRE | RCC_CFGR_PPRE | RCC_CFGR_MCO);
  38              		.loc 1 231 3 view .LVU2
  39 000a 5A68     		ldr	r2, [r3, #4]
  40 000c 0A49     		ldr	r1, .L2+4
  41 000e 0A40     		ands	r2, r1
  42 0010 5A60     		str	r2, [r3, #4]
 232:Drivers/STM32F0xx_HAL_Driver/Src/stm32f0xx_hal_rcc.c **** 
 233:Drivers/STM32F0xx_HAL_Driver/Src/stm32f0xx_hal_rcc.c ****   /* Reset HSEON, CSSON, PLLON bits */
 234:Drivers/STM32F0xx_HAL_Driver/Src/stm32f0xx_hal_rcc.c ****   CLEAR_BIT(RCC->CR, RCC_CR_PLLON | RCC_CR_CSSON | RCC_CR_HSEON);
  43              		.loc 1 234 3 view .LVU3
  44 0012 1A68     		ldr	r2, [r3]
  45 0014 0949     		ldr	r1, .L2+8
  46 0016 0A40     		ands	r2, r1
  47 0018 1A60     		str	r2, [r3]
 235:Drivers/STM32F0xx_HAL_Driver/Src/stm32f0xx_hal_rcc.c ****   
 236:Drivers/STM32F0xx_HAL_Driver/Src/stm32f0xx_hal_rcc.c ****   /* Reset HSEBYP bit */
 237:Drivers/STM32F0xx_HAL_Driver/Src/stm32f0xx_hal_rcc.c ****   CLEAR_BIT(RCC->CR, RCC_CR_HSEBYP);
  48              		.loc 1 237 3 view .LVU4
  49 001a 1A68     		ldr	r2, [r3]
ARM GAS  /tmp/cc68hz7R.s 			page 6


  50 001c 0849     		ldr	r1, .L2+12
  51 001e 0A40     		ands	r2, r1
  52 0020 1A60     		str	r2, [r3]
 238:Drivers/STM32F0xx_HAL_Driver/Src/stm32f0xx_hal_rcc.c **** 
 239:Drivers/STM32F0xx_HAL_Driver/Src/stm32f0xx_hal_rcc.c ****   /* Reset CFGR register */
 240:Drivers/STM32F0xx_HAL_Driver/Src/stm32f0xx_hal_rcc.c ****   CLEAR_REG(RCC->CFGR);
  53              		.loc 1 240 3 view .LVU5
  54 0022 0022     		movs	r2, #0
  55 0024 5A60     		str	r2, [r3, #4]
 241:Drivers/STM32F0xx_HAL_Driver/Src/stm32f0xx_hal_rcc.c ****   
 242:Drivers/STM32F0xx_HAL_Driver/Src/stm32f0xx_hal_rcc.c ****   /* Reset CFGR2 register */
 243:Drivers/STM32F0xx_HAL_Driver/Src/stm32f0xx_hal_rcc.c ****   CLEAR_REG(RCC->CFGR2);
  56              		.loc 1 243 3 view .LVU6
  57 0026 DA62     		str	r2, [r3, #44]
 244:Drivers/STM32F0xx_HAL_Driver/Src/stm32f0xx_hal_rcc.c ****   
 245:Drivers/STM32F0xx_HAL_Driver/Src/stm32f0xx_hal_rcc.c ****   /* Reset CFGR3 register */
 246:Drivers/STM32F0xx_HAL_Driver/Src/stm32f0xx_hal_rcc.c ****   CLEAR_REG(RCC->CFGR3);
  58              		.loc 1 246 3 view .LVU7
  59 0028 1A63     		str	r2, [r3, #48]
 247:Drivers/STM32F0xx_HAL_Driver/Src/stm32f0xx_hal_rcc.c ****   
 248:Drivers/STM32F0xx_HAL_Driver/Src/stm32f0xx_hal_rcc.c ****   /* Disable all interrupts */
 249:Drivers/STM32F0xx_HAL_Driver/Src/stm32f0xx_hal_rcc.c ****   CLEAR_REG(RCC->CIR);
  60              		.loc 1 249 3 view .LVU8
  61 002a 9A60     		str	r2, [r3, #8]
 250:Drivers/STM32F0xx_HAL_Driver/Src/stm32f0xx_hal_rcc.c **** 
 251:Drivers/STM32F0xx_HAL_Driver/Src/stm32f0xx_hal_rcc.c ****   /* Update the SystemCoreClock global variable */
 252:Drivers/STM32F0xx_HAL_Driver/Src/stm32f0xx_hal_rcc.c ****   SystemCoreClock = HSI_VALUE;
  62              		.loc 1 252 3 view .LVU9
  63              		.loc 1 252 19 is_stmt 0 view .LVU10
  64 002c 054B     		ldr	r3, .L2+16
  65 002e 064A     		ldr	r2, .L2+20
  66 0030 1A60     		str	r2, [r3]
 253:Drivers/STM32F0xx_HAL_Driver/Src/stm32f0xx_hal_rcc.c **** }
  67              		.loc 1 253 1 view .LVU11
  68              		@ sp needed
  69 0032 7047     		bx	lr
  70              	.L3:
  71              		.align	2
  72              	.L2:
  73 0034 00100240 		.word	1073876992
  74 0038 0CF8FFF0 		.word	-251660276
  75 003c FFFFF6FE 		.word	-17367041
  76 0040 FFFFFBFF 		.word	-262145
  77 0044 00000000 		.word	SystemCoreClock
  78 0048 00127A00 		.word	8000000
  79              		.cfi_endproc
  80              	.LFE37:
  82              		.section	.text.HAL_RCC_OscConfig,"ax",%progbits
  83              		.align	1
  84              		.global	HAL_RCC_OscConfig
  85              		.syntax unified
  86              		.code	16
  87              		.thumb_func
  88              		.fpu softvfp
  90              	HAL_RCC_OscConfig:
  91              	.LVL0:
  92              	.LFB38:
ARM GAS  /tmp/cc68hz7R.s 			page 7


 254:Drivers/STM32F0xx_HAL_Driver/Src/stm32f0xx_hal_rcc.c **** 
 255:Drivers/STM32F0xx_HAL_Driver/Src/stm32f0xx_hal_rcc.c **** /**
 256:Drivers/STM32F0xx_HAL_Driver/Src/stm32f0xx_hal_rcc.c ****   * @brief  Initializes the RCC Oscillators according to the specified parameters in the
 257:Drivers/STM32F0xx_HAL_Driver/Src/stm32f0xx_hal_rcc.c ****   *         RCC_OscInitTypeDef.
 258:Drivers/STM32F0xx_HAL_Driver/Src/stm32f0xx_hal_rcc.c ****   * @param  RCC_OscInitStruct pointer to an RCC_OscInitTypeDef structure that
 259:Drivers/STM32F0xx_HAL_Driver/Src/stm32f0xx_hal_rcc.c ****   *         contains the configuration information for the RCC Oscillators.
 260:Drivers/STM32F0xx_HAL_Driver/Src/stm32f0xx_hal_rcc.c ****   * @note   The PLL is not disabled when used as system clock.
 261:Drivers/STM32F0xx_HAL_Driver/Src/stm32f0xx_hal_rcc.c ****   * @note   Transitions LSE Bypass to LSE On and LSE On to LSE Bypass are not
 262:Drivers/STM32F0xx_HAL_Driver/Src/stm32f0xx_hal_rcc.c ****   *         supported by this macro. User should request a transition to LSE Off
 263:Drivers/STM32F0xx_HAL_Driver/Src/stm32f0xx_hal_rcc.c ****   *         first and then LSE On or LSE Bypass.
 264:Drivers/STM32F0xx_HAL_Driver/Src/stm32f0xx_hal_rcc.c ****   * @note   Transition HSE Bypass to HSE On and HSE On to HSE Bypass are not
 265:Drivers/STM32F0xx_HAL_Driver/Src/stm32f0xx_hal_rcc.c ****   *         supported by this macro. User should request a transition to HSE Off
 266:Drivers/STM32F0xx_HAL_Driver/Src/stm32f0xx_hal_rcc.c ****   *         first and then HSE On or HSE Bypass.
 267:Drivers/STM32F0xx_HAL_Driver/Src/stm32f0xx_hal_rcc.c ****   * @retval HAL status
 268:Drivers/STM32F0xx_HAL_Driver/Src/stm32f0xx_hal_rcc.c ****   */
 269:Drivers/STM32F0xx_HAL_Driver/Src/stm32f0xx_hal_rcc.c **** HAL_StatusTypeDef HAL_RCC_OscConfig(RCC_OscInitTypeDef  *RCC_OscInitStruct)
 270:Drivers/STM32F0xx_HAL_Driver/Src/stm32f0xx_hal_rcc.c **** {
  93              		.loc 1 270 1 is_stmt 1 view -0
  94              		.cfi_startproc
  95              		@ args = 0, pretend = 0, frame = 8
  96              		@ frame_needed = 0, uses_anonymous_args = 0
  97              		.loc 1 270 1 is_stmt 0 view .LVU13
  98 0000 70B5     		push	{r4, r5, r6, lr}
  99              	.LCFI0:
 100              		.cfi_def_cfa_offset 16
 101              		.cfi_offset 4, -16
 102              		.cfi_offset 5, -12
 103              		.cfi_offset 6, -8
 104              		.cfi_offset 14, -4
 105 0002 82B0     		sub	sp, sp, #8
 106              	.LCFI1:
 107              		.cfi_def_cfa_offset 24
 108 0004 0400     		movs	r4, r0
 271:Drivers/STM32F0xx_HAL_Driver/Src/stm32f0xx_hal_rcc.c ****    uint32_t tickstart = 0U;
 109              		.loc 1 271 4 is_stmt 1 view .LVU14
 110              	.LVL1:
 272:Drivers/STM32F0xx_HAL_Driver/Src/stm32f0xx_hal_rcc.c ****   
 273:Drivers/STM32F0xx_HAL_Driver/Src/stm32f0xx_hal_rcc.c ****   /* Check the parameters */
 274:Drivers/STM32F0xx_HAL_Driver/Src/stm32f0xx_hal_rcc.c ****   assert_param(RCC_OscInitStruct != NULL);
 111              		.loc 1 274 3 view .LVU15
 275:Drivers/STM32F0xx_HAL_Driver/Src/stm32f0xx_hal_rcc.c ****   assert_param(IS_RCC_OSCILLATORTYPE(RCC_OscInitStruct->OscillatorType));
 112              		.loc 1 275 3 view .LVU16
 276:Drivers/STM32F0xx_HAL_Driver/Src/stm32f0xx_hal_rcc.c **** 
 277:Drivers/STM32F0xx_HAL_Driver/Src/stm32f0xx_hal_rcc.c ****   /*------------------------------- HSE Configuration ------------------------*/ 
 278:Drivers/STM32F0xx_HAL_Driver/Src/stm32f0xx_hal_rcc.c ****   if(((RCC_OscInitStruct->OscillatorType) & RCC_OSCILLATORTYPE_HSE) == RCC_OSCILLATORTYPE_HSE)
 113              		.loc 1 278 3 view .LVU17
 114              		.loc 1 278 5 is_stmt 0 view .LVU18
 115 0006 0368     		ldr	r3, [r0]
 116 0008 DB07     		lsls	r3, r3, #31
 117 000a 2BD5     		bpl	.L5
 279:Drivers/STM32F0xx_HAL_Driver/Src/stm32f0xx_hal_rcc.c ****   {
 280:Drivers/STM32F0xx_HAL_Driver/Src/stm32f0xx_hal_rcc.c ****     /* Check the parameters */
 281:Drivers/STM32F0xx_HAL_Driver/Src/stm32f0xx_hal_rcc.c ****     assert_param(IS_RCC_HSE(RCC_OscInitStruct->HSEState));
 118              		.loc 1 281 5 is_stmt 1 view .LVU19
 282:Drivers/STM32F0xx_HAL_Driver/Src/stm32f0xx_hal_rcc.c **** 
 283:Drivers/STM32F0xx_HAL_Driver/Src/stm32f0xx_hal_rcc.c ****     /* When the HSE is used as system clock or clock source for PLL in these cases it is not allowe
 284:Drivers/STM32F0xx_HAL_Driver/Src/stm32f0xx_hal_rcc.c ****     if((__HAL_RCC_GET_SYSCLK_SOURCE() == RCC_SYSCLKSOURCE_STATUS_HSE) 
ARM GAS  /tmp/cc68hz7R.s 			page 8


 119              		.loc 1 284 5 view .LVU20
 120              		.loc 1 284 9 is_stmt 0 view .LVU21
 121 000c B34B     		ldr	r3, .L109
 122 000e 5A68     		ldr	r2, [r3, #4]
 123 0010 0C23     		movs	r3, #12
 124 0012 1340     		ands	r3, r2
 125              		.loc 1 284 7 view .LVU22
 126 0014 042B     		cmp	r3, #4
 127 0016 1DD0     		beq	.L6
 285:Drivers/STM32F0xx_HAL_Driver/Src/stm32f0xx_hal_rcc.c ****        || ((__HAL_RCC_GET_SYSCLK_SOURCE() == RCC_SYSCLKSOURCE_STATUS_PLLCLK) && (__HAL_RCC_GET_PLL_
 128              		.loc 1 285 13 view .LVU23
 129 0018 B04B     		ldr	r3, .L109
 130 001a 5A68     		ldr	r2, [r3, #4]
 131 001c 0C23     		movs	r3, #12
 132 001e 1340     		ands	r3, r2
 133              		.loc 1 285 8 view .LVU24
 134 0020 082B     		cmp	r3, #8
 135 0022 0ED0     		beq	.L92
 136              	.L7:
 286:Drivers/STM32F0xx_HAL_Driver/Src/stm32f0xx_hal_rcc.c ****     {
 287:Drivers/STM32F0xx_HAL_Driver/Src/stm32f0xx_hal_rcc.c ****       if((__HAL_RCC_GET_FLAG(RCC_FLAG_HSERDY) != RESET) && (RCC_OscInitStruct->HSEState == RCC_HSE_
 288:Drivers/STM32F0xx_HAL_Driver/Src/stm32f0xx_hal_rcc.c ****       {
 289:Drivers/STM32F0xx_HAL_Driver/Src/stm32f0xx_hal_rcc.c ****         return HAL_ERROR;
 290:Drivers/STM32F0xx_HAL_Driver/Src/stm32f0xx_hal_rcc.c ****       }
 291:Drivers/STM32F0xx_HAL_Driver/Src/stm32f0xx_hal_rcc.c ****     }
 292:Drivers/STM32F0xx_HAL_Driver/Src/stm32f0xx_hal_rcc.c ****     else
 293:Drivers/STM32F0xx_HAL_Driver/Src/stm32f0xx_hal_rcc.c ****     {
 294:Drivers/STM32F0xx_HAL_Driver/Src/stm32f0xx_hal_rcc.c ****       /* Set the new HSE configuration ---------------------------------------*/
 295:Drivers/STM32F0xx_HAL_Driver/Src/stm32f0xx_hal_rcc.c ****       __HAL_RCC_HSE_CONFIG(RCC_OscInitStruct->HSEState);
 137              		.loc 1 295 7 is_stmt 1 view .LVU25
 138              		.loc 1 295 7 view .LVU26
 139 0024 6368     		ldr	r3, [r4, #4]
 140 0026 012B     		cmp	r3, #1
 141 0028 41D0     		beq	.L93
 142              		.loc 1 295 7 discriminator 2 view .LVU27
 143 002a 002B     		cmp	r3, #0
 144 002c 56D1     		bne	.L11
 145              		.loc 1 295 7 discriminator 4 view .LVU28
 146 002e AB4B     		ldr	r3, .L109
 147 0030 1A68     		ldr	r2, [r3]
 148 0032 AB49     		ldr	r1, .L109+4
 149 0034 0A40     		ands	r2, r1
 150 0036 1A60     		str	r2, [r3]
 151              		.loc 1 295 7 discriminator 4 view .LVU29
 152 0038 1A68     		ldr	r2, [r3]
 153 003a AA49     		ldr	r1, .L109+8
 154 003c 0A40     		ands	r2, r1
 155 003e 1A60     		str	r2, [r3]
 156 0040 3BE0     		b	.L10
 157              	.L92:
 285:Drivers/STM32F0xx_HAL_Driver/Src/stm32f0xx_hal_rcc.c ****        || ((__HAL_RCC_GET_SYSCLK_SOURCE() == RCC_SYSCLKSOURCE_STATUS_PLLCLK) && (__HAL_RCC_GET_PLL_
 158              		.loc 1 285 82 is_stmt 0 discriminator 1 view .LVU30
 159 0042 A64B     		ldr	r3, .L109
 160 0044 5B68     		ldr	r3, [r3, #4]
 161 0046 C022     		movs	r2, #192
 162 0048 5202     		lsls	r2, r2, #9
 163 004a 1340     		ands	r3, r2
ARM GAS  /tmp/cc68hz7R.s 			page 9


 285:Drivers/STM32F0xx_HAL_Driver/Src/stm32f0xx_hal_rcc.c ****        || ((__HAL_RCC_GET_SYSCLK_SOURCE() == RCC_SYSCLKSOURCE_STATUS_PLLCLK) && (__HAL_RCC_GET_PLL_
 164              		.loc 1 285 78 discriminator 1 view .LVU31
 165 004c 8022     		movs	r2, #128
 166 004e 5202     		lsls	r2, r2, #9
 167 0050 9342     		cmp	r3, r2
 168 0052 E7D1     		bne	.L7
 169              	.L6:
 287:Drivers/STM32F0xx_HAL_Driver/Src/stm32f0xx_hal_rcc.c ****       {
 170              		.loc 1 287 7 is_stmt 1 view .LVU32
 287:Drivers/STM32F0xx_HAL_Driver/Src/stm32f0xx_hal_rcc.c ****       {
 171              		.loc 1 287 11 is_stmt 0 view .LVU33
 172 0054 A14B     		ldr	r3, .L109
 173 0056 1B68     		ldr	r3, [r3]
 287:Drivers/STM32F0xx_HAL_Driver/Src/stm32f0xx_hal_rcc.c ****       {
 174              		.loc 1 287 9 view .LVU34
 175 0058 9B03     		lsls	r3, r3, #14
 176 005a 03D5     		bpl	.L5
 287:Drivers/STM32F0xx_HAL_Driver/Src/stm32f0xx_hal_rcc.c ****       {
 177              		.loc 1 287 57 discriminator 1 view .LVU35
 178 005c 6368     		ldr	r3, [r4, #4]
 179 005e 002B     		cmp	r3, #0
 180 0060 00D1     		bne	.LCB141
 181 0062 36E2     		b	.L94	@long jump
 182              	.LCB141:
 183              	.LVL2:
 184              	.L5:
 296:Drivers/STM32F0xx_HAL_Driver/Src/stm32f0xx_hal_rcc.c ****       
 297:Drivers/STM32F0xx_HAL_Driver/Src/stm32f0xx_hal_rcc.c **** 
 298:Drivers/STM32F0xx_HAL_Driver/Src/stm32f0xx_hal_rcc.c ****        /* Check the HSE State */
 299:Drivers/STM32F0xx_HAL_Driver/Src/stm32f0xx_hal_rcc.c ****       if(RCC_OscInitStruct->HSEState != RCC_HSE_OFF)
 300:Drivers/STM32F0xx_HAL_Driver/Src/stm32f0xx_hal_rcc.c ****       {
 301:Drivers/STM32F0xx_HAL_Driver/Src/stm32f0xx_hal_rcc.c ****         /* Get Start Tick */
 302:Drivers/STM32F0xx_HAL_Driver/Src/stm32f0xx_hal_rcc.c ****         tickstart = HAL_GetTick();
 303:Drivers/STM32F0xx_HAL_Driver/Src/stm32f0xx_hal_rcc.c ****         
 304:Drivers/STM32F0xx_HAL_Driver/Src/stm32f0xx_hal_rcc.c ****         /* Wait till HSE is ready */
 305:Drivers/STM32F0xx_HAL_Driver/Src/stm32f0xx_hal_rcc.c ****         while(__HAL_RCC_GET_FLAG(RCC_FLAG_HSERDY) == RESET)
 306:Drivers/STM32F0xx_HAL_Driver/Src/stm32f0xx_hal_rcc.c ****         {
 307:Drivers/STM32F0xx_HAL_Driver/Src/stm32f0xx_hal_rcc.c ****           if((HAL_GetTick() - tickstart ) > HSE_TIMEOUT_VALUE)
 308:Drivers/STM32F0xx_HAL_Driver/Src/stm32f0xx_hal_rcc.c ****           {
 309:Drivers/STM32F0xx_HAL_Driver/Src/stm32f0xx_hal_rcc.c ****             return HAL_TIMEOUT;
 310:Drivers/STM32F0xx_HAL_Driver/Src/stm32f0xx_hal_rcc.c ****           }
 311:Drivers/STM32F0xx_HAL_Driver/Src/stm32f0xx_hal_rcc.c ****         }
 312:Drivers/STM32F0xx_HAL_Driver/Src/stm32f0xx_hal_rcc.c ****       }
 313:Drivers/STM32F0xx_HAL_Driver/Src/stm32f0xx_hal_rcc.c ****       else
 314:Drivers/STM32F0xx_HAL_Driver/Src/stm32f0xx_hal_rcc.c ****       {
 315:Drivers/STM32F0xx_HAL_Driver/Src/stm32f0xx_hal_rcc.c ****         /* Get Start Tick */
 316:Drivers/STM32F0xx_HAL_Driver/Src/stm32f0xx_hal_rcc.c ****         tickstart = HAL_GetTick();
 317:Drivers/STM32F0xx_HAL_Driver/Src/stm32f0xx_hal_rcc.c ****         
 318:Drivers/STM32F0xx_HAL_Driver/Src/stm32f0xx_hal_rcc.c ****         /* Wait till HSE is disabled */
 319:Drivers/STM32F0xx_HAL_Driver/Src/stm32f0xx_hal_rcc.c ****         while(__HAL_RCC_GET_FLAG(RCC_FLAG_HSERDY) != RESET)
 320:Drivers/STM32F0xx_HAL_Driver/Src/stm32f0xx_hal_rcc.c ****         {
 321:Drivers/STM32F0xx_HAL_Driver/Src/stm32f0xx_hal_rcc.c ****            if((HAL_GetTick() - tickstart ) > HSE_TIMEOUT_VALUE)
 322:Drivers/STM32F0xx_HAL_Driver/Src/stm32f0xx_hal_rcc.c ****           {
 323:Drivers/STM32F0xx_HAL_Driver/Src/stm32f0xx_hal_rcc.c ****             return HAL_TIMEOUT;
 324:Drivers/STM32F0xx_HAL_Driver/Src/stm32f0xx_hal_rcc.c ****           }
 325:Drivers/STM32F0xx_HAL_Driver/Src/stm32f0xx_hal_rcc.c ****         }
 326:Drivers/STM32F0xx_HAL_Driver/Src/stm32f0xx_hal_rcc.c ****       }
ARM GAS  /tmp/cc68hz7R.s 			page 10


 327:Drivers/STM32F0xx_HAL_Driver/Src/stm32f0xx_hal_rcc.c ****     }
 328:Drivers/STM32F0xx_HAL_Driver/Src/stm32f0xx_hal_rcc.c ****   }
 329:Drivers/STM32F0xx_HAL_Driver/Src/stm32f0xx_hal_rcc.c ****   /*----------------------------- HSI Configuration --------------------------*/ 
 330:Drivers/STM32F0xx_HAL_Driver/Src/stm32f0xx_hal_rcc.c ****   if(((RCC_OscInitStruct->OscillatorType) & RCC_OSCILLATORTYPE_HSI) == RCC_OSCILLATORTYPE_HSI)
 185              		.loc 1 330 3 is_stmt 1 view .LVU36
 186              		.loc 1 330 5 is_stmt 0 view .LVU37
 187 0064 2368     		ldr	r3, [r4]
 188 0066 9B07     		lsls	r3, r3, #30
 189 0068 77D5     		bpl	.L18
 331:Drivers/STM32F0xx_HAL_Driver/Src/stm32f0xx_hal_rcc.c ****   {
 332:Drivers/STM32F0xx_HAL_Driver/Src/stm32f0xx_hal_rcc.c ****     /* Check the parameters */
 333:Drivers/STM32F0xx_HAL_Driver/Src/stm32f0xx_hal_rcc.c ****     assert_param(IS_RCC_HSI(RCC_OscInitStruct->HSIState));
 190              		.loc 1 333 5 is_stmt 1 view .LVU38
 334:Drivers/STM32F0xx_HAL_Driver/Src/stm32f0xx_hal_rcc.c ****     assert_param(IS_RCC_CALIBRATION_VALUE(RCC_OscInitStruct->HSICalibrationValue));
 191              		.loc 1 334 5 view .LVU39
 335:Drivers/STM32F0xx_HAL_Driver/Src/stm32f0xx_hal_rcc.c ****     
 336:Drivers/STM32F0xx_HAL_Driver/Src/stm32f0xx_hal_rcc.c ****     /* Check if HSI is used as system clock or as PLL source when PLL is selected as system clock *
 337:Drivers/STM32F0xx_HAL_Driver/Src/stm32f0xx_hal_rcc.c ****     if((__HAL_RCC_GET_SYSCLK_SOURCE() == RCC_SYSCLKSOURCE_STATUS_HSI) 
 192              		.loc 1 337 5 view .LVU40
 193              		.loc 1 337 9 is_stmt 0 view .LVU41
 194 006a 9C4B     		ldr	r3, .L109
 195 006c 5B68     		ldr	r3, [r3, #4]
 196 006e 0C22     		movs	r2, #12
 197              		.loc 1 337 7 view .LVU42
 198 0070 1A42     		tst	r2, r3
 199 0072 62D0     		beq	.L19
 338:Drivers/STM32F0xx_HAL_Driver/Src/stm32f0xx_hal_rcc.c ****        || ((__HAL_RCC_GET_SYSCLK_SOURCE() == RCC_SYSCLKSOURCE_STATUS_PLLCLK) && (__HAL_RCC_GET_PLL_
 200              		.loc 1 338 13 view .LVU43
 201 0074 994B     		ldr	r3, .L109
 202 0076 5A68     		ldr	r2, [r3, #4]
 203 0078 0C23     		movs	r3, #12
 204 007a 1340     		ands	r3, r2
 205              		.loc 1 338 8 view .LVU44
 206 007c 082B     		cmp	r3, #8
 207 007e 53D0     		beq	.L95
 208              	.L20:
 339:Drivers/STM32F0xx_HAL_Driver/Src/stm32f0xx_hal_rcc.c ****     {
 340:Drivers/STM32F0xx_HAL_Driver/Src/stm32f0xx_hal_rcc.c ****       /* When HSI is used as system clock it will not disabled */
 341:Drivers/STM32F0xx_HAL_Driver/Src/stm32f0xx_hal_rcc.c ****       if((__HAL_RCC_GET_FLAG(RCC_FLAG_HSIRDY) != RESET) && (RCC_OscInitStruct->HSIState != RCC_HSI_
 342:Drivers/STM32F0xx_HAL_Driver/Src/stm32f0xx_hal_rcc.c ****       {
 343:Drivers/STM32F0xx_HAL_Driver/Src/stm32f0xx_hal_rcc.c ****         return HAL_ERROR;
 344:Drivers/STM32F0xx_HAL_Driver/Src/stm32f0xx_hal_rcc.c ****       }
 345:Drivers/STM32F0xx_HAL_Driver/Src/stm32f0xx_hal_rcc.c ****       /* Otherwise, just the calibration is allowed */
 346:Drivers/STM32F0xx_HAL_Driver/Src/stm32f0xx_hal_rcc.c ****       else
 347:Drivers/STM32F0xx_HAL_Driver/Src/stm32f0xx_hal_rcc.c ****       {
 348:Drivers/STM32F0xx_HAL_Driver/Src/stm32f0xx_hal_rcc.c ****         /* Adjusts the Internal High Speed oscillator (HSI) calibration value.*/
 349:Drivers/STM32F0xx_HAL_Driver/Src/stm32f0xx_hal_rcc.c ****         __HAL_RCC_HSI_CALIBRATIONVALUE_ADJUST(RCC_OscInitStruct->HSICalibrationValue);
 350:Drivers/STM32F0xx_HAL_Driver/Src/stm32f0xx_hal_rcc.c ****       }
 351:Drivers/STM32F0xx_HAL_Driver/Src/stm32f0xx_hal_rcc.c ****     }
 352:Drivers/STM32F0xx_HAL_Driver/Src/stm32f0xx_hal_rcc.c ****     else
 353:Drivers/STM32F0xx_HAL_Driver/Src/stm32f0xx_hal_rcc.c ****     {
 354:Drivers/STM32F0xx_HAL_Driver/Src/stm32f0xx_hal_rcc.c ****       /* Check the HSI State */
 355:Drivers/STM32F0xx_HAL_Driver/Src/stm32f0xx_hal_rcc.c ****       if(RCC_OscInitStruct->HSIState != RCC_HSI_OFF)
 209              		.loc 1 355 7 is_stmt 1 view .LVU45
 210              		.loc 1 355 9 is_stmt 0 view .LVU46
 211 0080 E368     		ldr	r3, [r4, #12]
 212 0082 002B     		cmp	r3, #0
ARM GAS  /tmp/cc68hz7R.s 			page 11


 213 0084 00D1     		bne	.LCB172
 214 0086 8AE0     		b	.L22	@long jump
 215              	.LCB172:
 356:Drivers/STM32F0xx_HAL_Driver/Src/stm32f0xx_hal_rcc.c ****       {
 357:Drivers/STM32F0xx_HAL_Driver/Src/stm32f0xx_hal_rcc.c ****        /* Enable the Internal High Speed oscillator (HSI). */
 358:Drivers/STM32F0xx_HAL_Driver/Src/stm32f0xx_hal_rcc.c ****         __HAL_RCC_HSI_ENABLE();
 216              		.loc 1 358 9 is_stmt 1 view .LVU47
 217 0088 944A     		ldr	r2, .L109
 218 008a 1368     		ldr	r3, [r2]
 219 008c 0121     		movs	r1, #1
 220 008e 0B43     		orrs	r3, r1
 221 0090 1360     		str	r3, [r2]
 359:Drivers/STM32F0xx_HAL_Driver/Src/stm32f0xx_hal_rcc.c ****         
 360:Drivers/STM32F0xx_HAL_Driver/Src/stm32f0xx_hal_rcc.c ****         /* Get Start Tick */
 361:Drivers/STM32F0xx_HAL_Driver/Src/stm32f0xx_hal_rcc.c ****         tickstart = HAL_GetTick();
 222              		.loc 1 361 9 view .LVU48
 223              		.loc 1 361 21 is_stmt 0 view .LVU49
 224 0092 FFF7FEFF 		bl	HAL_GetTick
 225              	.LVL3:
 226 0096 0500     		movs	r5, r0
 227              	.LVL4:
 362:Drivers/STM32F0xx_HAL_Driver/Src/stm32f0xx_hal_rcc.c ****         
 363:Drivers/STM32F0xx_HAL_Driver/Src/stm32f0xx_hal_rcc.c ****         /* Wait till HSI is ready */
 364:Drivers/STM32F0xx_HAL_Driver/Src/stm32f0xx_hal_rcc.c ****         while(__HAL_RCC_GET_FLAG(RCC_FLAG_HSIRDY) == RESET)
 228              		.loc 1 364 9 is_stmt 1 view .LVU50
 229              	.L23:
 230              		.loc 1 364 14 view .LVU51
 231              		.loc 1 364 15 is_stmt 0 view .LVU52
 232 0098 904B     		ldr	r3, .L109
 233 009a 1B68     		ldr	r3, [r3]
 234              		.loc 1 364 14 view .LVU53
 235 009c 9B07     		lsls	r3, r3, #30
 236 009e 75D4     		bmi	.L96
 365:Drivers/STM32F0xx_HAL_Driver/Src/stm32f0xx_hal_rcc.c ****         {
 366:Drivers/STM32F0xx_HAL_Driver/Src/stm32f0xx_hal_rcc.c ****           if((HAL_GetTick() - tickstart ) > HSI_TIMEOUT_VALUE)
 237              		.loc 1 366 11 is_stmt 1 view .LVU54
 238              		.loc 1 366 15 is_stmt 0 view .LVU55
 239 00a0 FFF7FEFF 		bl	HAL_GetTick
 240              	.LVL5:
 241              		.loc 1 366 29 view .LVU56
 242 00a4 401B     		subs	r0, r0, r5
 243              		.loc 1 366 13 view .LVU57
 244 00a6 0228     		cmp	r0, #2
 245 00a8 F6D9     		bls	.L23
 367:Drivers/STM32F0xx_HAL_Driver/Src/stm32f0xx_hal_rcc.c ****           {
 368:Drivers/STM32F0xx_HAL_Driver/Src/stm32f0xx_hal_rcc.c ****             return HAL_TIMEOUT;
 246              		.loc 1 368 20 view .LVU58
 247 00aa 0320     		movs	r0, #3
 248 00ac 18E2     		b	.L8
 249              	.LVL6:
 250              	.L93:
 295:Drivers/STM32F0xx_HAL_Driver/Src/stm32f0xx_hal_rcc.c ****       
 251              		.loc 1 295 7 is_stmt 1 discriminator 1 view .LVU59
 252 00ae 8B4A     		ldr	r2, .L109
 253 00b0 1168     		ldr	r1, [r2]
 254 00b2 8023     		movs	r3, #128
 255 00b4 5B02     		lsls	r3, r3, #9
ARM GAS  /tmp/cc68hz7R.s 			page 12


 256 00b6 0B43     		orrs	r3, r1
 257 00b8 1360     		str	r3, [r2]
 258              	.L10:
 295:Drivers/STM32F0xx_HAL_Driver/Src/stm32f0xx_hal_rcc.c ****       
 259              		.loc 1 295 7 discriminator 10 view .LVU60
 299:Drivers/STM32F0xx_HAL_Driver/Src/stm32f0xx_hal_rcc.c ****       {
 260              		.loc 1 299 7 discriminator 10 view .LVU61
 299:Drivers/STM32F0xx_HAL_Driver/Src/stm32f0xx_hal_rcc.c ****       {
 261              		.loc 1 299 9 is_stmt 0 discriminator 10 view .LVU62
 262 00ba 6368     		ldr	r3, [r4, #4]
 263 00bc 002B     		cmp	r3, #0
 264 00be 25D0     		beq	.L13
 302:Drivers/STM32F0xx_HAL_Driver/Src/stm32f0xx_hal_rcc.c ****         
 265              		.loc 1 302 9 is_stmt 1 view .LVU63
 302:Drivers/STM32F0xx_HAL_Driver/Src/stm32f0xx_hal_rcc.c ****         
 266              		.loc 1 302 21 is_stmt 0 view .LVU64
 267 00c0 FFF7FEFF 		bl	HAL_GetTick
 268              	.LVL7:
 302:Drivers/STM32F0xx_HAL_Driver/Src/stm32f0xx_hal_rcc.c ****         
 269              		.loc 1 302 21 view .LVU65
 270 00c4 0500     		movs	r5, r0
 271              	.LVL8:
 305:Drivers/STM32F0xx_HAL_Driver/Src/stm32f0xx_hal_rcc.c ****         {
 272              		.loc 1 305 9 is_stmt 1 view .LVU66
 273              	.L14:
 305:Drivers/STM32F0xx_HAL_Driver/Src/stm32f0xx_hal_rcc.c ****         {
 274              		.loc 1 305 14 view .LVU67
 305:Drivers/STM32F0xx_HAL_Driver/Src/stm32f0xx_hal_rcc.c ****         {
 275              		.loc 1 305 15 is_stmt 0 view .LVU68
 276 00c6 854B     		ldr	r3, .L109
 277 00c8 1B68     		ldr	r3, [r3]
 305:Drivers/STM32F0xx_HAL_Driver/Src/stm32f0xx_hal_rcc.c ****         {
 278              		.loc 1 305 14 view .LVU69
 279 00ca 9B03     		lsls	r3, r3, #14
 280 00cc CAD4     		bmi	.L5
 307:Drivers/STM32F0xx_HAL_Driver/Src/stm32f0xx_hal_rcc.c ****           {
 281              		.loc 1 307 11 is_stmt 1 view .LVU70
 307:Drivers/STM32F0xx_HAL_Driver/Src/stm32f0xx_hal_rcc.c ****           {
 282              		.loc 1 307 15 is_stmt 0 view .LVU71
 283 00ce FFF7FEFF 		bl	HAL_GetTick
 284              	.LVL9:
 307:Drivers/STM32F0xx_HAL_Driver/Src/stm32f0xx_hal_rcc.c ****           {
 285              		.loc 1 307 29 view .LVU72
 286 00d2 401B     		subs	r0, r0, r5
 307:Drivers/STM32F0xx_HAL_Driver/Src/stm32f0xx_hal_rcc.c ****           {
 287              		.loc 1 307 13 view .LVU73
 288 00d4 6428     		cmp	r0, #100
 289 00d6 F6D9     		bls	.L14
 309:Drivers/STM32F0xx_HAL_Driver/Src/stm32f0xx_hal_rcc.c ****           }
 290              		.loc 1 309 20 view .LVU74
 291 00d8 0320     		movs	r0, #3
 292 00da 01E2     		b	.L8
 293              	.LVL10:
 294              	.L11:
 295:Drivers/STM32F0xx_HAL_Driver/Src/stm32f0xx_hal_rcc.c ****       
 295              		.loc 1 295 7 is_stmt 1 discriminator 5 view .LVU75
 296 00dc 052B     		cmp	r3, #5
ARM GAS  /tmp/cc68hz7R.s 			page 13


 297 00de 09D0     		beq	.L97
 295:Drivers/STM32F0xx_HAL_Driver/Src/stm32f0xx_hal_rcc.c ****       
 298              		.loc 1 295 7 discriminator 8 view .LVU76
 299 00e0 7E4B     		ldr	r3, .L109
 300 00e2 1A68     		ldr	r2, [r3]
 301 00e4 7E49     		ldr	r1, .L109+4
 302 00e6 0A40     		ands	r2, r1
 303 00e8 1A60     		str	r2, [r3]
 295:Drivers/STM32F0xx_HAL_Driver/Src/stm32f0xx_hal_rcc.c ****       
 304              		.loc 1 295 7 discriminator 8 view .LVU77
 305 00ea 1A68     		ldr	r2, [r3]
 306 00ec 7D49     		ldr	r1, .L109+8
 307 00ee 0A40     		ands	r2, r1
 308 00f0 1A60     		str	r2, [r3]
 309 00f2 E2E7     		b	.L10
 310              	.L97:
 295:Drivers/STM32F0xx_HAL_Driver/Src/stm32f0xx_hal_rcc.c ****       
 311              		.loc 1 295 7 discriminator 7 view .LVU78
 312 00f4 794B     		ldr	r3, .L109
 313 00f6 1968     		ldr	r1, [r3]
 314 00f8 8022     		movs	r2, #128
 315 00fa D202     		lsls	r2, r2, #11
 316 00fc 0A43     		orrs	r2, r1
 317 00fe 1A60     		str	r2, [r3]
 295:Drivers/STM32F0xx_HAL_Driver/Src/stm32f0xx_hal_rcc.c ****       
 318              		.loc 1 295 7 discriminator 7 view .LVU79
 319 0100 1968     		ldr	r1, [r3]
 320 0102 8022     		movs	r2, #128
 321 0104 5202     		lsls	r2, r2, #9
 322 0106 0A43     		orrs	r2, r1
 323 0108 1A60     		str	r2, [r3]
 324 010a D6E7     		b	.L10
 325              	.L13:
 316:Drivers/STM32F0xx_HAL_Driver/Src/stm32f0xx_hal_rcc.c ****         
 326              		.loc 1 316 9 view .LVU80
 316:Drivers/STM32F0xx_HAL_Driver/Src/stm32f0xx_hal_rcc.c ****         
 327              		.loc 1 316 21 is_stmt 0 view .LVU81
 328 010c FFF7FEFF 		bl	HAL_GetTick
 329              	.LVL11:
 316:Drivers/STM32F0xx_HAL_Driver/Src/stm32f0xx_hal_rcc.c ****         
 330              		.loc 1 316 21 view .LVU82
 331 0110 0500     		movs	r5, r0
 332              	.LVL12:
 319:Drivers/STM32F0xx_HAL_Driver/Src/stm32f0xx_hal_rcc.c ****         {
 333              		.loc 1 319 9 is_stmt 1 view .LVU83
 334              	.L16:
 319:Drivers/STM32F0xx_HAL_Driver/Src/stm32f0xx_hal_rcc.c ****         {
 335              		.loc 1 319 14 view .LVU84
 319:Drivers/STM32F0xx_HAL_Driver/Src/stm32f0xx_hal_rcc.c ****         {
 336              		.loc 1 319 15 is_stmt 0 view .LVU85
 337 0112 724B     		ldr	r3, .L109
 338 0114 1B68     		ldr	r3, [r3]
 319:Drivers/STM32F0xx_HAL_Driver/Src/stm32f0xx_hal_rcc.c ****         {
 339              		.loc 1 319 14 view .LVU86
 340 0116 9B03     		lsls	r3, r3, #14
 341 0118 A4D5     		bpl	.L5
 321:Drivers/STM32F0xx_HAL_Driver/Src/stm32f0xx_hal_rcc.c ****           {
ARM GAS  /tmp/cc68hz7R.s 			page 14


 342              		.loc 1 321 12 is_stmt 1 view .LVU87
 321:Drivers/STM32F0xx_HAL_Driver/Src/stm32f0xx_hal_rcc.c ****           {
 343              		.loc 1 321 16 is_stmt 0 view .LVU88
 344 011a FFF7FEFF 		bl	HAL_GetTick
 345              	.LVL13:
 321:Drivers/STM32F0xx_HAL_Driver/Src/stm32f0xx_hal_rcc.c ****           {
 346              		.loc 1 321 30 view .LVU89
 347 011e 401B     		subs	r0, r0, r5
 321:Drivers/STM32F0xx_HAL_Driver/Src/stm32f0xx_hal_rcc.c ****           {
 348              		.loc 1 321 14 view .LVU90
 349 0120 6428     		cmp	r0, #100
 350 0122 F6D9     		bls	.L16
 323:Drivers/STM32F0xx_HAL_Driver/Src/stm32f0xx_hal_rcc.c ****           }
 351              		.loc 1 323 20 view .LVU91
 352 0124 0320     		movs	r0, #3
 353 0126 DBE1     		b	.L8
 354              	.LVL14:
 355              	.L95:
 338:Drivers/STM32F0xx_HAL_Driver/Src/stm32f0xx_hal_rcc.c ****     {
 356              		.loc 1 338 82 discriminator 1 view .LVU92
 357 0128 6C4B     		ldr	r3, .L109
 358 012a 5B68     		ldr	r3, [r3, #4]
 359 012c C022     		movs	r2, #192
 360 012e 5202     		lsls	r2, r2, #9
 361 0130 1340     		ands	r3, r2
 338:Drivers/STM32F0xx_HAL_Driver/Src/stm32f0xx_hal_rcc.c ****     {
 362              		.loc 1 338 78 discriminator 1 view .LVU93
 363 0132 8022     		movs	r2, #128
 364 0134 1202     		lsls	r2, r2, #8
 365 0136 9342     		cmp	r3, r2
 366 0138 A2D1     		bne	.L20
 367              	.L19:
 341:Drivers/STM32F0xx_HAL_Driver/Src/stm32f0xx_hal_rcc.c ****       {
 368              		.loc 1 341 7 is_stmt 1 view .LVU94
 341:Drivers/STM32F0xx_HAL_Driver/Src/stm32f0xx_hal_rcc.c ****       {
 369              		.loc 1 341 11 is_stmt 0 view .LVU95
 370 013a 684B     		ldr	r3, .L109
 371 013c 1B68     		ldr	r3, [r3]
 341:Drivers/STM32F0xx_HAL_Driver/Src/stm32f0xx_hal_rcc.c ****       {
 372              		.loc 1 341 9 view .LVU96
 373 013e 9B07     		lsls	r3, r3, #30
 374 0140 03D5     		bpl	.L21
 341:Drivers/STM32F0xx_HAL_Driver/Src/stm32f0xx_hal_rcc.c ****       {
 375              		.loc 1 341 57 discriminator 1 view .LVU97
 376 0142 E368     		ldr	r3, [r4, #12]
 377 0144 012B     		cmp	r3, #1
 378 0146 00D0     		beq	.LCB336
 379 0148 C5E1     		b	.L73	@long jump
 380              	.LCB336:
 381              	.L21:
 349:Drivers/STM32F0xx_HAL_Driver/Src/stm32f0xx_hal_rcc.c ****       }
 382              		.loc 1 349 9 is_stmt 1 view .LVU98
 383 014a 6449     		ldr	r1, .L109
 384 014c 0B68     		ldr	r3, [r1]
 385 014e F822     		movs	r2, #248
 386 0150 9343     		bics	r3, r2
 387 0152 2269     		ldr	r2, [r4, #16]
ARM GAS  /tmp/cc68hz7R.s 			page 15


 388 0154 D200     		lsls	r2, r2, #3
 389 0156 1343     		orrs	r3, r2
 390 0158 0B60     		str	r3, [r1]
 391              	.L18:
 369:Drivers/STM32F0xx_HAL_Driver/Src/stm32f0xx_hal_rcc.c ****           }
 370:Drivers/STM32F0xx_HAL_Driver/Src/stm32f0xx_hal_rcc.c ****         }
 371:Drivers/STM32F0xx_HAL_Driver/Src/stm32f0xx_hal_rcc.c ****                 
 372:Drivers/STM32F0xx_HAL_Driver/Src/stm32f0xx_hal_rcc.c ****         /* Adjusts the Internal High Speed oscillator (HSI) calibration value.*/
 373:Drivers/STM32F0xx_HAL_Driver/Src/stm32f0xx_hal_rcc.c ****         __HAL_RCC_HSI_CALIBRATIONVALUE_ADJUST(RCC_OscInitStruct->HSICalibrationValue);
 374:Drivers/STM32F0xx_HAL_Driver/Src/stm32f0xx_hal_rcc.c ****       }
 375:Drivers/STM32F0xx_HAL_Driver/Src/stm32f0xx_hal_rcc.c ****       else
 376:Drivers/STM32F0xx_HAL_Driver/Src/stm32f0xx_hal_rcc.c ****       {
 377:Drivers/STM32F0xx_HAL_Driver/Src/stm32f0xx_hal_rcc.c ****         /* Disable the Internal High Speed oscillator (HSI). */
 378:Drivers/STM32F0xx_HAL_Driver/Src/stm32f0xx_hal_rcc.c ****         __HAL_RCC_HSI_DISABLE();
 379:Drivers/STM32F0xx_HAL_Driver/Src/stm32f0xx_hal_rcc.c ****         
 380:Drivers/STM32F0xx_HAL_Driver/Src/stm32f0xx_hal_rcc.c ****         /* Get Start Tick */
 381:Drivers/STM32F0xx_HAL_Driver/Src/stm32f0xx_hal_rcc.c ****         tickstart = HAL_GetTick();
 382:Drivers/STM32F0xx_HAL_Driver/Src/stm32f0xx_hal_rcc.c ****         
 383:Drivers/STM32F0xx_HAL_Driver/Src/stm32f0xx_hal_rcc.c ****         /* Wait till HSI is disabled */
 384:Drivers/STM32F0xx_HAL_Driver/Src/stm32f0xx_hal_rcc.c ****         while(__HAL_RCC_GET_FLAG(RCC_FLAG_HSIRDY) != RESET)
 385:Drivers/STM32F0xx_HAL_Driver/Src/stm32f0xx_hal_rcc.c ****         {
 386:Drivers/STM32F0xx_HAL_Driver/Src/stm32f0xx_hal_rcc.c ****           if((HAL_GetTick() - tickstart ) > HSI_TIMEOUT_VALUE)
 387:Drivers/STM32F0xx_HAL_Driver/Src/stm32f0xx_hal_rcc.c ****           {
 388:Drivers/STM32F0xx_HAL_Driver/Src/stm32f0xx_hal_rcc.c ****             return HAL_TIMEOUT;
 389:Drivers/STM32F0xx_HAL_Driver/Src/stm32f0xx_hal_rcc.c ****           }
 390:Drivers/STM32F0xx_HAL_Driver/Src/stm32f0xx_hal_rcc.c ****         }
 391:Drivers/STM32F0xx_HAL_Driver/Src/stm32f0xx_hal_rcc.c ****       }
 392:Drivers/STM32F0xx_HAL_Driver/Src/stm32f0xx_hal_rcc.c ****     }
 393:Drivers/STM32F0xx_HAL_Driver/Src/stm32f0xx_hal_rcc.c ****   }
 394:Drivers/STM32F0xx_HAL_Driver/Src/stm32f0xx_hal_rcc.c ****   /*------------------------------ LSI Configuration -------------------------*/ 
 395:Drivers/STM32F0xx_HAL_Driver/Src/stm32f0xx_hal_rcc.c ****   if(((RCC_OscInitStruct->OscillatorType) & RCC_OSCILLATORTYPE_LSI) == RCC_OSCILLATORTYPE_LSI)
 392              		.loc 1 395 3 view .LVU99
 393              		.loc 1 395 5 is_stmt 0 view .LVU100
 394 015a 2368     		ldr	r3, [r4]
 395 015c 1B07     		lsls	r3, r3, #28
 396 015e 44D5     		bpl	.L27
 396:Drivers/STM32F0xx_HAL_Driver/Src/stm32f0xx_hal_rcc.c ****   {
 397:Drivers/STM32F0xx_HAL_Driver/Src/stm32f0xx_hal_rcc.c ****     /* Check the parameters */
 398:Drivers/STM32F0xx_HAL_Driver/Src/stm32f0xx_hal_rcc.c ****     assert_param(IS_RCC_LSI(RCC_OscInitStruct->LSIState));
 397              		.loc 1 398 5 is_stmt 1 view .LVU101
 399:Drivers/STM32F0xx_HAL_Driver/Src/stm32f0xx_hal_rcc.c ****     
 400:Drivers/STM32F0xx_HAL_Driver/Src/stm32f0xx_hal_rcc.c ****     /* Check the LSI State */
 401:Drivers/STM32F0xx_HAL_Driver/Src/stm32f0xx_hal_rcc.c ****     if(RCC_OscInitStruct->LSIState != RCC_LSI_OFF)
 398              		.loc 1 401 5 view .LVU102
 399              		.loc 1 401 7 is_stmt 0 view .LVU103
 400 0160 E369     		ldr	r3, [r4, #28]
 401 0162 002B     		cmp	r3, #0
 402 0164 2ED0     		beq	.L28
 402:Drivers/STM32F0xx_HAL_Driver/Src/stm32f0xx_hal_rcc.c ****     {
 403:Drivers/STM32F0xx_HAL_Driver/Src/stm32f0xx_hal_rcc.c ****       /* Enable the Internal Low Speed oscillator (LSI). */
 404:Drivers/STM32F0xx_HAL_Driver/Src/stm32f0xx_hal_rcc.c ****       __HAL_RCC_LSI_ENABLE();
 403              		.loc 1 404 7 is_stmt 1 view .LVU104
 404 0166 5D4A     		ldr	r2, .L109
 405 0168 536A     		ldr	r3, [r2, #36]
 406 016a 0121     		movs	r1, #1
 407 016c 0B43     		orrs	r3, r1
 408 016e 5362     		str	r3, [r2, #36]
ARM GAS  /tmp/cc68hz7R.s 			page 16


 405:Drivers/STM32F0xx_HAL_Driver/Src/stm32f0xx_hal_rcc.c ****       
 406:Drivers/STM32F0xx_HAL_Driver/Src/stm32f0xx_hal_rcc.c ****       /* Get Start Tick */
 407:Drivers/STM32F0xx_HAL_Driver/Src/stm32f0xx_hal_rcc.c ****       tickstart = HAL_GetTick();
 409              		.loc 1 407 7 view .LVU105
 410              		.loc 1 407 19 is_stmt 0 view .LVU106
 411 0170 FFF7FEFF 		bl	HAL_GetTick
 412              	.LVL15:
 413 0174 0500     		movs	r5, r0
 414              	.LVL16:
 408:Drivers/STM32F0xx_HAL_Driver/Src/stm32f0xx_hal_rcc.c ****       
 409:Drivers/STM32F0xx_HAL_Driver/Src/stm32f0xx_hal_rcc.c ****       /* Wait till LSI is ready */  
 410:Drivers/STM32F0xx_HAL_Driver/Src/stm32f0xx_hal_rcc.c ****       while(__HAL_RCC_GET_FLAG(RCC_FLAG_LSIRDY) == RESET)
 415              		.loc 1 410 7 is_stmt 1 view .LVU107
 416              	.L29:
 417              		.loc 1 410 12 view .LVU108
 418              		.loc 1 410 13 is_stmt 0 view .LVU109
 419 0176 594B     		ldr	r3, .L109
 420 0178 5B6A     		ldr	r3, [r3, #36]
 421              		.loc 1 410 12 view .LVU110
 422 017a 9B07     		lsls	r3, r3, #30
 423 017c 35D4     		bmi	.L27
 411:Drivers/STM32F0xx_HAL_Driver/Src/stm32f0xx_hal_rcc.c ****       {
 412:Drivers/STM32F0xx_HAL_Driver/Src/stm32f0xx_hal_rcc.c ****         if((HAL_GetTick() - tickstart ) > LSI_TIMEOUT_VALUE)
 424              		.loc 1 412 9 is_stmt 1 view .LVU111
 425              		.loc 1 412 13 is_stmt 0 view .LVU112
 426 017e FFF7FEFF 		bl	HAL_GetTick
 427              	.LVL17:
 428              		.loc 1 412 27 view .LVU113
 429 0182 401B     		subs	r0, r0, r5
 430              		.loc 1 412 11 view .LVU114
 431 0184 0228     		cmp	r0, #2
 432 0186 F6D9     		bls	.L29
 413:Drivers/STM32F0xx_HAL_Driver/Src/stm32f0xx_hal_rcc.c ****         {
 414:Drivers/STM32F0xx_HAL_Driver/Src/stm32f0xx_hal_rcc.c ****           return HAL_TIMEOUT;
 433              		.loc 1 414 18 view .LVU115
 434 0188 0320     		movs	r0, #3
 435 018a A9E1     		b	.L8
 436              	.L96:
 373:Drivers/STM32F0xx_HAL_Driver/Src/stm32f0xx_hal_rcc.c ****       }
 437              		.loc 1 373 9 is_stmt 1 view .LVU116
 438 018c 5349     		ldr	r1, .L109
 439 018e 0B68     		ldr	r3, [r1]
 440 0190 F822     		movs	r2, #248
 441 0192 9343     		bics	r3, r2
 442 0194 2269     		ldr	r2, [r4, #16]
 443 0196 D200     		lsls	r2, r2, #3
 444 0198 1343     		orrs	r3, r2
 445 019a 0B60     		str	r3, [r1]
 446 019c DDE7     		b	.L18
 447              	.LVL18:
 448              	.L22:
 378:Drivers/STM32F0xx_HAL_Driver/Src/stm32f0xx_hal_rcc.c ****         
 449              		.loc 1 378 9 view .LVU117
 450 019e 4F4A     		ldr	r2, .L109
 451 01a0 1368     		ldr	r3, [r2]
 452 01a2 0121     		movs	r1, #1
 453 01a4 8B43     		bics	r3, r1
ARM GAS  /tmp/cc68hz7R.s 			page 17


 454 01a6 1360     		str	r3, [r2]
 381:Drivers/STM32F0xx_HAL_Driver/Src/stm32f0xx_hal_rcc.c ****         
 455              		.loc 1 381 9 view .LVU118
 381:Drivers/STM32F0xx_HAL_Driver/Src/stm32f0xx_hal_rcc.c ****         
 456              		.loc 1 381 21 is_stmt 0 view .LVU119
 457 01a8 FFF7FEFF 		bl	HAL_GetTick
 458              	.LVL19:
 459 01ac 0500     		movs	r5, r0
 460              	.LVL20:
 384:Drivers/STM32F0xx_HAL_Driver/Src/stm32f0xx_hal_rcc.c ****         {
 461              		.loc 1 384 9 is_stmt 1 view .LVU120
 462              	.L25:
 384:Drivers/STM32F0xx_HAL_Driver/Src/stm32f0xx_hal_rcc.c ****         {
 463              		.loc 1 384 14 view .LVU121
 384:Drivers/STM32F0xx_HAL_Driver/Src/stm32f0xx_hal_rcc.c ****         {
 464              		.loc 1 384 15 is_stmt 0 view .LVU122
 465 01ae 4B4B     		ldr	r3, .L109
 466 01b0 1B68     		ldr	r3, [r3]
 384:Drivers/STM32F0xx_HAL_Driver/Src/stm32f0xx_hal_rcc.c ****         {
 467              		.loc 1 384 14 view .LVU123
 468 01b2 9B07     		lsls	r3, r3, #30
 469 01b4 D1D5     		bpl	.L18
 386:Drivers/STM32F0xx_HAL_Driver/Src/stm32f0xx_hal_rcc.c ****           {
 470              		.loc 1 386 11 is_stmt 1 view .LVU124
 386:Drivers/STM32F0xx_HAL_Driver/Src/stm32f0xx_hal_rcc.c ****           {
 471              		.loc 1 386 15 is_stmt 0 view .LVU125
 472 01b6 FFF7FEFF 		bl	HAL_GetTick
 473              	.LVL21:
 386:Drivers/STM32F0xx_HAL_Driver/Src/stm32f0xx_hal_rcc.c ****           {
 474              		.loc 1 386 29 view .LVU126
 475 01ba 401B     		subs	r0, r0, r5
 386:Drivers/STM32F0xx_HAL_Driver/Src/stm32f0xx_hal_rcc.c ****           {
 476              		.loc 1 386 13 view .LVU127
 477 01bc 0228     		cmp	r0, #2
 478 01be F6D9     		bls	.L25
 388:Drivers/STM32F0xx_HAL_Driver/Src/stm32f0xx_hal_rcc.c ****           }
 479              		.loc 1 388 20 view .LVU128
 480 01c0 0320     		movs	r0, #3
 481 01c2 8DE1     		b	.L8
 482              	.LVL22:
 483              	.L28:
 415:Drivers/STM32F0xx_HAL_Driver/Src/stm32f0xx_hal_rcc.c ****         }
 416:Drivers/STM32F0xx_HAL_Driver/Src/stm32f0xx_hal_rcc.c ****       }
 417:Drivers/STM32F0xx_HAL_Driver/Src/stm32f0xx_hal_rcc.c ****     }
 418:Drivers/STM32F0xx_HAL_Driver/Src/stm32f0xx_hal_rcc.c ****     else
 419:Drivers/STM32F0xx_HAL_Driver/Src/stm32f0xx_hal_rcc.c ****     {
 420:Drivers/STM32F0xx_HAL_Driver/Src/stm32f0xx_hal_rcc.c ****       /* Disable the Internal Low Speed oscillator (LSI). */
 421:Drivers/STM32F0xx_HAL_Driver/Src/stm32f0xx_hal_rcc.c ****       __HAL_RCC_LSI_DISABLE();
 484              		.loc 1 421 7 is_stmt 1 view .LVU129
 485 01c4 454A     		ldr	r2, .L109
 486 01c6 536A     		ldr	r3, [r2, #36]
 487 01c8 0121     		movs	r1, #1
 488 01ca 8B43     		bics	r3, r1
 489 01cc 5362     		str	r3, [r2, #36]
 422:Drivers/STM32F0xx_HAL_Driver/Src/stm32f0xx_hal_rcc.c ****       
 423:Drivers/STM32F0xx_HAL_Driver/Src/stm32f0xx_hal_rcc.c ****       /* Get Start Tick */
 424:Drivers/STM32F0xx_HAL_Driver/Src/stm32f0xx_hal_rcc.c ****       tickstart = HAL_GetTick();
ARM GAS  /tmp/cc68hz7R.s 			page 18


 490              		.loc 1 424 7 view .LVU130
 491              		.loc 1 424 19 is_stmt 0 view .LVU131
 492 01ce FFF7FEFF 		bl	HAL_GetTick
 493              	.LVL23:
 494 01d2 0500     		movs	r5, r0
 495              	.LVL24:
 425:Drivers/STM32F0xx_HAL_Driver/Src/stm32f0xx_hal_rcc.c ****       
 426:Drivers/STM32F0xx_HAL_Driver/Src/stm32f0xx_hal_rcc.c ****       /* Wait till LSI is disabled */  
 427:Drivers/STM32F0xx_HAL_Driver/Src/stm32f0xx_hal_rcc.c ****       while(__HAL_RCC_GET_FLAG(RCC_FLAG_LSIRDY) != RESET)
 496              		.loc 1 427 7 is_stmt 1 view .LVU132
 497              	.L31:
 498              		.loc 1 427 12 view .LVU133
 499              		.loc 1 427 13 is_stmt 0 view .LVU134
 500 01d4 414B     		ldr	r3, .L109
 501 01d6 5B6A     		ldr	r3, [r3, #36]
 502              		.loc 1 427 12 view .LVU135
 503 01d8 9B07     		lsls	r3, r3, #30
 504 01da 06D5     		bpl	.L27
 428:Drivers/STM32F0xx_HAL_Driver/Src/stm32f0xx_hal_rcc.c ****       {
 429:Drivers/STM32F0xx_HAL_Driver/Src/stm32f0xx_hal_rcc.c ****         if((HAL_GetTick() - tickstart ) > LSI_TIMEOUT_VALUE)
 505              		.loc 1 429 9 is_stmt 1 view .LVU136
 506              		.loc 1 429 13 is_stmt 0 view .LVU137
 507 01dc FFF7FEFF 		bl	HAL_GetTick
 508              	.LVL25:
 509              		.loc 1 429 27 view .LVU138
 510 01e0 401B     		subs	r0, r0, r5
 511              		.loc 1 429 11 view .LVU139
 512 01e2 0228     		cmp	r0, #2
 513 01e4 F6D9     		bls	.L31
 430:Drivers/STM32F0xx_HAL_Driver/Src/stm32f0xx_hal_rcc.c ****         {
 431:Drivers/STM32F0xx_HAL_Driver/Src/stm32f0xx_hal_rcc.c ****           return HAL_TIMEOUT;
 514              		.loc 1 431 18 view .LVU140
 515 01e6 0320     		movs	r0, #3
 516 01e8 7AE1     		b	.L8
 517              	.LVL26:
 518              	.L27:
 432:Drivers/STM32F0xx_HAL_Driver/Src/stm32f0xx_hal_rcc.c ****         }
 433:Drivers/STM32F0xx_HAL_Driver/Src/stm32f0xx_hal_rcc.c ****       }
 434:Drivers/STM32F0xx_HAL_Driver/Src/stm32f0xx_hal_rcc.c ****     }
 435:Drivers/STM32F0xx_HAL_Driver/Src/stm32f0xx_hal_rcc.c ****   }
 436:Drivers/STM32F0xx_HAL_Driver/Src/stm32f0xx_hal_rcc.c ****   /*------------------------------ LSE Configuration -------------------------*/ 
 437:Drivers/STM32F0xx_HAL_Driver/Src/stm32f0xx_hal_rcc.c ****   if(((RCC_OscInitStruct->OscillatorType) & RCC_OSCILLATORTYPE_LSE) == RCC_OSCILLATORTYPE_LSE)
 519              		.loc 1 437 3 is_stmt 1 view .LVU141
 520              		.loc 1 437 5 is_stmt 0 view .LVU142
 521 01ea 2368     		ldr	r3, [r4]
 522 01ec 5B07     		lsls	r3, r3, #29
 523 01ee 00D4     		bmi	.LCB488
 524 01f0 80E0     		b	.L33	@long jump
 525              	.LCB488:
 526              	.LBB2:
 438:Drivers/STM32F0xx_HAL_Driver/Src/stm32f0xx_hal_rcc.c ****   {
 439:Drivers/STM32F0xx_HAL_Driver/Src/stm32f0xx_hal_rcc.c ****     FlagStatus       pwrclkchanged = RESET;
 527              		.loc 1 439 5 is_stmt 1 view .LVU143
 528              	.LVL27:
 440:Drivers/STM32F0xx_HAL_Driver/Src/stm32f0xx_hal_rcc.c ****     
 441:Drivers/STM32F0xx_HAL_Driver/Src/stm32f0xx_hal_rcc.c ****     /* Check the parameters */
 442:Drivers/STM32F0xx_HAL_Driver/Src/stm32f0xx_hal_rcc.c ****     assert_param(IS_RCC_LSE(RCC_OscInitStruct->LSEState));
ARM GAS  /tmp/cc68hz7R.s 			page 19


 529              		.loc 1 442 5 view .LVU144
 443:Drivers/STM32F0xx_HAL_Driver/Src/stm32f0xx_hal_rcc.c **** 
 444:Drivers/STM32F0xx_HAL_Driver/Src/stm32f0xx_hal_rcc.c ****     /* Update LSE configuration in Backup Domain control register    */
 445:Drivers/STM32F0xx_HAL_Driver/Src/stm32f0xx_hal_rcc.c ****     /* Requires to enable write access to Backup Domain of necessary */
 446:Drivers/STM32F0xx_HAL_Driver/Src/stm32f0xx_hal_rcc.c ****     if(__HAL_RCC_PWR_IS_CLK_DISABLED())
 530              		.loc 1 446 5 view .LVU145
 531              		.loc 1 446 8 is_stmt 0 view .LVU146
 532 01f2 3A4B     		ldr	r3, .L109
 533 01f4 DB69     		ldr	r3, [r3, #28]
 534              		.loc 1 446 7 view .LVU147
 535 01f6 DB00     		lsls	r3, r3, #3
 536 01f8 1DD4     		bmi	.L78
 447:Drivers/STM32F0xx_HAL_Driver/Src/stm32f0xx_hal_rcc.c ****     {
 448:Drivers/STM32F0xx_HAL_Driver/Src/stm32f0xx_hal_rcc.c ****       __HAL_RCC_PWR_CLK_ENABLE();
 537              		.loc 1 448 7 is_stmt 1 view .LVU148
 538              	.LBB3:
 539              		.loc 1 448 7 view .LVU149
 540              		.loc 1 448 7 view .LVU150
 541 01fa 384A     		ldr	r2, .L109
 542 01fc D169     		ldr	r1, [r2, #28]
 543 01fe 8020     		movs	r0, #128
 544 0200 4005     		lsls	r0, r0, #21
 545 0202 0143     		orrs	r1, r0
 546 0204 D161     		str	r1, [r2, #28]
 547              		.loc 1 448 7 view .LVU151
 548 0206 D369     		ldr	r3, [r2, #28]
 549 0208 0340     		ands	r3, r0
 550 020a 0193     		str	r3, [sp, #4]
 551              		.loc 1 448 7 view .LVU152
 552 020c 019B     		ldr	r3, [sp, #4]
 553              	.LBE3:
 554              		.loc 1 448 7 view .LVU153
 449:Drivers/STM32F0xx_HAL_Driver/Src/stm32f0xx_hal_rcc.c ****       pwrclkchanged = SET;
 555              		.loc 1 449 7 view .LVU154
 556              	.LVL28:
 557              		.loc 1 449 21 is_stmt 0 view .LVU155
 558 020e 0125     		movs	r5, #1
 559              	.LVL29:
 560              	.L34:
 450:Drivers/STM32F0xx_HAL_Driver/Src/stm32f0xx_hal_rcc.c ****     }
 451:Drivers/STM32F0xx_HAL_Driver/Src/stm32f0xx_hal_rcc.c ****     
 452:Drivers/STM32F0xx_HAL_Driver/Src/stm32f0xx_hal_rcc.c ****     if(HAL_IS_BIT_CLR(PWR->CR, PWR_CR_DBP))
 561              		.loc 1 452 5 is_stmt 1 view .LVU156
 562              		.loc 1 452 8 is_stmt 0 view .LVU157
 563 0210 354B     		ldr	r3, .L109+12
 564 0212 1B68     		ldr	r3, [r3]
 565              		.loc 1 452 7 view .LVU158
 566 0214 DB05     		lsls	r3, r3, #23
 567 0216 10D5     		bpl	.L98
 568              	.L35:
 453:Drivers/STM32F0xx_HAL_Driver/Src/stm32f0xx_hal_rcc.c ****     {
 454:Drivers/STM32F0xx_HAL_Driver/Src/stm32f0xx_hal_rcc.c ****       /* Enable write access to Backup domain */
 455:Drivers/STM32F0xx_HAL_Driver/Src/stm32f0xx_hal_rcc.c ****       SET_BIT(PWR->CR, PWR_CR_DBP);
 456:Drivers/STM32F0xx_HAL_Driver/Src/stm32f0xx_hal_rcc.c ****       
 457:Drivers/STM32F0xx_HAL_Driver/Src/stm32f0xx_hal_rcc.c ****       /* Wait for Backup domain Write protection disable */
 458:Drivers/STM32F0xx_HAL_Driver/Src/stm32f0xx_hal_rcc.c ****       tickstart = HAL_GetTick();
 459:Drivers/STM32F0xx_HAL_Driver/Src/stm32f0xx_hal_rcc.c **** 
ARM GAS  /tmp/cc68hz7R.s 			page 20


 460:Drivers/STM32F0xx_HAL_Driver/Src/stm32f0xx_hal_rcc.c ****       while(HAL_IS_BIT_CLR(PWR->CR, PWR_CR_DBP))
 461:Drivers/STM32F0xx_HAL_Driver/Src/stm32f0xx_hal_rcc.c ****       {
 462:Drivers/STM32F0xx_HAL_Driver/Src/stm32f0xx_hal_rcc.c ****         if((HAL_GetTick() - tickstart) > RCC_DBP_TIMEOUT_VALUE)
 463:Drivers/STM32F0xx_HAL_Driver/Src/stm32f0xx_hal_rcc.c ****         {
 464:Drivers/STM32F0xx_HAL_Driver/Src/stm32f0xx_hal_rcc.c ****           return HAL_TIMEOUT;
 465:Drivers/STM32F0xx_HAL_Driver/Src/stm32f0xx_hal_rcc.c ****         }
 466:Drivers/STM32F0xx_HAL_Driver/Src/stm32f0xx_hal_rcc.c ****       }
 467:Drivers/STM32F0xx_HAL_Driver/Src/stm32f0xx_hal_rcc.c ****     }
 468:Drivers/STM32F0xx_HAL_Driver/Src/stm32f0xx_hal_rcc.c **** 
 469:Drivers/STM32F0xx_HAL_Driver/Src/stm32f0xx_hal_rcc.c ****     /* Set the new LSE configuration -----------------------------------------*/
 470:Drivers/STM32F0xx_HAL_Driver/Src/stm32f0xx_hal_rcc.c ****     __HAL_RCC_LSE_CONFIG(RCC_OscInitStruct->LSEState);
 569              		.loc 1 470 5 is_stmt 1 view .LVU159
 570              		.loc 1 470 5 view .LVU160
 571 0218 A368     		ldr	r3, [r4, #8]
 572 021a 012B     		cmp	r3, #1
 573 021c 21D0     		beq	.L99
 574              		.loc 1 470 5 discriminator 2 view .LVU161
 575 021e 002B     		cmp	r3, #0
 576 0220 36D1     		bne	.L40
 577              		.loc 1 470 5 discriminator 4 view .LVU162
 578 0222 2E4B     		ldr	r3, .L109
 579 0224 1A6A     		ldr	r2, [r3, #32]
 580 0226 0121     		movs	r1, #1
 581 0228 8A43     		bics	r2, r1
 582 022a 1A62     		str	r2, [r3, #32]
 583              		.loc 1 470 5 discriminator 4 view .LVU163
 584 022c 1A6A     		ldr	r2, [r3, #32]
 585 022e 0331     		adds	r1, r1, #3
 586 0230 8A43     		bics	r2, r1
 587 0232 1A62     		str	r2, [r3, #32]
 588 0234 1AE0     		b	.L39
 589              	.LVL30:
 590              	.L78:
 439:Drivers/STM32F0xx_HAL_Driver/Src/stm32f0xx_hal_rcc.c ****     
 591              		.loc 1 439 22 is_stmt 0 view .LVU164
 592 0236 0025     		movs	r5, #0
 593 0238 EAE7     		b	.L34
 594              	.LVL31:
 595              	.L98:
 455:Drivers/STM32F0xx_HAL_Driver/Src/stm32f0xx_hal_rcc.c ****       
 596              		.loc 1 455 7 is_stmt 1 view .LVU165
 597 023a 2B4A     		ldr	r2, .L109+12
 598 023c 1168     		ldr	r1, [r2]
 599 023e 8023     		movs	r3, #128
 600 0240 5B00     		lsls	r3, r3, #1
 601 0242 0B43     		orrs	r3, r1
 602 0244 1360     		str	r3, [r2]
 458:Drivers/STM32F0xx_HAL_Driver/Src/stm32f0xx_hal_rcc.c **** 
 603              		.loc 1 458 7 view .LVU166
 458:Drivers/STM32F0xx_HAL_Driver/Src/stm32f0xx_hal_rcc.c **** 
 604              		.loc 1 458 19 is_stmt 0 view .LVU167
 605 0246 FFF7FEFF 		bl	HAL_GetTick
 606              	.LVL32:
 607 024a 0600     		movs	r6, r0
 608              	.LVL33:
 460:Drivers/STM32F0xx_HAL_Driver/Src/stm32f0xx_hal_rcc.c ****       {
 609              		.loc 1 460 7 is_stmt 1 view .LVU168
ARM GAS  /tmp/cc68hz7R.s 			page 21


 610              	.L36:
 460:Drivers/STM32F0xx_HAL_Driver/Src/stm32f0xx_hal_rcc.c ****       {
 611              		.loc 1 460 12 view .LVU169
 460:Drivers/STM32F0xx_HAL_Driver/Src/stm32f0xx_hal_rcc.c ****       {
 612              		.loc 1 460 13 is_stmt 0 view .LVU170
 613 024c 264B     		ldr	r3, .L109+12
 614 024e 1B68     		ldr	r3, [r3]
 460:Drivers/STM32F0xx_HAL_Driver/Src/stm32f0xx_hal_rcc.c ****       {
 615              		.loc 1 460 12 view .LVU171
 616 0250 DB05     		lsls	r3, r3, #23
 617 0252 E1D4     		bmi	.L35
 462:Drivers/STM32F0xx_HAL_Driver/Src/stm32f0xx_hal_rcc.c ****         {
 618              		.loc 1 462 9 is_stmt 1 view .LVU172
 462:Drivers/STM32F0xx_HAL_Driver/Src/stm32f0xx_hal_rcc.c ****         {
 619              		.loc 1 462 13 is_stmt 0 view .LVU173
 620 0254 FFF7FEFF 		bl	HAL_GetTick
 621              	.LVL34:
 462:Drivers/STM32F0xx_HAL_Driver/Src/stm32f0xx_hal_rcc.c ****         {
 622              		.loc 1 462 27 view .LVU174
 623 0258 801B     		subs	r0, r0, r6
 462:Drivers/STM32F0xx_HAL_Driver/Src/stm32f0xx_hal_rcc.c ****         {
 624              		.loc 1 462 11 view .LVU175
 625 025a 6428     		cmp	r0, #100
 626 025c F6D9     		bls	.L36
 464:Drivers/STM32F0xx_HAL_Driver/Src/stm32f0xx_hal_rcc.c ****         }
 627              		.loc 1 464 18 view .LVU176
 628 025e 0320     		movs	r0, #3
 629 0260 3EE1     		b	.L8
 630              	.LVL35:
 631              	.L99:
 632              		.loc 1 470 5 is_stmt 1 discriminator 1 view .LVU177
 633 0262 1E4A     		ldr	r2, .L109
 634 0264 136A     		ldr	r3, [r2, #32]
 635 0266 0121     		movs	r1, #1
 636 0268 0B43     		orrs	r3, r1
 637 026a 1362     		str	r3, [r2, #32]
 638              	.L39:
 639              		.loc 1 470 5 discriminator 10 view .LVU178
 471:Drivers/STM32F0xx_HAL_Driver/Src/stm32f0xx_hal_rcc.c ****     /* Check the LSE State */
 472:Drivers/STM32F0xx_HAL_Driver/Src/stm32f0xx_hal_rcc.c ****     if(RCC_OscInitStruct->LSEState != RCC_LSE_OFF)
 640              		.loc 1 472 5 discriminator 10 view .LVU179
 641              		.loc 1 472 7 is_stmt 0 discriminator 10 view .LVU180
 642 026c A368     		ldr	r3, [r4, #8]
 643 026e 002B     		cmp	r3, #0
 644 0270 24D0     		beq	.L42
 473:Drivers/STM32F0xx_HAL_Driver/Src/stm32f0xx_hal_rcc.c ****     {
 474:Drivers/STM32F0xx_HAL_Driver/Src/stm32f0xx_hal_rcc.c ****       /* Get Start Tick */
 475:Drivers/STM32F0xx_HAL_Driver/Src/stm32f0xx_hal_rcc.c ****       tickstart = HAL_GetTick();
 645              		.loc 1 475 7 is_stmt 1 view .LVU181
 646              		.loc 1 475 19 is_stmt 0 view .LVU182
 647 0272 FFF7FEFF 		bl	HAL_GetTick
 648              	.LVL36:
 649 0276 0600     		movs	r6, r0
 650              	.LVL37:
 476:Drivers/STM32F0xx_HAL_Driver/Src/stm32f0xx_hal_rcc.c ****       
 477:Drivers/STM32F0xx_HAL_Driver/Src/stm32f0xx_hal_rcc.c ****       /* Wait till LSE is ready */  
 478:Drivers/STM32F0xx_HAL_Driver/Src/stm32f0xx_hal_rcc.c ****       while(__HAL_RCC_GET_FLAG(RCC_FLAG_LSERDY) == RESET)
ARM GAS  /tmp/cc68hz7R.s 			page 22


 651              		.loc 1 478 7 is_stmt 1 view .LVU183
 652              	.L43:
 653              		.loc 1 478 12 view .LVU184
 654              		.loc 1 478 13 is_stmt 0 view .LVU185
 655 0278 184B     		ldr	r3, .L109
 656 027a 1B6A     		ldr	r3, [r3, #32]
 657              		.loc 1 478 12 view .LVU186
 658 027c 9B07     		lsls	r3, r3, #30
 659 027e 37D4     		bmi	.L45
 479:Drivers/STM32F0xx_HAL_Driver/Src/stm32f0xx_hal_rcc.c ****       {
 480:Drivers/STM32F0xx_HAL_Driver/Src/stm32f0xx_hal_rcc.c ****         if((HAL_GetTick() - tickstart ) > RCC_LSE_TIMEOUT_VALUE)
 660              		.loc 1 480 9 is_stmt 1 view .LVU187
 661              		.loc 1 480 13 is_stmt 0 view .LVU188
 662 0280 FFF7FEFF 		bl	HAL_GetTick
 663              	.LVL38:
 664              		.loc 1 480 27 view .LVU189
 665 0284 801B     		subs	r0, r0, r6
 666              		.loc 1 480 11 view .LVU190
 667 0286 194B     		ldr	r3, .L109+16
 668 0288 9842     		cmp	r0, r3
 669 028a F5D9     		bls	.L43
 481:Drivers/STM32F0xx_HAL_Driver/Src/stm32f0xx_hal_rcc.c ****         {
 482:Drivers/STM32F0xx_HAL_Driver/Src/stm32f0xx_hal_rcc.c ****           return HAL_TIMEOUT;
 670              		.loc 1 482 18 view .LVU191
 671 028c 0320     		movs	r0, #3
 672 028e 27E1     		b	.L8
 673              	.LVL39:
 674              	.L40:
 470:Drivers/STM32F0xx_HAL_Driver/Src/stm32f0xx_hal_rcc.c ****     /* Check the LSE State */
 675              		.loc 1 470 5 is_stmt 1 discriminator 5 view .LVU192
 676 0290 052B     		cmp	r3, #5
 677 0292 09D0     		beq	.L100
 470:Drivers/STM32F0xx_HAL_Driver/Src/stm32f0xx_hal_rcc.c ****     /* Check the LSE State */
 678              		.loc 1 470 5 discriminator 8 view .LVU193
 679 0294 114B     		ldr	r3, .L109
 680 0296 1A6A     		ldr	r2, [r3, #32]
 681 0298 0121     		movs	r1, #1
 682 029a 8A43     		bics	r2, r1
 683 029c 1A62     		str	r2, [r3, #32]
 470:Drivers/STM32F0xx_HAL_Driver/Src/stm32f0xx_hal_rcc.c ****     /* Check the LSE State */
 684              		.loc 1 470 5 discriminator 8 view .LVU194
 685 029e 1A6A     		ldr	r2, [r3, #32]
 686 02a0 0331     		adds	r1, r1, #3
 687 02a2 8A43     		bics	r2, r1
 688 02a4 1A62     		str	r2, [r3, #32]
 689 02a6 E1E7     		b	.L39
 690              	.L100:
 470:Drivers/STM32F0xx_HAL_Driver/Src/stm32f0xx_hal_rcc.c ****     /* Check the LSE State */
 691              		.loc 1 470 5 discriminator 7 view .LVU195
 692 02a8 0C4B     		ldr	r3, .L109
 693 02aa 1A6A     		ldr	r2, [r3, #32]
 694 02ac 0421     		movs	r1, #4
 695 02ae 0A43     		orrs	r2, r1
 696 02b0 1A62     		str	r2, [r3, #32]
 470:Drivers/STM32F0xx_HAL_Driver/Src/stm32f0xx_hal_rcc.c ****     /* Check the LSE State */
 697              		.loc 1 470 5 discriminator 7 view .LVU196
 698 02b2 1A6A     		ldr	r2, [r3, #32]
ARM GAS  /tmp/cc68hz7R.s 			page 23


 699 02b4 0339     		subs	r1, r1, #3
 700 02b6 0A43     		orrs	r2, r1
 701 02b8 1A62     		str	r2, [r3, #32]
 702 02ba D7E7     		b	.L39
 703              	.L42:
 483:Drivers/STM32F0xx_HAL_Driver/Src/stm32f0xx_hal_rcc.c ****         }
 484:Drivers/STM32F0xx_HAL_Driver/Src/stm32f0xx_hal_rcc.c ****       }
 485:Drivers/STM32F0xx_HAL_Driver/Src/stm32f0xx_hal_rcc.c ****     }
 486:Drivers/STM32F0xx_HAL_Driver/Src/stm32f0xx_hal_rcc.c ****     else
 487:Drivers/STM32F0xx_HAL_Driver/Src/stm32f0xx_hal_rcc.c ****     {
 488:Drivers/STM32F0xx_HAL_Driver/Src/stm32f0xx_hal_rcc.c ****       /* Get Start Tick */
 489:Drivers/STM32F0xx_HAL_Driver/Src/stm32f0xx_hal_rcc.c ****       tickstart = HAL_GetTick();
 704              		.loc 1 489 7 view .LVU197
 705              		.loc 1 489 19 is_stmt 0 view .LVU198
 706 02bc FFF7FEFF 		bl	HAL_GetTick
 707              	.LVL40:
 708 02c0 0600     		movs	r6, r0
 709              	.LVL41:
 490:Drivers/STM32F0xx_HAL_Driver/Src/stm32f0xx_hal_rcc.c ****       
 491:Drivers/STM32F0xx_HAL_Driver/Src/stm32f0xx_hal_rcc.c ****       /* Wait till LSE is disabled */  
 492:Drivers/STM32F0xx_HAL_Driver/Src/stm32f0xx_hal_rcc.c ****       while(__HAL_RCC_GET_FLAG(RCC_FLAG_LSERDY) != RESET)
 710              		.loc 1 492 7 is_stmt 1 view .LVU199
 711              	.L46:
 712              		.loc 1 492 12 view .LVU200
 713              		.loc 1 492 13 is_stmt 0 view .LVU201
 714 02c2 064B     		ldr	r3, .L109
 715 02c4 1B6A     		ldr	r3, [r3, #32]
 716              		.loc 1 492 12 view .LVU202
 717 02c6 9B07     		lsls	r3, r3, #30
 718 02c8 12D5     		bpl	.L45
 493:Drivers/STM32F0xx_HAL_Driver/Src/stm32f0xx_hal_rcc.c ****       {
 494:Drivers/STM32F0xx_HAL_Driver/Src/stm32f0xx_hal_rcc.c ****         if((HAL_GetTick() - tickstart ) > RCC_LSE_TIMEOUT_VALUE)
 719              		.loc 1 494 9 is_stmt 1 view .LVU203
 720              		.loc 1 494 13 is_stmt 0 view .LVU204
 721 02ca FFF7FEFF 		bl	HAL_GetTick
 722              	.LVL42:
 723              		.loc 1 494 27 view .LVU205
 724 02ce 801B     		subs	r0, r0, r6
 725              		.loc 1 494 11 view .LVU206
 726 02d0 064B     		ldr	r3, .L109+16
 727 02d2 9842     		cmp	r0, r3
 728 02d4 F5D9     		bls	.L46
 495:Drivers/STM32F0xx_HAL_Driver/Src/stm32f0xx_hal_rcc.c ****         {
 496:Drivers/STM32F0xx_HAL_Driver/Src/stm32f0xx_hal_rcc.c ****           return HAL_TIMEOUT;
 729              		.loc 1 496 18 view .LVU207
 730 02d6 0320     		movs	r0, #3
 731 02d8 02E1     		b	.L8
 732              	.L110:
 733 02da C046     		.align	2
 734              	.L109:
 735 02dc 00100240 		.word	1073876992
 736 02e0 FFFFFEFF 		.word	-65537
 737 02e4 FFFFFBFF 		.word	-262145
 738 02e8 00700040 		.word	1073770496
 739 02ec 88130000 		.word	5000
 740              	.L45:
 497:Drivers/STM32F0xx_HAL_Driver/Src/stm32f0xx_hal_rcc.c ****         }
ARM GAS  /tmp/cc68hz7R.s 			page 24


 498:Drivers/STM32F0xx_HAL_Driver/Src/stm32f0xx_hal_rcc.c ****       }
 499:Drivers/STM32F0xx_HAL_Driver/Src/stm32f0xx_hal_rcc.c ****     }
 500:Drivers/STM32F0xx_HAL_Driver/Src/stm32f0xx_hal_rcc.c **** 
 501:Drivers/STM32F0xx_HAL_Driver/Src/stm32f0xx_hal_rcc.c ****     /* Require to disable power clock if necessary */
 502:Drivers/STM32F0xx_HAL_Driver/Src/stm32f0xx_hal_rcc.c ****     if(pwrclkchanged == SET)
 741              		.loc 1 502 5 is_stmt 1 view .LVU208
 742              		.loc 1 502 7 is_stmt 0 view .LVU209
 743 02f0 012D     		cmp	r5, #1
 744 02f2 39D0     		beq	.L101
 745              	.LVL43:
 746              	.L33:
 747              		.loc 1 502 7 view .LVU210
 748              	.LBE2:
 503:Drivers/STM32F0xx_HAL_Driver/Src/stm32f0xx_hal_rcc.c ****     {
 504:Drivers/STM32F0xx_HAL_Driver/Src/stm32f0xx_hal_rcc.c ****       __HAL_RCC_PWR_CLK_DISABLE();
 505:Drivers/STM32F0xx_HAL_Driver/Src/stm32f0xx_hal_rcc.c ****     }
 506:Drivers/STM32F0xx_HAL_Driver/Src/stm32f0xx_hal_rcc.c ****   }
 507:Drivers/STM32F0xx_HAL_Driver/Src/stm32f0xx_hal_rcc.c **** 
 508:Drivers/STM32F0xx_HAL_Driver/Src/stm32f0xx_hal_rcc.c ****   /*----------------------------- HSI14 Configuration --------------------------*/
 509:Drivers/STM32F0xx_HAL_Driver/Src/stm32f0xx_hal_rcc.c ****   if(((RCC_OscInitStruct->OscillatorType) & RCC_OSCILLATORTYPE_HSI14) == RCC_OSCILLATORTYPE_HSI14)
 749              		.loc 1 509 3 is_stmt 1 view .LVU211
 750              		.loc 1 509 5 is_stmt 0 view .LVU212
 751 02f4 2368     		ldr	r3, [r4]
 752 02f6 DB06     		lsls	r3, r3, #27
 753 02f8 10D5     		bpl	.L48
 510:Drivers/STM32F0xx_HAL_Driver/Src/stm32f0xx_hal_rcc.c ****   {
 511:Drivers/STM32F0xx_HAL_Driver/Src/stm32f0xx_hal_rcc.c ****     /* Check the parameters */
 512:Drivers/STM32F0xx_HAL_Driver/Src/stm32f0xx_hal_rcc.c ****     assert_param(IS_RCC_HSI14(RCC_OscInitStruct->HSI14State));
 754              		.loc 1 512 5 is_stmt 1 view .LVU213
 513:Drivers/STM32F0xx_HAL_Driver/Src/stm32f0xx_hal_rcc.c ****     assert_param(IS_RCC_CALIBRATION_VALUE(RCC_OscInitStruct->HSI14CalibrationValue));
 755              		.loc 1 513 5 view .LVU214
 514:Drivers/STM32F0xx_HAL_Driver/Src/stm32f0xx_hal_rcc.c **** 
 515:Drivers/STM32F0xx_HAL_Driver/Src/stm32f0xx_hal_rcc.c ****     /* Check the HSI14 State */
 516:Drivers/STM32F0xx_HAL_Driver/Src/stm32f0xx_hal_rcc.c ****     if(RCC_OscInitStruct->HSI14State == RCC_HSI14_ON)
 756              		.loc 1 516 5 view .LVU215
 757              		.loc 1 516 25 is_stmt 0 view .LVU216
 758 02fa 6369     		ldr	r3, [r4, #20]
 759              		.loc 1 516 7 view .LVU217
 760 02fc 012B     		cmp	r3, #1
 761 02fe 39D0     		beq	.L102
 517:Drivers/STM32F0xx_HAL_Driver/Src/stm32f0xx_hal_rcc.c ****     {
 518:Drivers/STM32F0xx_HAL_Driver/Src/stm32f0xx_hal_rcc.c ****       /* Disable ADC control of the Internal High Speed oscillator HSI14 */
 519:Drivers/STM32F0xx_HAL_Driver/Src/stm32f0xx_hal_rcc.c ****       __HAL_RCC_HSI14ADC_DISABLE();
 520:Drivers/STM32F0xx_HAL_Driver/Src/stm32f0xx_hal_rcc.c **** 
 521:Drivers/STM32F0xx_HAL_Driver/Src/stm32f0xx_hal_rcc.c ****       /* Enable the Internal High Speed oscillator (HSI). */
 522:Drivers/STM32F0xx_HAL_Driver/Src/stm32f0xx_hal_rcc.c ****       __HAL_RCC_HSI14_ENABLE();
 523:Drivers/STM32F0xx_HAL_Driver/Src/stm32f0xx_hal_rcc.c **** 
 524:Drivers/STM32F0xx_HAL_Driver/Src/stm32f0xx_hal_rcc.c ****       /* Get Start Tick */
 525:Drivers/STM32F0xx_HAL_Driver/Src/stm32f0xx_hal_rcc.c ****       tickstart = HAL_GetTick();
 526:Drivers/STM32F0xx_HAL_Driver/Src/stm32f0xx_hal_rcc.c ****       
 527:Drivers/STM32F0xx_HAL_Driver/Src/stm32f0xx_hal_rcc.c ****       /* Wait till HSI is ready */  
 528:Drivers/STM32F0xx_HAL_Driver/Src/stm32f0xx_hal_rcc.c ****       while(__HAL_RCC_GET_FLAG(RCC_FLAG_HSI14RDY) == RESET)
 529:Drivers/STM32F0xx_HAL_Driver/Src/stm32f0xx_hal_rcc.c ****       {
 530:Drivers/STM32F0xx_HAL_Driver/Src/stm32f0xx_hal_rcc.c ****         if((HAL_GetTick() - tickstart) > HSI14_TIMEOUT_VALUE)
 531:Drivers/STM32F0xx_HAL_Driver/Src/stm32f0xx_hal_rcc.c ****         {
 532:Drivers/STM32F0xx_HAL_Driver/Src/stm32f0xx_hal_rcc.c ****           return HAL_TIMEOUT;
 533:Drivers/STM32F0xx_HAL_Driver/Src/stm32f0xx_hal_rcc.c ****         }      
ARM GAS  /tmp/cc68hz7R.s 			page 25


 534:Drivers/STM32F0xx_HAL_Driver/Src/stm32f0xx_hal_rcc.c ****       } 
 535:Drivers/STM32F0xx_HAL_Driver/Src/stm32f0xx_hal_rcc.c **** 
 536:Drivers/STM32F0xx_HAL_Driver/Src/stm32f0xx_hal_rcc.c ****       /* Adjusts the Internal High Speed oscillator 14Mhz (HSI14) calibration value. */
 537:Drivers/STM32F0xx_HAL_Driver/Src/stm32f0xx_hal_rcc.c ****       __HAL_RCC_HSI14_CALIBRATIONVALUE_ADJUST(RCC_OscInitStruct->HSI14CalibrationValue);
 538:Drivers/STM32F0xx_HAL_Driver/Src/stm32f0xx_hal_rcc.c ****     }
 539:Drivers/STM32F0xx_HAL_Driver/Src/stm32f0xx_hal_rcc.c ****     else if(RCC_OscInitStruct->HSI14State == RCC_HSI14_ADC_CONTROL)
 762              		.loc 1 539 10 is_stmt 1 view .LVU218
 763              		.loc 1 539 12 is_stmt 0 view .LVU219
 764 0300 0533     		adds	r3, r3, #5
 765 0302 57D1     		bne	.L52
 540:Drivers/STM32F0xx_HAL_Driver/Src/stm32f0xx_hal_rcc.c ****     {
 541:Drivers/STM32F0xx_HAL_Driver/Src/stm32f0xx_hal_rcc.c ****       /* Enable ADC control of the Internal High Speed oscillator HSI14 */
 542:Drivers/STM32F0xx_HAL_Driver/Src/stm32f0xx_hal_rcc.c ****       __HAL_RCC_HSI14ADC_ENABLE();
 766              		.loc 1 542 7 is_stmt 1 view .LVU220
 767 0304 784A     		ldr	r2, .L111
 768 0306 536B     		ldr	r3, [r2, #52]
 769 0308 0421     		movs	r1, #4
 770 030a 8B43     		bics	r3, r1
 771 030c 5363     		str	r3, [r2, #52]
 543:Drivers/STM32F0xx_HAL_Driver/Src/stm32f0xx_hal_rcc.c **** 
 544:Drivers/STM32F0xx_HAL_Driver/Src/stm32f0xx_hal_rcc.c ****       /* Adjusts the Internal High Speed oscillator 14Mhz (HSI14) calibration value. */
 545:Drivers/STM32F0xx_HAL_Driver/Src/stm32f0xx_hal_rcc.c ****       __HAL_RCC_HSI14_CALIBRATIONVALUE_ADJUST(RCC_OscInitStruct->HSI14CalibrationValue);
 772              		.loc 1 545 7 view .LVU221
 773 030e 536B     		ldr	r3, [r2, #52]
 774 0310 F431     		adds	r1, r1, #244
 775 0312 8B43     		bics	r3, r1
 776 0314 A169     		ldr	r1, [r4, #24]
 777 0316 C900     		lsls	r1, r1, #3
 778 0318 0B43     		orrs	r3, r1
 779 031a 5363     		str	r3, [r2, #52]
 780              	.L48:
 546:Drivers/STM32F0xx_HAL_Driver/Src/stm32f0xx_hal_rcc.c ****     }
 547:Drivers/STM32F0xx_HAL_Driver/Src/stm32f0xx_hal_rcc.c ****     else
 548:Drivers/STM32F0xx_HAL_Driver/Src/stm32f0xx_hal_rcc.c ****     {
 549:Drivers/STM32F0xx_HAL_Driver/Src/stm32f0xx_hal_rcc.c ****       /* Disable ADC control of the Internal High Speed oscillator HSI14 */
 550:Drivers/STM32F0xx_HAL_Driver/Src/stm32f0xx_hal_rcc.c ****       __HAL_RCC_HSI14ADC_DISABLE();
 551:Drivers/STM32F0xx_HAL_Driver/Src/stm32f0xx_hal_rcc.c **** 
 552:Drivers/STM32F0xx_HAL_Driver/Src/stm32f0xx_hal_rcc.c ****       /* Disable the Internal High Speed oscillator (HSI). */
 553:Drivers/STM32F0xx_HAL_Driver/Src/stm32f0xx_hal_rcc.c ****       __HAL_RCC_HSI14_DISABLE();
 554:Drivers/STM32F0xx_HAL_Driver/Src/stm32f0xx_hal_rcc.c **** 
 555:Drivers/STM32F0xx_HAL_Driver/Src/stm32f0xx_hal_rcc.c ****       /* Get Start Tick */
 556:Drivers/STM32F0xx_HAL_Driver/Src/stm32f0xx_hal_rcc.c ****       tickstart = HAL_GetTick();
 557:Drivers/STM32F0xx_HAL_Driver/Src/stm32f0xx_hal_rcc.c ****       
 558:Drivers/STM32F0xx_HAL_Driver/Src/stm32f0xx_hal_rcc.c ****       /* Wait till HSI is ready */  
 559:Drivers/STM32F0xx_HAL_Driver/Src/stm32f0xx_hal_rcc.c ****       while(__HAL_RCC_GET_FLAG(RCC_FLAG_HSI14RDY) != RESET)
 560:Drivers/STM32F0xx_HAL_Driver/Src/stm32f0xx_hal_rcc.c ****       {
 561:Drivers/STM32F0xx_HAL_Driver/Src/stm32f0xx_hal_rcc.c ****         if((HAL_GetTick() - tickstart) > HSI14_TIMEOUT_VALUE)
 562:Drivers/STM32F0xx_HAL_Driver/Src/stm32f0xx_hal_rcc.c ****         {
 563:Drivers/STM32F0xx_HAL_Driver/Src/stm32f0xx_hal_rcc.c ****           return HAL_TIMEOUT;
 564:Drivers/STM32F0xx_HAL_Driver/Src/stm32f0xx_hal_rcc.c ****         }
 565:Drivers/STM32F0xx_HAL_Driver/Src/stm32f0xx_hal_rcc.c ****       }
 566:Drivers/STM32F0xx_HAL_Driver/Src/stm32f0xx_hal_rcc.c ****     }
 567:Drivers/STM32F0xx_HAL_Driver/Src/stm32f0xx_hal_rcc.c ****   }
 568:Drivers/STM32F0xx_HAL_Driver/Src/stm32f0xx_hal_rcc.c **** 
 569:Drivers/STM32F0xx_HAL_Driver/Src/stm32f0xx_hal_rcc.c **** #if defined(RCC_HSI48_SUPPORT)
 570:Drivers/STM32F0xx_HAL_Driver/Src/stm32f0xx_hal_rcc.c ****   /*----------------------------- HSI48 Configuration --------------------------*/
 571:Drivers/STM32F0xx_HAL_Driver/Src/stm32f0xx_hal_rcc.c ****   if(((RCC_OscInitStruct->OscillatorType) & RCC_OSCILLATORTYPE_HSI48) == RCC_OSCILLATORTYPE_HSI48)
ARM GAS  /tmp/cc68hz7R.s 			page 26


 781              		.loc 1 571 3 view .LVU222
 782              		.loc 1 571 5 is_stmt 0 view .LVU223
 783 031c 2368     		ldr	r3, [r4]
 784 031e 9B06     		lsls	r3, r3, #26
 785 0320 6DD5     		bpl	.L55
 572:Drivers/STM32F0xx_HAL_Driver/Src/stm32f0xx_hal_rcc.c ****   {
 573:Drivers/STM32F0xx_HAL_Driver/Src/stm32f0xx_hal_rcc.c ****     /* Check the parameters */
 574:Drivers/STM32F0xx_HAL_Driver/Src/stm32f0xx_hal_rcc.c ****     assert_param(IS_RCC_HSI48(RCC_OscInitStruct->HSI48State));
 786              		.loc 1 574 5 is_stmt 1 view .LVU224
 575:Drivers/STM32F0xx_HAL_Driver/Src/stm32f0xx_hal_rcc.c **** 
 576:Drivers/STM32F0xx_HAL_Driver/Src/stm32f0xx_hal_rcc.c ****     /* When the HSI48 is used as system clock it is not allowed to be disabled */
 577:Drivers/STM32F0xx_HAL_Driver/Src/stm32f0xx_hal_rcc.c ****     if((__HAL_RCC_GET_SYSCLK_SOURCE() == RCC_SYSCLKSOURCE_STATUS_HSI48) ||
 787              		.loc 1 577 5 view .LVU225
 788              		.loc 1 577 9 is_stmt 0 view .LVU226
 789 0322 714B     		ldr	r3, .L111
 790 0324 5A68     		ldr	r2, [r3, #4]
 791 0326 0C23     		movs	r3, #12
 792 0328 1340     		ands	r3, r2
 793              		.loc 1 577 7 view .LVU227
 794 032a 0C2B     		cmp	r3, #12
 795 032c 60D0     		beq	.L56
 578:Drivers/STM32F0xx_HAL_Driver/Src/stm32f0xx_hal_rcc.c ****        ((__HAL_RCC_GET_SYSCLK_SOURCE() == RCC_SYSCLKSOURCE_STATUS_PLLCLK) && (__HAL_RCC_GET_PLL_OSC
 796              		.loc 1 578 10 discriminator 1 view .LVU228
 797 032e 6E4B     		ldr	r3, .L111
 798 0330 5A68     		ldr	r2, [r3, #4]
 799 0332 0C23     		movs	r3, #12
 800 0334 1340     		ands	r3, r2
 577:Drivers/STM32F0xx_HAL_Driver/Src/stm32f0xx_hal_rcc.c ****        ((__HAL_RCC_GET_SYSCLK_SOURCE() == RCC_SYSCLKSOURCE_STATUS_PLLCLK) && (__HAL_RCC_GET_PLL_OSC
 801              		.loc 1 577 73 discriminator 1 view .LVU229
 802 0336 082B     		cmp	r3, #8
 803 0338 53D0     		beq	.L103
 804              	.L57:
 579:Drivers/STM32F0xx_HAL_Driver/Src/stm32f0xx_hal_rcc.c ****     {
 580:Drivers/STM32F0xx_HAL_Driver/Src/stm32f0xx_hal_rcc.c ****       if((__HAL_RCC_GET_FLAG(RCC_FLAG_HSI48RDY) != RESET) && (RCC_OscInitStruct->HSI48State != RCC_
 581:Drivers/STM32F0xx_HAL_Driver/Src/stm32f0xx_hal_rcc.c ****       {
 582:Drivers/STM32F0xx_HAL_Driver/Src/stm32f0xx_hal_rcc.c ****         return HAL_ERROR;
 583:Drivers/STM32F0xx_HAL_Driver/Src/stm32f0xx_hal_rcc.c ****       }
 584:Drivers/STM32F0xx_HAL_Driver/Src/stm32f0xx_hal_rcc.c ****     }
 585:Drivers/STM32F0xx_HAL_Driver/Src/stm32f0xx_hal_rcc.c ****     else
 586:Drivers/STM32F0xx_HAL_Driver/Src/stm32f0xx_hal_rcc.c ****     {
 587:Drivers/STM32F0xx_HAL_Driver/Src/stm32f0xx_hal_rcc.c ****       /* Check the HSI48 State */
 588:Drivers/STM32F0xx_HAL_Driver/Src/stm32f0xx_hal_rcc.c ****       if(RCC_OscInitStruct->HSI48State != RCC_HSI48_OFF)
 805              		.loc 1 588 7 is_stmt 1 view .LVU230
 806              		.loc 1 588 9 is_stmt 0 view .LVU231
 807 033a 236A     		ldr	r3, [r4, #32]
 808 033c 002B     		cmp	r3, #0
 809 033e 7CD0     		beq	.L58
 589:Drivers/STM32F0xx_HAL_Driver/Src/stm32f0xx_hal_rcc.c ****       {
 590:Drivers/STM32F0xx_HAL_Driver/Src/stm32f0xx_hal_rcc.c ****         /* Enable the Internal High Speed oscillator (HSI48). */
 591:Drivers/STM32F0xx_HAL_Driver/Src/stm32f0xx_hal_rcc.c ****         __HAL_RCC_HSI48_ENABLE();
 810              		.loc 1 591 9 is_stmt 1 view .LVU232
 811 0340 694A     		ldr	r2, .L111
 812 0342 516B     		ldr	r1, [r2, #52]
 813 0344 8023     		movs	r3, #128
 814 0346 5B02     		lsls	r3, r3, #9
 815 0348 0B43     		orrs	r3, r1
 816 034a 5363     		str	r3, [r2, #52]
ARM GAS  /tmp/cc68hz7R.s 			page 27


 592:Drivers/STM32F0xx_HAL_Driver/Src/stm32f0xx_hal_rcc.c **** 
 593:Drivers/STM32F0xx_HAL_Driver/Src/stm32f0xx_hal_rcc.c ****         /* Get Start Tick */
 594:Drivers/STM32F0xx_HAL_Driver/Src/stm32f0xx_hal_rcc.c ****         tickstart = HAL_GetTick();
 817              		.loc 1 594 9 view .LVU233
 818              		.loc 1 594 21 is_stmt 0 view .LVU234
 819 034c FFF7FEFF 		bl	HAL_GetTick
 820              	.LVL44:
 821 0350 0500     		movs	r5, r0
 822              	.LVL45:
 595:Drivers/STM32F0xx_HAL_Driver/Src/stm32f0xx_hal_rcc.c ****       
 596:Drivers/STM32F0xx_HAL_Driver/Src/stm32f0xx_hal_rcc.c ****         /* Wait till HSI48 is ready */  
 597:Drivers/STM32F0xx_HAL_Driver/Src/stm32f0xx_hal_rcc.c ****         while(__HAL_RCC_GET_FLAG(RCC_FLAG_HSI48RDY) == RESET)
 823              		.loc 1 597 9 is_stmt 1 view .LVU235
 824              	.L59:
 825              		.loc 1 597 14 view .LVU236
 826              		.loc 1 597 15 is_stmt 0 view .LVU237
 827 0352 654B     		ldr	r3, .L111
 828 0354 5B6B     		ldr	r3, [r3, #52]
 829              		.loc 1 597 14 view .LVU238
 830 0356 DB03     		lsls	r3, r3, #15
 831 0358 51D4     		bmi	.L55
 598:Drivers/STM32F0xx_HAL_Driver/Src/stm32f0xx_hal_rcc.c ****         {
 599:Drivers/STM32F0xx_HAL_Driver/Src/stm32f0xx_hal_rcc.c ****           if((HAL_GetTick() - tickstart) > HSI48_TIMEOUT_VALUE)
 832              		.loc 1 599 11 is_stmt 1 view .LVU239
 833              		.loc 1 599 15 is_stmt 0 view .LVU240
 834 035a FFF7FEFF 		bl	HAL_GetTick
 835              	.LVL46:
 836              		.loc 1 599 29 view .LVU241
 837 035e 401B     		subs	r0, r0, r5
 838              		.loc 1 599 13 view .LVU242
 839 0360 0228     		cmp	r0, #2
 840 0362 F6D9     		bls	.L59
 600:Drivers/STM32F0xx_HAL_Driver/Src/stm32f0xx_hal_rcc.c ****           {
 601:Drivers/STM32F0xx_HAL_Driver/Src/stm32f0xx_hal_rcc.c ****             return HAL_TIMEOUT;
 841              		.loc 1 601 20 view .LVU243
 842 0364 0320     		movs	r0, #3
 843 0366 BBE0     		b	.L8
 844              	.LVL47:
 845              	.L101:
 846              	.LBB4:
 504:Drivers/STM32F0xx_HAL_Driver/Src/stm32f0xx_hal_rcc.c ****     }
 847              		.loc 1 504 7 is_stmt 1 view .LVU244
 848 0368 5F4A     		ldr	r2, .L111
 849 036a D369     		ldr	r3, [r2, #28]
 850 036c 5F49     		ldr	r1, .L111+4
 851 036e 0B40     		ands	r3, r1
 852 0370 D361     		str	r3, [r2, #28]
 853 0372 BFE7     		b	.L33
 854              	.LVL48:
 855              	.L102:
 504:Drivers/STM32F0xx_HAL_Driver/Src/stm32f0xx_hal_rcc.c ****     }
 856              		.loc 1 504 7 is_stmt 0 view .LVU245
 857              	.LBE4:
 519:Drivers/STM32F0xx_HAL_Driver/Src/stm32f0xx_hal_rcc.c **** 
 858              		.loc 1 519 7 is_stmt 1 view .LVU246
 859 0374 5C4B     		ldr	r3, .L111
 860 0376 5A6B     		ldr	r2, [r3, #52]
ARM GAS  /tmp/cc68hz7R.s 			page 28


 861 0378 0421     		movs	r1, #4
 862 037a 0A43     		orrs	r2, r1
 863 037c 5A63     		str	r2, [r3, #52]
 522:Drivers/STM32F0xx_HAL_Driver/Src/stm32f0xx_hal_rcc.c **** 
 864              		.loc 1 522 7 view .LVU247
 865 037e 5A6B     		ldr	r2, [r3, #52]
 866 0380 0339     		subs	r1, r1, #3
 867 0382 0A43     		orrs	r2, r1
 868 0384 5A63     		str	r2, [r3, #52]
 525:Drivers/STM32F0xx_HAL_Driver/Src/stm32f0xx_hal_rcc.c ****       
 869              		.loc 1 525 7 view .LVU248
 525:Drivers/STM32F0xx_HAL_Driver/Src/stm32f0xx_hal_rcc.c ****       
 870              		.loc 1 525 19 is_stmt 0 view .LVU249
 871 0386 FFF7FEFF 		bl	HAL_GetTick
 872              	.LVL49:
 873 038a 0500     		movs	r5, r0
 874              	.LVL50:
 528:Drivers/STM32F0xx_HAL_Driver/Src/stm32f0xx_hal_rcc.c ****       {
 875              		.loc 1 528 7 is_stmt 1 view .LVU250
 876              	.L50:
 528:Drivers/STM32F0xx_HAL_Driver/Src/stm32f0xx_hal_rcc.c ****       {
 877              		.loc 1 528 12 view .LVU251
 528:Drivers/STM32F0xx_HAL_Driver/Src/stm32f0xx_hal_rcc.c ****       {
 878              		.loc 1 528 13 is_stmt 0 view .LVU252
 879 038c 564B     		ldr	r3, .L111
 880 038e 5B6B     		ldr	r3, [r3, #52]
 528:Drivers/STM32F0xx_HAL_Driver/Src/stm32f0xx_hal_rcc.c ****       {
 881              		.loc 1 528 12 view .LVU253
 882 0390 9B07     		lsls	r3, r3, #30
 883 0392 06D4     		bmi	.L104
 530:Drivers/STM32F0xx_HAL_Driver/Src/stm32f0xx_hal_rcc.c ****         {
 884              		.loc 1 530 9 is_stmt 1 view .LVU254
 530:Drivers/STM32F0xx_HAL_Driver/Src/stm32f0xx_hal_rcc.c ****         {
 885              		.loc 1 530 13 is_stmt 0 view .LVU255
 886 0394 FFF7FEFF 		bl	HAL_GetTick
 887              	.LVL51:
 530:Drivers/STM32F0xx_HAL_Driver/Src/stm32f0xx_hal_rcc.c ****         {
 888              		.loc 1 530 27 view .LVU256
 889 0398 401B     		subs	r0, r0, r5
 530:Drivers/STM32F0xx_HAL_Driver/Src/stm32f0xx_hal_rcc.c ****         {
 890              		.loc 1 530 11 view .LVU257
 891 039a 0228     		cmp	r0, #2
 892 039c F6D9     		bls	.L50
 532:Drivers/STM32F0xx_HAL_Driver/Src/stm32f0xx_hal_rcc.c ****         }      
 893              		.loc 1 532 18 view .LVU258
 894 039e 0320     		movs	r0, #3
 895 03a0 9EE0     		b	.L8
 896              	.L104:
 537:Drivers/STM32F0xx_HAL_Driver/Src/stm32f0xx_hal_rcc.c ****     }
 897              		.loc 1 537 7 is_stmt 1 view .LVU259
 898 03a2 5149     		ldr	r1, .L111
 899 03a4 4B6B     		ldr	r3, [r1, #52]
 900 03a6 F822     		movs	r2, #248
 901 03a8 9343     		bics	r3, r2
 902 03aa A269     		ldr	r2, [r4, #24]
 903 03ac D200     		lsls	r2, r2, #3
 904 03ae 1343     		orrs	r3, r2
ARM GAS  /tmp/cc68hz7R.s 			page 29


 905 03b0 4B63     		str	r3, [r1, #52]
 906 03b2 B3E7     		b	.L48
 907              	.LVL52:
 908              	.L52:
 550:Drivers/STM32F0xx_HAL_Driver/Src/stm32f0xx_hal_rcc.c **** 
 909              		.loc 1 550 7 view .LVU260
 910 03b4 4C4B     		ldr	r3, .L111
 911 03b6 5A6B     		ldr	r2, [r3, #52]
 912 03b8 0421     		movs	r1, #4
 913 03ba 0A43     		orrs	r2, r1
 914 03bc 5A63     		str	r2, [r3, #52]
 553:Drivers/STM32F0xx_HAL_Driver/Src/stm32f0xx_hal_rcc.c **** 
 915              		.loc 1 553 7 view .LVU261
 916 03be 5A6B     		ldr	r2, [r3, #52]
 917 03c0 0339     		subs	r1, r1, #3
 918 03c2 8A43     		bics	r2, r1
 919 03c4 5A63     		str	r2, [r3, #52]
 556:Drivers/STM32F0xx_HAL_Driver/Src/stm32f0xx_hal_rcc.c ****       
 920              		.loc 1 556 7 view .LVU262
 556:Drivers/STM32F0xx_HAL_Driver/Src/stm32f0xx_hal_rcc.c ****       
 921              		.loc 1 556 19 is_stmt 0 view .LVU263
 922 03c6 FFF7FEFF 		bl	HAL_GetTick
 923              	.LVL53:
 924 03ca 0500     		movs	r5, r0
 925              	.LVL54:
 559:Drivers/STM32F0xx_HAL_Driver/Src/stm32f0xx_hal_rcc.c ****       {
 926              		.loc 1 559 7 is_stmt 1 view .LVU264
 927              	.L53:
 559:Drivers/STM32F0xx_HAL_Driver/Src/stm32f0xx_hal_rcc.c ****       {
 928              		.loc 1 559 12 view .LVU265
 559:Drivers/STM32F0xx_HAL_Driver/Src/stm32f0xx_hal_rcc.c ****       {
 929              		.loc 1 559 13 is_stmt 0 view .LVU266
 930 03cc 464B     		ldr	r3, .L111
 931 03ce 5B6B     		ldr	r3, [r3, #52]
 559:Drivers/STM32F0xx_HAL_Driver/Src/stm32f0xx_hal_rcc.c ****       {
 932              		.loc 1 559 12 view .LVU267
 933 03d0 9B07     		lsls	r3, r3, #30
 934 03d2 A3D5     		bpl	.L48
 561:Drivers/STM32F0xx_HAL_Driver/Src/stm32f0xx_hal_rcc.c ****         {
 935              		.loc 1 561 9 is_stmt 1 view .LVU268
 561:Drivers/STM32F0xx_HAL_Driver/Src/stm32f0xx_hal_rcc.c ****         {
 936              		.loc 1 561 13 is_stmt 0 view .LVU269
 937 03d4 FFF7FEFF 		bl	HAL_GetTick
 938              	.LVL55:
 561:Drivers/STM32F0xx_HAL_Driver/Src/stm32f0xx_hal_rcc.c ****         {
 939              		.loc 1 561 27 view .LVU270
 940 03d8 401B     		subs	r0, r0, r5
 561:Drivers/STM32F0xx_HAL_Driver/Src/stm32f0xx_hal_rcc.c ****         {
 941              		.loc 1 561 11 view .LVU271
 942 03da 0228     		cmp	r0, #2
 943 03dc F6D9     		bls	.L53
 563:Drivers/STM32F0xx_HAL_Driver/Src/stm32f0xx_hal_rcc.c ****         }
 944              		.loc 1 563 18 view .LVU272
 945 03de 0320     		movs	r0, #3
 946 03e0 7EE0     		b	.L8
 947              	.LVL56:
 948              	.L103:
ARM GAS  /tmp/cc68hz7R.s 			page 30


 578:Drivers/STM32F0xx_HAL_Driver/Src/stm32f0xx_hal_rcc.c ****     {
 949              		.loc 1 578 79 view .LVU273
 950 03e2 414B     		ldr	r3, .L111
 951 03e4 5B68     		ldr	r3, [r3, #4]
 952 03e6 C022     		movs	r2, #192
 953 03e8 5202     		lsls	r2, r2, #9
 954 03ea 1340     		ands	r3, r2
 578:Drivers/STM32F0xx_HAL_Driver/Src/stm32f0xx_hal_rcc.c ****     {
 955              		.loc 1 578 75 view .LVU274
 956 03ec 9342     		cmp	r3, r2
 957 03ee A4D1     		bne	.L57
 958              	.L56:
 580:Drivers/STM32F0xx_HAL_Driver/Src/stm32f0xx_hal_rcc.c ****       {
 959              		.loc 1 580 7 is_stmt 1 view .LVU275
 580:Drivers/STM32F0xx_HAL_Driver/Src/stm32f0xx_hal_rcc.c ****       {
 960              		.loc 1 580 11 is_stmt 0 view .LVU276
 961 03f0 3D4B     		ldr	r3, .L111
 962 03f2 5B6B     		ldr	r3, [r3, #52]
 580:Drivers/STM32F0xx_HAL_Driver/Src/stm32f0xx_hal_rcc.c ****       {
 963              		.loc 1 580 9 view .LVU277
 964 03f4 DB03     		lsls	r3, r3, #15
 965 03f6 02D5     		bpl	.L55
 580:Drivers/STM32F0xx_HAL_Driver/Src/stm32f0xx_hal_rcc.c ****       {
 966              		.loc 1 580 59 discriminator 1 view .LVU278
 967 03f8 236A     		ldr	r3, [r4, #32]
 968 03fa 012B     		cmp	r3, #1
 969 03fc 6DD1     		bne	.L84
 970              	.L55:
 602:Drivers/STM32F0xx_HAL_Driver/Src/stm32f0xx_hal_rcc.c ****           }
 603:Drivers/STM32F0xx_HAL_Driver/Src/stm32f0xx_hal_rcc.c ****         } 
 604:Drivers/STM32F0xx_HAL_Driver/Src/stm32f0xx_hal_rcc.c ****       }
 605:Drivers/STM32F0xx_HAL_Driver/Src/stm32f0xx_hal_rcc.c ****       else
 606:Drivers/STM32F0xx_HAL_Driver/Src/stm32f0xx_hal_rcc.c ****       {
 607:Drivers/STM32F0xx_HAL_Driver/Src/stm32f0xx_hal_rcc.c ****         /* Disable the Internal High Speed oscillator (HSI48). */
 608:Drivers/STM32F0xx_HAL_Driver/Src/stm32f0xx_hal_rcc.c ****         __HAL_RCC_HSI48_DISABLE();
 609:Drivers/STM32F0xx_HAL_Driver/Src/stm32f0xx_hal_rcc.c **** 
 610:Drivers/STM32F0xx_HAL_Driver/Src/stm32f0xx_hal_rcc.c ****         /* Get Start Tick */
 611:Drivers/STM32F0xx_HAL_Driver/Src/stm32f0xx_hal_rcc.c ****         tickstart = HAL_GetTick();
 612:Drivers/STM32F0xx_HAL_Driver/Src/stm32f0xx_hal_rcc.c ****       
 613:Drivers/STM32F0xx_HAL_Driver/Src/stm32f0xx_hal_rcc.c ****         /* Wait till HSI48 is ready */  
 614:Drivers/STM32F0xx_HAL_Driver/Src/stm32f0xx_hal_rcc.c ****         while(__HAL_RCC_GET_FLAG(RCC_FLAG_HSI48RDY) != RESET)
 615:Drivers/STM32F0xx_HAL_Driver/Src/stm32f0xx_hal_rcc.c ****         {
 616:Drivers/STM32F0xx_HAL_Driver/Src/stm32f0xx_hal_rcc.c ****           if((HAL_GetTick() - tickstart) > HSI48_TIMEOUT_VALUE)
 617:Drivers/STM32F0xx_HAL_Driver/Src/stm32f0xx_hal_rcc.c ****           {
 618:Drivers/STM32F0xx_HAL_Driver/Src/stm32f0xx_hal_rcc.c ****             return HAL_TIMEOUT;
 619:Drivers/STM32F0xx_HAL_Driver/Src/stm32f0xx_hal_rcc.c ****           }
 620:Drivers/STM32F0xx_HAL_Driver/Src/stm32f0xx_hal_rcc.c ****         }
 621:Drivers/STM32F0xx_HAL_Driver/Src/stm32f0xx_hal_rcc.c ****       }
 622:Drivers/STM32F0xx_HAL_Driver/Src/stm32f0xx_hal_rcc.c ****     }
 623:Drivers/STM32F0xx_HAL_Driver/Src/stm32f0xx_hal_rcc.c ****   }
 624:Drivers/STM32F0xx_HAL_Driver/Src/stm32f0xx_hal_rcc.c **** #endif /* RCC_HSI48_SUPPORT */
 625:Drivers/STM32F0xx_HAL_Driver/Src/stm32f0xx_hal_rcc.c ****        
 626:Drivers/STM32F0xx_HAL_Driver/Src/stm32f0xx_hal_rcc.c ****   /*-------------------------------- PLL Configuration -----------------------*/
 627:Drivers/STM32F0xx_HAL_Driver/Src/stm32f0xx_hal_rcc.c ****   /* Check the parameters */
 628:Drivers/STM32F0xx_HAL_Driver/Src/stm32f0xx_hal_rcc.c ****   assert_param(IS_RCC_PLL(RCC_OscInitStruct->PLL.PLLState));
 971              		.loc 1 628 3 is_stmt 1 view .LVU279
 629:Drivers/STM32F0xx_HAL_Driver/Src/stm32f0xx_hal_rcc.c ****   if ((RCC_OscInitStruct->PLL.PLLState) != RCC_PLL_NONE)
ARM GAS  /tmp/cc68hz7R.s 			page 31


 972              		.loc 1 629 3 view .LVU280
 973              		.loc 1 629 30 is_stmt 0 view .LVU281
 974 03fe 636A     		ldr	r3, [r4, #36]
 975              		.loc 1 629 6 view .LVU282
 976 0400 002B     		cmp	r3, #0
 977 0402 6CD0     		beq	.L87
 630:Drivers/STM32F0xx_HAL_Driver/Src/stm32f0xx_hal_rcc.c ****   {
 631:Drivers/STM32F0xx_HAL_Driver/Src/stm32f0xx_hal_rcc.c ****     /* Check if the PLL is used as system clock or not */
 632:Drivers/STM32F0xx_HAL_Driver/Src/stm32f0xx_hal_rcc.c ****     if(__HAL_RCC_GET_SYSCLK_SOURCE() != RCC_SYSCLKSOURCE_STATUS_PLLCLK)
 978              		.loc 1 632 5 is_stmt 1 view .LVU283
 979              		.loc 1 632 8 is_stmt 0 view .LVU284
 980 0404 384A     		ldr	r2, .L111
 981 0406 5168     		ldr	r1, [r2, #4]
 982 0408 0C22     		movs	r2, #12
 983 040a 0A40     		ands	r2, r1
 984              		.loc 1 632 7 view .LVU285
 985 040c 082A     		cmp	r2, #8
 986 040e 69D0     		beq	.L88
 633:Drivers/STM32F0xx_HAL_Driver/Src/stm32f0xx_hal_rcc.c ****     { 
 634:Drivers/STM32F0xx_HAL_Driver/Src/stm32f0xx_hal_rcc.c ****       if((RCC_OscInitStruct->PLL.PLLState) == RCC_PLL_ON)
 987              		.loc 1 634 7 is_stmt 1 view .LVU286
 988              		.loc 1 634 9 is_stmt 0 view .LVU287
 989 0410 022B     		cmp	r3, #2
 990 0412 25D0     		beq	.L105
 635:Drivers/STM32F0xx_HAL_Driver/Src/stm32f0xx_hal_rcc.c ****       {
 636:Drivers/STM32F0xx_HAL_Driver/Src/stm32f0xx_hal_rcc.c ****         /* Check the parameters */
 637:Drivers/STM32F0xx_HAL_Driver/Src/stm32f0xx_hal_rcc.c ****         assert_param(IS_RCC_PLLSOURCE(RCC_OscInitStruct->PLL.PLLSource));
 638:Drivers/STM32F0xx_HAL_Driver/Src/stm32f0xx_hal_rcc.c ****         assert_param(IS_RCC_PLL_MUL(RCC_OscInitStruct->PLL.PLLMUL));
 639:Drivers/STM32F0xx_HAL_Driver/Src/stm32f0xx_hal_rcc.c ****         assert_param(IS_RCC_PREDIV(RCC_OscInitStruct->PLL.PREDIV));
 640:Drivers/STM32F0xx_HAL_Driver/Src/stm32f0xx_hal_rcc.c ****   
 641:Drivers/STM32F0xx_HAL_Driver/Src/stm32f0xx_hal_rcc.c ****         /* Disable the main PLL. */
 642:Drivers/STM32F0xx_HAL_Driver/Src/stm32f0xx_hal_rcc.c ****         __HAL_RCC_PLL_DISABLE();
 643:Drivers/STM32F0xx_HAL_Driver/Src/stm32f0xx_hal_rcc.c ****         
 644:Drivers/STM32F0xx_HAL_Driver/Src/stm32f0xx_hal_rcc.c ****         /* Get Start Tick */
 645:Drivers/STM32F0xx_HAL_Driver/Src/stm32f0xx_hal_rcc.c ****         tickstart = HAL_GetTick();
 646:Drivers/STM32F0xx_HAL_Driver/Src/stm32f0xx_hal_rcc.c ****         
 647:Drivers/STM32F0xx_HAL_Driver/Src/stm32f0xx_hal_rcc.c ****         /* Wait till PLL is disabled */
 648:Drivers/STM32F0xx_HAL_Driver/Src/stm32f0xx_hal_rcc.c ****         while(__HAL_RCC_GET_FLAG(RCC_FLAG_PLLRDY)  != RESET)
 649:Drivers/STM32F0xx_HAL_Driver/Src/stm32f0xx_hal_rcc.c ****         {
 650:Drivers/STM32F0xx_HAL_Driver/Src/stm32f0xx_hal_rcc.c ****           if((HAL_GetTick() - tickstart ) > PLL_TIMEOUT_VALUE)
 651:Drivers/STM32F0xx_HAL_Driver/Src/stm32f0xx_hal_rcc.c ****           {
 652:Drivers/STM32F0xx_HAL_Driver/Src/stm32f0xx_hal_rcc.c ****             return HAL_TIMEOUT;
 653:Drivers/STM32F0xx_HAL_Driver/Src/stm32f0xx_hal_rcc.c ****           }
 654:Drivers/STM32F0xx_HAL_Driver/Src/stm32f0xx_hal_rcc.c ****         }
 655:Drivers/STM32F0xx_HAL_Driver/Src/stm32f0xx_hal_rcc.c **** 
 656:Drivers/STM32F0xx_HAL_Driver/Src/stm32f0xx_hal_rcc.c ****         /* Configure the main PLL clock source, predivider and multiplication factor. */
 657:Drivers/STM32F0xx_HAL_Driver/Src/stm32f0xx_hal_rcc.c ****         __HAL_RCC_PLL_CONFIG(RCC_OscInitStruct->PLL.PLLSource,
 658:Drivers/STM32F0xx_HAL_Driver/Src/stm32f0xx_hal_rcc.c ****                              RCC_OscInitStruct->PLL.PREDIV,
 659:Drivers/STM32F0xx_HAL_Driver/Src/stm32f0xx_hal_rcc.c ****                              RCC_OscInitStruct->PLL.PLLMUL);
 660:Drivers/STM32F0xx_HAL_Driver/Src/stm32f0xx_hal_rcc.c ****         /* Enable the main PLL. */
 661:Drivers/STM32F0xx_HAL_Driver/Src/stm32f0xx_hal_rcc.c ****         __HAL_RCC_PLL_ENABLE();
 662:Drivers/STM32F0xx_HAL_Driver/Src/stm32f0xx_hal_rcc.c ****         
 663:Drivers/STM32F0xx_HAL_Driver/Src/stm32f0xx_hal_rcc.c ****         /* Get Start Tick */
 664:Drivers/STM32F0xx_HAL_Driver/Src/stm32f0xx_hal_rcc.c ****         tickstart = HAL_GetTick();
 665:Drivers/STM32F0xx_HAL_Driver/Src/stm32f0xx_hal_rcc.c ****         
 666:Drivers/STM32F0xx_HAL_Driver/Src/stm32f0xx_hal_rcc.c ****         /* Wait till PLL is ready */
 667:Drivers/STM32F0xx_HAL_Driver/Src/stm32f0xx_hal_rcc.c ****         while(__HAL_RCC_GET_FLAG(RCC_FLAG_PLLRDY)  == RESET)
ARM GAS  /tmp/cc68hz7R.s 			page 32


 668:Drivers/STM32F0xx_HAL_Driver/Src/stm32f0xx_hal_rcc.c ****         {
 669:Drivers/STM32F0xx_HAL_Driver/Src/stm32f0xx_hal_rcc.c ****           if((HAL_GetTick() - tickstart ) > PLL_TIMEOUT_VALUE)
 670:Drivers/STM32F0xx_HAL_Driver/Src/stm32f0xx_hal_rcc.c ****           {
 671:Drivers/STM32F0xx_HAL_Driver/Src/stm32f0xx_hal_rcc.c ****             return HAL_TIMEOUT;
 672:Drivers/STM32F0xx_HAL_Driver/Src/stm32f0xx_hal_rcc.c ****           }
 673:Drivers/STM32F0xx_HAL_Driver/Src/stm32f0xx_hal_rcc.c ****         }
 674:Drivers/STM32F0xx_HAL_Driver/Src/stm32f0xx_hal_rcc.c ****       }
 675:Drivers/STM32F0xx_HAL_Driver/Src/stm32f0xx_hal_rcc.c ****       else
 676:Drivers/STM32F0xx_HAL_Driver/Src/stm32f0xx_hal_rcc.c ****       {
 677:Drivers/STM32F0xx_HAL_Driver/Src/stm32f0xx_hal_rcc.c ****         /* Disable the main PLL. */
 678:Drivers/STM32F0xx_HAL_Driver/Src/stm32f0xx_hal_rcc.c ****         __HAL_RCC_PLL_DISABLE();
 991              		.loc 1 678 9 is_stmt 1 view .LVU288
 992 0414 344A     		ldr	r2, .L111
 993 0416 1368     		ldr	r3, [r2]
 994 0418 3549     		ldr	r1, .L111+8
 995 041a 0B40     		ands	r3, r1
 996 041c 1360     		str	r3, [r2]
 679:Drivers/STM32F0xx_HAL_Driver/Src/stm32f0xx_hal_rcc.c ****  
 680:Drivers/STM32F0xx_HAL_Driver/Src/stm32f0xx_hal_rcc.c ****         /* Get Start Tick */
 681:Drivers/STM32F0xx_HAL_Driver/Src/stm32f0xx_hal_rcc.c ****         tickstart = HAL_GetTick();
 997              		.loc 1 681 9 view .LVU289
 998              		.loc 1 681 21 is_stmt 0 view .LVU290
 999 041e FFF7FEFF 		bl	HAL_GetTick
 1000              	.LVL57:
 1001 0422 0400     		movs	r4, r0
 1002              	.LVL58:
 682:Drivers/STM32F0xx_HAL_Driver/Src/stm32f0xx_hal_rcc.c ****         
 683:Drivers/STM32F0xx_HAL_Driver/Src/stm32f0xx_hal_rcc.c ****         /* Wait till PLL is disabled */  
 684:Drivers/STM32F0xx_HAL_Driver/Src/stm32f0xx_hal_rcc.c ****         while(__HAL_RCC_GET_FLAG(RCC_FLAG_PLLRDY)  != RESET)
 1003              		.loc 1 684 9 is_stmt 1 view .LVU291
 1004              	.L68:
 1005              		.loc 1 684 14 view .LVU292
 1006              		.loc 1 684 15 is_stmt 0 view .LVU293
 1007 0424 304B     		ldr	r3, .L111
 1008 0426 1B68     		ldr	r3, [r3]
 1009              		.loc 1 684 14 view .LVU294
 1010 0428 9B01     		lsls	r3, r3, #6
 1011 042a 50D5     		bpl	.L106
 685:Drivers/STM32F0xx_HAL_Driver/Src/stm32f0xx_hal_rcc.c ****         {
 686:Drivers/STM32F0xx_HAL_Driver/Src/stm32f0xx_hal_rcc.c ****           if((HAL_GetTick() - tickstart ) > PLL_TIMEOUT_VALUE)
 1012              		.loc 1 686 11 is_stmt 1 view .LVU295
 1013              		.loc 1 686 15 is_stmt 0 view .LVU296
 1014 042c FFF7FEFF 		bl	HAL_GetTick
 1015              	.LVL59:
 1016              		.loc 1 686 29 view .LVU297
 1017 0430 001B     		subs	r0, r0, r4
 1018              		.loc 1 686 13 view .LVU298
 1019 0432 0228     		cmp	r0, #2
 1020 0434 F6D9     		bls	.L68
 687:Drivers/STM32F0xx_HAL_Driver/Src/stm32f0xx_hal_rcc.c ****           {
 688:Drivers/STM32F0xx_HAL_Driver/Src/stm32f0xx_hal_rcc.c ****             return HAL_TIMEOUT;
 1021              		.loc 1 688 20 view .LVU299
 1022 0436 0320     		movs	r0, #3
 1023 0438 52E0     		b	.L8
 1024              	.LVL60:
 1025              	.L58:
 608:Drivers/STM32F0xx_HAL_Driver/Src/stm32f0xx_hal_rcc.c **** 
ARM GAS  /tmp/cc68hz7R.s 			page 33


 1026              		.loc 1 608 9 is_stmt 1 view .LVU300
 1027 043a 2B4A     		ldr	r2, .L111
 1028 043c 536B     		ldr	r3, [r2, #52]
 1029 043e 2D49     		ldr	r1, .L111+12
 1030 0440 0B40     		ands	r3, r1
 1031 0442 5363     		str	r3, [r2, #52]
 611:Drivers/STM32F0xx_HAL_Driver/Src/stm32f0xx_hal_rcc.c ****       
 1032              		.loc 1 611 9 view .LVU301
 611:Drivers/STM32F0xx_HAL_Driver/Src/stm32f0xx_hal_rcc.c ****       
 1033              		.loc 1 611 21 is_stmt 0 view .LVU302
 1034 0444 FFF7FEFF 		bl	HAL_GetTick
 1035              	.LVL61:
 1036 0448 0500     		movs	r5, r0
 1037              	.LVL62:
 614:Drivers/STM32F0xx_HAL_Driver/Src/stm32f0xx_hal_rcc.c ****         {
 1038              		.loc 1 614 9 is_stmt 1 view .LVU303
 1039              	.L61:
 614:Drivers/STM32F0xx_HAL_Driver/Src/stm32f0xx_hal_rcc.c ****         {
 1040              		.loc 1 614 14 view .LVU304
 614:Drivers/STM32F0xx_HAL_Driver/Src/stm32f0xx_hal_rcc.c ****         {
 1041              		.loc 1 614 15 is_stmt 0 view .LVU305
 1042 044a 274B     		ldr	r3, .L111
 1043 044c 5B6B     		ldr	r3, [r3, #52]
 614:Drivers/STM32F0xx_HAL_Driver/Src/stm32f0xx_hal_rcc.c ****         {
 1044              		.loc 1 614 14 view .LVU306
 1045 044e DB03     		lsls	r3, r3, #15
 1046 0450 D5D5     		bpl	.L55
 616:Drivers/STM32F0xx_HAL_Driver/Src/stm32f0xx_hal_rcc.c ****           {
 1047              		.loc 1 616 11 is_stmt 1 view .LVU307
 616:Drivers/STM32F0xx_HAL_Driver/Src/stm32f0xx_hal_rcc.c ****           {
 1048              		.loc 1 616 15 is_stmt 0 view .LVU308
 1049 0452 FFF7FEFF 		bl	HAL_GetTick
 1050              	.LVL63:
 616:Drivers/STM32F0xx_HAL_Driver/Src/stm32f0xx_hal_rcc.c ****           {
 1051              		.loc 1 616 29 view .LVU309
 1052 0456 401B     		subs	r0, r0, r5
 616:Drivers/STM32F0xx_HAL_Driver/Src/stm32f0xx_hal_rcc.c ****           {
 1053              		.loc 1 616 13 view .LVU310
 1054 0458 0228     		cmp	r0, #2
 1055 045a F6D9     		bls	.L61
 618:Drivers/STM32F0xx_HAL_Driver/Src/stm32f0xx_hal_rcc.c ****           }
 1056              		.loc 1 618 20 view .LVU311
 1057 045c 0320     		movs	r0, #3
 1058 045e 3FE0     		b	.L8
 1059              	.LVL64:
 1060              	.L105:
 637:Drivers/STM32F0xx_HAL_Driver/Src/stm32f0xx_hal_rcc.c ****         assert_param(IS_RCC_PLL_MUL(RCC_OscInitStruct->PLL.PLLMUL));
 1061              		.loc 1 637 9 is_stmt 1 view .LVU312
 638:Drivers/STM32F0xx_HAL_Driver/Src/stm32f0xx_hal_rcc.c ****         assert_param(IS_RCC_PREDIV(RCC_OscInitStruct->PLL.PREDIV));
 1062              		.loc 1 638 9 view .LVU313
 639:Drivers/STM32F0xx_HAL_Driver/Src/stm32f0xx_hal_rcc.c ****   
 1063              		.loc 1 639 9 view .LVU314
 642:Drivers/STM32F0xx_HAL_Driver/Src/stm32f0xx_hal_rcc.c ****         
 1064              		.loc 1 642 9 view .LVU315
 1065 0460 214A     		ldr	r2, .L111
 1066 0462 1368     		ldr	r3, [r2]
 1067 0464 2249     		ldr	r1, .L111+8
ARM GAS  /tmp/cc68hz7R.s 			page 34


 1068 0466 0B40     		ands	r3, r1
 1069 0468 1360     		str	r3, [r2]
 645:Drivers/STM32F0xx_HAL_Driver/Src/stm32f0xx_hal_rcc.c ****         
 1070              		.loc 1 645 9 view .LVU316
 645:Drivers/STM32F0xx_HAL_Driver/Src/stm32f0xx_hal_rcc.c ****         
 1071              		.loc 1 645 21 is_stmt 0 view .LVU317
 1072 046a FFF7FEFF 		bl	HAL_GetTick
 1073              	.LVL65:
 1074 046e 0500     		movs	r5, r0
 1075              	.LVL66:
 648:Drivers/STM32F0xx_HAL_Driver/Src/stm32f0xx_hal_rcc.c ****         {
 1076              		.loc 1 648 9 is_stmt 1 view .LVU318
 1077              	.L64:
 648:Drivers/STM32F0xx_HAL_Driver/Src/stm32f0xx_hal_rcc.c ****         {
 1078              		.loc 1 648 14 view .LVU319
 648:Drivers/STM32F0xx_HAL_Driver/Src/stm32f0xx_hal_rcc.c ****         {
 1079              		.loc 1 648 15 is_stmt 0 view .LVU320
 1080 0470 1D4B     		ldr	r3, .L111
 1081 0472 1B68     		ldr	r3, [r3]
 648:Drivers/STM32F0xx_HAL_Driver/Src/stm32f0xx_hal_rcc.c ****         {
 1082              		.loc 1 648 14 view .LVU321
 1083 0474 9B01     		lsls	r3, r3, #6
 1084 0476 06D5     		bpl	.L107
 650:Drivers/STM32F0xx_HAL_Driver/Src/stm32f0xx_hal_rcc.c ****           {
 1085              		.loc 1 650 11 is_stmt 1 view .LVU322
 650:Drivers/STM32F0xx_HAL_Driver/Src/stm32f0xx_hal_rcc.c ****           {
 1086              		.loc 1 650 15 is_stmt 0 view .LVU323
 1087 0478 FFF7FEFF 		bl	HAL_GetTick
 1088              	.LVL67:
 650:Drivers/STM32F0xx_HAL_Driver/Src/stm32f0xx_hal_rcc.c ****           {
 1089              		.loc 1 650 29 view .LVU324
 1090 047c 401B     		subs	r0, r0, r5
 650:Drivers/STM32F0xx_HAL_Driver/Src/stm32f0xx_hal_rcc.c ****           {
 1091              		.loc 1 650 13 view .LVU325
 1092 047e 0228     		cmp	r0, #2
 1093 0480 F6D9     		bls	.L64
 652:Drivers/STM32F0xx_HAL_Driver/Src/stm32f0xx_hal_rcc.c ****           }
 1094              		.loc 1 652 20 view .LVU326
 1095 0482 0320     		movs	r0, #3
 1096 0484 2CE0     		b	.L8
 1097              	.L107:
 657:Drivers/STM32F0xx_HAL_Driver/Src/stm32f0xx_hal_rcc.c ****                              RCC_OscInitStruct->PLL.PREDIV,
 1098              		.loc 1 657 9 is_stmt 1 view .LVU327
 657:Drivers/STM32F0xx_HAL_Driver/Src/stm32f0xx_hal_rcc.c ****                              RCC_OscInitStruct->PLL.PREDIV,
 1099              		.loc 1 657 9 view .LVU328
 1100 0486 184B     		ldr	r3, .L111
 1101 0488 DA6A     		ldr	r2, [r3, #44]
 1102 048a 0F21     		movs	r1, #15
 1103 048c 8A43     		bics	r2, r1
 1104 048e 216B     		ldr	r1, [r4, #48]
 1105 0490 0A43     		orrs	r2, r1
 1106 0492 DA62     		str	r2, [r3, #44]
 657:Drivers/STM32F0xx_HAL_Driver/Src/stm32f0xx_hal_rcc.c ****                              RCC_OscInitStruct->PLL.PREDIV,
 1107              		.loc 1 657 9 view .LVU329
 1108 0494 5A68     		ldr	r2, [r3, #4]
 1109 0496 1849     		ldr	r1, .L111+16
 1110 0498 0A40     		ands	r2, r1
ARM GAS  /tmp/cc68hz7R.s 			page 35


 1111 049a E16A     		ldr	r1, [r4, #44]
 1112 049c A06A     		ldr	r0, [r4, #40]
 1113 049e 0143     		orrs	r1, r0
 1114 04a0 0A43     		orrs	r2, r1
 1115 04a2 5A60     		str	r2, [r3, #4]
 657:Drivers/STM32F0xx_HAL_Driver/Src/stm32f0xx_hal_rcc.c ****                              RCC_OscInitStruct->PLL.PREDIV,
 1116              		.loc 1 657 9 view .LVU330
 661:Drivers/STM32F0xx_HAL_Driver/Src/stm32f0xx_hal_rcc.c ****         
 1117              		.loc 1 661 9 view .LVU331
 1118 04a4 1968     		ldr	r1, [r3]
 1119 04a6 8022     		movs	r2, #128
 1120 04a8 5204     		lsls	r2, r2, #17
 1121 04aa 0A43     		orrs	r2, r1
 1122 04ac 1A60     		str	r2, [r3]
 664:Drivers/STM32F0xx_HAL_Driver/Src/stm32f0xx_hal_rcc.c ****         
 1123              		.loc 1 664 9 view .LVU332
 664:Drivers/STM32F0xx_HAL_Driver/Src/stm32f0xx_hal_rcc.c ****         
 1124              		.loc 1 664 21 is_stmt 0 view .LVU333
 1125 04ae FFF7FEFF 		bl	HAL_GetTick
 1126              	.LVL68:
 1127 04b2 0400     		movs	r4, r0
 1128              	.LVL69:
 667:Drivers/STM32F0xx_HAL_Driver/Src/stm32f0xx_hal_rcc.c ****         {
 1129              		.loc 1 667 9 is_stmt 1 view .LVU334
 1130              	.L66:
 667:Drivers/STM32F0xx_HAL_Driver/Src/stm32f0xx_hal_rcc.c ****         {
 1131              		.loc 1 667 14 view .LVU335
 667:Drivers/STM32F0xx_HAL_Driver/Src/stm32f0xx_hal_rcc.c ****         {
 1132              		.loc 1 667 15 is_stmt 0 view .LVU336
 1133 04b4 0C4B     		ldr	r3, .L111
 1134 04b6 1B68     		ldr	r3, [r3]
 667:Drivers/STM32F0xx_HAL_Driver/Src/stm32f0xx_hal_rcc.c ****         {
 1135              		.loc 1 667 14 view .LVU337
 1136 04b8 9B01     		lsls	r3, r3, #6
 1137 04ba 06D4     		bmi	.L108
 669:Drivers/STM32F0xx_HAL_Driver/Src/stm32f0xx_hal_rcc.c ****           {
 1138              		.loc 1 669 11 is_stmt 1 view .LVU338
 669:Drivers/STM32F0xx_HAL_Driver/Src/stm32f0xx_hal_rcc.c ****           {
 1139              		.loc 1 669 15 is_stmt 0 view .LVU339
 1140 04bc FFF7FEFF 		bl	HAL_GetTick
 1141              	.LVL70:
 669:Drivers/STM32F0xx_HAL_Driver/Src/stm32f0xx_hal_rcc.c ****           {
 1142              		.loc 1 669 29 view .LVU340
 1143 04c0 001B     		subs	r0, r0, r4
 669:Drivers/STM32F0xx_HAL_Driver/Src/stm32f0xx_hal_rcc.c ****           {
 1144              		.loc 1 669 13 view .LVU341
 1145 04c2 0228     		cmp	r0, #2
 1146 04c4 F6D9     		bls	.L66
 671:Drivers/STM32F0xx_HAL_Driver/Src/stm32f0xx_hal_rcc.c ****           }
 1147              		.loc 1 671 20 view .LVU342
 1148 04c6 0320     		movs	r0, #3
 1149 04c8 0AE0     		b	.L8
 1150              	.L108:
 689:Drivers/STM32F0xx_HAL_Driver/Src/stm32f0xx_hal_rcc.c ****           }
 690:Drivers/STM32F0xx_HAL_Driver/Src/stm32f0xx_hal_rcc.c ****         }
 691:Drivers/STM32F0xx_HAL_Driver/Src/stm32f0xx_hal_rcc.c ****       }
 692:Drivers/STM32F0xx_HAL_Driver/Src/stm32f0xx_hal_rcc.c ****     }
ARM GAS  /tmp/cc68hz7R.s 			page 36


 693:Drivers/STM32F0xx_HAL_Driver/Src/stm32f0xx_hal_rcc.c ****     else
 694:Drivers/STM32F0xx_HAL_Driver/Src/stm32f0xx_hal_rcc.c ****     {
 695:Drivers/STM32F0xx_HAL_Driver/Src/stm32f0xx_hal_rcc.c ****       return HAL_ERROR;
 696:Drivers/STM32F0xx_HAL_Driver/Src/stm32f0xx_hal_rcc.c ****     }
 697:Drivers/STM32F0xx_HAL_Driver/Src/stm32f0xx_hal_rcc.c ****   }
 698:Drivers/STM32F0xx_HAL_Driver/Src/stm32f0xx_hal_rcc.c ****   
 699:Drivers/STM32F0xx_HAL_Driver/Src/stm32f0xx_hal_rcc.c ****   return HAL_OK;
 1151              		.loc 1 699 10 view .LVU343
 1152 04ca 0020     		movs	r0, #0
 1153 04cc 08E0     		b	.L8
 1154              	.L106:
 1155              		.loc 1 699 10 view .LVU344
 1156 04ce 0020     		movs	r0, #0
 1157 04d0 06E0     		b	.L8
 1158              	.LVL71:
 1159              	.L94:
 289:Drivers/STM32F0xx_HAL_Driver/Src/stm32f0xx_hal_rcc.c ****       }
 1160              		.loc 1 289 16 view .LVU345
 1161 04d2 0120     		movs	r0, #1
 1162              	.LVL72:
 289:Drivers/STM32F0xx_HAL_Driver/Src/stm32f0xx_hal_rcc.c ****       }
 1163              		.loc 1 289 16 view .LVU346
 1164 04d4 04E0     		b	.L8
 1165              	.LVL73:
 1166              	.L73:
 343:Drivers/STM32F0xx_HAL_Driver/Src/stm32f0xx_hal_rcc.c ****       }
 1167              		.loc 1 343 16 view .LVU347
 1168 04d6 0120     		movs	r0, #1
 1169 04d8 02E0     		b	.L8
 1170              	.L84:
 582:Drivers/STM32F0xx_HAL_Driver/Src/stm32f0xx_hal_rcc.c ****       }
 1171              		.loc 1 582 16 view .LVU348
 1172 04da 0120     		movs	r0, #1
 1173 04dc 00E0     		b	.L8
 1174              	.L87:
 1175              		.loc 1 699 10 view .LVU349
 1176 04de 0020     		movs	r0, #0
 1177              	.LVL74:
 1178              	.L8:
 700:Drivers/STM32F0xx_HAL_Driver/Src/stm32f0xx_hal_rcc.c **** }
 1179              		.loc 1 700 1 view .LVU350
 1180 04e0 02B0     		add	sp, sp, #8
 1181              		@ sp needed
 1182 04e2 70BD     		pop	{r4, r5, r6, pc}
 1183              	.LVL75:
 1184              	.L88:
 695:Drivers/STM32F0xx_HAL_Driver/Src/stm32f0xx_hal_rcc.c ****     }
 1185              		.loc 1 695 14 view .LVU351
 1186 04e4 0120     		movs	r0, #1
 1187 04e6 FBE7     		b	.L8
 1188              	.L112:
 1189              		.align	2
 1190              	.L111:
 1191 04e8 00100240 		.word	1073876992
 1192 04ec FFFFFFEF 		.word	-268435457
 1193 04f0 FFFFFFFE 		.word	-16777217
 1194 04f4 FFFFFEFF 		.word	-65537
ARM GAS  /tmp/cc68hz7R.s 			page 37


 1195 04f8 FF7FC2FF 		.word	-4030465
 1196              		.cfi_endproc
 1197              	.LFE38:
 1199              		.section	.text.HAL_RCC_MCOConfig,"ax",%progbits
 1200              		.align	1
 1201              		.global	HAL_RCC_MCOConfig
 1202              		.syntax unified
 1203              		.code	16
 1204              		.thumb_func
 1205              		.fpu softvfp
 1207              	HAL_RCC_MCOConfig:
 1208              	.LVL76:
 1209              	.LFB40:
 701:Drivers/STM32F0xx_HAL_Driver/Src/stm32f0xx_hal_rcc.c **** 
 702:Drivers/STM32F0xx_HAL_Driver/Src/stm32f0xx_hal_rcc.c **** /**
 703:Drivers/STM32F0xx_HAL_Driver/Src/stm32f0xx_hal_rcc.c ****   * @brief  Initializes the CPU, AHB and APB buses clocks according to the specified 
 704:Drivers/STM32F0xx_HAL_Driver/Src/stm32f0xx_hal_rcc.c ****   *         parameters in the RCC_ClkInitStruct.
 705:Drivers/STM32F0xx_HAL_Driver/Src/stm32f0xx_hal_rcc.c ****   * @param  RCC_ClkInitStruct pointer to an RCC_OscInitTypeDef structure that
 706:Drivers/STM32F0xx_HAL_Driver/Src/stm32f0xx_hal_rcc.c ****   *         contains the configuration information for the RCC peripheral.
 707:Drivers/STM32F0xx_HAL_Driver/Src/stm32f0xx_hal_rcc.c ****   * @param  FLatency FLASH Latency                   
 708:Drivers/STM32F0xx_HAL_Driver/Src/stm32f0xx_hal_rcc.c ****   *          The value of this parameter depend on device used within the same series
 709:Drivers/STM32F0xx_HAL_Driver/Src/stm32f0xx_hal_rcc.c ****   * @note   The SystemCoreClock CMSIS variable is used to store System Clock Frequency 
 710:Drivers/STM32F0xx_HAL_Driver/Src/stm32f0xx_hal_rcc.c ****   *         and updated by @ref HAL_RCC_GetHCLKFreq() function called within this function
 711:Drivers/STM32F0xx_HAL_Driver/Src/stm32f0xx_hal_rcc.c ****   *
 712:Drivers/STM32F0xx_HAL_Driver/Src/stm32f0xx_hal_rcc.c ****   * @note   The HSI is used (enabled by hardware) as system clock source after
 713:Drivers/STM32F0xx_HAL_Driver/Src/stm32f0xx_hal_rcc.c ****   *         start-up from Reset, wake-up from STOP and STANDBY mode, or in case
 714:Drivers/STM32F0xx_HAL_Driver/Src/stm32f0xx_hal_rcc.c ****   *         of failure of the HSE used directly or indirectly as system clock
 715:Drivers/STM32F0xx_HAL_Driver/Src/stm32f0xx_hal_rcc.c ****   *         (if the Clock Security System CSS is enabled).
 716:Drivers/STM32F0xx_HAL_Driver/Src/stm32f0xx_hal_rcc.c ****   *           
 717:Drivers/STM32F0xx_HAL_Driver/Src/stm32f0xx_hal_rcc.c ****   * @note   A switch from one clock source to another occurs only if the target
 718:Drivers/STM32F0xx_HAL_Driver/Src/stm32f0xx_hal_rcc.c ****   *         clock source is ready (clock stable after start-up delay or PLL locked). 
 719:Drivers/STM32F0xx_HAL_Driver/Src/stm32f0xx_hal_rcc.c ****   *         If a clock source which is not yet ready is selected, the switch will
 720:Drivers/STM32F0xx_HAL_Driver/Src/stm32f0xx_hal_rcc.c ****   *         occur when the clock source will be ready. 
 721:Drivers/STM32F0xx_HAL_Driver/Src/stm32f0xx_hal_rcc.c ****   *         You can use @ref HAL_RCC_GetClockConfig() function to know which clock is
 722:Drivers/STM32F0xx_HAL_Driver/Src/stm32f0xx_hal_rcc.c ****   *         currently used as system clock source.
 723:Drivers/STM32F0xx_HAL_Driver/Src/stm32f0xx_hal_rcc.c ****   * @retval HAL status
 724:Drivers/STM32F0xx_HAL_Driver/Src/stm32f0xx_hal_rcc.c ****   */
 725:Drivers/STM32F0xx_HAL_Driver/Src/stm32f0xx_hal_rcc.c **** HAL_StatusTypeDef HAL_RCC_ClockConfig(RCC_ClkInitTypeDef  *RCC_ClkInitStruct, uint32_t FLatency)
 726:Drivers/STM32F0xx_HAL_Driver/Src/stm32f0xx_hal_rcc.c **** {
 727:Drivers/STM32F0xx_HAL_Driver/Src/stm32f0xx_hal_rcc.c ****   uint32_t tickstart = 0U;
 728:Drivers/STM32F0xx_HAL_Driver/Src/stm32f0xx_hal_rcc.c ****   
 729:Drivers/STM32F0xx_HAL_Driver/Src/stm32f0xx_hal_rcc.c ****   /* Check the parameters */
 730:Drivers/STM32F0xx_HAL_Driver/Src/stm32f0xx_hal_rcc.c ****   assert_param(RCC_ClkInitStruct != NULL);
 731:Drivers/STM32F0xx_HAL_Driver/Src/stm32f0xx_hal_rcc.c ****   assert_param(IS_RCC_CLOCKTYPE(RCC_ClkInitStruct->ClockType));
 732:Drivers/STM32F0xx_HAL_Driver/Src/stm32f0xx_hal_rcc.c ****   assert_param(IS_FLASH_LATENCY(FLatency));
 733:Drivers/STM32F0xx_HAL_Driver/Src/stm32f0xx_hal_rcc.c **** 
 734:Drivers/STM32F0xx_HAL_Driver/Src/stm32f0xx_hal_rcc.c ****   /* To correctly read data from FLASH memory, the number of wait states (LATENCY) 
 735:Drivers/STM32F0xx_HAL_Driver/Src/stm32f0xx_hal_rcc.c ****   must be correctly programmed according to the frequency of the CPU clock 
 736:Drivers/STM32F0xx_HAL_Driver/Src/stm32f0xx_hal_rcc.c ****     (HCLK) of the device. */
 737:Drivers/STM32F0xx_HAL_Driver/Src/stm32f0xx_hal_rcc.c **** 
 738:Drivers/STM32F0xx_HAL_Driver/Src/stm32f0xx_hal_rcc.c ****   /* Increasing the number of wait states because of higher CPU frequency */
 739:Drivers/STM32F0xx_HAL_Driver/Src/stm32f0xx_hal_rcc.c ****   if(FLatency > (FLASH->ACR & FLASH_ACR_LATENCY))
 740:Drivers/STM32F0xx_HAL_Driver/Src/stm32f0xx_hal_rcc.c ****   {    
 741:Drivers/STM32F0xx_HAL_Driver/Src/stm32f0xx_hal_rcc.c ****     /* Program the new number of wait states to the LATENCY bits in the FLASH_ACR register */
 742:Drivers/STM32F0xx_HAL_Driver/Src/stm32f0xx_hal_rcc.c ****     __HAL_FLASH_SET_LATENCY(FLatency);
 743:Drivers/STM32F0xx_HAL_Driver/Src/stm32f0xx_hal_rcc.c ****     
 744:Drivers/STM32F0xx_HAL_Driver/Src/stm32f0xx_hal_rcc.c ****     /* Check that the new number of wait states is taken into account to access the Flash
ARM GAS  /tmp/cc68hz7R.s 			page 38


 745:Drivers/STM32F0xx_HAL_Driver/Src/stm32f0xx_hal_rcc.c ****     memory by reading the FLASH_ACR register */
 746:Drivers/STM32F0xx_HAL_Driver/Src/stm32f0xx_hal_rcc.c ****     if((FLASH->ACR & FLASH_ACR_LATENCY) != FLatency)
 747:Drivers/STM32F0xx_HAL_Driver/Src/stm32f0xx_hal_rcc.c ****     {
 748:Drivers/STM32F0xx_HAL_Driver/Src/stm32f0xx_hal_rcc.c ****       return HAL_ERROR;
 749:Drivers/STM32F0xx_HAL_Driver/Src/stm32f0xx_hal_rcc.c ****     }
 750:Drivers/STM32F0xx_HAL_Driver/Src/stm32f0xx_hal_rcc.c ****   }
 751:Drivers/STM32F0xx_HAL_Driver/Src/stm32f0xx_hal_rcc.c **** 
 752:Drivers/STM32F0xx_HAL_Driver/Src/stm32f0xx_hal_rcc.c ****   /*-------------------------- HCLK Configuration --------------------------*/
 753:Drivers/STM32F0xx_HAL_Driver/Src/stm32f0xx_hal_rcc.c ****   if(((RCC_ClkInitStruct->ClockType) & RCC_CLOCKTYPE_HCLK) == RCC_CLOCKTYPE_HCLK)
 754:Drivers/STM32F0xx_HAL_Driver/Src/stm32f0xx_hal_rcc.c ****   {
 755:Drivers/STM32F0xx_HAL_Driver/Src/stm32f0xx_hal_rcc.c ****     assert_param(IS_RCC_HCLK(RCC_ClkInitStruct->AHBCLKDivider));
 756:Drivers/STM32F0xx_HAL_Driver/Src/stm32f0xx_hal_rcc.c ****     MODIFY_REG(RCC->CFGR, RCC_CFGR_HPRE, RCC_ClkInitStruct->AHBCLKDivider);
 757:Drivers/STM32F0xx_HAL_Driver/Src/stm32f0xx_hal_rcc.c ****   }
 758:Drivers/STM32F0xx_HAL_Driver/Src/stm32f0xx_hal_rcc.c **** 
 759:Drivers/STM32F0xx_HAL_Driver/Src/stm32f0xx_hal_rcc.c ****   /*------------------------- SYSCLK Configuration ---------------------------*/ 
 760:Drivers/STM32F0xx_HAL_Driver/Src/stm32f0xx_hal_rcc.c ****   if(((RCC_ClkInitStruct->ClockType) & RCC_CLOCKTYPE_SYSCLK) == RCC_CLOCKTYPE_SYSCLK)
 761:Drivers/STM32F0xx_HAL_Driver/Src/stm32f0xx_hal_rcc.c ****   {    
 762:Drivers/STM32F0xx_HAL_Driver/Src/stm32f0xx_hal_rcc.c ****     assert_param(IS_RCC_SYSCLKSOURCE(RCC_ClkInitStruct->SYSCLKSource));
 763:Drivers/STM32F0xx_HAL_Driver/Src/stm32f0xx_hal_rcc.c ****     
 764:Drivers/STM32F0xx_HAL_Driver/Src/stm32f0xx_hal_rcc.c ****     /* HSE is selected as System Clock Source */
 765:Drivers/STM32F0xx_HAL_Driver/Src/stm32f0xx_hal_rcc.c ****     if(RCC_ClkInitStruct->SYSCLKSource == RCC_SYSCLKSOURCE_HSE)
 766:Drivers/STM32F0xx_HAL_Driver/Src/stm32f0xx_hal_rcc.c ****     {
 767:Drivers/STM32F0xx_HAL_Driver/Src/stm32f0xx_hal_rcc.c ****       /* Check the HSE ready flag */  
 768:Drivers/STM32F0xx_HAL_Driver/Src/stm32f0xx_hal_rcc.c ****       if(__HAL_RCC_GET_FLAG(RCC_FLAG_HSERDY) == RESET)
 769:Drivers/STM32F0xx_HAL_Driver/Src/stm32f0xx_hal_rcc.c ****       {
 770:Drivers/STM32F0xx_HAL_Driver/Src/stm32f0xx_hal_rcc.c ****         return HAL_ERROR;
 771:Drivers/STM32F0xx_HAL_Driver/Src/stm32f0xx_hal_rcc.c ****       }
 772:Drivers/STM32F0xx_HAL_Driver/Src/stm32f0xx_hal_rcc.c ****     }
 773:Drivers/STM32F0xx_HAL_Driver/Src/stm32f0xx_hal_rcc.c ****     /* PLL is selected as System Clock Source */
 774:Drivers/STM32F0xx_HAL_Driver/Src/stm32f0xx_hal_rcc.c ****     else if(RCC_ClkInitStruct->SYSCLKSource == RCC_SYSCLKSOURCE_PLLCLK)
 775:Drivers/STM32F0xx_HAL_Driver/Src/stm32f0xx_hal_rcc.c ****     {
 776:Drivers/STM32F0xx_HAL_Driver/Src/stm32f0xx_hal_rcc.c ****       /* Check the PLL ready flag */  
 777:Drivers/STM32F0xx_HAL_Driver/Src/stm32f0xx_hal_rcc.c ****       if(__HAL_RCC_GET_FLAG(RCC_FLAG_PLLRDY) == RESET)
 778:Drivers/STM32F0xx_HAL_Driver/Src/stm32f0xx_hal_rcc.c ****       {
 779:Drivers/STM32F0xx_HAL_Driver/Src/stm32f0xx_hal_rcc.c ****         return HAL_ERROR;
 780:Drivers/STM32F0xx_HAL_Driver/Src/stm32f0xx_hal_rcc.c ****       }
 781:Drivers/STM32F0xx_HAL_Driver/Src/stm32f0xx_hal_rcc.c ****     }
 782:Drivers/STM32F0xx_HAL_Driver/Src/stm32f0xx_hal_rcc.c **** #if defined(RCC_CFGR_SWS_HSI48)
 783:Drivers/STM32F0xx_HAL_Driver/Src/stm32f0xx_hal_rcc.c ****     /* HSI48 is selected as System Clock Source */
 784:Drivers/STM32F0xx_HAL_Driver/Src/stm32f0xx_hal_rcc.c ****     else if(RCC_ClkInitStruct->SYSCLKSource == RCC_SYSCLKSOURCE_HSI48)
 785:Drivers/STM32F0xx_HAL_Driver/Src/stm32f0xx_hal_rcc.c ****     {
 786:Drivers/STM32F0xx_HAL_Driver/Src/stm32f0xx_hal_rcc.c ****       /* Check the HSI48 ready flag */
 787:Drivers/STM32F0xx_HAL_Driver/Src/stm32f0xx_hal_rcc.c ****       if(__HAL_RCC_GET_FLAG(RCC_FLAG_HSI48RDY) == RESET)
 788:Drivers/STM32F0xx_HAL_Driver/Src/stm32f0xx_hal_rcc.c ****       {
 789:Drivers/STM32F0xx_HAL_Driver/Src/stm32f0xx_hal_rcc.c ****         return HAL_ERROR;
 790:Drivers/STM32F0xx_HAL_Driver/Src/stm32f0xx_hal_rcc.c ****       }
 791:Drivers/STM32F0xx_HAL_Driver/Src/stm32f0xx_hal_rcc.c ****     }
 792:Drivers/STM32F0xx_HAL_Driver/Src/stm32f0xx_hal_rcc.c **** #endif /* RCC_CFGR_SWS_HSI48 */
 793:Drivers/STM32F0xx_HAL_Driver/Src/stm32f0xx_hal_rcc.c ****     /* HSI is selected as System Clock Source */
 794:Drivers/STM32F0xx_HAL_Driver/Src/stm32f0xx_hal_rcc.c ****     else
 795:Drivers/STM32F0xx_HAL_Driver/Src/stm32f0xx_hal_rcc.c ****     {
 796:Drivers/STM32F0xx_HAL_Driver/Src/stm32f0xx_hal_rcc.c ****       /* Check the HSI ready flag */  
 797:Drivers/STM32F0xx_HAL_Driver/Src/stm32f0xx_hal_rcc.c ****       if(__HAL_RCC_GET_FLAG(RCC_FLAG_HSIRDY) == RESET)
 798:Drivers/STM32F0xx_HAL_Driver/Src/stm32f0xx_hal_rcc.c ****       {
 799:Drivers/STM32F0xx_HAL_Driver/Src/stm32f0xx_hal_rcc.c ****         return HAL_ERROR;
 800:Drivers/STM32F0xx_HAL_Driver/Src/stm32f0xx_hal_rcc.c ****       }
 801:Drivers/STM32F0xx_HAL_Driver/Src/stm32f0xx_hal_rcc.c ****     }
ARM GAS  /tmp/cc68hz7R.s 			page 39


 802:Drivers/STM32F0xx_HAL_Driver/Src/stm32f0xx_hal_rcc.c ****     __HAL_RCC_SYSCLK_CONFIG(RCC_ClkInitStruct->SYSCLKSource);
 803:Drivers/STM32F0xx_HAL_Driver/Src/stm32f0xx_hal_rcc.c **** 
 804:Drivers/STM32F0xx_HAL_Driver/Src/stm32f0xx_hal_rcc.c ****     /* Get Start Tick */
 805:Drivers/STM32F0xx_HAL_Driver/Src/stm32f0xx_hal_rcc.c ****     tickstart = HAL_GetTick();
 806:Drivers/STM32F0xx_HAL_Driver/Src/stm32f0xx_hal_rcc.c ****     
 807:Drivers/STM32F0xx_HAL_Driver/Src/stm32f0xx_hal_rcc.c ****     if(RCC_ClkInitStruct->SYSCLKSource == RCC_SYSCLKSOURCE_HSE)
 808:Drivers/STM32F0xx_HAL_Driver/Src/stm32f0xx_hal_rcc.c ****     {
 809:Drivers/STM32F0xx_HAL_Driver/Src/stm32f0xx_hal_rcc.c ****       while (__HAL_RCC_GET_SYSCLK_SOURCE() != RCC_SYSCLKSOURCE_STATUS_HSE)
 810:Drivers/STM32F0xx_HAL_Driver/Src/stm32f0xx_hal_rcc.c ****       {
 811:Drivers/STM32F0xx_HAL_Driver/Src/stm32f0xx_hal_rcc.c ****         if((HAL_GetTick() - tickstart ) > CLOCKSWITCH_TIMEOUT_VALUE)
 812:Drivers/STM32F0xx_HAL_Driver/Src/stm32f0xx_hal_rcc.c ****         {
 813:Drivers/STM32F0xx_HAL_Driver/Src/stm32f0xx_hal_rcc.c ****           return HAL_TIMEOUT;
 814:Drivers/STM32F0xx_HAL_Driver/Src/stm32f0xx_hal_rcc.c ****         }
 815:Drivers/STM32F0xx_HAL_Driver/Src/stm32f0xx_hal_rcc.c ****       }
 816:Drivers/STM32F0xx_HAL_Driver/Src/stm32f0xx_hal_rcc.c ****     }
 817:Drivers/STM32F0xx_HAL_Driver/Src/stm32f0xx_hal_rcc.c ****     else if(RCC_ClkInitStruct->SYSCLKSource == RCC_SYSCLKSOURCE_PLLCLK)
 818:Drivers/STM32F0xx_HAL_Driver/Src/stm32f0xx_hal_rcc.c ****     {
 819:Drivers/STM32F0xx_HAL_Driver/Src/stm32f0xx_hal_rcc.c ****       while (__HAL_RCC_GET_SYSCLK_SOURCE() != RCC_SYSCLKSOURCE_STATUS_PLLCLK)
 820:Drivers/STM32F0xx_HAL_Driver/Src/stm32f0xx_hal_rcc.c ****       {
 821:Drivers/STM32F0xx_HAL_Driver/Src/stm32f0xx_hal_rcc.c ****         if((HAL_GetTick() - tickstart ) > CLOCKSWITCH_TIMEOUT_VALUE)
 822:Drivers/STM32F0xx_HAL_Driver/Src/stm32f0xx_hal_rcc.c ****         {
 823:Drivers/STM32F0xx_HAL_Driver/Src/stm32f0xx_hal_rcc.c ****           return HAL_TIMEOUT;
 824:Drivers/STM32F0xx_HAL_Driver/Src/stm32f0xx_hal_rcc.c ****         }
 825:Drivers/STM32F0xx_HAL_Driver/Src/stm32f0xx_hal_rcc.c ****       }
 826:Drivers/STM32F0xx_HAL_Driver/Src/stm32f0xx_hal_rcc.c ****     }
 827:Drivers/STM32F0xx_HAL_Driver/Src/stm32f0xx_hal_rcc.c **** #if defined(RCC_CFGR_SWS_HSI48)
 828:Drivers/STM32F0xx_HAL_Driver/Src/stm32f0xx_hal_rcc.c ****     else if(RCC_ClkInitStruct->SYSCLKSource == RCC_SYSCLKSOURCE_HSI48)
 829:Drivers/STM32F0xx_HAL_Driver/Src/stm32f0xx_hal_rcc.c ****     {
 830:Drivers/STM32F0xx_HAL_Driver/Src/stm32f0xx_hal_rcc.c ****       while (__HAL_RCC_GET_SYSCLK_SOURCE() != RCC_SYSCLKSOURCE_STATUS_HSI48)
 831:Drivers/STM32F0xx_HAL_Driver/Src/stm32f0xx_hal_rcc.c ****       {
 832:Drivers/STM32F0xx_HAL_Driver/Src/stm32f0xx_hal_rcc.c ****         if((HAL_GetTick() - tickstart) > CLOCKSWITCH_TIMEOUT_VALUE)
 833:Drivers/STM32F0xx_HAL_Driver/Src/stm32f0xx_hal_rcc.c ****         {
 834:Drivers/STM32F0xx_HAL_Driver/Src/stm32f0xx_hal_rcc.c ****           return HAL_TIMEOUT;
 835:Drivers/STM32F0xx_HAL_Driver/Src/stm32f0xx_hal_rcc.c ****         }
 836:Drivers/STM32F0xx_HAL_Driver/Src/stm32f0xx_hal_rcc.c ****       }
 837:Drivers/STM32F0xx_HAL_Driver/Src/stm32f0xx_hal_rcc.c ****     }
 838:Drivers/STM32F0xx_HAL_Driver/Src/stm32f0xx_hal_rcc.c **** #endif /* RCC_CFGR_SWS_HSI48 */
 839:Drivers/STM32F0xx_HAL_Driver/Src/stm32f0xx_hal_rcc.c ****     else
 840:Drivers/STM32F0xx_HAL_Driver/Src/stm32f0xx_hal_rcc.c ****     {
 841:Drivers/STM32F0xx_HAL_Driver/Src/stm32f0xx_hal_rcc.c ****       while (__HAL_RCC_GET_SYSCLK_SOURCE() != RCC_SYSCLKSOURCE_STATUS_HSI)
 842:Drivers/STM32F0xx_HAL_Driver/Src/stm32f0xx_hal_rcc.c ****       {
 843:Drivers/STM32F0xx_HAL_Driver/Src/stm32f0xx_hal_rcc.c ****         if((HAL_GetTick() - tickstart ) > CLOCKSWITCH_TIMEOUT_VALUE)
 844:Drivers/STM32F0xx_HAL_Driver/Src/stm32f0xx_hal_rcc.c ****         {
 845:Drivers/STM32F0xx_HAL_Driver/Src/stm32f0xx_hal_rcc.c ****           return HAL_TIMEOUT;
 846:Drivers/STM32F0xx_HAL_Driver/Src/stm32f0xx_hal_rcc.c ****         }
 847:Drivers/STM32F0xx_HAL_Driver/Src/stm32f0xx_hal_rcc.c ****       }
 848:Drivers/STM32F0xx_HAL_Driver/Src/stm32f0xx_hal_rcc.c ****     }      
 849:Drivers/STM32F0xx_HAL_Driver/Src/stm32f0xx_hal_rcc.c ****   }    
 850:Drivers/STM32F0xx_HAL_Driver/Src/stm32f0xx_hal_rcc.c ****   /* Decreasing the number of wait states because of lower CPU frequency */
 851:Drivers/STM32F0xx_HAL_Driver/Src/stm32f0xx_hal_rcc.c ****   if(FLatency < (FLASH->ACR & FLASH_ACR_LATENCY))
 852:Drivers/STM32F0xx_HAL_Driver/Src/stm32f0xx_hal_rcc.c ****   {    
 853:Drivers/STM32F0xx_HAL_Driver/Src/stm32f0xx_hal_rcc.c ****     /* Program the new number of wait states to the LATENCY bits in the FLASH_ACR register */
 854:Drivers/STM32F0xx_HAL_Driver/Src/stm32f0xx_hal_rcc.c ****     __HAL_FLASH_SET_LATENCY(FLatency);
 855:Drivers/STM32F0xx_HAL_Driver/Src/stm32f0xx_hal_rcc.c ****     
 856:Drivers/STM32F0xx_HAL_Driver/Src/stm32f0xx_hal_rcc.c ****     /* Check that the new number of wait states is taken into account to access the Flash
 857:Drivers/STM32F0xx_HAL_Driver/Src/stm32f0xx_hal_rcc.c ****     memory by reading the FLASH_ACR register */
 858:Drivers/STM32F0xx_HAL_Driver/Src/stm32f0xx_hal_rcc.c ****     if((FLASH->ACR & FLASH_ACR_LATENCY) != FLatency)
ARM GAS  /tmp/cc68hz7R.s 			page 40


 859:Drivers/STM32F0xx_HAL_Driver/Src/stm32f0xx_hal_rcc.c ****     {
 860:Drivers/STM32F0xx_HAL_Driver/Src/stm32f0xx_hal_rcc.c ****       return HAL_ERROR;
 861:Drivers/STM32F0xx_HAL_Driver/Src/stm32f0xx_hal_rcc.c ****     }
 862:Drivers/STM32F0xx_HAL_Driver/Src/stm32f0xx_hal_rcc.c ****   }    
 863:Drivers/STM32F0xx_HAL_Driver/Src/stm32f0xx_hal_rcc.c **** 
 864:Drivers/STM32F0xx_HAL_Driver/Src/stm32f0xx_hal_rcc.c ****   /*-------------------------- PCLK1 Configuration ---------------------------*/ 
 865:Drivers/STM32F0xx_HAL_Driver/Src/stm32f0xx_hal_rcc.c ****   if(((RCC_ClkInitStruct->ClockType) & RCC_CLOCKTYPE_PCLK1) == RCC_CLOCKTYPE_PCLK1)
 866:Drivers/STM32F0xx_HAL_Driver/Src/stm32f0xx_hal_rcc.c ****   {
 867:Drivers/STM32F0xx_HAL_Driver/Src/stm32f0xx_hal_rcc.c ****     assert_param(IS_RCC_PCLK(RCC_ClkInitStruct->APB1CLKDivider));
 868:Drivers/STM32F0xx_HAL_Driver/Src/stm32f0xx_hal_rcc.c ****     MODIFY_REG(RCC->CFGR, RCC_CFGR_PPRE, RCC_ClkInitStruct->APB1CLKDivider);
 869:Drivers/STM32F0xx_HAL_Driver/Src/stm32f0xx_hal_rcc.c ****   }
 870:Drivers/STM32F0xx_HAL_Driver/Src/stm32f0xx_hal_rcc.c ****   
 871:Drivers/STM32F0xx_HAL_Driver/Src/stm32f0xx_hal_rcc.c ****   /* Update the SystemCoreClock global variable */
 872:Drivers/STM32F0xx_HAL_Driver/Src/stm32f0xx_hal_rcc.c ****   SystemCoreClock = HAL_RCC_GetSysClockFreq() >> AHBPrescTable[(RCC->CFGR & RCC_CFGR_HPRE)>> RCC_CF
 873:Drivers/STM32F0xx_HAL_Driver/Src/stm32f0xx_hal_rcc.c **** 
 874:Drivers/STM32F0xx_HAL_Driver/Src/stm32f0xx_hal_rcc.c ****   /* Configure the source of time base considering new system clocks settings*/
 875:Drivers/STM32F0xx_HAL_Driver/Src/stm32f0xx_hal_rcc.c ****   HAL_InitTick (TICK_INT_PRIORITY);
 876:Drivers/STM32F0xx_HAL_Driver/Src/stm32f0xx_hal_rcc.c ****   
 877:Drivers/STM32F0xx_HAL_Driver/Src/stm32f0xx_hal_rcc.c ****   return HAL_OK;
 878:Drivers/STM32F0xx_HAL_Driver/Src/stm32f0xx_hal_rcc.c **** }
 879:Drivers/STM32F0xx_HAL_Driver/Src/stm32f0xx_hal_rcc.c **** 
 880:Drivers/STM32F0xx_HAL_Driver/Src/stm32f0xx_hal_rcc.c **** /**
 881:Drivers/STM32F0xx_HAL_Driver/Src/stm32f0xx_hal_rcc.c ****   * @}
 882:Drivers/STM32F0xx_HAL_Driver/Src/stm32f0xx_hal_rcc.c ****   */
 883:Drivers/STM32F0xx_HAL_Driver/Src/stm32f0xx_hal_rcc.c **** 
 884:Drivers/STM32F0xx_HAL_Driver/Src/stm32f0xx_hal_rcc.c **** /** @defgroup RCC_Exported_Functions_Group2 Peripheral Control functions
 885:Drivers/STM32F0xx_HAL_Driver/Src/stm32f0xx_hal_rcc.c ****   *  @brief   RCC clocks control functions
 886:Drivers/STM32F0xx_HAL_Driver/Src/stm32f0xx_hal_rcc.c ****   *
 887:Drivers/STM32F0xx_HAL_Driver/Src/stm32f0xx_hal_rcc.c ****   @verbatim   
 888:Drivers/STM32F0xx_HAL_Driver/Src/stm32f0xx_hal_rcc.c ****   ===============================================================================
 889:Drivers/STM32F0xx_HAL_Driver/Src/stm32f0xx_hal_rcc.c ****                   ##### Peripheral Control functions #####
 890:Drivers/STM32F0xx_HAL_Driver/Src/stm32f0xx_hal_rcc.c ****   ===============================================================================  
 891:Drivers/STM32F0xx_HAL_Driver/Src/stm32f0xx_hal_rcc.c ****     [..]
 892:Drivers/STM32F0xx_HAL_Driver/Src/stm32f0xx_hal_rcc.c ****     This subsection provides a set of functions allowing to control the RCC Clocks 
 893:Drivers/STM32F0xx_HAL_Driver/Src/stm32f0xx_hal_rcc.c ****     frequencies.
 894:Drivers/STM32F0xx_HAL_Driver/Src/stm32f0xx_hal_rcc.c **** 
 895:Drivers/STM32F0xx_HAL_Driver/Src/stm32f0xx_hal_rcc.c ****   @endverbatim
 896:Drivers/STM32F0xx_HAL_Driver/Src/stm32f0xx_hal_rcc.c ****   * @{
 897:Drivers/STM32F0xx_HAL_Driver/Src/stm32f0xx_hal_rcc.c ****   */
 898:Drivers/STM32F0xx_HAL_Driver/Src/stm32f0xx_hal_rcc.c **** 
 899:Drivers/STM32F0xx_HAL_Driver/Src/stm32f0xx_hal_rcc.c **** #if defined(RCC_CFGR_MCOPRE)
 900:Drivers/STM32F0xx_HAL_Driver/Src/stm32f0xx_hal_rcc.c **** /**
 901:Drivers/STM32F0xx_HAL_Driver/Src/stm32f0xx_hal_rcc.c ****   * @brief  Selects the clock source to output on MCO pin.
 902:Drivers/STM32F0xx_HAL_Driver/Src/stm32f0xx_hal_rcc.c ****   * @note   MCO pin should be configured in alternate function mode.
 903:Drivers/STM32F0xx_HAL_Driver/Src/stm32f0xx_hal_rcc.c ****   * @param  RCC_MCOx specifies the output direction for the clock source.
 904:Drivers/STM32F0xx_HAL_Driver/Src/stm32f0xx_hal_rcc.c ****   *          This parameter can be one of the following values:
 905:Drivers/STM32F0xx_HAL_Driver/Src/stm32f0xx_hal_rcc.c ****   *            @arg @ref RCC_MCO1 Clock source to output on MCO1 pin(PA8).
 906:Drivers/STM32F0xx_HAL_Driver/Src/stm32f0xx_hal_rcc.c ****   * @param  RCC_MCOSource specifies the clock source to output.
 907:Drivers/STM32F0xx_HAL_Driver/Src/stm32f0xx_hal_rcc.c ****   *          This parameter can be one of the following values:
 908:Drivers/STM32F0xx_HAL_Driver/Src/stm32f0xx_hal_rcc.c ****   *            @arg @ref RCC_MCO1SOURCE_NOCLOCK     No clock selected
 909:Drivers/STM32F0xx_HAL_Driver/Src/stm32f0xx_hal_rcc.c ****   *            @arg @ref RCC_MCO1SOURCE_SYSCLK      System Clock selected as MCO clock
 910:Drivers/STM32F0xx_HAL_Driver/Src/stm32f0xx_hal_rcc.c ****   *            @arg @ref RCC_MCO1SOURCE_HSI         HSI selected as MCO clock
 911:Drivers/STM32F0xx_HAL_Driver/Src/stm32f0xx_hal_rcc.c ****   *            @arg @ref RCC_MCO1SOURCE_HSE         HSE selected as MCO clock
 912:Drivers/STM32F0xx_HAL_Driver/Src/stm32f0xx_hal_rcc.c ****   *            @arg @ref RCC_MCO1SOURCE_LSI         LSI selected as MCO clock
 913:Drivers/STM32F0xx_HAL_Driver/Src/stm32f0xx_hal_rcc.c ****   *            @arg @ref RCC_MCO1SOURCE_LSE         LSE selected as MCO clock
 914:Drivers/STM32F0xx_HAL_Driver/Src/stm32f0xx_hal_rcc.c ****   *            @arg @ref RCC_MCO1SOURCE_HSI14       HSI14 selected as MCO clock
 915:Drivers/STM32F0xx_HAL_Driver/Src/stm32f0xx_hal_rcc.c ****   @if STM32F042x6
ARM GAS  /tmp/cc68hz7R.s 			page 41


 916:Drivers/STM32F0xx_HAL_Driver/Src/stm32f0xx_hal_rcc.c ****   *            @arg @ref RCC_MCO1SOURCE_HSI48       HSI48 selected as MCO clock
 917:Drivers/STM32F0xx_HAL_Driver/Src/stm32f0xx_hal_rcc.c ****   *            @arg @ref RCC_MCO1SOURCE_PLLCLK      PLLCLK selected as MCO clock
 918:Drivers/STM32F0xx_HAL_Driver/Src/stm32f0xx_hal_rcc.c ****   @elseif STM32F048xx
 919:Drivers/STM32F0xx_HAL_Driver/Src/stm32f0xx_hal_rcc.c ****   *            @arg @ref RCC_MCO1SOURCE_HSI48       HSI48 selected as MCO clock
 920:Drivers/STM32F0xx_HAL_Driver/Src/stm32f0xx_hal_rcc.c ****   *            @arg @ref RCC_MCO1SOURCE_PLLCLK      PLLCLK selected as MCO clock
 921:Drivers/STM32F0xx_HAL_Driver/Src/stm32f0xx_hal_rcc.c ****   @elseif STM32F071xB
 922:Drivers/STM32F0xx_HAL_Driver/Src/stm32f0xx_hal_rcc.c ****   *            @arg @ref RCC_MCO1SOURCE_HSI48       HSI48 selected as MCO clock
 923:Drivers/STM32F0xx_HAL_Driver/Src/stm32f0xx_hal_rcc.c ****   *            @arg @ref RCC_MCO1SOURCE_PLLCLK      PLLCLK selected as MCO clock
 924:Drivers/STM32F0xx_HAL_Driver/Src/stm32f0xx_hal_rcc.c ****   @elseif STM32F072xB
 925:Drivers/STM32F0xx_HAL_Driver/Src/stm32f0xx_hal_rcc.c ****   *            @arg @ref RCC_MCO1SOURCE_HSI48       HSI48 selected as MCO clock
 926:Drivers/STM32F0xx_HAL_Driver/Src/stm32f0xx_hal_rcc.c ****   *            @arg @ref RCC_MCO1SOURCE_PLLCLK      PLLCLK selected as MCO clock
 927:Drivers/STM32F0xx_HAL_Driver/Src/stm32f0xx_hal_rcc.c ****   @elseif STM32F078xx
 928:Drivers/STM32F0xx_HAL_Driver/Src/stm32f0xx_hal_rcc.c ****   *            @arg @ref RCC_MCO1SOURCE_HSI48       HSI48 selected as MCO clock
 929:Drivers/STM32F0xx_HAL_Driver/Src/stm32f0xx_hal_rcc.c ****   *            @arg @ref RCC_MCO1SOURCE_PLLCLK      PLLCLK selected as MCO clock
 930:Drivers/STM32F0xx_HAL_Driver/Src/stm32f0xx_hal_rcc.c ****   @elseif STM32F091xC
 931:Drivers/STM32F0xx_HAL_Driver/Src/stm32f0xx_hal_rcc.c ****   *            @arg @ref RCC_MCO1SOURCE_HSI48       HSI48 selected as MCO clock
 932:Drivers/STM32F0xx_HAL_Driver/Src/stm32f0xx_hal_rcc.c ****   *            @arg @ref RCC_MCO1SOURCE_PLLCLK      PLLCLK selected as MCO clock
 933:Drivers/STM32F0xx_HAL_Driver/Src/stm32f0xx_hal_rcc.c ****   @elseif STM32F098xx
 934:Drivers/STM32F0xx_HAL_Driver/Src/stm32f0xx_hal_rcc.c ****   *            @arg @ref RCC_MCO1SOURCE_HSI48       HSI48 selected as MCO clock
 935:Drivers/STM32F0xx_HAL_Driver/Src/stm32f0xx_hal_rcc.c ****   *            @arg @ref RCC_MCO1SOURCE_PLLCLK      PLLCLK selected as MCO clock
 936:Drivers/STM32F0xx_HAL_Driver/Src/stm32f0xx_hal_rcc.c ****   @elif STM32F030x6
 937:Drivers/STM32F0xx_HAL_Driver/Src/stm32f0xx_hal_rcc.c ****   *            @arg @ref RCC_MCO1SOURCE_PLLCLK      PLLCLK selected as MCO clock
 938:Drivers/STM32F0xx_HAL_Driver/Src/stm32f0xx_hal_rcc.c ****   @elif STM32F030xC
 939:Drivers/STM32F0xx_HAL_Driver/Src/stm32f0xx_hal_rcc.c ****   *            @arg @ref RCC_MCO1SOURCE_PLLCLK      PLLCLK selected as MCO clock
 940:Drivers/STM32F0xx_HAL_Driver/Src/stm32f0xx_hal_rcc.c ****   @elif STM32F031x6
 941:Drivers/STM32F0xx_HAL_Driver/Src/stm32f0xx_hal_rcc.c ****   *            @arg @ref RCC_MCO1SOURCE_PLLCLK      PLLCLK selected as MCO clock
 942:Drivers/STM32F0xx_HAL_Driver/Src/stm32f0xx_hal_rcc.c ****   @elif STM32F038xx
 943:Drivers/STM32F0xx_HAL_Driver/Src/stm32f0xx_hal_rcc.c ****   *            @arg @ref RCC_MCO1SOURCE_PLLCLK      PLLCLK selected as MCO clock
 944:Drivers/STM32F0xx_HAL_Driver/Src/stm32f0xx_hal_rcc.c ****   @elif STM32F070x6
 945:Drivers/STM32F0xx_HAL_Driver/Src/stm32f0xx_hal_rcc.c ****   *            @arg @ref RCC_MCO1SOURCE_PLLCLK      PLLCLK selected as MCO clock
 946:Drivers/STM32F0xx_HAL_Driver/Src/stm32f0xx_hal_rcc.c ****   @elif STM32F070xB
 947:Drivers/STM32F0xx_HAL_Driver/Src/stm32f0xx_hal_rcc.c ****   *            @arg @ref RCC_MCO1SOURCE_PLLCLK      PLLCLK selected as MCO clock
 948:Drivers/STM32F0xx_HAL_Driver/Src/stm32f0xx_hal_rcc.c ****   @endif
 949:Drivers/STM32F0xx_HAL_Driver/Src/stm32f0xx_hal_rcc.c ****   *            @arg @ref RCC_MCO1SOURCE_PLLCLK_DIV2 PLLCLK Divided by 2 selected as MCO clock
 950:Drivers/STM32F0xx_HAL_Driver/Src/stm32f0xx_hal_rcc.c ****   * @param  RCC_MCODiv specifies the MCO DIV.
 951:Drivers/STM32F0xx_HAL_Driver/Src/stm32f0xx_hal_rcc.c ****   *          This parameter can be one of the following values:
 952:Drivers/STM32F0xx_HAL_Driver/Src/stm32f0xx_hal_rcc.c ****   *            @arg @ref RCC_MCODIV_1   no division applied to MCO clock
 953:Drivers/STM32F0xx_HAL_Driver/Src/stm32f0xx_hal_rcc.c ****   *            @arg @ref RCC_MCODIV_2   division by 2 applied to MCO clock
 954:Drivers/STM32F0xx_HAL_Driver/Src/stm32f0xx_hal_rcc.c ****   *            @arg @ref RCC_MCODIV_4   division by 4 applied to MCO clock
 955:Drivers/STM32F0xx_HAL_Driver/Src/stm32f0xx_hal_rcc.c ****   *            @arg @ref RCC_MCODIV_8   division by 8 applied to MCO clock
 956:Drivers/STM32F0xx_HAL_Driver/Src/stm32f0xx_hal_rcc.c ****   *            @arg @ref RCC_MCODIV_16  division by 16 applied to MCO clock
 957:Drivers/STM32F0xx_HAL_Driver/Src/stm32f0xx_hal_rcc.c ****   *            @arg @ref RCC_MCODIV_32  division by 32 applied to MCO clock
 958:Drivers/STM32F0xx_HAL_Driver/Src/stm32f0xx_hal_rcc.c ****   *            @arg @ref RCC_MCODIV_64  division by 64 applied to MCO clock
 959:Drivers/STM32F0xx_HAL_Driver/Src/stm32f0xx_hal_rcc.c ****   *            @arg @ref RCC_MCODIV_128 division by 128 applied to MCO clock
 960:Drivers/STM32F0xx_HAL_Driver/Src/stm32f0xx_hal_rcc.c ****   * @retval None
 961:Drivers/STM32F0xx_HAL_Driver/Src/stm32f0xx_hal_rcc.c ****   */
 962:Drivers/STM32F0xx_HAL_Driver/Src/stm32f0xx_hal_rcc.c **** #else
 963:Drivers/STM32F0xx_HAL_Driver/Src/stm32f0xx_hal_rcc.c **** /**
 964:Drivers/STM32F0xx_HAL_Driver/Src/stm32f0xx_hal_rcc.c ****   * @brief  Selects the clock source to output on MCO pin.
 965:Drivers/STM32F0xx_HAL_Driver/Src/stm32f0xx_hal_rcc.c ****   * @note   MCO pin should be configured in alternate function mode.
 966:Drivers/STM32F0xx_HAL_Driver/Src/stm32f0xx_hal_rcc.c ****   * @param  RCC_MCOx specifies the output direction for the clock source.
 967:Drivers/STM32F0xx_HAL_Driver/Src/stm32f0xx_hal_rcc.c ****   *          This parameter can be one of the following values:
 968:Drivers/STM32F0xx_HAL_Driver/Src/stm32f0xx_hal_rcc.c ****   *            @arg @ref RCC_MCO1 Clock source to output on MCO1 pin(PA8).
 969:Drivers/STM32F0xx_HAL_Driver/Src/stm32f0xx_hal_rcc.c ****   * @param  RCC_MCOSource specifies the clock source to output.
 970:Drivers/STM32F0xx_HAL_Driver/Src/stm32f0xx_hal_rcc.c ****   *          This parameter can be one of the following values:
 971:Drivers/STM32F0xx_HAL_Driver/Src/stm32f0xx_hal_rcc.c ****   *            @arg @ref RCC_MCO1SOURCE_NOCLOCK     No clock selected as MCO clock
 972:Drivers/STM32F0xx_HAL_Driver/Src/stm32f0xx_hal_rcc.c ****   *            @arg @ref RCC_MCO1SOURCE_SYSCLK      System clock selected as MCO clock
ARM GAS  /tmp/cc68hz7R.s 			page 42


 973:Drivers/STM32F0xx_HAL_Driver/Src/stm32f0xx_hal_rcc.c ****   *            @arg @ref RCC_MCO1SOURCE_HSI         HSI selected as MCO clock
 974:Drivers/STM32F0xx_HAL_Driver/Src/stm32f0xx_hal_rcc.c ****   *            @arg @ref RCC_MCO1SOURCE_HSE         HSE selected as MCO clock
 975:Drivers/STM32F0xx_HAL_Driver/Src/stm32f0xx_hal_rcc.c ****   *            @arg @ref RCC_MCO1SOURCE_LSI         LSI selected as MCO clock
 976:Drivers/STM32F0xx_HAL_Driver/Src/stm32f0xx_hal_rcc.c ****   *            @arg @ref RCC_MCO1SOURCE_LSE         LSE selected as MCO clock
 977:Drivers/STM32F0xx_HAL_Driver/Src/stm32f0xx_hal_rcc.c ****   *            @arg @ref RCC_MCO1SOURCE_HSI14       HSI14 selected as MCO clock
 978:Drivers/STM32F0xx_HAL_Driver/Src/stm32f0xx_hal_rcc.c ****   *            @arg @ref RCC_MCO1SOURCE_PLLCLK_DIV2 PLLCLK Divided by 2 selected as MCO clock
 979:Drivers/STM32F0xx_HAL_Driver/Src/stm32f0xx_hal_rcc.c ****   * @param  RCC_MCODiv specifies the MCO DIV.
 980:Drivers/STM32F0xx_HAL_Driver/Src/stm32f0xx_hal_rcc.c ****   *          This parameter can be one of the following values:
 981:Drivers/STM32F0xx_HAL_Driver/Src/stm32f0xx_hal_rcc.c ****   *            @arg @ref RCC_MCODIV_1 no division applied to MCO clock
 982:Drivers/STM32F0xx_HAL_Driver/Src/stm32f0xx_hal_rcc.c ****   * @retval None
 983:Drivers/STM32F0xx_HAL_Driver/Src/stm32f0xx_hal_rcc.c ****   */
 984:Drivers/STM32F0xx_HAL_Driver/Src/stm32f0xx_hal_rcc.c **** #endif
 985:Drivers/STM32F0xx_HAL_Driver/Src/stm32f0xx_hal_rcc.c **** void HAL_RCC_MCOConfig(uint32_t RCC_MCOx, uint32_t RCC_MCOSource, uint32_t RCC_MCODiv)
 986:Drivers/STM32F0xx_HAL_Driver/Src/stm32f0xx_hal_rcc.c **** {
 1210              		.loc 1 986 1 is_stmt 1 view -0
 1211              		.cfi_startproc
 1212              		@ args = 0, pretend = 0, frame = 24
 1213              		@ frame_needed = 0, uses_anonymous_args = 0
 1214              		.loc 1 986 1 is_stmt 0 view .LVU353
 1215 0000 70B5     		push	{r4, r5, r6, lr}
 1216              	.LCFI2:
 1217              		.cfi_def_cfa_offset 16
 1218              		.cfi_offset 4, -16
 1219              		.cfi_offset 5, -12
 1220              		.cfi_offset 6, -8
 1221              		.cfi_offset 14, -4
 1222 0002 86B0     		sub	sp, sp, #24
 1223              	.LCFI3:
 1224              		.cfi_def_cfa_offset 40
 1225 0004 0D00     		movs	r5, r1
 1226 0006 1600     		movs	r6, r2
 987:Drivers/STM32F0xx_HAL_Driver/Src/stm32f0xx_hal_rcc.c ****   GPIO_InitTypeDef gpio;
 1227              		.loc 1 987 3 is_stmt 1 view .LVU354
 988:Drivers/STM32F0xx_HAL_Driver/Src/stm32f0xx_hal_rcc.c **** 
 989:Drivers/STM32F0xx_HAL_Driver/Src/stm32f0xx_hal_rcc.c ****   /* Check the parameters */
 990:Drivers/STM32F0xx_HAL_Driver/Src/stm32f0xx_hal_rcc.c ****   assert_param(IS_RCC_MCO(RCC_MCOx));
 1228              		.loc 1 990 3 view .LVU355
 991:Drivers/STM32F0xx_HAL_Driver/Src/stm32f0xx_hal_rcc.c ****   assert_param(IS_RCC_MCODIV(RCC_MCODiv));
 1229              		.loc 1 991 3 view .LVU356
 992:Drivers/STM32F0xx_HAL_Driver/Src/stm32f0xx_hal_rcc.c ****   assert_param(IS_RCC_MCO1SOURCE(RCC_MCOSource));
 1230              		.loc 1 992 3 view .LVU357
 993:Drivers/STM32F0xx_HAL_Driver/Src/stm32f0xx_hal_rcc.c ****   
 994:Drivers/STM32F0xx_HAL_Driver/Src/stm32f0xx_hal_rcc.c ****   /* Configure the MCO1 pin in alternate function mode */
 995:Drivers/STM32F0xx_HAL_Driver/Src/stm32f0xx_hal_rcc.c ****   gpio.Mode      = GPIO_MODE_AF_PP;
 1231              		.loc 1 995 3 view .LVU358
 1232              		.loc 1 995 18 is_stmt 0 view .LVU359
 1233 0008 0223     		movs	r3, #2
 1234 000a 0293     		str	r3, [sp, #8]
 996:Drivers/STM32F0xx_HAL_Driver/Src/stm32f0xx_hal_rcc.c ****   gpio.Speed     = GPIO_SPEED_FREQ_HIGH;
 1235              		.loc 1 996 3 is_stmt 1 view .LVU360
 1236              		.loc 1 996 18 is_stmt 0 view .LVU361
 1237 000c 0133     		adds	r3, r3, #1
 1238 000e 0493     		str	r3, [sp, #16]
 997:Drivers/STM32F0xx_HAL_Driver/Src/stm32f0xx_hal_rcc.c ****   gpio.Pull      = GPIO_NOPULL;
 1239              		.loc 1 997 3 is_stmt 1 view .LVU362
 1240              		.loc 1 997 18 is_stmt 0 view .LVU363
 1241 0010 0023     		movs	r3, #0
ARM GAS  /tmp/cc68hz7R.s 			page 43


 1242 0012 0393     		str	r3, [sp, #12]
 998:Drivers/STM32F0xx_HAL_Driver/Src/stm32f0xx_hal_rcc.c ****   gpio.Pin       = MCO1_PIN;
 1243              		.loc 1 998 3 is_stmt 1 view .LVU364
 1244              		.loc 1 998 18 is_stmt 0 view .LVU365
 1245 0014 8022     		movs	r2, #128
 1246              	.LVL77:
 1247              		.loc 1 998 18 view .LVU366
 1248 0016 5200     		lsls	r2, r2, #1
 1249 0018 0192     		str	r2, [sp, #4]
 999:Drivers/STM32F0xx_HAL_Driver/Src/stm32f0xx_hal_rcc.c ****   gpio.Alternate = GPIO_AF0_MCO;
 1250              		.loc 1 999 3 is_stmt 1 view .LVU367
 1251              		.loc 1 999 18 is_stmt 0 view .LVU368
 1252 001a 0593     		str	r3, [sp, #20]
1000:Drivers/STM32F0xx_HAL_Driver/Src/stm32f0xx_hal_rcc.c **** 
1001:Drivers/STM32F0xx_HAL_Driver/Src/stm32f0xx_hal_rcc.c ****   /* MCO1 Clock Enable */
1002:Drivers/STM32F0xx_HAL_Driver/Src/stm32f0xx_hal_rcc.c ****   MCO1_CLK_ENABLE();
 1253              		.loc 1 1002 3 is_stmt 1 view .LVU369
 1254              	.LBB5:
 1255              		.loc 1 1002 3 view .LVU370
 1256              		.loc 1 1002 3 view .LVU371
 1257 001c 0B4C     		ldr	r4, .L114
 1258 001e 6269     		ldr	r2, [r4, #20]
 1259 0020 8021     		movs	r1, #128
 1260              	.LVL78:
 1261              		.loc 1 1002 3 is_stmt 0 view .LVU372
 1262 0022 8902     		lsls	r1, r1, #10
 1263 0024 0A43     		orrs	r2, r1
 1264 0026 6261     		str	r2, [r4, #20]
 1265              		.loc 1 1002 3 is_stmt 1 view .LVU373
 1266 0028 6369     		ldr	r3, [r4, #20]
 1267 002a 0B40     		ands	r3, r1
 1268 002c 0093     		str	r3, [sp]
 1269              		.loc 1 1002 3 view .LVU374
 1270 002e 009B     		ldr	r3, [sp]
 1271              	.LBE5:
 1272              		.loc 1 1002 3 view .LVU375
1003:Drivers/STM32F0xx_HAL_Driver/Src/stm32f0xx_hal_rcc.c ****   
1004:Drivers/STM32F0xx_HAL_Driver/Src/stm32f0xx_hal_rcc.c ****   HAL_GPIO_Init(MCO1_GPIO_PORT, &gpio);
 1273              		.loc 1 1004 3 view .LVU376
 1274 0030 9020     		movs	r0, #144
 1275              	.LVL79:
 1276              		.loc 1 1004 3 is_stmt 0 view .LVU377
 1277 0032 01A9     		add	r1, sp, #4
 1278 0034 C005     		lsls	r0, r0, #23
 1279 0036 FFF7FEFF 		bl	HAL_GPIO_Init
 1280              	.LVL80:
1005:Drivers/STM32F0xx_HAL_Driver/Src/stm32f0xx_hal_rcc.c ****   
1006:Drivers/STM32F0xx_HAL_Driver/Src/stm32f0xx_hal_rcc.c ****   /* Configure the MCO clock source */
1007:Drivers/STM32F0xx_HAL_Driver/Src/stm32f0xx_hal_rcc.c ****   __HAL_RCC_MCO1_CONFIG(RCC_MCOSource, RCC_MCODiv);
 1281              		.loc 1 1007 3 is_stmt 1 view .LVU378
 1282 003a 6268     		ldr	r2, [r4, #4]
 1283 003c 0449     		ldr	r1, .L114+4
 1284 003e 0A40     		ands	r2, r1
 1285 0040 3543     		orrs	r5, r6
 1286              	.LVL81:
 1287              		.loc 1 1007 3 is_stmt 0 view .LVU379
 1288 0042 2A43     		orrs	r2, r5
ARM GAS  /tmp/cc68hz7R.s 			page 44


 1289 0044 6260     		str	r2, [r4, #4]
1008:Drivers/STM32F0xx_HAL_Driver/Src/stm32f0xx_hal_rcc.c **** }
 1290              		.loc 1 1008 1 view .LVU380
 1291 0046 06B0     		add	sp, sp, #24
 1292              		@ sp needed
 1293              	.LVL82:
 1294              		.loc 1 1008 1 view .LVU381
 1295 0048 70BD     		pop	{r4, r5, r6, pc}
 1296              	.L115:
 1297 004a C046     		.align	2
 1298              	.L114:
 1299 004c 00100240 		.word	1073876992
 1300 0050 FFFFFF80 		.word	-2130706433
 1301              		.cfi_endproc
 1302              	.LFE40:
 1304              		.section	.text.HAL_RCC_EnableCSS,"ax",%progbits
 1305              		.align	1
 1306              		.global	HAL_RCC_EnableCSS
 1307              		.syntax unified
 1308              		.code	16
 1309              		.thumb_func
 1310              		.fpu softvfp
 1312              	HAL_RCC_EnableCSS:
 1313              	.LFB41:
1009:Drivers/STM32F0xx_HAL_Driver/Src/stm32f0xx_hal_rcc.c **** 
1010:Drivers/STM32F0xx_HAL_Driver/Src/stm32f0xx_hal_rcc.c **** /**
1011:Drivers/STM32F0xx_HAL_Driver/Src/stm32f0xx_hal_rcc.c ****   * @brief  Enables the Clock Security System.
1012:Drivers/STM32F0xx_HAL_Driver/Src/stm32f0xx_hal_rcc.c ****   * @note   If a failure is detected on the HSE oscillator clock, this oscillator
1013:Drivers/STM32F0xx_HAL_Driver/Src/stm32f0xx_hal_rcc.c ****   *         is automatically disabled and an interrupt is generated to inform the
1014:Drivers/STM32F0xx_HAL_Driver/Src/stm32f0xx_hal_rcc.c ****   *         software about the failure (Clock Security System Interrupt, CSSI),
1015:Drivers/STM32F0xx_HAL_Driver/Src/stm32f0xx_hal_rcc.c ****   *         allowing the MCU to perform rescue operations. The CSSI is linked to 
1016:Drivers/STM32F0xx_HAL_Driver/Src/stm32f0xx_hal_rcc.c ****   *         the Cortex-M0 NMI (Non-Maskable Interrupt) exception vector.  
1017:Drivers/STM32F0xx_HAL_Driver/Src/stm32f0xx_hal_rcc.c ****   * @retval None
1018:Drivers/STM32F0xx_HAL_Driver/Src/stm32f0xx_hal_rcc.c ****   */
1019:Drivers/STM32F0xx_HAL_Driver/Src/stm32f0xx_hal_rcc.c **** void HAL_RCC_EnableCSS(void)
1020:Drivers/STM32F0xx_HAL_Driver/Src/stm32f0xx_hal_rcc.c **** {
 1314              		.loc 1 1020 1 is_stmt 1 view -0
 1315              		.cfi_startproc
 1316              		@ args = 0, pretend = 0, frame = 0
 1317              		@ frame_needed = 0, uses_anonymous_args = 0
 1318              		@ link register save eliminated.
1021:Drivers/STM32F0xx_HAL_Driver/Src/stm32f0xx_hal_rcc.c ****   SET_BIT(RCC->CR, RCC_CR_CSSON) ;
 1319              		.loc 1 1021 3 view .LVU383
 1320 0000 034A     		ldr	r2, .L117
 1321 0002 1168     		ldr	r1, [r2]
 1322 0004 8023     		movs	r3, #128
 1323 0006 1B03     		lsls	r3, r3, #12
 1324 0008 0B43     		orrs	r3, r1
 1325 000a 1360     		str	r3, [r2]
1022:Drivers/STM32F0xx_HAL_Driver/Src/stm32f0xx_hal_rcc.c **** }
 1326              		.loc 1 1022 1 is_stmt 0 view .LVU384
 1327              		@ sp needed
 1328 000c 7047     		bx	lr
 1329              	.L118:
 1330 000e C046     		.align	2
 1331              	.L117:
 1332 0010 00100240 		.word	1073876992
ARM GAS  /tmp/cc68hz7R.s 			page 45


 1333              		.cfi_endproc
 1334              	.LFE41:
 1336              		.section	.text.HAL_RCC_DisableCSS,"ax",%progbits
 1337              		.align	1
 1338              		.global	HAL_RCC_DisableCSS
 1339              		.syntax unified
 1340              		.code	16
 1341              		.thumb_func
 1342              		.fpu softvfp
 1344              	HAL_RCC_DisableCSS:
 1345              	.LFB42:
1023:Drivers/STM32F0xx_HAL_Driver/Src/stm32f0xx_hal_rcc.c **** 
1024:Drivers/STM32F0xx_HAL_Driver/Src/stm32f0xx_hal_rcc.c **** /**
1025:Drivers/STM32F0xx_HAL_Driver/Src/stm32f0xx_hal_rcc.c ****   * @brief  Disables the Clock Security System.
1026:Drivers/STM32F0xx_HAL_Driver/Src/stm32f0xx_hal_rcc.c ****   * @retval None
1027:Drivers/STM32F0xx_HAL_Driver/Src/stm32f0xx_hal_rcc.c ****   */
1028:Drivers/STM32F0xx_HAL_Driver/Src/stm32f0xx_hal_rcc.c **** void HAL_RCC_DisableCSS(void)
1029:Drivers/STM32F0xx_HAL_Driver/Src/stm32f0xx_hal_rcc.c **** {
 1346              		.loc 1 1029 1 is_stmt 1 view -0
 1347              		.cfi_startproc
 1348              		@ args = 0, pretend = 0, frame = 0
 1349              		@ frame_needed = 0, uses_anonymous_args = 0
 1350              		@ link register save eliminated.
1030:Drivers/STM32F0xx_HAL_Driver/Src/stm32f0xx_hal_rcc.c ****   CLEAR_BIT(RCC->CR, RCC_CR_CSSON) ;
 1351              		.loc 1 1030 3 view .LVU386
 1352 0000 024A     		ldr	r2, .L120
 1353 0002 1368     		ldr	r3, [r2]
 1354 0004 0249     		ldr	r1, .L120+4
 1355 0006 0B40     		ands	r3, r1
 1356 0008 1360     		str	r3, [r2]
1031:Drivers/STM32F0xx_HAL_Driver/Src/stm32f0xx_hal_rcc.c **** }
 1357              		.loc 1 1031 1 is_stmt 0 view .LVU387
 1358              		@ sp needed
 1359 000a 7047     		bx	lr
 1360              	.L121:
 1361              		.align	2
 1362              	.L120:
 1363 000c 00100240 		.word	1073876992
 1364 0010 FFFFF7FF 		.word	-524289
 1365              		.cfi_endproc
 1366              	.LFE42:
 1368              		.global	__aeabi_uidiv
 1369              		.section	.rodata.HAL_RCC_GetSysClockFreq.str1.4,"aMS",%progbits,1
 1370              		.align	2
 1371              	.LC1:
 1372 0000 02030405 		.ascii	"\002\003\004\005\006\007\010\011\012\013\014\015\016"
 1372      06070809 
 1372      0A0B0C0D 
 1372      0E
 1373 000d 0F101000 		.ascii	"\017\020\020\000"
 1374 0011 000000   		.align	2
 1375              	.LC3:
 1376 0014 01020304 		.ascii	"\001\002\003\004\005\006\007\010\011\012\013\014\015"
 1376      05060708 
 1376      090A0B0C 
 1376      0D
 1377 0021 0E0F1000 		.ascii	"\016\017\020\000"
ARM GAS  /tmp/cc68hz7R.s 			page 46


 1378              		.section	.text.HAL_RCC_GetSysClockFreq,"ax",%progbits
 1379              		.align	1
 1380              		.global	HAL_RCC_GetSysClockFreq
 1381              		.syntax unified
 1382              		.code	16
 1383              		.thumb_func
 1384              		.fpu softvfp
 1386              	HAL_RCC_GetSysClockFreq:
 1387              	.LFB43:
1032:Drivers/STM32F0xx_HAL_Driver/Src/stm32f0xx_hal_rcc.c **** 
1033:Drivers/STM32F0xx_HAL_Driver/Src/stm32f0xx_hal_rcc.c **** /**
1034:Drivers/STM32F0xx_HAL_Driver/Src/stm32f0xx_hal_rcc.c ****   * @brief  Returns the SYSCLK frequency     
1035:Drivers/STM32F0xx_HAL_Driver/Src/stm32f0xx_hal_rcc.c ****   * @note   The system frequency computed by this function is not the real 
1036:Drivers/STM32F0xx_HAL_Driver/Src/stm32f0xx_hal_rcc.c ****   *         frequency in the chip. It is calculated based on the predefined 
1037:Drivers/STM32F0xx_HAL_Driver/Src/stm32f0xx_hal_rcc.c ****   *         constant and the selected clock source:
1038:Drivers/STM32F0xx_HAL_Driver/Src/stm32f0xx_hal_rcc.c ****   * @note     If SYSCLK source is HSI, function returns values based on HSI_VALUE(*)
1039:Drivers/STM32F0xx_HAL_Driver/Src/stm32f0xx_hal_rcc.c ****   * @note     If SYSCLK source is HSE, function returns a value based on HSE_VALUE
1040:Drivers/STM32F0xx_HAL_Driver/Src/stm32f0xx_hal_rcc.c ****   *           divided by PREDIV factor(**)
1041:Drivers/STM32F0xx_HAL_Driver/Src/stm32f0xx_hal_rcc.c ****   * @note     If SYSCLK source is PLL, function returns a value based on HSE_VALUE
1042:Drivers/STM32F0xx_HAL_Driver/Src/stm32f0xx_hal_rcc.c ****   *           divided by PREDIV factor(**) or depending on STM32F0xxxx devices either a value based
1043:Drivers/STM32F0xx_HAL_Driver/Src/stm32f0xx_hal_rcc.c ****   *           on HSI_VALUE divided by 2 or HSI_VALUE divided by PREDIV factor(*) multiplied by the 
1044:Drivers/STM32F0xx_HAL_Driver/Src/stm32f0xx_hal_rcc.c ****   *           PLL factor.
1045:Drivers/STM32F0xx_HAL_Driver/Src/stm32f0xx_hal_rcc.c ****   * @note     (*) HSI_VALUE is a constant defined in stm32f0xx_hal_conf.h file (default value
1046:Drivers/STM32F0xx_HAL_Driver/Src/stm32f0xx_hal_rcc.c ****   *               8 MHz) but the real value may vary depending on the variations
1047:Drivers/STM32F0xx_HAL_Driver/Src/stm32f0xx_hal_rcc.c ****   *               in voltage and temperature.
1048:Drivers/STM32F0xx_HAL_Driver/Src/stm32f0xx_hal_rcc.c ****   * @note     (**) HSE_VALUE is a constant defined in stm32f0xx_hal_conf.h file (default value
1049:Drivers/STM32F0xx_HAL_Driver/Src/stm32f0xx_hal_rcc.c ****   *                8 MHz), user has to ensure that HSE_VALUE is same as the real
1050:Drivers/STM32F0xx_HAL_Driver/Src/stm32f0xx_hal_rcc.c ****   *                frequency of the crystal used. Otherwise, this function may
1051:Drivers/STM32F0xx_HAL_Driver/Src/stm32f0xx_hal_rcc.c ****   *                have wrong result.
1052:Drivers/STM32F0xx_HAL_Driver/Src/stm32f0xx_hal_rcc.c ****   *                  
1053:Drivers/STM32F0xx_HAL_Driver/Src/stm32f0xx_hal_rcc.c ****   * @note   The result of this function could be not correct when using fractional
1054:Drivers/STM32F0xx_HAL_Driver/Src/stm32f0xx_hal_rcc.c ****   *         value for HSE crystal.
1055:Drivers/STM32F0xx_HAL_Driver/Src/stm32f0xx_hal_rcc.c ****   *           
1056:Drivers/STM32F0xx_HAL_Driver/Src/stm32f0xx_hal_rcc.c ****   * @note   This function can be used by the user application to compute the 
1057:Drivers/STM32F0xx_HAL_Driver/Src/stm32f0xx_hal_rcc.c ****   *         baud-rate for the communication peripherals or configure other parameters.
1058:Drivers/STM32F0xx_HAL_Driver/Src/stm32f0xx_hal_rcc.c ****   *           
1059:Drivers/STM32F0xx_HAL_Driver/Src/stm32f0xx_hal_rcc.c ****   * @note   Each time SYSCLK changes, this function must be called to update the
1060:Drivers/STM32F0xx_HAL_Driver/Src/stm32f0xx_hal_rcc.c ****   *         right SYSCLK value. Otherwise, any configuration based on this function will be incorre
1061:Drivers/STM32F0xx_HAL_Driver/Src/stm32f0xx_hal_rcc.c ****   *         
1062:Drivers/STM32F0xx_HAL_Driver/Src/stm32f0xx_hal_rcc.c ****   * @retval SYSCLK frequency
1063:Drivers/STM32F0xx_HAL_Driver/Src/stm32f0xx_hal_rcc.c ****   */
1064:Drivers/STM32F0xx_HAL_Driver/Src/stm32f0xx_hal_rcc.c **** uint32_t HAL_RCC_GetSysClockFreq(void)
1065:Drivers/STM32F0xx_HAL_Driver/Src/stm32f0xx_hal_rcc.c **** {
 1388              		.loc 1 1065 1 is_stmt 1 view -0
 1389              		.cfi_startproc
 1390              		@ args = 0, pretend = 0, frame = 32
 1391              		@ frame_needed = 0, uses_anonymous_args = 0
 1392 0000 10B5     		push	{r4, lr}
 1393              	.LCFI4:
 1394              		.cfi_def_cfa_offset 8
 1395              		.cfi_offset 4, -8
 1396              		.cfi_offset 14, -4
 1397 0002 88B0     		sub	sp, sp, #32
 1398              	.LCFI5:
 1399              		.cfi_def_cfa_offset 40
1066:Drivers/STM32F0xx_HAL_Driver/Src/stm32f0xx_hal_rcc.c ****   const uint8_t aPLLMULFactorTable[16] = { 2U,  3U,  4U,  5U,  6U,  7U,  8U,  9U,
 1400              		.loc 1 1066 3 view .LVU389
ARM GAS  /tmp/cc68hz7R.s 			page 47


 1401              		.loc 1 1066 17 is_stmt 0 view .LVU390
 1402 0004 04AA     		add	r2, sp, #16
 1403 0006 1E4B     		ldr	r3, .L130
 1404 0008 13CB     		ldmia	r3!, {r0, r1, r4}
 1405 000a 13C2     		stmia	r2!, {r0, r1, r4}
 1406 000c 1B68     		ldr	r3, [r3]
 1407 000e 1360     		str	r3, [r2]
1067:Drivers/STM32F0xx_HAL_Driver/Src/stm32f0xx_hal_rcc.c ****                                          10U, 11U, 12U, 13U, 14U, 15U, 16U, 16U};
1068:Drivers/STM32F0xx_HAL_Driver/Src/stm32f0xx_hal_rcc.c ****   const uint8_t aPredivFactorTable[16] = { 1U, 2U,  3U,  4U,  5U,  6U,  7U,  8U,
 1408              		.loc 1 1068 3 is_stmt 1 view .LVU391
 1409              		.loc 1 1068 17 is_stmt 0 view .LVU392
 1410 0010 6A46     		mov	r2, sp
 1411 0012 1C4B     		ldr	r3, .L130+4
 1412 0014 13CB     		ldmia	r3!, {r0, r1, r4}
 1413 0016 13C2     		stmia	r2!, {r0, r1, r4}
 1414 0018 1B68     		ldr	r3, [r3]
 1415 001a 1360     		str	r3, [r2]
1069:Drivers/STM32F0xx_HAL_Driver/Src/stm32f0xx_hal_rcc.c ****                                            9U,10U, 11U, 12U, 13U, 14U, 15U, 16U};
1070:Drivers/STM32F0xx_HAL_Driver/Src/stm32f0xx_hal_rcc.c **** 
1071:Drivers/STM32F0xx_HAL_Driver/Src/stm32f0xx_hal_rcc.c ****   uint32_t tmpreg = 0U, prediv = 0U, pllclk = 0U, pllmul = 0U;
 1416              		.loc 1 1071 3 is_stmt 1 view .LVU393
 1417              	.LVL83:
1072:Drivers/STM32F0xx_HAL_Driver/Src/stm32f0xx_hal_rcc.c ****   uint32_t sysclockfreq = 0U;
 1418              		.loc 1 1072 3 view .LVU394
1073:Drivers/STM32F0xx_HAL_Driver/Src/stm32f0xx_hal_rcc.c ****   
1074:Drivers/STM32F0xx_HAL_Driver/Src/stm32f0xx_hal_rcc.c ****   tmpreg = RCC->CFGR;
 1419              		.loc 1 1074 3 view .LVU395
 1420              		.loc 1 1074 10 is_stmt 0 view .LVU396
 1421 001c 1A4B     		ldr	r3, .L130+8
 1422 001e 5A68     		ldr	r2, [r3, #4]
 1423              	.LVL84:
1075:Drivers/STM32F0xx_HAL_Driver/Src/stm32f0xx_hal_rcc.c ****   
1076:Drivers/STM32F0xx_HAL_Driver/Src/stm32f0xx_hal_rcc.c ****   /* Get SYSCLK source -------------------------------------------------------*/
1077:Drivers/STM32F0xx_HAL_Driver/Src/stm32f0xx_hal_rcc.c ****   switch (tmpreg & RCC_CFGR_SWS)
 1424              		.loc 1 1077 3 is_stmt 1 view .LVU397
 1425              		.loc 1 1077 18 is_stmt 0 view .LVU398
 1426 0020 0C23     		movs	r3, #12
 1427 0022 1340     		ands	r3, r2
 1428              		.loc 1 1077 3 view .LVU399
 1429 0024 082B     		cmp	r3, #8
 1430 0026 04D0     		beq	.L123
 1431 0028 0C2B     		cmp	r3, #12
 1432 002a 26D1     		bne	.L127
1078:Drivers/STM32F0xx_HAL_Driver/Src/stm32f0xx_hal_rcc.c ****   {
1079:Drivers/STM32F0xx_HAL_Driver/Src/stm32f0xx_hal_rcc.c ****     case RCC_SYSCLKSOURCE_STATUS_HSE:  /* HSE used as system clock */
1080:Drivers/STM32F0xx_HAL_Driver/Src/stm32f0xx_hal_rcc.c ****     {
1081:Drivers/STM32F0xx_HAL_Driver/Src/stm32f0xx_hal_rcc.c ****       sysclockfreq = HSE_VALUE;
1082:Drivers/STM32F0xx_HAL_Driver/Src/stm32f0xx_hal_rcc.c ****       break;
1083:Drivers/STM32F0xx_HAL_Driver/Src/stm32f0xx_hal_rcc.c ****     }
1084:Drivers/STM32F0xx_HAL_Driver/Src/stm32f0xx_hal_rcc.c ****     case RCC_SYSCLKSOURCE_STATUS_PLLCLK:  /* PLL used as system clock */
1085:Drivers/STM32F0xx_HAL_Driver/Src/stm32f0xx_hal_rcc.c ****     {
1086:Drivers/STM32F0xx_HAL_Driver/Src/stm32f0xx_hal_rcc.c ****       pllmul = aPLLMULFactorTable[(uint32_t)(tmpreg & RCC_CFGR_PLLMUL) >> RCC_CFGR_PLLMUL_BITNUMBER
1087:Drivers/STM32F0xx_HAL_Driver/Src/stm32f0xx_hal_rcc.c ****       prediv = aPredivFactorTable[(uint32_t)(RCC->CFGR2 & RCC_CFGR2_PREDIV) >> RCC_CFGR2_PREDIV_BIT
1088:Drivers/STM32F0xx_HAL_Driver/Src/stm32f0xx_hal_rcc.c ****       if ((tmpreg & RCC_CFGR_PLLSRC) == RCC_PLLSOURCE_HSE)
1089:Drivers/STM32F0xx_HAL_Driver/Src/stm32f0xx_hal_rcc.c ****       {
1090:Drivers/STM32F0xx_HAL_Driver/Src/stm32f0xx_hal_rcc.c ****         /* HSE used as PLL clock source : PLLCLK = HSE/PREDIV * PLLMUL */
1091:Drivers/STM32F0xx_HAL_Driver/Src/stm32f0xx_hal_rcc.c ****         pllclk = (HSE_VALUE / prediv) * pllmul;
ARM GAS  /tmp/cc68hz7R.s 			page 48


1092:Drivers/STM32F0xx_HAL_Driver/Src/stm32f0xx_hal_rcc.c ****       }
1093:Drivers/STM32F0xx_HAL_Driver/Src/stm32f0xx_hal_rcc.c **** #if defined(RCC_CFGR_PLLSRC_HSI48_PREDIV)
1094:Drivers/STM32F0xx_HAL_Driver/Src/stm32f0xx_hal_rcc.c ****       else if ((tmpreg & RCC_CFGR_PLLSRC) == RCC_PLLSOURCE_HSI48)
1095:Drivers/STM32F0xx_HAL_Driver/Src/stm32f0xx_hal_rcc.c ****       {
1096:Drivers/STM32F0xx_HAL_Driver/Src/stm32f0xx_hal_rcc.c ****         /* HSI48 used as PLL clock source : PLLCLK = HSI48/PREDIV * PLLMUL */
1097:Drivers/STM32F0xx_HAL_Driver/Src/stm32f0xx_hal_rcc.c ****         pllclk = (HSI48_VALUE / prediv) * pllmul;
1098:Drivers/STM32F0xx_HAL_Driver/Src/stm32f0xx_hal_rcc.c ****       }
1099:Drivers/STM32F0xx_HAL_Driver/Src/stm32f0xx_hal_rcc.c **** #endif /* RCC_CFGR_PLLSRC_HSI48_PREDIV */
1100:Drivers/STM32F0xx_HAL_Driver/Src/stm32f0xx_hal_rcc.c ****       else
1101:Drivers/STM32F0xx_HAL_Driver/Src/stm32f0xx_hal_rcc.c ****       {
1102:Drivers/STM32F0xx_HAL_Driver/Src/stm32f0xx_hal_rcc.c **** #if  (defined(STM32F042x6) || defined(STM32F048xx) || defined(STM32F070x6) || defined(STM32F071xB) 
1103:Drivers/STM32F0xx_HAL_Driver/Src/stm32f0xx_hal_rcc.c ****         /* HSI used as PLL clock source : PLLCLK = HSI/PREDIV * PLLMUL */
1104:Drivers/STM32F0xx_HAL_Driver/Src/stm32f0xx_hal_rcc.c ****         pllclk = (HSI_VALUE / prediv) * pllmul;
1105:Drivers/STM32F0xx_HAL_Driver/Src/stm32f0xx_hal_rcc.c **** #else
1106:Drivers/STM32F0xx_HAL_Driver/Src/stm32f0xx_hal_rcc.c ****         /* HSI used as PLL clock source : PLLCLK = HSI/2 * PLLMUL */
1107:Drivers/STM32F0xx_HAL_Driver/Src/stm32f0xx_hal_rcc.c ****         pllclk = (uint32_t)((HSI_VALUE >> 1U) * pllmul);
1108:Drivers/STM32F0xx_HAL_Driver/Src/stm32f0xx_hal_rcc.c **** #endif
1109:Drivers/STM32F0xx_HAL_Driver/Src/stm32f0xx_hal_rcc.c ****       }
1110:Drivers/STM32F0xx_HAL_Driver/Src/stm32f0xx_hal_rcc.c ****       sysclockfreq = pllclk;
1111:Drivers/STM32F0xx_HAL_Driver/Src/stm32f0xx_hal_rcc.c ****       break;
1112:Drivers/STM32F0xx_HAL_Driver/Src/stm32f0xx_hal_rcc.c ****     }
1113:Drivers/STM32F0xx_HAL_Driver/Src/stm32f0xx_hal_rcc.c **** #if defined(RCC_CFGR_SWS_HSI48)
1114:Drivers/STM32F0xx_HAL_Driver/Src/stm32f0xx_hal_rcc.c ****     case RCC_SYSCLKSOURCE_STATUS_HSI48:    /* HSI48 used as system clock source */
1115:Drivers/STM32F0xx_HAL_Driver/Src/stm32f0xx_hal_rcc.c ****     {
1116:Drivers/STM32F0xx_HAL_Driver/Src/stm32f0xx_hal_rcc.c ****       sysclockfreq = HSI48_VALUE;
 1433              		.loc 1 1116 20 view .LVU400
 1434 002c 1748     		ldr	r0, .L130+12
 1435              	.LVL85:
 1436              	.L122:
1117:Drivers/STM32F0xx_HAL_Driver/Src/stm32f0xx_hal_rcc.c ****       break;
1118:Drivers/STM32F0xx_HAL_Driver/Src/stm32f0xx_hal_rcc.c ****     }
1119:Drivers/STM32F0xx_HAL_Driver/Src/stm32f0xx_hal_rcc.c **** #endif /* RCC_CFGR_SWS_HSI48 */
1120:Drivers/STM32F0xx_HAL_Driver/Src/stm32f0xx_hal_rcc.c ****     case RCC_SYSCLKSOURCE_STATUS_HSI:  /* HSI used as system clock source */
1121:Drivers/STM32F0xx_HAL_Driver/Src/stm32f0xx_hal_rcc.c ****     default: /* HSI used as system clock */
1122:Drivers/STM32F0xx_HAL_Driver/Src/stm32f0xx_hal_rcc.c ****     {
1123:Drivers/STM32F0xx_HAL_Driver/Src/stm32f0xx_hal_rcc.c ****       sysclockfreq = HSI_VALUE;
1124:Drivers/STM32F0xx_HAL_Driver/Src/stm32f0xx_hal_rcc.c ****       break;
1125:Drivers/STM32F0xx_HAL_Driver/Src/stm32f0xx_hal_rcc.c ****     }
1126:Drivers/STM32F0xx_HAL_Driver/Src/stm32f0xx_hal_rcc.c ****   }
1127:Drivers/STM32F0xx_HAL_Driver/Src/stm32f0xx_hal_rcc.c ****   return sysclockfreq;
1128:Drivers/STM32F0xx_HAL_Driver/Src/stm32f0xx_hal_rcc.c **** }
 1437              		.loc 1 1128 1 view .LVU401
 1438 002e 08B0     		add	sp, sp, #32
 1439              		@ sp needed
 1440 0030 10BD     		pop	{r4, pc}
 1441              	.LVL86:
 1442              	.L123:
1086:Drivers/STM32F0xx_HAL_Driver/Src/stm32f0xx_hal_rcc.c ****       prediv = aPredivFactorTable[(uint32_t)(RCC->CFGR2 & RCC_CFGR2_PREDIV) >> RCC_CFGR2_PREDIV_BIT
 1443              		.loc 1 1086 7 is_stmt 1 view .LVU402
1086:Drivers/STM32F0xx_HAL_Driver/Src/stm32f0xx_hal_rcc.c ****       prediv = aPredivFactorTable[(uint32_t)(RCC->CFGR2 & RCC_CFGR2_PREDIV) >> RCC_CFGR2_PREDIV_BIT
 1444              		.loc 1 1086 72 is_stmt 0 view .LVU403
 1445 0032 910C     		lsrs	r1, r2, #18
 1446 0034 0F23     		movs	r3, #15
 1447 0036 1940     		ands	r1, r3
1086:Drivers/STM32F0xx_HAL_Driver/Src/stm32f0xx_hal_rcc.c ****       prediv = aPredivFactorTable[(uint32_t)(RCC->CFGR2 & RCC_CFGR2_PREDIV) >> RCC_CFGR2_PREDIV_BIT
 1448              		.loc 1 1086 34 view .LVU404
 1449 0038 04A8     		add	r0, sp, #16
ARM GAS  /tmp/cc68hz7R.s 			page 49


 1450 003a 445C     		ldrb	r4, [r0, r1]
 1451              	.LVL87:
1087:Drivers/STM32F0xx_HAL_Driver/Src/stm32f0xx_hal_rcc.c ****       if ((tmpreg & RCC_CFGR_PLLSRC) == RCC_PLLSOURCE_HSE)
 1452              		.loc 1 1087 7 is_stmt 1 view .LVU405
1087:Drivers/STM32F0xx_HAL_Driver/Src/stm32f0xx_hal_rcc.c ****       if ((tmpreg & RCC_CFGR_PLLSRC) == RCC_PLLSOURCE_HSE)
 1453              		.loc 1 1087 49 is_stmt 0 view .LVU406
 1454 003c 1249     		ldr	r1, .L130+8
 1455 003e C96A     		ldr	r1, [r1, #44]
1087:Drivers/STM32F0xx_HAL_Driver/Src/stm32f0xx_hal_rcc.c ****       if ((tmpreg & RCC_CFGR_PLLSRC) == RCC_PLLSOURCE_HSE)
 1456              		.loc 1 1087 77 view .LVU407
 1457 0040 0B40     		ands	r3, r1
1087:Drivers/STM32F0xx_HAL_Driver/Src/stm32f0xx_hal_rcc.c ****       if ((tmpreg & RCC_CFGR_PLLSRC) == RCC_PLLSOURCE_HSE)
 1458              		.loc 1 1087 34 view .LVU408
 1459 0042 6946     		mov	r1, sp
 1460 0044 C95C     		ldrb	r1, [r1, r3]
 1461              	.LVL88:
1088:Drivers/STM32F0xx_HAL_Driver/Src/stm32f0xx_hal_rcc.c ****       {
 1462              		.loc 1 1088 7 is_stmt 1 view .LVU409
1088:Drivers/STM32F0xx_HAL_Driver/Src/stm32f0xx_hal_rcc.c ****       {
 1463              		.loc 1 1088 19 is_stmt 0 view .LVU410
 1464 0046 C023     		movs	r3, #192
 1465 0048 5B02     		lsls	r3, r3, #9
 1466 004a 1A40     		ands	r2, r3
 1467              	.LVL89:
1088:Drivers/STM32F0xx_HAL_Driver/Src/stm32f0xx_hal_rcc.c ****       {
 1468              		.loc 1 1088 10 view .LVU411
 1469 004c 8023     		movs	r3, #128
 1470 004e 5B02     		lsls	r3, r3, #9
 1471 0050 9A42     		cmp	r2, r3
 1472 0052 08D0     		beq	.L128
1094:Drivers/STM32F0xx_HAL_Driver/Src/stm32f0xx_hal_rcc.c ****       {
 1473              		.loc 1 1094 12 is_stmt 1 view .LVU412
1094:Drivers/STM32F0xx_HAL_Driver/Src/stm32f0xx_hal_rcc.c ****       {
 1474              		.loc 1 1094 15 is_stmt 0 view .LVU413
 1475 0054 C023     		movs	r3, #192
 1476 0056 5B02     		lsls	r3, r3, #9
 1477 0058 9A42     		cmp	r2, r3
 1478 005a 09D0     		beq	.L129
1104:Drivers/STM32F0xx_HAL_Driver/Src/stm32f0xx_hal_rcc.c **** #else
 1479              		.loc 1 1104 9 is_stmt 1 view .LVU414
1104:Drivers/STM32F0xx_HAL_Driver/Src/stm32f0xx_hal_rcc.c **** #else
 1480              		.loc 1 1104 29 is_stmt 0 view .LVU415
 1481 005c 0C48     		ldr	r0, .L130+16
 1482 005e FFF7FEFF 		bl	__aeabi_uidiv
 1483              	.LVL90:
1104:Drivers/STM32F0xx_HAL_Driver/Src/stm32f0xx_hal_rcc.c **** #else
 1484              		.loc 1 1104 16 view .LVU416
 1485 0062 6043     		muls	r0, r4
 1486              	.LVL91:
1104:Drivers/STM32F0xx_HAL_Driver/Src/stm32f0xx_hal_rcc.c **** #else
 1487              		.loc 1 1104 16 view .LVU417
 1488 0064 E3E7     		b	.L122
 1489              	.LVL92:
 1490              	.L128:
1091:Drivers/STM32F0xx_HAL_Driver/Src/stm32f0xx_hal_rcc.c ****       }
 1491              		.loc 1 1091 9 is_stmt 1 view .LVU418
1091:Drivers/STM32F0xx_HAL_Driver/Src/stm32f0xx_hal_rcc.c ****       }
ARM GAS  /tmp/cc68hz7R.s 			page 50


 1492              		.loc 1 1091 29 is_stmt 0 view .LVU419
 1493 0066 0A48     		ldr	r0, .L130+16
 1494 0068 FFF7FEFF 		bl	__aeabi_uidiv
 1495              	.LVL93:
1091:Drivers/STM32F0xx_HAL_Driver/Src/stm32f0xx_hal_rcc.c ****       }
 1496              		.loc 1 1091 16 view .LVU420
 1497 006c 6043     		muls	r0, r4
 1498              	.LVL94:
1091:Drivers/STM32F0xx_HAL_Driver/Src/stm32f0xx_hal_rcc.c ****       }
 1499              		.loc 1 1091 16 view .LVU421
 1500 006e DEE7     		b	.L122
 1501              	.LVL95:
 1502              	.L129:
1097:Drivers/STM32F0xx_HAL_Driver/Src/stm32f0xx_hal_rcc.c ****       }
 1503              		.loc 1 1097 9 is_stmt 1 view .LVU422
1097:Drivers/STM32F0xx_HAL_Driver/Src/stm32f0xx_hal_rcc.c ****       }
 1504              		.loc 1 1097 31 is_stmt 0 view .LVU423
 1505 0070 0648     		ldr	r0, .L130+12
 1506 0072 FFF7FEFF 		bl	__aeabi_uidiv
 1507              	.LVL96:
1097:Drivers/STM32F0xx_HAL_Driver/Src/stm32f0xx_hal_rcc.c ****       }
 1508              		.loc 1 1097 16 view .LVU424
 1509 0076 6043     		muls	r0, r4
 1510              	.LVL97:
1097:Drivers/STM32F0xx_HAL_Driver/Src/stm32f0xx_hal_rcc.c ****       }
 1511              		.loc 1 1097 16 view .LVU425
 1512 0078 D9E7     		b	.L122
 1513              	.LVL98:
 1514              	.L127:
1077:Drivers/STM32F0xx_HAL_Driver/Src/stm32f0xx_hal_rcc.c ****   {
 1515              		.loc 1 1077 3 view .LVU426
 1516 007a 0548     		ldr	r0, .L130+16
 1517              	.LVL99:
1127:Drivers/STM32F0xx_HAL_Driver/Src/stm32f0xx_hal_rcc.c **** }
 1518              		.loc 1 1127 3 is_stmt 1 view .LVU427
1127:Drivers/STM32F0xx_HAL_Driver/Src/stm32f0xx_hal_rcc.c **** }
 1519              		.loc 1 1127 10 is_stmt 0 view .LVU428
 1520 007c D7E7     		b	.L122
 1521              	.L131:
 1522 007e C046     		.align	2
 1523              	.L130:
 1524 0080 00000000 		.word	.LC1
 1525 0084 14000000 		.word	.LC3
 1526 0088 00100240 		.word	1073876992
 1527 008c 006CDC02 		.word	48000000
 1528 0090 00127A00 		.word	8000000
 1529              		.cfi_endproc
 1530              	.LFE43:
 1532              		.section	.text.HAL_RCC_ClockConfig,"ax",%progbits
 1533              		.align	1
 1534              		.global	HAL_RCC_ClockConfig
 1535              		.syntax unified
 1536              		.code	16
 1537              		.thumb_func
 1538              		.fpu softvfp
 1540              	HAL_RCC_ClockConfig:
 1541              	.LVL100:
ARM GAS  /tmp/cc68hz7R.s 			page 51


 1542              	.LFB39:
 726:Drivers/STM32F0xx_HAL_Driver/Src/stm32f0xx_hal_rcc.c ****   uint32_t tickstart = 0U;
 1543              		.loc 1 726 1 is_stmt 1 view -0
 1544              		.cfi_startproc
 1545              		@ args = 0, pretend = 0, frame = 0
 1546              		@ frame_needed = 0, uses_anonymous_args = 0
 726:Drivers/STM32F0xx_HAL_Driver/Src/stm32f0xx_hal_rcc.c ****   uint32_t tickstart = 0U;
 1547              		.loc 1 726 1 is_stmt 0 view .LVU430
 1548 0000 70B5     		push	{r4, r5, r6, lr}
 1549              	.LCFI6:
 1550              		.cfi_def_cfa_offset 16
 1551              		.cfi_offset 4, -16
 1552              		.cfi_offset 5, -12
 1553              		.cfi_offset 6, -8
 1554              		.cfi_offset 14, -4
 1555 0002 0400     		movs	r4, r0
 1556 0004 0D00     		movs	r5, r1
 727:Drivers/STM32F0xx_HAL_Driver/Src/stm32f0xx_hal_rcc.c ****   
 1557              		.loc 1 727 3 is_stmt 1 view .LVU431
 1558              	.LVL101:
 730:Drivers/STM32F0xx_HAL_Driver/Src/stm32f0xx_hal_rcc.c ****   assert_param(IS_RCC_CLOCKTYPE(RCC_ClkInitStruct->ClockType));
 1559              		.loc 1 730 3 view .LVU432
 731:Drivers/STM32F0xx_HAL_Driver/Src/stm32f0xx_hal_rcc.c ****   assert_param(IS_FLASH_LATENCY(FLatency));
 1560              		.loc 1 731 3 view .LVU433
 732:Drivers/STM32F0xx_HAL_Driver/Src/stm32f0xx_hal_rcc.c **** 
 1561              		.loc 1 732 3 view .LVU434
 739:Drivers/STM32F0xx_HAL_Driver/Src/stm32f0xx_hal_rcc.c ****   {    
 1562              		.loc 1 739 3 view .LVU435
 739:Drivers/STM32F0xx_HAL_Driver/Src/stm32f0xx_hal_rcc.c ****   {    
 1563              		.loc 1 739 23 is_stmt 0 view .LVU436
 1564 0006 5A4B     		ldr	r3, .L169
 1565 0008 1A68     		ldr	r2, [r3]
 739:Drivers/STM32F0xx_HAL_Driver/Src/stm32f0xx_hal_rcc.c ****   {    
 1566              		.loc 1 739 29 view .LVU437
 1567 000a 0123     		movs	r3, #1
 1568 000c 1340     		ands	r3, r2
 739:Drivers/STM32F0xx_HAL_Driver/Src/stm32f0xx_hal_rcc.c ****   {    
 1569              		.loc 1 739 5 view .LVU438
 1570 000e 8B42     		cmp	r3, r1
 1571 0010 0AD2     		bcs	.L133
 742:Drivers/STM32F0xx_HAL_Driver/Src/stm32f0xx_hal_rcc.c ****     
 1572              		.loc 1 742 5 is_stmt 1 view .LVU439
 1573 0012 5749     		ldr	r1, .L169
 1574              	.LVL102:
 742:Drivers/STM32F0xx_HAL_Driver/Src/stm32f0xx_hal_rcc.c ****     
 1575              		.loc 1 742 5 is_stmt 0 view .LVU440
 1576 0014 0B68     		ldr	r3, [r1]
 1577 0016 0122     		movs	r2, #1
 1578 0018 9343     		bics	r3, r2
 1579 001a 2B43     		orrs	r3, r5
 1580 001c 0B60     		str	r3, [r1]
 746:Drivers/STM32F0xx_HAL_Driver/Src/stm32f0xx_hal_rcc.c ****     {
 1581              		.loc 1 746 5 is_stmt 1 view .LVU441
 746:Drivers/STM32F0xx_HAL_Driver/Src/stm32f0xx_hal_rcc.c ****     {
 1582              		.loc 1 746 14 is_stmt 0 view .LVU442
 1583 001e 0B68     		ldr	r3, [r1]
 746:Drivers/STM32F0xx_HAL_Driver/Src/stm32f0xx_hal_rcc.c ****     {
ARM GAS  /tmp/cc68hz7R.s 			page 52


 1584              		.loc 1 746 20 view .LVU443
 1585 0020 1A40     		ands	r2, r3
 746:Drivers/STM32F0xx_HAL_Driver/Src/stm32f0xx_hal_rcc.c ****     {
 1586              		.loc 1 746 7 view .LVU444
 1587 0022 AA42     		cmp	r2, r5
 1588 0024 00D0     		beq	.LCB1518
 1589 0026 9CE0     		b	.L153	@long jump
 1590              	.LCB1518:
 1591              	.L133:
 753:Drivers/STM32F0xx_HAL_Driver/Src/stm32f0xx_hal_rcc.c ****   {
 1592              		.loc 1 753 3 is_stmt 1 view .LVU445
 753:Drivers/STM32F0xx_HAL_Driver/Src/stm32f0xx_hal_rcc.c ****   {
 1593              		.loc 1 753 5 is_stmt 0 view .LVU446
 1594 0028 2368     		ldr	r3, [r4]
 1595 002a 9B07     		lsls	r3, r3, #30
 1596 002c 06D5     		bpl	.L135
 755:Drivers/STM32F0xx_HAL_Driver/Src/stm32f0xx_hal_rcc.c ****     MODIFY_REG(RCC->CFGR, RCC_CFGR_HPRE, RCC_ClkInitStruct->AHBCLKDivider);
 1597              		.loc 1 755 5 is_stmt 1 view .LVU447
 756:Drivers/STM32F0xx_HAL_Driver/Src/stm32f0xx_hal_rcc.c ****   }
 1598              		.loc 1 756 5 view .LVU448
 1599 002e 514A     		ldr	r2, .L169+4
 1600 0030 5368     		ldr	r3, [r2, #4]
 1601 0032 F021     		movs	r1, #240
 1602 0034 8B43     		bics	r3, r1
 1603 0036 A168     		ldr	r1, [r4, #8]
 1604 0038 0B43     		orrs	r3, r1
 1605 003a 5360     		str	r3, [r2, #4]
 1606              	.L135:
 760:Drivers/STM32F0xx_HAL_Driver/Src/stm32f0xx_hal_rcc.c ****   {    
 1607              		.loc 1 760 3 view .LVU449
 760:Drivers/STM32F0xx_HAL_Driver/Src/stm32f0xx_hal_rcc.c ****   {    
 1608              		.loc 1 760 5 is_stmt 0 view .LVU450
 1609 003c 2368     		ldr	r3, [r4]
 1610 003e DB07     		lsls	r3, r3, #31
 1611 0040 64D5     		bpl	.L136
 762:Drivers/STM32F0xx_HAL_Driver/Src/stm32f0xx_hal_rcc.c ****     
 1612              		.loc 1 762 5 is_stmt 1 view .LVU451
 765:Drivers/STM32F0xx_HAL_Driver/Src/stm32f0xx_hal_rcc.c ****     {
 1613              		.loc 1 765 5 view .LVU452
 765:Drivers/STM32F0xx_HAL_Driver/Src/stm32f0xx_hal_rcc.c ****     {
 1614              		.loc 1 765 25 is_stmt 0 view .LVU453
 1615 0042 6368     		ldr	r3, [r4, #4]
 765:Drivers/STM32F0xx_HAL_Driver/Src/stm32f0xx_hal_rcc.c ****     {
 1616              		.loc 1 765 7 view .LVU454
 1617 0044 012B     		cmp	r3, #1
 1618 0046 09D0     		beq	.L165
 774:Drivers/STM32F0xx_HAL_Driver/Src/stm32f0xx_hal_rcc.c ****     {
 1619              		.loc 1 774 10 is_stmt 1 view .LVU455
 774:Drivers/STM32F0xx_HAL_Driver/Src/stm32f0xx_hal_rcc.c ****     {
 1620              		.loc 1 774 12 is_stmt 0 view .LVU456
 1621 0048 022B     		cmp	r3, #2
 1622 004a 29D0     		beq	.L166
 784:Drivers/STM32F0xx_HAL_Driver/Src/stm32f0xx_hal_rcc.c ****     {
 1623              		.loc 1 784 10 is_stmt 1 view .LVU457
 784:Drivers/STM32F0xx_HAL_Driver/Src/stm32f0xx_hal_rcc.c ****     {
 1624              		.loc 1 784 12 is_stmt 0 view .LVU458
 1625 004c 032B     		cmp	r3, #3
ARM GAS  /tmp/cc68hz7R.s 			page 53


 1626 004e 2DD0     		beq	.L167
 797:Drivers/STM32F0xx_HAL_Driver/Src/stm32f0xx_hal_rcc.c ****       {
 1627              		.loc 1 797 7 is_stmt 1 view .LVU459
 797:Drivers/STM32F0xx_HAL_Driver/Src/stm32f0xx_hal_rcc.c ****       {
 1628              		.loc 1 797 10 is_stmt 0 view .LVU460
 1629 0050 484A     		ldr	r2, .L169+4
 1630 0052 1268     		ldr	r2, [r2]
 797:Drivers/STM32F0xx_HAL_Driver/Src/stm32f0xx_hal_rcc.c ****       {
 1631              		.loc 1 797 9 view .LVU461
 1632 0054 9207     		lsls	r2, r2, #30
 1633 0056 06D4     		bmi	.L138
 799:Drivers/STM32F0xx_HAL_Driver/Src/stm32f0xx_hal_rcc.c ****       }
 1634              		.loc 1 799 16 view .LVU462
 1635 0058 0120     		movs	r0, #1
 1636              	.LVL103:
 799:Drivers/STM32F0xx_HAL_Driver/Src/stm32f0xx_hal_rcc.c ****       }
 1637              		.loc 1 799 16 view .LVU463
 1638 005a 81E0     		b	.L134
 1639              	.LVL104:
 1640              	.L165:
 768:Drivers/STM32F0xx_HAL_Driver/Src/stm32f0xx_hal_rcc.c ****       {
 1641              		.loc 1 768 7 is_stmt 1 view .LVU464
 768:Drivers/STM32F0xx_HAL_Driver/Src/stm32f0xx_hal_rcc.c ****       {
 1642              		.loc 1 768 10 is_stmt 0 view .LVU465
 1643 005c 454A     		ldr	r2, .L169+4
 1644 005e 1268     		ldr	r2, [r2]
 768:Drivers/STM32F0xx_HAL_Driver/Src/stm32f0xx_hal_rcc.c ****       {
 1645              		.loc 1 768 9 view .LVU466
 1646 0060 9203     		lsls	r2, r2, #14
 1647 0062 00D4     		bmi	.LCB1577
 1648 0064 7FE0     		b	.L168	@long jump
 1649              	.LCB1577:
 1650              	.L138:
 802:Drivers/STM32F0xx_HAL_Driver/Src/stm32f0xx_hal_rcc.c **** 
 1651              		.loc 1 802 5 is_stmt 1 view .LVU467
 1652 0066 4349     		ldr	r1, .L169+4
 1653 0068 4A68     		ldr	r2, [r1, #4]
 1654 006a 0320     		movs	r0, #3
 1655              	.LVL105:
 802:Drivers/STM32F0xx_HAL_Driver/Src/stm32f0xx_hal_rcc.c **** 
 1656              		.loc 1 802 5 is_stmt 0 view .LVU468
 1657 006c 8243     		bics	r2, r0
 1658 006e 1343     		orrs	r3, r2
 1659 0070 4B60     		str	r3, [r1, #4]
 805:Drivers/STM32F0xx_HAL_Driver/Src/stm32f0xx_hal_rcc.c ****     
 1660              		.loc 1 805 5 is_stmt 1 view .LVU469
 805:Drivers/STM32F0xx_HAL_Driver/Src/stm32f0xx_hal_rcc.c ****     
 1661              		.loc 1 805 17 is_stmt 0 view .LVU470
 1662 0072 FFF7FEFF 		bl	HAL_GetTick
 1663              	.LVL106:
 1664 0076 0600     		movs	r6, r0
 1665              	.LVL107:
 807:Drivers/STM32F0xx_HAL_Driver/Src/stm32f0xx_hal_rcc.c ****     {
 1666              		.loc 1 807 5 is_stmt 1 view .LVU471
 807:Drivers/STM32F0xx_HAL_Driver/Src/stm32f0xx_hal_rcc.c ****     {
 1667              		.loc 1 807 25 is_stmt 0 view .LVU472
 1668 0078 6368     		ldr	r3, [r4, #4]
ARM GAS  /tmp/cc68hz7R.s 			page 54


 807:Drivers/STM32F0xx_HAL_Driver/Src/stm32f0xx_hal_rcc.c ****     {
 1669              		.loc 1 807 7 view .LVU473
 1670 007a 012B     		cmp	r3, #1
 1671 007c 1CD0     		beq	.L141
 817:Drivers/STM32F0xx_HAL_Driver/Src/stm32f0xx_hal_rcc.c ****     {
 1672              		.loc 1 817 10 is_stmt 1 view .LVU474
 817:Drivers/STM32F0xx_HAL_Driver/Src/stm32f0xx_hal_rcc.c ****     {
 1673              		.loc 1 817 12 is_stmt 0 view .LVU475
 1674 007e 022B     		cmp	r3, #2
 1675 0080 28D0     		beq	.L144
 828:Drivers/STM32F0xx_HAL_Driver/Src/stm32f0xx_hal_rcc.c ****     {
 1676              		.loc 1 828 10 is_stmt 1 view .LVU476
 828:Drivers/STM32F0xx_HAL_Driver/Src/stm32f0xx_hal_rcc.c ****     {
 1677              		.loc 1 828 12 is_stmt 0 view .LVU477
 1678 0082 032B     		cmp	r3, #3
 1679 0084 34D0     		beq	.L147
 1680              	.LVL108:
 1681              	.L148:
 841:Drivers/STM32F0xx_HAL_Driver/Src/stm32f0xx_hal_rcc.c ****       {
 1682              		.loc 1 841 13 is_stmt 1 view .LVU478
 841:Drivers/STM32F0xx_HAL_Driver/Src/stm32f0xx_hal_rcc.c ****       {
 1683              		.loc 1 841 14 is_stmt 0 view .LVU479
 1684 0086 3B4B     		ldr	r3, .L169+4
 1685 0088 5B68     		ldr	r3, [r3, #4]
 1686 008a 0C22     		movs	r2, #12
 841:Drivers/STM32F0xx_HAL_Driver/Src/stm32f0xx_hal_rcc.c ****       {
 1687              		.loc 1 841 13 view .LVU480
 1688 008c 1A42     		tst	r2, r3
 1689 008e 3DD0     		beq	.L136
 843:Drivers/STM32F0xx_HAL_Driver/Src/stm32f0xx_hal_rcc.c ****         {
 1690              		.loc 1 843 9 is_stmt 1 view .LVU481
 843:Drivers/STM32F0xx_HAL_Driver/Src/stm32f0xx_hal_rcc.c ****         {
 1691              		.loc 1 843 13 is_stmt 0 view .LVU482
 1692 0090 FFF7FEFF 		bl	HAL_GetTick
 1693              	.LVL109:
 843:Drivers/STM32F0xx_HAL_Driver/Src/stm32f0xx_hal_rcc.c ****         {
 1694              		.loc 1 843 27 view .LVU483
 1695 0094 801B     		subs	r0, r0, r6
 843:Drivers/STM32F0xx_HAL_Driver/Src/stm32f0xx_hal_rcc.c ****         {
 1696              		.loc 1 843 11 view .LVU484
 1697 0096 384B     		ldr	r3, .L169+8
 1698 0098 9842     		cmp	r0, r3
 1699 009a F4D9     		bls	.L148
 845:Drivers/STM32F0xx_HAL_Driver/Src/stm32f0xx_hal_rcc.c ****         }
 1700              		.loc 1 845 18 view .LVU485
 1701 009c 0320     		movs	r0, #3
 1702 009e 5FE0     		b	.L134
 1703              	.LVL110:
 1704              	.L166:
 777:Drivers/STM32F0xx_HAL_Driver/Src/stm32f0xx_hal_rcc.c ****       {
 1705              		.loc 1 777 7 is_stmt 1 view .LVU486
 777:Drivers/STM32F0xx_HAL_Driver/Src/stm32f0xx_hal_rcc.c ****       {
 1706              		.loc 1 777 10 is_stmt 0 view .LVU487
 1707 00a0 344A     		ldr	r2, .L169+4
 1708 00a2 1268     		ldr	r2, [r2]
 777:Drivers/STM32F0xx_HAL_Driver/Src/stm32f0xx_hal_rcc.c ****       {
 1709              		.loc 1 777 9 view .LVU488
ARM GAS  /tmp/cc68hz7R.s 			page 55


 1710 00a4 9201     		lsls	r2, r2, #6
 1711 00a6 DED4     		bmi	.L138
 779:Drivers/STM32F0xx_HAL_Driver/Src/stm32f0xx_hal_rcc.c ****       }
 1712              		.loc 1 779 16 view .LVU489
 1713 00a8 0120     		movs	r0, #1
 1714              	.LVL111:
 779:Drivers/STM32F0xx_HAL_Driver/Src/stm32f0xx_hal_rcc.c ****       }
 1715              		.loc 1 779 16 view .LVU490
 1716 00aa 59E0     		b	.L134
 1717              	.LVL112:
 1718              	.L167:
 787:Drivers/STM32F0xx_HAL_Driver/Src/stm32f0xx_hal_rcc.c ****       {
 1719              		.loc 1 787 7 is_stmt 1 view .LVU491
 787:Drivers/STM32F0xx_HAL_Driver/Src/stm32f0xx_hal_rcc.c ****       {
 1720              		.loc 1 787 10 is_stmt 0 view .LVU492
 1721 00ac 314A     		ldr	r2, .L169+4
 1722 00ae 526B     		ldr	r2, [r2, #52]
 787:Drivers/STM32F0xx_HAL_Driver/Src/stm32f0xx_hal_rcc.c ****       {
 1723              		.loc 1 787 9 view .LVU493
 1724 00b0 D203     		lsls	r2, r2, #15
 1725 00b2 D8D4     		bmi	.L138
 789:Drivers/STM32F0xx_HAL_Driver/Src/stm32f0xx_hal_rcc.c ****       }
 1726              		.loc 1 789 16 view .LVU494
 1727 00b4 0120     		movs	r0, #1
 1728              	.LVL113:
 789:Drivers/STM32F0xx_HAL_Driver/Src/stm32f0xx_hal_rcc.c ****       }
 1729              		.loc 1 789 16 view .LVU495
 1730 00b6 53E0     		b	.L134
 1731              	.LVL114:
 1732              	.L141:
 809:Drivers/STM32F0xx_HAL_Driver/Src/stm32f0xx_hal_rcc.c ****       {
 1733              		.loc 1 809 13 is_stmt 1 view .LVU496
 809:Drivers/STM32F0xx_HAL_Driver/Src/stm32f0xx_hal_rcc.c ****       {
 1734              		.loc 1 809 14 is_stmt 0 view .LVU497
 1735 00b8 2E4B     		ldr	r3, .L169+4
 1736 00ba 5A68     		ldr	r2, [r3, #4]
 1737 00bc 0C23     		movs	r3, #12
 1738 00be 1340     		ands	r3, r2
 809:Drivers/STM32F0xx_HAL_Driver/Src/stm32f0xx_hal_rcc.c ****       {
 1739              		.loc 1 809 13 view .LVU498
 1740 00c0 042B     		cmp	r3, #4
 1741 00c2 23D0     		beq	.L136
 811:Drivers/STM32F0xx_HAL_Driver/Src/stm32f0xx_hal_rcc.c ****         {
 1742              		.loc 1 811 9 is_stmt 1 view .LVU499
 811:Drivers/STM32F0xx_HAL_Driver/Src/stm32f0xx_hal_rcc.c ****         {
 1743              		.loc 1 811 13 is_stmt 0 view .LVU500
 1744 00c4 FFF7FEFF 		bl	HAL_GetTick
 1745              	.LVL115:
 811:Drivers/STM32F0xx_HAL_Driver/Src/stm32f0xx_hal_rcc.c ****         {
 1746              		.loc 1 811 27 view .LVU501
 1747 00c8 801B     		subs	r0, r0, r6
 811:Drivers/STM32F0xx_HAL_Driver/Src/stm32f0xx_hal_rcc.c ****         {
 1748              		.loc 1 811 11 view .LVU502
 1749 00ca 2B4A     		ldr	r2, .L169+8
 1750 00cc 9042     		cmp	r0, r2
 1751 00ce F3D9     		bls	.L141
 813:Drivers/STM32F0xx_HAL_Driver/Src/stm32f0xx_hal_rcc.c ****         }
ARM GAS  /tmp/cc68hz7R.s 			page 56


 1752              		.loc 1 813 18 view .LVU503
 1753 00d0 0320     		movs	r0, #3
 1754 00d2 45E0     		b	.L134
 1755              	.L144:
 819:Drivers/STM32F0xx_HAL_Driver/Src/stm32f0xx_hal_rcc.c ****       {
 1756              		.loc 1 819 13 is_stmt 1 view .LVU504
 819:Drivers/STM32F0xx_HAL_Driver/Src/stm32f0xx_hal_rcc.c ****       {
 1757              		.loc 1 819 14 is_stmt 0 view .LVU505
 1758 00d4 274B     		ldr	r3, .L169+4
 1759 00d6 5A68     		ldr	r2, [r3, #4]
 1760 00d8 0C23     		movs	r3, #12
 1761 00da 1340     		ands	r3, r2
 819:Drivers/STM32F0xx_HAL_Driver/Src/stm32f0xx_hal_rcc.c ****       {
 1762              		.loc 1 819 13 view .LVU506
 1763 00dc 082B     		cmp	r3, #8
 1764 00de 15D0     		beq	.L136
 821:Drivers/STM32F0xx_HAL_Driver/Src/stm32f0xx_hal_rcc.c ****         {
 1765              		.loc 1 821 9 is_stmt 1 view .LVU507
 821:Drivers/STM32F0xx_HAL_Driver/Src/stm32f0xx_hal_rcc.c ****         {
 1766              		.loc 1 821 13 is_stmt 0 view .LVU508
 1767 00e0 FFF7FEFF 		bl	HAL_GetTick
 1768              	.LVL116:
 821:Drivers/STM32F0xx_HAL_Driver/Src/stm32f0xx_hal_rcc.c ****         {
 1769              		.loc 1 821 27 view .LVU509
 1770 00e4 801B     		subs	r0, r0, r6
 821:Drivers/STM32F0xx_HAL_Driver/Src/stm32f0xx_hal_rcc.c ****         {
 1771              		.loc 1 821 11 view .LVU510
 1772 00e6 244B     		ldr	r3, .L169+8
 1773 00e8 9842     		cmp	r0, r3
 1774 00ea F3D9     		bls	.L144
 823:Drivers/STM32F0xx_HAL_Driver/Src/stm32f0xx_hal_rcc.c ****         }
 1775              		.loc 1 823 18 view .LVU511
 1776 00ec 0320     		movs	r0, #3
 1777 00ee 37E0     		b	.L134
 1778              	.L147:
 830:Drivers/STM32F0xx_HAL_Driver/Src/stm32f0xx_hal_rcc.c ****       {
 1779              		.loc 1 830 13 is_stmt 1 view .LVU512
 830:Drivers/STM32F0xx_HAL_Driver/Src/stm32f0xx_hal_rcc.c ****       {
 1780              		.loc 1 830 14 is_stmt 0 view .LVU513
 1781 00f0 204B     		ldr	r3, .L169+4
 1782 00f2 5A68     		ldr	r2, [r3, #4]
 1783 00f4 0C23     		movs	r3, #12
 1784 00f6 1340     		ands	r3, r2
 830:Drivers/STM32F0xx_HAL_Driver/Src/stm32f0xx_hal_rcc.c ****       {
 1785              		.loc 1 830 13 view .LVU514
 1786 00f8 0C2B     		cmp	r3, #12
 1787 00fa 07D0     		beq	.L136
 832:Drivers/STM32F0xx_HAL_Driver/Src/stm32f0xx_hal_rcc.c ****         {
 1788              		.loc 1 832 9 is_stmt 1 view .LVU515
 832:Drivers/STM32F0xx_HAL_Driver/Src/stm32f0xx_hal_rcc.c ****         {
 1789              		.loc 1 832 13 is_stmt 0 view .LVU516
 1790 00fc FFF7FEFF 		bl	HAL_GetTick
 1791              	.LVL117:
 832:Drivers/STM32F0xx_HAL_Driver/Src/stm32f0xx_hal_rcc.c ****         {
 1792              		.loc 1 832 27 view .LVU517
 1793 0100 801B     		subs	r0, r0, r6
 832:Drivers/STM32F0xx_HAL_Driver/Src/stm32f0xx_hal_rcc.c ****         {
ARM GAS  /tmp/cc68hz7R.s 			page 57


 1794              		.loc 1 832 11 view .LVU518
 1795 0102 1D4B     		ldr	r3, .L169+8
 1796 0104 9842     		cmp	r0, r3
 1797 0106 F3D9     		bls	.L147
 834:Drivers/STM32F0xx_HAL_Driver/Src/stm32f0xx_hal_rcc.c ****         }
 1798              		.loc 1 834 18 view .LVU519
 1799 0108 0320     		movs	r0, #3
 1800 010a 29E0     		b	.L134
 1801              	.LVL118:
 1802              	.L136:
 851:Drivers/STM32F0xx_HAL_Driver/Src/stm32f0xx_hal_rcc.c ****   {    
 1803              		.loc 1 851 3 is_stmt 1 view .LVU520
 851:Drivers/STM32F0xx_HAL_Driver/Src/stm32f0xx_hal_rcc.c ****   {    
 1804              		.loc 1 851 23 is_stmt 0 view .LVU521
 1805 010c 184B     		ldr	r3, .L169
 1806 010e 1A68     		ldr	r2, [r3]
 851:Drivers/STM32F0xx_HAL_Driver/Src/stm32f0xx_hal_rcc.c ****   {    
 1807              		.loc 1 851 29 view .LVU522
 1808 0110 0123     		movs	r3, #1
 1809 0112 1340     		ands	r3, r2
 851:Drivers/STM32F0xx_HAL_Driver/Src/stm32f0xx_hal_rcc.c ****   {    
 1810              		.loc 1 851 5 view .LVU523
 1811 0114 AB42     		cmp	r3, r5
 1812 0116 09D9     		bls	.L151
 854:Drivers/STM32F0xx_HAL_Driver/Src/stm32f0xx_hal_rcc.c ****     
 1813              		.loc 1 854 5 is_stmt 1 view .LVU524
 1814 0118 1549     		ldr	r1, .L169
 1815 011a 0B68     		ldr	r3, [r1]
 1816 011c 0122     		movs	r2, #1
 1817 011e 9343     		bics	r3, r2
 1818 0120 2B43     		orrs	r3, r5
 1819 0122 0B60     		str	r3, [r1]
 858:Drivers/STM32F0xx_HAL_Driver/Src/stm32f0xx_hal_rcc.c ****     {
 1820              		.loc 1 858 5 view .LVU525
 858:Drivers/STM32F0xx_HAL_Driver/Src/stm32f0xx_hal_rcc.c ****     {
 1821              		.loc 1 858 14 is_stmt 0 view .LVU526
 1822 0124 0B68     		ldr	r3, [r1]
 858:Drivers/STM32F0xx_HAL_Driver/Src/stm32f0xx_hal_rcc.c ****     {
 1823              		.loc 1 858 20 view .LVU527
 1824 0126 1A40     		ands	r2, r3
 858:Drivers/STM32F0xx_HAL_Driver/Src/stm32f0xx_hal_rcc.c ****     {
 1825              		.loc 1 858 7 view .LVU528
 1826 0128 AA42     		cmp	r2, r5
 1827 012a 1ED1     		bne	.L162
 1828              	.L151:
 865:Drivers/STM32F0xx_HAL_Driver/Src/stm32f0xx_hal_rcc.c ****   {
 1829              		.loc 1 865 3 is_stmt 1 view .LVU529
 865:Drivers/STM32F0xx_HAL_Driver/Src/stm32f0xx_hal_rcc.c ****   {
 1830              		.loc 1 865 5 is_stmt 0 view .LVU530
 1831 012c 2368     		ldr	r3, [r4]
 1832 012e 5B07     		lsls	r3, r3, #29
 1833 0130 06D5     		bpl	.L152
 867:Drivers/STM32F0xx_HAL_Driver/Src/stm32f0xx_hal_rcc.c ****     MODIFY_REG(RCC->CFGR, RCC_CFGR_PPRE, RCC_ClkInitStruct->APB1CLKDivider);
 1834              		.loc 1 867 5 is_stmt 1 view .LVU531
 868:Drivers/STM32F0xx_HAL_Driver/Src/stm32f0xx_hal_rcc.c ****   }
 1835              		.loc 1 868 5 view .LVU532
 1836 0132 104A     		ldr	r2, .L169+4
ARM GAS  /tmp/cc68hz7R.s 			page 58


 1837 0134 5368     		ldr	r3, [r2, #4]
 1838 0136 1149     		ldr	r1, .L169+12
 1839 0138 0B40     		ands	r3, r1
 1840 013a E168     		ldr	r1, [r4, #12]
 1841 013c 0B43     		orrs	r3, r1
 1842 013e 5360     		str	r3, [r2, #4]
 1843              	.L152:
 872:Drivers/STM32F0xx_HAL_Driver/Src/stm32f0xx_hal_rcc.c **** 
 1844              		.loc 1 872 3 view .LVU533
 872:Drivers/STM32F0xx_HAL_Driver/Src/stm32f0xx_hal_rcc.c **** 
 1845              		.loc 1 872 21 is_stmt 0 view .LVU534
 1846 0140 FFF7FEFF 		bl	HAL_RCC_GetSysClockFreq
 1847              	.LVL119:
 872:Drivers/STM32F0xx_HAL_Driver/Src/stm32f0xx_hal_rcc.c **** 
 1848              		.loc 1 872 68 view .LVU535
 1849 0144 0B4B     		ldr	r3, .L169+4
 1850 0146 5A68     		ldr	r2, [r3, #4]
 872:Drivers/STM32F0xx_HAL_Driver/Src/stm32f0xx_hal_rcc.c **** 
 1851              		.loc 1 872 91 view .LVU536
 1852 0148 1209     		lsrs	r2, r2, #4
 1853 014a 0F23     		movs	r3, #15
 1854 014c 1340     		ands	r3, r2
 872:Drivers/STM32F0xx_HAL_Driver/Src/stm32f0xx_hal_rcc.c **** 
 1855              		.loc 1 872 63 view .LVU537
 1856 014e 0C4A     		ldr	r2, .L169+16
 1857 0150 D35C     		ldrb	r3, [r2, r3]
 872:Drivers/STM32F0xx_HAL_Driver/Src/stm32f0xx_hal_rcc.c **** 
 1858              		.loc 1 872 47 view .LVU538
 1859 0152 D840     		lsrs	r0, r0, r3
 872:Drivers/STM32F0xx_HAL_Driver/Src/stm32f0xx_hal_rcc.c **** 
 1860              		.loc 1 872 19 view .LVU539
 1861 0154 0B4B     		ldr	r3, .L169+20
 1862 0156 1860     		str	r0, [r3]
 875:Drivers/STM32F0xx_HAL_Driver/Src/stm32f0xx_hal_rcc.c ****   
 1863              		.loc 1 875 3 is_stmt 1 view .LVU540
 1864 0158 0020     		movs	r0, #0
 1865 015a FFF7FEFF 		bl	HAL_InitTick
 1866              	.LVL120:
 877:Drivers/STM32F0xx_HAL_Driver/Src/stm32f0xx_hal_rcc.c **** }
 1867              		.loc 1 877 3 view .LVU541
 877:Drivers/STM32F0xx_HAL_Driver/Src/stm32f0xx_hal_rcc.c **** }
 1868              		.loc 1 877 10 is_stmt 0 view .LVU542
 1869 015e 0020     		movs	r0, #0
 1870              	.L134:
 878:Drivers/STM32F0xx_HAL_Driver/Src/stm32f0xx_hal_rcc.c **** 
 1871              		.loc 1 878 1 view .LVU543
 1872              		@ sp needed
 1873              	.LVL121:
 1874              	.LVL122:
 878:Drivers/STM32F0xx_HAL_Driver/Src/stm32f0xx_hal_rcc.c **** 
 1875              		.loc 1 878 1 view .LVU544
 1876 0160 70BD     		pop	{r4, r5, r6, pc}
 1877              	.LVL123:
 1878              	.L153:
 748:Drivers/STM32F0xx_HAL_Driver/Src/stm32f0xx_hal_rcc.c ****     }
 1879              		.loc 1 748 14 view .LVU545
 1880 0162 0120     		movs	r0, #1
ARM GAS  /tmp/cc68hz7R.s 			page 59


 1881              	.LVL124:
 748:Drivers/STM32F0xx_HAL_Driver/Src/stm32f0xx_hal_rcc.c ****     }
 1882              		.loc 1 748 14 view .LVU546
 1883 0164 FCE7     		b	.L134
 1884              	.LVL125:
 1885              	.L168:
 770:Drivers/STM32F0xx_HAL_Driver/Src/stm32f0xx_hal_rcc.c ****       }
 1886              		.loc 1 770 16 view .LVU547
 1887 0166 0120     		movs	r0, #1
 1888              	.LVL126:
 770:Drivers/STM32F0xx_HAL_Driver/Src/stm32f0xx_hal_rcc.c ****       }
 1889              		.loc 1 770 16 view .LVU548
 1890 0168 FAE7     		b	.L134
 1891              	.LVL127:
 1892              	.L162:
 860:Drivers/STM32F0xx_HAL_Driver/Src/stm32f0xx_hal_rcc.c ****     }
 1893              		.loc 1 860 14 view .LVU549
 1894 016a 0120     		movs	r0, #1
 1895 016c F8E7     		b	.L134
 1896              	.L170:
 1897 016e C046     		.align	2
 1898              	.L169:
 1899 0170 00200240 		.word	1073881088
 1900 0174 00100240 		.word	1073876992
 1901 0178 88130000 		.word	5000
 1902 017c FFF8FFFF 		.word	-1793
 1903 0180 00000000 		.word	AHBPrescTable
 1904 0184 00000000 		.word	SystemCoreClock
 1905              		.cfi_endproc
 1906              	.LFE39:
 1908              		.section	.text.HAL_RCC_GetHCLKFreq,"ax",%progbits
 1909              		.align	1
 1910              		.global	HAL_RCC_GetHCLKFreq
 1911              		.syntax unified
 1912              		.code	16
 1913              		.thumb_func
 1914              		.fpu softvfp
 1916              	HAL_RCC_GetHCLKFreq:
 1917              	.LFB44:
1129:Drivers/STM32F0xx_HAL_Driver/Src/stm32f0xx_hal_rcc.c **** 
1130:Drivers/STM32F0xx_HAL_Driver/Src/stm32f0xx_hal_rcc.c **** /**
1131:Drivers/STM32F0xx_HAL_Driver/Src/stm32f0xx_hal_rcc.c ****   * @brief  Returns the HCLK frequency     
1132:Drivers/STM32F0xx_HAL_Driver/Src/stm32f0xx_hal_rcc.c ****   * @note   Each time HCLK changes, this function must be called to update the
1133:Drivers/STM32F0xx_HAL_Driver/Src/stm32f0xx_hal_rcc.c ****   *         right HCLK value. Otherwise, any configuration based on this function will be incorrect
1134:Drivers/STM32F0xx_HAL_Driver/Src/stm32f0xx_hal_rcc.c ****   * 
1135:Drivers/STM32F0xx_HAL_Driver/Src/stm32f0xx_hal_rcc.c ****   * @note   The SystemCoreClock CMSIS variable is used to store System Clock Frequency 
1136:Drivers/STM32F0xx_HAL_Driver/Src/stm32f0xx_hal_rcc.c ****   *         and updated within this function
1137:Drivers/STM32F0xx_HAL_Driver/Src/stm32f0xx_hal_rcc.c ****   * @retval HCLK frequency
1138:Drivers/STM32F0xx_HAL_Driver/Src/stm32f0xx_hal_rcc.c ****   */
1139:Drivers/STM32F0xx_HAL_Driver/Src/stm32f0xx_hal_rcc.c **** uint32_t HAL_RCC_GetHCLKFreq(void)
1140:Drivers/STM32F0xx_HAL_Driver/Src/stm32f0xx_hal_rcc.c **** {
 1918              		.loc 1 1140 1 is_stmt 1 view -0
 1919              		.cfi_startproc
 1920              		@ args = 0, pretend = 0, frame = 0
 1921              		@ frame_needed = 0, uses_anonymous_args = 0
 1922              		@ link register save eliminated.
1141:Drivers/STM32F0xx_HAL_Driver/Src/stm32f0xx_hal_rcc.c ****   return SystemCoreClock;
ARM GAS  /tmp/cc68hz7R.s 			page 60


 1923              		.loc 1 1141 3 view .LVU551
 1924              		.loc 1 1141 10 is_stmt 0 view .LVU552
 1925 0000 014B     		ldr	r3, .L172
 1926 0002 1868     		ldr	r0, [r3]
1142:Drivers/STM32F0xx_HAL_Driver/Src/stm32f0xx_hal_rcc.c **** }
 1927              		.loc 1 1142 1 view .LVU553
 1928              		@ sp needed
 1929 0004 7047     		bx	lr
 1930              	.L173:
 1931 0006 C046     		.align	2
 1932              	.L172:
 1933 0008 00000000 		.word	SystemCoreClock
 1934              		.cfi_endproc
 1935              	.LFE44:
 1937              		.section	.text.HAL_RCC_GetPCLK1Freq,"ax",%progbits
 1938              		.align	1
 1939              		.global	HAL_RCC_GetPCLK1Freq
 1940              		.syntax unified
 1941              		.code	16
 1942              		.thumb_func
 1943              		.fpu softvfp
 1945              	HAL_RCC_GetPCLK1Freq:
 1946              	.LFB45:
1143:Drivers/STM32F0xx_HAL_Driver/Src/stm32f0xx_hal_rcc.c **** 
1144:Drivers/STM32F0xx_HAL_Driver/Src/stm32f0xx_hal_rcc.c **** /**
1145:Drivers/STM32F0xx_HAL_Driver/Src/stm32f0xx_hal_rcc.c ****   * @brief  Returns the PCLK1 frequency     
1146:Drivers/STM32F0xx_HAL_Driver/Src/stm32f0xx_hal_rcc.c ****   * @note   Each time PCLK1 changes, this function must be called to update the
1147:Drivers/STM32F0xx_HAL_Driver/Src/stm32f0xx_hal_rcc.c ****   *         right PCLK1 value. Otherwise, any configuration based on this function will be incorrec
1148:Drivers/STM32F0xx_HAL_Driver/Src/stm32f0xx_hal_rcc.c ****   * @retval PCLK1 frequency
1149:Drivers/STM32F0xx_HAL_Driver/Src/stm32f0xx_hal_rcc.c ****   */
1150:Drivers/STM32F0xx_HAL_Driver/Src/stm32f0xx_hal_rcc.c **** uint32_t HAL_RCC_GetPCLK1Freq(void)
1151:Drivers/STM32F0xx_HAL_Driver/Src/stm32f0xx_hal_rcc.c **** {
 1947              		.loc 1 1151 1 is_stmt 1 view -0
 1948              		.cfi_startproc
 1949              		@ args = 0, pretend = 0, frame = 0
 1950              		@ frame_needed = 0, uses_anonymous_args = 0
 1951 0000 10B5     		push	{r4, lr}
 1952              	.LCFI7:
 1953              		.cfi_def_cfa_offset 8
 1954              		.cfi_offset 4, -8
 1955              		.cfi_offset 14, -4
1152:Drivers/STM32F0xx_HAL_Driver/Src/stm32f0xx_hal_rcc.c ****   /* Get HCLK source and Compute PCLK1 frequency ---------------------------*/
1153:Drivers/STM32F0xx_HAL_Driver/Src/stm32f0xx_hal_rcc.c ****   return (HAL_RCC_GetHCLKFreq() >> APBPrescTable[(RCC->CFGR & RCC_CFGR_PPRE) >> RCC_CFGR_PPRE_BITNU
 1956              		.loc 1 1153 3 view .LVU555
 1957              		.loc 1 1153 11 is_stmt 0 view .LVU556
 1958 0002 FFF7FEFF 		bl	HAL_RCC_GetHCLKFreq
 1959              	.LVL128:
 1960              		.loc 1 1153 54 view .LVU557
 1961 0006 044B     		ldr	r3, .L175
 1962 0008 5A68     		ldr	r2, [r3, #4]
 1963              		.loc 1 1153 78 view .LVU558
 1964 000a 120A     		lsrs	r2, r2, #8
 1965 000c 0723     		movs	r3, #7
 1966 000e 1340     		ands	r3, r2
 1967              		.loc 1 1153 49 view .LVU559
 1968 0010 024A     		ldr	r2, .L175+4
 1969 0012 D35C     		ldrb	r3, [r2, r3]
ARM GAS  /tmp/cc68hz7R.s 			page 61


 1970              		.loc 1 1153 33 view .LVU560
 1971 0014 D840     		lsrs	r0, r0, r3
1154:Drivers/STM32F0xx_HAL_Driver/Src/stm32f0xx_hal_rcc.c **** }    
 1972              		.loc 1 1154 1 view .LVU561
 1973              		@ sp needed
 1974 0016 10BD     		pop	{r4, pc}
 1975              	.L176:
 1976              		.align	2
 1977              	.L175:
 1978 0018 00100240 		.word	1073876992
 1979 001c 00000000 		.word	APBPrescTable
 1980              		.cfi_endproc
 1981              	.LFE45:
 1983              		.section	.text.HAL_RCC_GetOscConfig,"ax",%progbits
 1984              		.align	1
 1985              		.global	HAL_RCC_GetOscConfig
 1986              		.syntax unified
 1987              		.code	16
 1988              		.thumb_func
 1989              		.fpu softvfp
 1991              	HAL_RCC_GetOscConfig:
 1992              	.LVL129:
 1993              	.LFB46:
1155:Drivers/STM32F0xx_HAL_Driver/Src/stm32f0xx_hal_rcc.c **** 
1156:Drivers/STM32F0xx_HAL_Driver/Src/stm32f0xx_hal_rcc.c **** /**
1157:Drivers/STM32F0xx_HAL_Driver/Src/stm32f0xx_hal_rcc.c ****   * @brief  Configures the RCC_OscInitStruct according to the internal 
1158:Drivers/STM32F0xx_HAL_Driver/Src/stm32f0xx_hal_rcc.c ****   * RCC configuration registers.
1159:Drivers/STM32F0xx_HAL_Driver/Src/stm32f0xx_hal_rcc.c ****   * @param  RCC_OscInitStruct pointer to an RCC_OscInitTypeDef structure that 
1160:Drivers/STM32F0xx_HAL_Driver/Src/stm32f0xx_hal_rcc.c ****   * will be configured.
1161:Drivers/STM32F0xx_HAL_Driver/Src/stm32f0xx_hal_rcc.c ****   * @retval None
1162:Drivers/STM32F0xx_HAL_Driver/Src/stm32f0xx_hal_rcc.c ****   */
1163:Drivers/STM32F0xx_HAL_Driver/Src/stm32f0xx_hal_rcc.c **** void HAL_RCC_GetOscConfig(RCC_OscInitTypeDef  *RCC_OscInitStruct)
1164:Drivers/STM32F0xx_HAL_Driver/Src/stm32f0xx_hal_rcc.c **** {
 1994              		.loc 1 1164 1 is_stmt 1 view -0
 1995              		.cfi_startproc
 1996              		@ args = 0, pretend = 0, frame = 0
 1997              		@ frame_needed = 0, uses_anonymous_args = 0
 1998              		@ link register save eliminated.
1165:Drivers/STM32F0xx_HAL_Driver/Src/stm32f0xx_hal_rcc.c ****   /* Check the parameters */
1166:Drivers/STM32F0xx_HAL_Driver/Src/stm32f0xx_hal_rcc.c ****   assert_param(RCC_OscInitStruct != NULL);
 1999              		.loc 1 1166 3 view .LVU563
1167:Drivers/STM32F0xx_HAL_Driver/Src/stm32f0xx_hal_rcc.c **** 
1168:Drivers/STM32F0xx_HAL_Driver/Src/stm32f0xx_hal_rcc.c ****   /* Set all possible values for the Oscillator type parameter ---------------*/
1169:Drivers/STM32F0xx_HAL_Driver/Src/stm32f0xx_hal_rcc.c ****   RCC_OscInitStruct->OscillatorType = RCC_OSCILLATORTYPE_HSE | RCC_OSCILLATORTYPE_HSI  \
 2000              		.loc 1 1169 3 view .LVU564
 2001              		.loc 1 1169 37 is_stmt 0 view .LVU565
 2002 0000 1F23     		movs	r3, #31
 2003 0002 0360     		str	r3, [r0]
1170:Drivers/STM32F0xx_HAL_Driver/Src/stm32f0xx_hal_rcc.c ****                   | RCC_OSCILLATORTYPE_LSE | RCC_OSCILLATORTYPE_LSI | RCC_OSCILLATORTYPE_HSI14;
1171:Drivers/STM32F0xx_HAL_Driver/Src/stm32f0xx_hal_rcc.c **** #if defined(RCC_HSI48_SUPPORT)
1172:Drivers/STM32F0xx_HAL_Driver/Src/stm32f0xx_hal_rcc.c ****   RCC_OscInitStruct->OscillatorType |= RCC_OSCILLATORTYPE_HSI48;
 2004              		.loc 1 1172 3 is_stmt 1 view .LVU566
 2005              		.loc 1 1172 37 is_stmt 0 view .LVU567
 2006 0004 2033     		adds	r3, r3, #32
 2007 0006 0360     		str	r3, [r0]
1173:Drivers/STM32F0xx_HAL_Driver/Src/stm32f0xx_hal_rcc.c **** #endif /* RCC_HSI48_SUPPORT */
1174:Drivers/STM32F0xx_HAL_Driver/Src/stm32f0xx_hal_rcc.c **** 
ARM GAS  /tmp/cc68hz7R.s 			page 62


1175:Drivers/STM32F0xx_HAL_Driver/Src/stm32f0xx_hal_rcc.c **** 
1176:Drivers/STM32F0xx_HAL_Driver/Src/stm32f0xx_hal_rcc.c ****   /* Get the HSE configuration -----------------------------------------------*/
1177:Drivers/STM32F0xx_HAL_Driver/Src/stm32f0xx_hal_rcc.c ****   if((RCC->CR &RCC_CR_HSEBYP) == RCC_CR_HSEBYP)
 2008              		.loc 1 1177 3 is_stmt 1 view .LVU568
 2009              		.loc 1 1177 10 is_stmt 0 view .LVU569
 2010 0008 324B     		ldr	r3, .L192
 2011 000a 1B68     		ldr	r3, [r3]
 2012              		.loc 1 1177 5 view .LVU570
 2013 000c 5B03     		lsls	r3, r3, #13
 2014 000e 40D5     		bpl	.L178
1178:Drivers/STM32F0xx_HAL_Driver/Src/stm32f0xx_hal_rcc.c ****   {
1179:Drivers/STM32F0xx_HAL_Driver/Src/stm32f0xx_hal_rcc.c ****     RCC_OscInitStruct->HSEState = RCC_HSE_BYPASS;
 2015              		.loc 1 1179 5 is_stmt 1 view .LVU571
 2016              		.loc 1 1179 33 is_stmt 0 view .LVU572
 2017 0010 0523     		movs	r3, #5
 2018 0012 4360     		str	r3, [r0, #4]
 2019              	.L179:
1180:Drivers/STM32F0xx_HAL_Driver/Src/stm32f0xx_hal_rcc.c ****   }
1181:Drivers/STM32F0xx_HAL_Driver/Src/stm32f0xx_hal_rcc.c ****   else if((RCC->CR &RCC_CR_HSEON) == RCC_CR_HSEON)
1182:Drivers/STM32F0xx_HAL_Driver/Src/stm32f0xx_hal_rcc.c ****   {
1183:Drivers/STM32F0xx_HAL_Driver/Src/stm32f0xx_hal_rcc.c ****     RCC_OscInitStruct->HSEState = RCC_HSE_ON;
1184:Drivers/STM32F0xx_HAL_Driver/Src/stm32f0xx_hal_rcc.c ****   }
1185:Drivers/STM32F0xx_HAL_Driver/Src/stm32f0xx_hal_rcc.c ****   else
1186:Drivers/STM32F0xx_HAL_Driver/Src/stm32f0xx_hal_rcc.c ****   {
1187:Drivers/STM32F0xx_HAL_Driver/Src/stm32f0xx_hal_rcc.c ****     RCC_OscInitStruct->HSEState = RCC_HSE_OFF;
1188:Drivers/STM32F0xx_HAL_Driver/Src/stm32f0xx_hal_rcc.c ****   }
1189:Drivers/STM32F0xx_HAL_Driver/Src/stm32f0xx_hal_rcc.c **** 
1190:Drivers/STM32F0xx_HAL_Driver/Src/stm32f0xx_hal_rcc.c ****   /* Get the HSI configuration -----------------------------------------------*/
1191:Drivers/STM32F0xx_HAL_Driver/Src/stm32f0xx_hal_rcc.c ****   if((RCC->CR &RCC_CR_HSION) == RCC_CR_HSION)
 2020              		.loc 1 1191 3 is_stmt 1 view .LVU573
 2021              		.loc 1 1191 10 is_stmt 0 view .LVU574
 2022 0014 2F4B     		ldr	r3, .L192
 2023 0016 1B68     		ldr	r3, [r3]
 2024              		.loc 1 1191 5 view .LVU575
 2025 0018 DB07     		lsls	r3, r3, #31
 2026 001a 44D5     		bpl	.L181
1192:Drivers/STM32F0xx_HAL_Driver/Src/stm32f0xx_hal_rcc.c ****   {
1193:Drivers/STM32F0xx_HAL_Driver/Src/stm32f0xx_hal_rcc.c ****     RCC_OscInitStruct->HSIState = RCC_HSI_ON;
 2027              		.loc 1 1193 5 is_stmt 1 view .LVU576
 2028              		.loc 1 1193 33 is_stmt 0 view .LVU577
 2029 001c 0123     		movs	r3, #1
 2030 001e C360     		str	r3, [r0, #12]
 2031              	.L182:
1194:Drivers/STM32F0xx_HAL_Driver/Src/stm32f0xx_hal_rcc.c ****   }
1195:Drivers/STM32F0xx_HAL_Driver/Src/stm32f0xx_hal_rcc.c ****   else
1196:Drivers/STM32F0xx_HAL_Driver/Src/stm32f0xx_hal_rcc.c ****   {
1197:Drivers/STM32F0xx_HAL_Driver/Src/stm32f0xx_hal_rcc.c ****     RCC_OscInitStruct->HSIState = RCC_HSI_OFF;
1198:Drivers/STM32F0xx_HAL_Driver/Src/stm32f0xx_hal_rcc.c ****   }
1199:Drivers/STM32F0xx_HAL_Driver/Src/stm32f0xx_hal_rcc.c ****   
1200:Drivers/STM32F0xx_HAL_Driver/Src/stm32f0xx_hal_rcc.c ****   RCC_OscInitStruct->HSICalibrationValue = (uint32_t)((RCC->CR &RCC_CR_HSITRIM) >> RCC_CR_HSITRIM_B
 2032              		.loc 1 1200 3 is_stmt 1 view .LVU578
 2033              		.loc 1 1200 59 is_stmt 0 view .LVU579
 2034 0020 2C49     		ldr	r1, .L192
 2035 0022 0A68     		ldr	r2, [r1]
 2036              		.loc 1 1200 44 view .LVU580
 2037 0024 D208     		lsrs	r2, r2, #3
 2038 0026 1F23     		movs	r3, #31
ARM GAS  /tmp/cc68hz7R.s 			page 63


 2039 0028 1340     		ands	r3, r2
 2040              		.loc 1 1200 42 view .LVU581
 2041 002a 0361     		str	r3, [r0, #16]
1201:Drivers/STM32F0xx_HAL_Driver/Src/stm32f0xx_hal_rcc.c ****   
1202:Drivers/STM32F0xx_HAL_Driver/Src/stm32f0xx_hal_rcc.c ****   /* Get the LSE configuration -----------------------------------------------*/
1203:Drivers/STM32F0xx_HAL_Driver/Src/stm32f0xx_hal_rcc.c ****   if((RCC->BDCR &RCC_BDCR_LSEBYP) == RCC_BDCR_LSEBYP)
 2042              		.loc 1 1203 3 is_stmt 1 view .LVU582
 2043              		.loc 1 1203 10 is_stmt 0 view .LVU583
 2044 002c 0B6A     		ldr	r3, [r1, #32]
 2045              		.loc 1 1203 5 view .LVU584
 2046 002e 5B07     		lsls	r3, r3, #29
 2047 0030 3CD5     		bpl	.L183
1204:Drivers/STM32F0xx_HAL_Driver/Src/stm32f0xx_hal_rcc.c ****   {
1205:Drivers/STM32F0xx_HAL_Driver/Src/stm32f0xx_hal_rcc.c ****     RCC_OscInitStruct->LSEState = RCC_LSE_BYPASS;
 2048              		.loc 1 1205 5 is_stmt 1 view .LVU585
 2049              		.loc 1 1205 33 is_stmt 0 view .LVU586
 2050 0032 0523     		movs	r3, #5
 2051 0034 8360     		str	r3, [r0, #8]
 2052              	.L184:
1206:Drivers/STM32F0xx_HAL_Driver/Src/stm32f0xx_hal_rcc.c ****   }
1207:Drivers/STM32F0xx_HAL_Driver/Src/stm32f0xx_hal_rcc.c ****   else if((RCC->BDCR &RCC_BDCR_LSEON) == RCC_BDCR_LSEON)
1208:Drivers/STM32F0xx_HAL_Driver/Src/stm32f0xx_hal_rcc.c ****   {
1209:Drivers/STM32F0xx_HAL_Driver/Src/stm32f0xx_hal_rcc.c ****     RCC_OscInitStruct->LSEState = RCC_LSE_ON;
1210:Drivers/STM32F0xx_HAL_Driver/Src/stm32f0xx_hal_rcc.c ****   }
1211:Drivers/STM32F0xx_HAL_Driver/Src/stm32f0xx_hal_rcc.c ****   else
1212:Drivers/STM32F0xx_HAL_Driver/Src/stm32f0xx_hal_rcc.c ****   {
1213:Drivers/STM32F0xx_HAL_Driver/Src/stm32f0xx_hal_rcc.c ****     RCC_OscInitStruct->LSEState = RCC_LSE_OFF;
1214:Drivers/STM32F0xx_HAL_Driver/Src/stm32f0xx_hal_rcc.c ****   }
1215:Drivers/STM32F0xx_HAL_Driver/Src/stm32f0xx_hal_rcc.c ****   
1216:Drivers/STM32F0xx_HAL_Driver/Src/stm32f0xx_hal_rcc.c ****   /* Get the LSI configuration -----------------------------------------------*/
1217:Drivers/STM32F0xx_HAL_Driver/Src/stm32f0xx_hal_rcc.c ****   if((RCC->CSR &RCC_CSR_LSION) == RCC_CSR_LSION)
 2053              		.loc 1 1217 3 is_stmt 1 view .LVU587
 2054              		.loc 1 1217 10 is_stmt 0 view .LVU588
 2055 0036 274B     		ldr	r3, .L192
 2056 0038 5B6A     		ldr	r3, [r3, #36]
 2057              		.loc 1 1217 5 view .LVU589
 2058 003a DB07     		lsls	r3, r3, #31
 2059 003c 40D5     		bpl	.L186
1218:Drivers/STM32F0xx_HAL_Driver/Src/stm32f0xx_hal_rcc.c ****   {
1219:Drivers/STM32F0xx_HAL_Driver/Src/stm32f0xx_hal_rcc.c ****     RCC_OscInitStruct->LSIState = RCC_LSI_ON;
 2060              		.loc 1 1219 5 is_stmt 1 view .LVU590
 2061              		.loc 1 1219 33 is_stmt 0 view .LVU591
 2062 003e 0123     		movs	r3, #1
 2063 0040 C361     		str	r3, [r0, #28]
 2064              	.L187:
1220:Drivers/STM32F0xx_HAL_Driver/Src/stm32f0xx_hal_rcc.c ****   }
1221:Drivers/STM32F0xx_HAL_Driver/Src/stm32f0xx_hal_rcc.c ****   else
1222:Drivers/STM32F0xx_HAL_Driver/Src/stm32f0xx_hal_rcc.c ****   {
1223:Drivers/STM32F0xx_HAL_Driver/Src/stm32f0xx_hal_rcc.c ****     RCC_OscInitStruct->LSIState = RCC_LSI_OFF;
1224:Drivers/STM32F0xx_HAL_Driver/Src/stm32f0xx_hal_rcc.c ****   }
1225:Drivers/STM32F0xx_HAL_Driver/Src/stm32f0xx_hal_rcc.c ****   
1226:Drivers/STM32F0xx_HAL_Driver/Src/stm32f0xx_hal_rcc.c ****   /* Get the HSI14 configuration -----------------------------------------------*/
1227:Drivers/STM32F0xx_HAL_Driver/Src/stm32f0xx_hal_rcc.c ****   if((RCC->CR2 & RCC_CR2_HSI14ON) == RCC_CR2_HSI14ON)
 2065              		.loc 1 1227 3 is_stmt 1 view .LVU592
 2066              		.loc 1 1227 10 is_stmt 0 view .LVU593
 2067 0042 244B     		ldr	r3, .L192
 2068 0044 5B6B     		ldr	r3, [r3, #52]
ARM GAS  /tmp/cc68hz7R.s 			page 64


 2069              		.loc 1 1227 5 view .LVU594
 2070 0046 DB07     		lsls	r3, r3, #31
 2071 0048 3DD5     		bpl	.L188
1228:Drivers/STM32F0xx_HAL_Driver/Src/stm32f0xx_hal_rcc.c ****   {
1229:Drivers/STM32F0xx_HAL_Driver/Src/stm32f0xx_hal_rcc.c ****     RCC_OscInitStruct->HSI14State = RCC_HSI_ON;
 2072              		.loc 1 1229 5 is_stmt 1 view .LVU595
 2073              		.loc 1 1229 35 is_stmt 0 view .LVU596
 2074 004a 0123     		movs	r3, #1
 2075 004c 4361     		str	r3, [r0, #20]
 2076              	.L189:
1230:Drivers/STM32F0xx_HAL_Driver/Src/stm32f0xx_hal_rcc.c ****   }
1231:Drivers/STM32F0xx_HAL_Driver/Src/stm32f0xx_hal_rcc.c ****   else
1232:Drivers/STM32F0xx_HAL_Driver/Src/stm32f0xx_hal_rcc.c ****   {
1233:Drivers/STM32F0xx_HAL_Driver/Src/stm32f0xx_hal_rcc.c ****     RCC_OscInitStruct->HSI14State = RCC_HSI_OFF;
1234:Drivers/STM32F0xx_HAL_Driver/Src/stm32f0xx_hal_rcc.c ****   }
1235:Drivers/STM32F0xx_HAL_Driver/Src/stm32f0xx_hal_rcc.c **** 
1236:Drivers/STM32F0xx_HAL_Driver/Src/stm32f0xx_hal_rcc.c ****   RCC_OscInitStruct->HSI14CalibrationValue = (uint32_t)((RCC->CR2 & RCC_CR2_HSI14TRIM) >> RCC_HSI14
 2077              		.loc 1 1236 3 is_stmt 1 view .LVU597
 2078              		.loc 1 1236 61 is_stmt 0 view .LVU598
 2079 004e 214A     		ldr	r2, .L192
 2080 0050 516B     		ldr	r1, [r2, #52]
 2081              		.loc 1 1236 46 view .LVU599
 2082 0052 C908     		lsrs	r1, r1, #3
 2083 0054 1F23     		movs	r3, #31
 2084 0056 0B40     		ands	r3, r1
 2085              		.loc 1 1236 44 view .LVU600
 2086 0058 8361     		str	r3, [r0, #24]
1237:Drivers/STM32F0xx_HAL_Driver/Src/stm32f0xx_hal_rcc.c ****   
1238:Drivers/STM32F0xx_HAL_Driver/Src/stm32f0xx_hal_rcc.c **** #if defined(RCC_HSI48_SUPPORT)
1239:Drivers/STM32F0xx_HAL_Driver/Src/stm32f0xx_hal_rcc.c ****   /* Get the HSI48 configuration if any-----------------------------------------*/
1240:Drivers/STM32F0xx_HAL_Driver/Src/stm32f0xx_hal_rcc.c ****   RCC_OscInitStruct->HSI48State = __HAL_RCC_GET_HSI48_STATE();
 2087              		.loc 1 1240 3 is_stmt 1 view .LVU601
 2088              		.loc 1 1240 35 is_stmt 0 view .LVU602
 2089 005a 536B     		ldr	r3, [r2, #52]
 2090 005c 8021     		movs	r1, #128
 2091 005e 4902     		lsls	r1, r1, #9
 2092 0060 0B40     		ands	r3, r1
 2093 0062 591E     		subs	r1, r3, #1
 2094 0064 8B41     		sbcs	r3, r3, r1
 2095              		.loc 1 1240 33 view .LVU603
 2096 0066 0362     		str	r3, [r0, #32]
1241:Drivers/STM32F0xx_HAL_Driver/Src/stm32f0xx_hal_rcc.c **** #endif /* RCC_HSI48_SUPPORT */
1242:Drivers/STM32F0xx_HAL_Driver/Src/stm32f0xx_hal_rcc.c **** 
1243:Drivers/STM32F0xx_HAL_Driver/Src/stm32f0xx_hal_rcc.c ****   /* Get the PLL configuration -----------------------------------------------*/
1244:Drivers/STM32F0xx_HAL_Driver/Src/stm32f0xx_hal_rcc.c ****   if((RCC->CR &RCC_CR_PLLON) == RCC_CR_PLLON)
 2097              		.loc 1 1244 3 is_stmt 1 view .LVU604
 2098              		.loc 1 1244 10 is_stmt 0 view .LVU605
 2099 0068 1368     		ldr	r3, [r2]
 2100              		.loc 1 1244 5 view .LVU606
 2101 006a DB01     		lsls	r3, r3, #7
 2102 006c 2ED5     		bpl	.L190
1245:Drivers/STM32F0xx_HAL_Driver/Src/stm32f0xx_hal_rcc.c ****   {
1246:Drivers/STM32F0xx_HAL_Driver/Src/stm32f0xx_hal_rcc.c ****     RCC_OscInitStruct->PLL.PLLState = RCC_PLL_ON;
 2103              		.loc 1 1246 5 is_stmt 1 view .LVU607
 2104              		.loc 1 1246 37 is_stmt 0 view .LVU608
 2105 006e 0223     		movs	r3, #2
 2106 0070 4362     		str	r3, [r0, #36]
ARM GAS  /tmp/cc68hz7R.s 			page 65


 2107              	.L191:
1247:Drivers/STM32F0xx_HAL_Driver/Src/stm32f0xx_hal_rcc.c ****   }
1248:Drivers/STM32F0xx_HAL_Driver/Src/stm32f0xx_hal_rcc.c ****   else
1249:Drivers/STM32F0xx_HAL_Driver/Src/stm32f0xx_hal_rcc.c ****   {
1250:Drivers/STM32F0xx_HAL_Driver/Src/stm32f0xx_hal_rcc.c ****     RCC_OscInitStruct->PLL.PLLState = RCC_PLL_OFF;
1251:Drivers/STM32F0xx_HAL_Driver/Src/stm32f0xx_hal_rcc.c ****   }
1252:Drivers/STM32F0xx_HAL_Driver/Src/stm32f0xx_hal_rcc.c ****   RCC_OscInitStruct->PLL.PLLSource = (uint32_t)(RCC->CFGR & RCC_CFGR_PLLSRC);
 2108              		.loc 1 1252 3 is_stmt 1 view .LVU609
 2109              		.loc 1 1252 52 is_stmt 0 view .LVU610
 2110 0072 184B     		ldr	r3, .L192
 2111 0074 5A68     		ldr	r2, [r3, #4]
 2112              		.loc 1 1252 38 view .LVU611
 2113 0076 C021     		movs	r1, #192
 2114 0078 4902     		lsls	r1, r1, #9
 2115 007a 0A40     		ands	r2, r1
 2116              		.loc 1 1252 36 view .LVU612
 2117 007c 8262     		str	r2, [r0, #40]
1253:Drivers/STM32F0xx_HAL_Driver/Src/stm32f0xx_hal_rcc.c ****   RCC_OscInitStruct->PLL.PLLMUL = (uint32_t)(RCC->CFGR & RCC_CFGR_PLLMUL);
 2118              		.loc 1 1253 3 is_stmt 1 view .LVU613
 2119              		.loc 1 1253 49 is_stmt 0 view .LVU614
 2120 007e 5A68     		ldr	r2, [r3, #4]
 2121              		.loc 1 1253 35 view .LVU615
 2122 0080 F021     		movs	r1, #240
 2123 0082 8903     		lsls	r1, r1, #14
 2124 0084 0A40     		ands	r2, r1
 2125              		.loc 1 1253 33 view .LVU616
 2126 0086 C262     		str	r2, [r0, #44]
1254:Drivers/STM32F0xx_HAL_Driver/Src/stm32f0xx_hal_rcc.c ****   RCC_OscInitStruct->PLL.PREDIV = (uint32_t)(RCC->CFGR2 & RCC_CFGR2_PREDIV);
 2127              		.loc 1 1254 3 is_stmt 1 view .LVU617
 2128              		.loc 1 1254 49 is_stmt 0 view .LVU618
 2129 0088 DA6A     		ldr	r2, [r3, #44]
 2130              		.loc 1 1254 35 view .LVU619
 2131 008a 0F23     		movs	r3, #15
 2132 008c 1340     		ands	r3, r2
 2133              		.loc 1 1254 33 view .LVU620
 2134 008e 0363     		str	r3, [r0, #48]
1255:Drivers/STM32F0xx_HAL_Driver/Src/stm32f0xx_hal_rcc.c **** }
 2135              		.loc 1 1255 1 view .LVU621
 2136              		@ sp needed
 2137 0090 7047     		bx	lr
 2138              	.L178:
1181:Drivers/STM32F0xx_HAL_Driver/Src/stm32f0xx_hal_rcc.c ****   {
 2139              		.loc 1 1181 8 is_stmt 1 view .LVU622
1181:Drivers/STM32F0xx_HAL_Driver/Src/stm32f0xx_hal_rcc.c ****   {
 2140              		.loc 1 1181 15 is_stmt 0 view .LVU623
 2141 0092 104B     		ldr	r3, .L192
 2142 0094 1B68     		ldr	r3, [r3]
1181:Drivers/STM32F0xx_HAL_Driver/Src/stm32f0xx_hal_rcc.c ****   {
 2143              		.loc 1 1181 10 view .LVU624
 2144 0096 DB03     		lsls	r3, r3, #15
 2145 0098 02D5     		bpl	.L180
1183:Drivers/STM32F0xx_HAL_Driver/Src/stm32f0xx_hal_rcc.c ****   }
 2146              		.loc 1 1183 5 is_stmt 1 view .LVU625
1183:Drivers/STM32F0xx_HAL_Driver/Src/stm32f0xx_hal_rcc.c ****   }
 2147              		.loc 1 1183 33 is_stmt 0 view .LVU626
 2148 009a 0123     		movs	r3, #1
 2149 009c 4360     		str	r3, [r0, #4]
ARM GAS  /tmp/cc68hz7R.s 			page 66


 2150 009e B9E7     		b	.L179
 2151              	.L180:
1187:Drivers/STM32F0xx_HAL_Driver/Src/stm32f0xx_hal_rcc.c ****   }
 2152              		.loc 1 1187 5 is_stmt 1 view .LVU627
1187:Drivers/STM32F0xx_HAL_Driver/Src/stm32f0xx_hal_rcc.c ****   }
 2153              		.loc 1 1187 33 is_stmt 0 view .LVU628
 2154 00a0 0023     		movs	r3, #0
 2155 00a2 4360     		str	r3, [r0, #4]
 2156 00a4 B6E7     		b	.L179
 2157              	.L181:
1197:Drivers/STM32F0xx_HAL_Driver/Src/stm32f0xx_hal_rcc.c ****   }
 2158              		.loc 1 1197 5 is_stmt 1 view .LVU629
1197:Drivers/STM32F0xx_HAL_Driver/Src/stm32f0xx_hal_rcc.c ****   }
 2159              		.loc 1 1197 33 is_stmt 0 view .LVU630
 2160 00a6 0023     		movs	r3, #0
 2161 00a8 C360     		str	r3, [r0, #12]
 2162 00aa B9E7     		b	.L182
 2163              	.L183:
1207:Drivers/STM32F0xx_HAL_Driver/Src/stm32f0xx_hal_rcc.c ****   {
 2164              		.loc 1 1207 8 is_stmt 1 view .LVU631
1207:Drivers/STM32F0xx_HAL_Driver/Src/stm32f0xx_hal_rcc.c ****   {
 2165              		.loc 1 1207 15 is_stmt 0 view .LVU632
 2166 00ac 094B     		ldr	r3, .L192
 2167 00ae 1B6A     		ldr	r3, [r3, #32]
1207:Drivers/STM32F0xx_HAL_Driver/Src/stm32f0xx_hal_rcc.c ****   {
 2168              		.loc 1 1207 10 view .LVU633
 2169 00b0 DB07     		lsls	r3, r3, #31
 2170 00b2 02D5     		bpl	.L185
1209:Drivers/STM32F0xx_HAL_Driver/Src/stm32f0xx_hal_rcc.c ****   }
 2171              		.loc 1 1209 5 is_stmt 1 view .LVU634
1209:Drivers/STM32F0xx_HAL_Driver/Src/stm32f0xx_hal_rcc.c ****   }
 2172              		.loc 1 1209 33 is_stmt 0 view .LVU635
 2173 00b4 0123     		movs	r3, #1
 2174 00b6 8360     		str	r3, [r0, #8]
 2175 00b8 BDE7     		b	.L184
 2176              	.L185:
1213:Drivers/STM32F0xx_HAL_Driver/Src/stm32f0xx_hal_rcc.c ****   }
 2177              		.loc 1 1213 5 is_stmt 1 view .LVU636
1213:Drivers/STM32F0xx_HAL_Driver/Src/stm32f0xx_hal_rcc.c ****   }
 2178              		.loc 1 1213 33 is_stmt 0 view .LVU637
 2179 00ba 0023     		movs	r3, #0
 2180 00bc 8360     		str	r3, [r0, #8]
 2181 00be BAE7     		b	.L184
 2182              	.L186:
1223:Drivers/STM32F0xx_HAL_Driver/Src/stm32f0xx_hal_rcc.c ****   }
 2183              		.loc 1 1223 5 is_stmt 1 view .LVU638
1223:Drivers/STM32F0xx_HAL_Driver/Src/stm32f0xx_hal_rcc.c ****   }
 2184              		.loc 1 1223 33 is_stmt 0 view .LVU639
 2185 00c0 0023     		movs	r3, #0
 2186 00c2 C361     		str	r3, [r0, #28]
 2187 00c4 BDE7     		b	.L187
 2188              	.L188:
1233:Drivers/STM32F0xx_HAL_Driver/Src/stm32f0xx_hal_rcc.c ****   }
 2189              		.loc 1 1233 5 is_stmt 1 view .LVU640
1233:Drivers/STM32F0xx_HAL_Driver/Src/stm32f0xx_hal_rcc.c ****   }
 2190              		.loc 1 1233 35 is_stmt 0 view .LVU641
 2191 00c6 0023     		movs	r3, #0
ARM GAS  /tmp/cc68hz7R.s 			page 67


 2192 00c8 4361     		str	r3, [r0, #20]
 2193 00ca C0E7     		b	.L189
 2194              	.L190:
1250:Drivers/STM32F0xx_HAL_Driver/Src/stm32f0xx_hal_rcc.c ****   }
 2195              		.loc 1 1250 5 is_stmt 1 view .LVU642
1250:Drivers/STM32F0xx_HAL_Driver/Src/stm32f0xx_hal_rcc.c ****   }
 2196              		.loc 1 1250 37 is_stmt 0 view .LVU643
 2197 00cc 0123     		movs	r3, #1
 2198 00ce 4362     		str	r3, [r0, #36]
 2199 00d0 CFE7     		b	.L191
 2200              	.L193:
 2201 00d2 C046     		.align	2
 2202              	.L192:
 2203 00d4 00100240 		.word	1073876992
 2204              		.cfi_endproc
 2205              	.LFE46:
 2207              		.section	.text.HAL_RCC_GetClockConfig,"ax",%progbits
 2208              		.align	1
 2209              		.global	HAL_RCC_GetClockConfig
 2210              		.syntax unified
 2211              		.code	16
 2212              		.thumb_func
 2213              		.fpu softvfp
 2215              	HAL_RCC_GetClockConfig:
 2216              	.LVL130:
 2217              	.LFB47:
1256:Drivers/STM32F0xx_HAL_Driver/Src/stm32f0xx_hal_rcc.c **** 
1257:Drivers/STM32F0xx_HAL_Driver/Src/stm32f0xx_hal_rcc.c **** /**
1258:Drivers/STM32F0xx_HAL_Driver/Src/stm32f0xx_hal_rcc.c ****   * @brief  Get the RCC_ClkInitStruct according to the internal 
1259:Drivers/STM32F0xx_HAL_Driver/Src/stm32f0xx_hal_rcc.c ****   * RCC configuration registers.
1260:Drivers/STM32F0xx_HAL_Driver/Src/stm32f0xx_hal_rcc.c ****   * @param  RCC_ClkInitStruct pointer to an RCC_ClkInitTypeDef structure that 
1261:Drivers/STM32F0xx_HAL_Driver/Src/stm32f0xx_hal_rcc.c ****   * contains the current clock configuration.
1262:Drivers/STM32F0xx_HAL_Driver/Src/stm32f0xx_hal_rcc.c ****   * @param  pFLatency Pointer on the Flash Latency.
1263:Drivers/STM32F0xx_HAL_Driver/Src/stm32f0xx_hal_rcc.c ****   * @retval None
1264:Drivers/STM32F0xx_HAL_Driver/Src/stm32f0xx_hal_rcc.c ****   */
1265:Drivers/STM32F0xx_HAL_Driver/Src/stm32f0xx_hal_rcc.c **** void HAL_RCC_GetClockConfig(RCC_ClkInitTypeDef  *RCC_ClkInitStruct, uint32_t *pFLatency)
1266:Drivers/STM32F0xx_HAL_Driver/Src/stm32f0xx_hal_rcc.c **** {
 2218              		.loc 1 1266 1 is_stmt 1 view -0
 2219              		.cfi_startproc
 2220              		@ args = 0, pretend = 0, frame = 0
 2221              		@ frame_needed = 0, uses_anonymous_args = 0
 2222              		.loc 1 1266 1 is_stmt 0 view .LVU645
 2223 0000 10B5     		push	{r4, lr}
 2224              	.LCFI8:
 2225              		.cfi_def_cfa_offset 8
 2226              		.cfi_offset 4, -8
 2227              		.cfi_offset 14, -4
1267:Drivers/STM32F0xx_HAL_Driver/Src/stm32f0xx_hal_rcc.c ****   /* Check the parameters */
1268:Drivers/STM32F0xx_HAL_Driver/Src/stm32f0xx_hal_rcc.c ****   assert_param(RCC_ClkInitStruct != NULL);
 2228              		.loc 1 1268 3 is_stmt 1 view .LVU646
1269:Drivers/STM32F0xx_HAL_Driver/Src/stm32f0xx_hal_rcc.c ****   assert_param(pFLatency != NULL);
 2229              		.loc 1 1269 3 view .LVU647
1270:Drivers/STM32F0xx_HAL_Driver/Src/stm32f0xx_hal_rcc.c **** 
1271:Drivers/STM32F0xx_HAL_Driver/Src/stm32f0xx_hal_rcc.c ****   /* Set all possible values for the Clock type parameter --------------------*/
1272:Drivers/STM32F0xx_HAL_Driver/Src/stm32f0xx_hal_rcc.c ****   RCC_ClkInitStruct->ClockType = RCC_CLOCKTYPE_SYSCLK | RCC_CLOCKTYPE_HCLK | RCC_CLOCKTYPE_PCLK1;
 2230              		.loc 1 1272 3 view .LVU648
 2231              		.loc 1 1272 32 is_stmt 0 view .LVU649
ARM GAS  /tmp/cc68hz7R.s 			page 68


 2232 0002 0723     		movs	r3, #7
 2233 0004 0360     		str	r3, [r0]
1273:Drivers/STM32F0xx_HAL_Driver/Src/stm32f0xx_hal_rcc.c ****   
1274:Drivers/STM32F0xx_HAL_Driver/Src/stm32f0xx_hal_rcc.c ****   /* Get the SYSCLK configuration --------------------------------------------*/ 
1275:Drivers/STM32F0xx_HAL_Driver/Src/stm32f0xx_hal_rcc.c ****   RCC_ClkInitStruct->SYSCLKSource = (uint32_t)(RCC->CFGR & RCC_CFGR_SW);
 2234              		.loc 1 1275 3 is_stmt 1 view .LVU650
 2235              		.loc 1 1275 51 is_stmt 0 view .LVU651
 2236 0006 0A4B     		ldr	r3, .L195
 2237 0008 5C68     		ldr	r4, [r3, #4]
 2238              		.loc 1 1275 37 view .LVU652
 2239 000a 0322     		movs	r2, #3
 2240 000c 2240     		ands	r2, r4
 2241              		.loc 1 1275 35 view .LVU653
 2242 000e 4260     		str	r2, [r0, #4]
1276:Drivers/STM32F0xx_HAL_Driver/Src/stm32f0xx_hal_rcc.c ****   
1277:Drivers/STM32F0xx_HAL_Driver/Src/stm32f0xx_hal_rcc.c ****   /* Get the HCLK configuration ----------------------------------------------*/ 
1278:Drivers/STM32F0xx_HAL_Driver/Src/stm32f0xx_hal_rcc.c ****   RCC_ClkInitStruct->AHBCLKDivider = (uint32_t)(RCC->CFGR & RCC_CFGR_HPRE); 
 2243              		.loc 1 1278 3 is_stmt 1 view .LVU654
 2244              		.loc 1 1278 52 is_stmt 0 view .LVU655
 2245 0010 5C68     		ldr	r4, [r3, #4]
 2246              		.loc 1 1278 38 view .LVU656
 2247 0012 F022     		movs	r2, #240
 2248 0014 2240     		ands	r2, r4
 2249              		.loc 1 1278 36 view .LVU657
 2250 0016 8260     		str	r2, [r0, #8]
1279:Drivers/STM32F0xx_HAL_Driver/Src/stm32f0xx_hal_rcc.c ****   
1280:Drivers/STM32F0xx_HAL_Driver/Src/stm32f0xx_hal_rcc.c ****   /* Get the APB1 configuration ----------------------------------------------*/ 
1281:Drivers/STM32F0xx_HAL_Driver/Src/stm32f0xx_hal_rcc.c ****   RCC_ClkInitStruct->APB1CLKDivider = (uint32_t)(RCC->CFGR & RCC_CFGR_PPRE);   
 2251              		.loc 1 1281 3 is_stmt 1 view .LVU658
 2252              		.loc 1 1281 53 is_stmt 0 view .LVU659
 2253 0018 5B68     		ldr	r3, [r3, #4]
 2254              		.loc 1 1281 39 view .LVU660
 2255 001a E022     		movs	r2, #224
 2256 001c D200     		lsls	r2, r2, #3
 2257 001e 1340     		ands	r3, r2
 2258              		.loc 1 1281 37 view .LVU661
 2259 0020 C360     		str	r3, [r0, #12]
1282:Drivers/STM32F0xx_HAL_Driver/Src/stm32f0xx_hal_rcc.c ****   /* Get the Flash Wait State (Latency) configuration ------------------------*/   
1283:Drivers/STM32F0xx_HAL_Driver/Src/stm32f0xx_hal_rcc.c ****   *pFLatency = (uint32_t)(FLASH->ACR & FLASH_ACR_LATENCY); 
 2260              		.loc 1 1283 3 is_stmt 1 view .LVU662
 2261              		.loc 1 1283 32 is_stmt 0 view .LVU663
 2262 0022 044B     		ldr	r3, .L195+4
 2263 0024 1A68     		ldr	r2, [r3]
 2264              		.loc 1 1283 16 view .LVU664
 2265 0026 0123     		movs	r3, #1
 2266 0028 1340     		ands	r3, r2
 2267              		.loc 1 1283 14 view .LVU665
 2268 002a 0B60     		str	r3, [r1]
1284:Drivers/STM32F0xx_HAL_Driver/Src/stm32f0xx_hal_rcc.c **** }
 2269              		.loc 1 1284 1 view .LVU666
 2270              		@ sp needed
 2271 002c 10BD     		pop	{r4, pc}
 2272              	.L196:
 2273 002e C046     		.align	2
 2274              	.L195:
 2275 0030 00100240 		.word	1073876992
 2276 0034 00200240 		.word	1073881088
ARM GAS  /tmp/cc68hz7R.s 			page 69


 2277              		.cfi_endproc
 2278              	.LFE47:
 2280              		.section	.text.HAL_RCC_CSSCallback,"ax",%progbits
 2281              		.align	1
 2282              		.weak	HAL_RCC_CSSCallback
 2283              		.syntax unified
 2284              		.code	16
 2285              		.thumb_func
 2286              		.fpu softvfp
 2288              	HAL_RCC_CSSCallback:
 2289              	.LFB49:
1285:Drivers/STM32F0xx_HAL_Driver/Src/stm32f0xx_hal_rcc.c **** 
1286:Drivers/STM32F0xx_HAL_Driver/Src/stm32f0xx_hal_rcc.c **** /**
1287:Drivers/STM32F0xx_HAL_Driver/Src/stm32f0xx_hal_rcc.c ****   * @brief This function handles the RCC CSS interrupt request.
1288:Drivers/STM32F0xx_HAL_Driver/Src/stm32f0xx_hal_rcc.c ****   * @note This API should be called under the NMI_Handler().
1289:Drivers/STM32F0xx_HAL_Driver/Src/stm32f0xx_hal_rcc.c ****   * @retval None
1290:Drivers/STM32F0xx_HAL_Driver/Src/stm32f0xx_hal_rcc.c ****   */
1291:Drivers/STM32F0xx_HAL_Driver/Src/stm32f0xx_hal_rcc.c **** void HAL_RCC_NMI_IRQHandler(void)
1292:Drivers/STM32F0xx_HAL_Driver/Src/stm32f0xx_hal_rcc.c **** {
1293:Drivers/STM32F0xx_HAL_Driver/Src/stm32f0xx_hal_rcc.c ****   /* Check RCC CSSF flag  */
1294:Drivers/STM32F0xx_HAL_Driver/Src/stm32f0xx_hal_rcc.c ****   if(__HAL_RCC_GET_IT(RCC_IT_CSS))
1295:Drivers/STM32F0xx_HAL_Driver/Src/stm32f0xx_hal_rcc.c ****   {
1296:Drivers/STM32F0xx_HAL_Driver/Src/stm32f0xx_hal_rcc.c ****     /* RCC Clock Security System interrupt user callback */
1297:Drivers/STM32F0xx_HAL_Driver/Src/stm32f0xx_hal_rcc.c ****     HAL_RCC_CSSCallback();
1298:Drivers/STM32F0xx_HAL_Driver/Src/stm32f0xx_hal_rcc.c ****     
1299:Drivers/STM32F0xx_HAL_Driver/Src/stm32f0xx_hal_rcc.c ****     /* Clear RCC CSS pending bit */
1300:Drivers/STM32F0xx_HAL_Driver/Src/stm32f0xx_hal_rcc.c ****     __HAL_RCC_CLEAR_IT(RCC_IT_CSS);
1301:Drivers/STM32F0xx_HAL_Driver/Src/stm32f0xx_hal_rcc.c ****   }
1302:Drivers/STM32F0xx_HAL_Driver/Src/stm32f0xx_hal_rcc.c **** }
1303:Drivers/STM32F0xx_HAL_Driver/Src/stm32f0xx_hal_rcc.c **** 
1304:Drivers/STM32F0xx_HAL_Driver/Src/stm32f0xx_hal_rcc.c **** /**
1305:Drivers/STM32F0xx_HAL_Driver/Src/stm32f0xx_hal_rcc.c ****   * @brief  RCC Clock Security System interrupt callback
1306:Drivers/STM32F0xx_HAL_Driver/Src/stm32f0xx_hal_rcc.c ****   * @retval none
1307:Drivers/STM32F0xx_HAL_Driver/Src/stm32f0xx_hal_rcc.c ****   */
1308:Drivers/STM32F0xx_HAL_Driver/Src/stm32f0xx_hal_rcc.c **** __weak void HAL_RCC_CSSCallback(void)
1309:Drivers/STM32F0xx_HAL_Driver/Src/stm32f0xx_hal_rcc.c **** {
 2290              		.loc 1 1309 1 is_stmt 1 view -0
 2291              		.cfi_startproc
 2292              		@ args = 0, pretend = 0, frame = 0
