ARM GAS  /tmp/cc8iG1bp.s 			page 1


   1              		.cpu cortex-m0
   2              		.eabi_attribute 20, 1
   3              		.eabi_attribute 21, 1
   4              		.eabi_attribute 23, 3
   5              		.eabi_attribute 24, 1
   6              		.eabi_attribute 25, 1
   7              		.eabi_attribute 26, 1
   8              		.eabi_attribute 30, 1
   9              		.eabi_attribute 34, 0
  10              		.eabi_attribute 18, 4
  11              		.file	"stm32f0xx_hal_pcd.c"
  12              		.text
  13              	.Ltext0:
  14              		.cfi_sections	.debug_frame
  15              		.section	.text.HAL_PCD_MspInit,"ax",%progbits
  16              		.align	1
  17              		.weak	HAL_PCD_MspInit
  18              		.arch armv6s-m
  19              		.syntax unified
  20              		.code	16
  21              		.thumb_func
  22              		.fpu softvfp
  24              	HAL_PCD_MspInit:
  25              	.LVL0:
  26              	.LFB39:
  27              		.file 1 "Drivers/STM32F0xx_HAL_Driver/Src/stm32f0xx_hal_pcd.c"
   1:Drivers/STM32F0xx_HAL_Driver/Src/stm32f0xx_hal_pcd.c **** /**
   2:Drivers/STM32F0xx_HAL_Driver/Src/stm32f0xx_hal_pcd.c ****   ******************************************************************************
   3:Drivers/STM32F0xx_HAL_Driver/Src/stm32f0xx_hal_pcd.c ****   * @file    stm32f0xx_hal_pcd.c
   4:Drivers/STM32F0xx_HAL_Driver/Src/stm32f0xx_hal_pcd.c ****   * @author  MCD Application Team
   5:Drivers/STM32F0xx_HAL_Driver/Src/stm32f0xx_hal_pcd.c ****   * @brief   PCD HAL module driver.
   6:Drivers/STM32F0xx_HAL_Driver/Src/stm32f0xx_hal_pcd.c ****   *          This file provides firmware functions to manage the following 
   7:Drivers/STM32F0xx_HAL_Driver/Src/stm32f0xx_hal_pcd.c ****   *          functionalities of the USB Peripheral Controller:
   8:Drivers/STM32F0xx_HAL_Driver/Src/stm32f0xx_hal_pcd.c ****   *           + Initialization and de-initialization functions
   9:Drivers/STM32F0xx_HAL_Driver/Src/stm32f0xx_hal_pcd.c ****   *           + IO operation functions
  10:Drivers/STM32F0xx_HAL_Driver/Src/stm32f0xx_hal_pcd.c ****   *           + Peripheral Control functions 
  11:Drivers/STM32F0xx_HAL_Driver/Src/stm32f0xx_hal_pcd.c ****   *           + Peripheral State functions
  12:Drivers/STM32F0xx_HAL_Driver/Src/stm32f0xx_hal_pcd.c ****   *         
  13:Drivers/STM32F0xx_HAL_Driver/Src/stm32f0xx_hal_pcd.c ****   @verbatim
  14:Drivers/STM32F0xx_HAL_Driver/Src/stm32f0xx_hal_pcd.c ****   ==============================================================================
  15:Drivers/STM32F0xx_HAL_Driver/Src/stm32f0xx_hal_pcd.c ****                     ##### How to use this driver #####
  16:Drivers/STM32F0xx_HAL_Driver/Src/stm32f0xx_hal_pcd.c ****   ==============================================================================
  17:Drivers/STM32F0xx_HAL_Driver/Src/stm32f0xx_hal_pcd.c ****     [..]
  18:Drivers/STM32F0xx_HAL_Driver/Src/stm32f0xx_hal_pcd.c ****       The PCD HAL driver can be used as follows:
  19:Drivers/STM32F0xx_HAL_Driver/Src/stm32f0xx_hal_pcd.c **** 
  20:Drivers/STM32F0xx_HAL_Driver/Src/stm32f0xx_hal_pcd.c ****      (#) Declare a PCD_HandleTypeDef handle structure, for example:
  21:Drivers/STM32F0xx_HAL_Driver/Src/stm32f0xx_hal_pcd.c ****          PCD_HandleTypeDef  hpcd;
  22:Drivers/STM32F0xx_HAL_Driver/Src/stm32f0xx_hal_pcd.c ****         
  23:Drivers/STM32F0xx_HAL_Driver/Src/stm32f0xx_hal_pcd.c ****      (#) Fill parameters of Init structure in HCD handle
  24:Drivers/STM32F0xx_HAL_Driver/Src/stm32f0xx_hal_pcd.c ****   
  25:Drivers/STM32F0xx_HAL_Driver/Src/stm32f0xx_hal_pcd.c ****      (#) Call HAL_PCD_Init() API to initialize the HCD peripheral (Core, Device core, ...) 
  26:Drivers/STM32F0xx_HAL_Driver/Src/stm32f0xx_hal_pcd.c **** 
  27:Drivers/STM32F0xx_HAL_Driver/Src/stm32f0xx_hal_pcd.c ****      (#) Initialize the PCD low level resources through the HAL_PCD_MspInit() API:
  28:Drivers/STM32F0xx_HAL_Driver/Src/stm32f0xx_hal_pcd.c ****          (##) Enable the PCD/USB Low Level interface clock using 
  29:Drivers/STM32F0xx_HAL_Driver/Src/stm32f0xx_hal_pcd.c ****               (+++) __HAL_RCC_USB_CLK_ENABLE);
  30:Drivers/STM32F0xx_HAL_Driver/Src/stm32f0xx_hal_pcd.c ****            
  31:Drivers/STM32F0xx_HAL_Driver/Src/stm32f0xx_hal_pcd.c ****          (##) Initialize the related GPIO clocks
ARM GAS  /tmp/cc8iG1bp.s 			page 2


  32:Drivers/STM32F0xx_HAL_Driver/Src/stm32f0xx_hal_pcd.c ****          (##) Configure PCD pin-out
  33:Drivers/STM32F0xx_HAL_Driver/Src/stm32f0xx_hal_pcd.c ****          (##) Configure PCD NVIC interrupt
  34:Drivers/STM32F0xx_HAL_Driver/Src/stm32f0xx_hal_pcd.c ****     
  35:Drivers/STM32F0xx_HAL_Driver/Src/stm32f0xx_hal_pcd.c ****      (#)Associate the Upper USB device stack to the HAL PCD Driver:
  36:Drivers/STM32F0xx_HAL_Driver/Src/stm32f0xx_hal_pcd.c ****          (##) hpcd.pData = pdev;
  37:Drivers/STM32F0xx_HAL_Driver/Src/stm32f0xx_hal_pcd.c **** 
  38:Drivers/STM32F0xx_HAL_Driver/Src/stm32f0xx_hal_pcd.c ****      (#)Enable HCD transmission and reception:
  39:Drivers/STM32F0xx_HAL_Driver/Src/stm32f0xx_hal_pcd.c ****          (##) HAL_PCD_Start();
  40:Drivers/STM32F0xx_HAL_Driver/Src/stm32f0xx_hal_pcd.c **** 
  41:Drivers/STM32F0xx_HAL_Driver/Src/stm32f0xx_hal_pcd.c ****   @endverbatim
  42:Drivers/STM32F0xx_HAL_Driver/Src/stm32f0xx_hal_pcd.c ****   ******************************************************************************
  43:Drivers/STM32F0xx_HAL_Driver/Src/stm32f0xx_hal_pcd.c ****   * @attention
  44:Drivers/STM32F0xx_HAL_Driver/Src/stm32f0xx_hal_pcd.c ****   *
  45:Drivers/STM32F0xx_HAL_Driver/Src/stm32f0xx_hal_pcd.c ****   * <h2><center>&copy; COPYRIGHT(c) 2016 STMicroelectronics</center></h2>
  46:Drivers/STM32F0xx_HAL_Driver/Src/stm32f0xx_hal_pcd.c ****   *
  47:Drivers/STM32F0xx_HAL_Driver/Src/stm32f0xx_hal_pcd.c ****   * Redistribution and use in source and binary forms, with or without modification,
  48:Drivers/STM32F0xx_HAL_Driver/Src/stm32f0xx_hal_pcd.c ****   * are permitted provided that the following conditions are met:
  49:Drivers/STM32F0xx_HAL_Driver/Src/stm32f0xx_hal_pcd.c ****   *   1. Redistributions of source code must retain the above copyright notice,
  50:Drivers/STM32F0xx_HAL_Driver/Src/stm32f0xx_hal_pcd.c ****   *      this list of conditions and the following disclaimer.
  51:Drivers/STM32F0xx_HAL_Driver/Src/stm32f0xx_hal_pcd.c ****   *   2. Redistributions in binary form must reproduce the above copyright notice,
  52:Drivers/STM32F0xx_HAL_Driver/Src/stm32f0xx_hal_pcd.c ****   *      this list of conditions and the following disclaimer in the documentation
  53:Drivers/STM32F0xx_HAL_Driver/Src/stm32f0xx_hal_pcd.c ****   *      and/or other materials provided with the distribution.
  54:Drivers/STM32F0xx_HAL_Driver/Src/stm32f0xx_hal_pcd.c ****   *   3. Neither the name of STMicroelectronics nor the names of its contributors
  55:Drivers/STM32F0xx_HAL_Driver/Src/stm32f0xx_hal_pcd.c ****   *      may be used to endorse or promote products derived from this software
  56:Drivers/STM32F0xx_HAL_Driver/Src/stm32f0xx_hal_pcd.c ****   *      without specific prior written permission.
  57:Drivers/STM32F0xx_HAL_Driver/Src/stm32f0xx_hal_pcd.c ****   *
  58:Drivers/STM32F0xx_HAL_Driver/Src/stm32f0xx_hal_pcd.c ****   * THIS SOFTWARE IS PROVIDED BY THE COPYRIGHT HOLDERS AND CONTRIBUTORS "AS IS"
  59:Drivers/STM32F0xx_HAL_Driver/Src/stm32f0xx_hal_pcd.c ****   * AND ANY EXPRESS OR IMPLIED WARRANTIES, INCLUDING, BUT NOT LIMITED TO, THE
  60:Drivers/STM32F0xx_HAL_Driver/Src/stm32f0xx_hal_pcd.c ****   * IMPLIED WARRANTIES OF MERCHANTABILITY AND FITNESS FOR A PARTICULAR PURPOSE ARE
  61:Drivers/STM32F0xx_HAL_Driver/Src/stm32f0xx_hal_pcd.c ****   * DISCLAIMED. IN NO EVENT SHALL THE COPYRIGHT HOLDER OR CONTRIBUTORS BE LIABLE
  62:Drivers/STM32F0xx_HAL_Driver/Src/stm32f0xx_hal_pcd.c ****   * FOR ANY DIRECT, INDIRECT, INCIDENTAL, SPECIAL, EXEMPLARY, OR CONSEQUENTIAL
  63:Drivers/STM32F0xx_HAL_Driver/Src/stm32f0xx_hal_pcd.c ****   * DAMAGES (INCLUDING, BUT NOT LIMITED TO, PROCUREMENT OF SUBSTITUTE GOODS OR
  64:Drivers/STM32F0xx_HAL_Driver/Src/stm32f0xx_hal_pcd.c ****   * SERVICES; LOSS OF USE, DATA, OR PROFITS; OR BUSINESS INTERRUPTION) HOWEVER
  65:Drivers/STM32F0xx_HAL_Driver/Src/stm32f0xx_hal_pcd.c ****   * CAUSED AND ON ANY THEORY OF LIABILITY, WHETHER IN CONTRACT, STRICT LIABILITY,
  66:Drivers/STM32F0xx_HAL_Driver/Src/stm32f0xx_hal_pcd.c ****   * OR TORT (INCLUDING NEGLIGENCE OR OTHERWISE) ARISING IN ANY WAY OUT OF THE USE
  67:Drivers/STM32F0xx_HAL_Driver/Src/stm32f0xx_hal_pcd.c ****   * OF THIS SOFTWARE, EVEN IF ADVISED OF THE POSSIBILITY OF SUCH DAMAGE.
  68:Drivers/STM32F0xx_HAL_Driver/Src/stm32f0xx_hal_pcd.c ****   *
  69:Drivers/STM32F0xx_HAL_Driver/Src/stm32f0xx_hal_pcd.c ****   ******************************************************************************
  70:Drivers/STM32F0xx_HAL_Driver/Src/stm32f0xx_hal_pcd.c ****   */
  71:Drivers/STM32F0xx_HAL_Driver/Src/stm32f0xx_hal_pcd.c **** 
  72:Drivers/STM32F0xx_HAL_Driver/Src/stm32f0xx_hal_pcd.c **** /* Includes ------------------------------------------------------------------*/
  73:Drivers/STM32F0xx_HAL_Driver/Src/stm32f0xx_hal_pcd.c **** #include "stm32f0xx_hal.h"
  74:Drivers/STM32F0xx_HAL_Driver/Src/stm32f0xx_hal_pcd.c **** 
  75:Drivers/STM32F0xx_HAL_Driver/Src/stm32f0xx_hal_pcd.c **** /** @addtogroup STM32F0xx_HAL_Driver
  76:Drivers/STM32F0xx_HAL_Driver/Src/stm32f0xx_hal_pcd.c ****   * @{
  77:Drivers/STM32F0xx_HAL_Driver/Src/stm32f0xx_hal_pcd.c ****   */
  78:Drivers/STM32F0xx_HAL_Driver/Src/stm32f0xx_hal_pcd.c **** 
  79:Drivers/STM32F0xx_HAL_Driver/Src/stm32f0xx_hal_pcd.c **** #ifdef HAL_PCD_MODULE_ENABLED
  80:Drivers/STM32F0xx_HAL_Driver/Src/stm32f0xx_hal_pcd.c **** 
  81:Drivers/STM32F0xx_HAL_Driver/Src/stm32f0xx_hal_pcd.c **** #if defined(STM32F042x6) || defined(STM32F048xx) || defined(STM32F072xB) || defined(STM32F078xx) ||
  82:Drivers/STM32F0xx_HAL_Driver/Src/stm32f0xx_hal_pcd.c **** 
  83:Drivers/STM32F0xx_HAL_Driver/Src/stm32f0xx_hal_pcd.c **** /** @defgroup PCD PCD
  84:Drivers/STM32F0xx_HAL_Driver/Src/stm32f0xx_hal_pcd.c ****   * @brief PCD HAL module driver
  85:Drivers/STM32F0xx_HAL_Driver/Src/stm32f0xx_hal_pcd.c ****   * @{
  86:Drivers/STM32F0xx_HAL_Driver/Src/stm32f0xx_hal_pcd.c ****   */
  87:Drivers/STM32F0xx_HAL_Driver/Src/stm32f0xx_hal_pcd.c **** 
  88:Drivers/STM32F0xx_HAL_Driver/Src/stm32f0xx_hal_pcd.c **** /* Private typedef -----------------------------------------------------------*/
ARM GAS  /tmp/cc8iG1bp.s 			page 3


  89:Drivers/STM32F0xx_HAL_Driver/Src/stm32f0xx_hal_pcd.c **** /* Private define ------------------------------------------------------------*/
  90:Drivers/STM32F0xx_HAL_Driver/Src/stm32f0xx_hal_pcd.c **** 
  91:Drivers/STM32F0xx_HAL_Driver/Src/stm32f0xx_hal_pcd.c **** /** @defgroup PCD_Private_Define PCD Private Define
  92:Drivers/STM32F0xx_HAL_Driver/Src/stm32f0xx_hal_pcd.c ****   * @{
  93:Drivers/STM32F0xx_HAL_Driver/Src/stm32f0xx_hal_pcd.c ****   */
  94:Drivers/STM32F0xx_HAL_Driver/Src/stm32f0xx_hal_pcd.c **** #define BTABLE_ADDRESS                  (0x000)  
  95:Drivers/STM32F0xx_HAL_Driver/Src/stm32f0xx_hal_pcd.c **** /**
  96:Drivers/STM32F0xx_HAL_Driver/Src/stm32f0xx_hal_pcd.c ****   * @}
  97:Drivers/STM32F0xx_HAL_Driver/Src/stm32f0xx_hal_pcd.c ****   */ 
  98:Drivers/STM32F0xx_HAL_Driver/Src/stm32f0xx_hal_pcd.c ****   
  99:Drivers/STM32F0xx_HAL_Driver/Src/stm32f0xx_hal_pcd.c **** /* Private macro -------------------------------------------------------------*/
 100:Drivers/STM32F0xx_HAL_Driver/Src/stm32f0xx_hal_pcd.c **** /* Private variables ---------------------------------------------------------*/
 101:Drivers/STM32F0xx_HAL_Driver/Src/stm32f0xx_hal_pcd.c **** /* Private function prototypes -----------------------------------------------*/
 102:Drivers/STM32F0xx_HAL_Driver/Src/stm32f0xx_hal_pcd.c **** /** @defgroup PCD_Private_Functions PCD Private Functions
 103:Drivers/STM32F0xx_HAL_Driver/Src/stm32f0xx_hal_pcd.c ****   * @{
 104:Drivers/STM32F0xx_HAL_Driver/Src/stm32f0xx_hal_pcd.c ****   */
 105:Drivers/STM32F0xx_HAL_Driver/Src/stm32f0xx_hal_pcd.c **** static HAL_StatusTypeDef PCD_EP_ISR_Handler(PCD_HandleTypeDef *hpcd);
 106:Drivers/STM32F0xx_HAL_Driver/Src/stm32f0xx_hal_pcd.c **** void PCD_WritePMA(USB_TypeDef  *USBx, uint8_t *pbUsrBuf, uint16_t wPMABufAddr, uint16_t wNBytes);
 107:Drivers/STM32F0xx_HAL_Driver/Src/stm32f0xx_hal_pcd.c **** void PCD_ReadPMA(USB_TypeDef  *USBx, uint8_t *pbUsrBuf, uint16_t wPMABufAddr, uint16_t wNBytes);
 108:Drivers/STM32F0xx_HAL_Driver/Src/stm32f0xx_hal_pcd.c **** /**
 109:Drivers/STM32F0xx_HAL_Driver/Src/stm32f0xx_hal_pcd.c ****   * @}
 110:Drivers/STM32F0xx_HAL_Driver/Src/stm32f0xx_hal_pcd.c ****   */ 
 111:Drivers/STM32F0xx_HAL_Driver/Src/stm32f0xx_hal_pcd.c **** 
 112:Drivers/STM32F0xx_HAL_Driver/Src/stm32f0xx_hal_pcd.c **** /* Exported functions --------------------------------------------------------*/
 113:Drivers/STM32F0xx_HAL_Driver/Src/stm32f0xx_hal_pcd.c **** /** @defgroup PCD_Exported_Functions PCD Exported Functions
 114:Drivers/STM32F0xx_HAL_Driver/Src/stm32f0xx_hal_pcd.c ****   * @{
 115:Drivers/STM32F0xx_HAL_Driver/Src/stm32f0xx_hal_pcd.c ****   */
 116:Drivers/STM32F0xx_HAL_Driver/Src/stm32f0xx_hal_pcd.c **** 
 117:Drivers/STM32F0xx_HAL_Driver/Src/stm32f0xx_hal_pcd.c **** /** @defgroup PCD_Exported_Functions_Group1 Initialization and de-initialization functions 
 118:Drivers/STM32F0xx_HAL_Driver/Src/stm32f0xx_hal_pcd.c ****  *  @brief    Initialization and Configuration functions 
 119:Drivers/STM32F0xx_HAL_Driver/Src/stm32f0xx_hal_pcd.c ****  *
 120:Drivers/STM32F0xx_HAL_Driver/Src/stm32f0xx_hal_pcd.c **** @verbatim
 121:Drivers/STM32F0xx_HAL_Driver/Src/stm32f0xx_hal_pcd.c ****  ===============================================================================
 122:Drivers/STM32F0xx_HAL_Driver/Src/stm32f0xx_hal_pcd.c ****             ##### Initialization and de-initialization functions #####
 123:Drivers/STM32F0xx_HAL_Driver/Src/stm32f0xx_hal_pcd.c ****  ===============================================================================
 124:Drivers/STM32F0xx_HAL_Driver/Src/stm32f0xx_hal_pcd.c ****     [..]  This section provides functions allowing to:
 125:Drivers/STM32F0xx_HAL_Driver/Src/stm32f0xx_hal_pcd.c ****  
 126:Drivers/STM32F0xx_HAL_Driver/Src/stm32f0xx_hal_pcd.c **** @endverbatim
 127:Drivers/STM32F0xx_HAL_Driver/Src/stm32f0xx_hal_pcd.c ****   * @{
 128:Drivers/STM32F0xx_HAL_Driver/Src/stm32f0xx_hal_pcd.c ****   */
 129:Drivers/STM32F0xx_HAL_Driver/Src/stm32f0xx_hal_pcd.c **** 
 130:Drivers/STM32F0xx_HAL_Driver/Src/stm32f0xx_hal_pcd.c **** /**
 131:Drivers/STM32F0xx_HAL_Driver/Src/stm32f0xx_hal_pcd.c ****   * @brief  Initializes the PCD according to the specified
 132:Drivers/STM32F0xx_HAL_Driver/Src/stm32f0xx_hal_pcd.c ****   *         parameters in the PCD_InitTypeDef and create the associated handle.
 133:Drivers/STM32F0xx_HAL_Driver/Src/stm32f0xx_hal_pcd.c ****   * @param  hpcd PCD handle
 134:Drivers/STM32F0xx_HAL_Driver/Src/stm32f0xx_hal_pcd.c ****   * @retval HAL status
 135:Drivers/STM32F0xx_HAL_Driver/Src/stm32f0xx_hal_pcd.c ****   */
 136:Drivers/STM32F0xx_HAL_Driver/Src/stm32f0xx_hal_pcd.c **** HAL_StatusTypeDef HAL_PCD_Init(PCD_HandleTypeDef *hpcd)
 137:Drivers/STM32F0xx_HAL_Driver/Src/stm32f0xx_hal_pcd.c **** { 
 138:Drivers/STM32F0xx_HAL_Driver/Src/stm32f0xx_hal_pcd.c ****   uint32_t i = 0U;
 139:Drivers/STM32F0xx_HAL_Driver/Src/stm32f0xx_hal_pcd.c **** 
 140:Drivers/STM32F0xx_HAL_Driver/Src/stm32f0xx_hal_pcd.c ****   uint32_t wInterrupt_Mask = 0U;
 141:Drivers/STM32F0xx_HAL_Driver/Src/stm32f0xx_hal_pcd.c ****   
 142:Drivers/STM32F0xx_HAL_Driver/Src/stm32f0xx_hal_pcd.c ****   /* Check the PCD handle allocation */
 143:Drivers/STM32F0xx_HAL_Driver/Src/stm32f0xx_hal_pcd.c ****   if(hpcd == NULL)
 144:Drivers/STM32F0xx_HAL_Driver/Src/stm32f0xx_hal_pcd.c ****   {
 145:Drivers/STM32F0xx_HAL_Driver/Src/stm32f0xx_hal_pcd.c ****     return HAL_ERROR;
ARM GAS  /tmp/cc8iG1bp.s 			page 4


 146:Drivers/STM32F0xx_HAL_Driver/Src/stm32f0xx_hal_pcd.c ****   }
 147:Drivers/STM32F0xx_HAL_Driver/Src/stm32f0xx_hal_pcd.c ****   
 148:Drivers/STM32F0xx_HAL_Driver/Src/stm32f0xx_hal_pcd.c ****   /* Check the parameters */
 149:Drivers/STM32F0xx_HAL_Driver/Src/stm32f0xx_hal_pcd.c ****   assert_param(IS_PCD_ALL_INSTANCE(hpcd->Instance));
 150:Drivers/STM32F0xx_HAL_Driver/Src/stm32f0xx_hal_pcd.c **** 
 151:Drivers/STM32F0xx_HAL_Driver/Src/stm32f0xx_hal_pcd.c ****   if(hpcd->State == HAL_PCD_STATE_RESET)
 152:Drivers/STM32F0xx_HAL_Driver/Src/stm32f0xx_hal_pcd.c ****   {  
 153:Drivers/STM32F0xx_HAL_Driver/Src/stm32f0xx_hal_pcd.c ****     /* Allocate lock resource and initialize it */
 154:Drivers/STM32F0xx_HAL_Driver/Src/stm32f0xx_hal_pcd.c ****     hpcd->Lock = HAL_UNLOCKED;
 155:Drivers/STM32F0xx_HAL_Driver/Src/stm32f0xx_hal_pcd.c ****   
 156:Drivers/STM32F0xx_HAL_Driver/Src/stm32f0xx_hal_pcd.c ****     /* Init the low level hardware : GPIO, CLOCK, NVIC... */
 157:Drivers/STM32F0xx_HAL_Driver/Src/stm32f0xx_hal_pcd.c ****     HAL_PCD_MspInit(hpcd);
 158:Drivers/STM32F0xx_HAL_Driver/Src/stm32f0xx_hal_pcd.c ****   }
 159:Drivers/STM32F0xx_HAL_Driver/Src/stm32f0xx_hal_pcd.c **** 
 160:Drivers/STM32F0xx_HAL_Driver/Src/stm32f0xx_hal_pcd.c ****   hpcd->State = HAL_PCD_STATE_BUSY;
 161:Drivers/STM32F0xx_HAL_Driver/Src/stm32f0xx_hal_pcd.c ****  
 162:Drivers/STM32F0xx_HAL_Driver/Src/stm32f0xx_hal_pcd.c ****  /* Init endpoints structures */
 163:Drivers/STM32F0xx_HAL_Driver/Src/stm32f0xx_hal_pcd.c ****  for (i = 0U; i < hpcd->Init.dev_endpoints ; i++)
 164:Drivers/STM32F0xx_HAL_Driver/Src/stm32f0xx_hal_pcd.c ****  {
 165:Drivers/STM32F0xx_HAL_Driver/Src/stm32f0xx_hal_pcd.c ****    /* Init ep structure */
 166:Drivers/STM32F0xx_HAL_Driver/Src/stm32f0xx_hal_pcd.c ****    hpcd->IN_ep[i].is_in = 1U;
 167:Drivers/STM32F0xx_HAL_Driver/Src/stm32f0xx_hal_pcd.c ****    hpcd->IN_ep[i].num = i;
 168:Drivers/STM32F0xx_HAL_Driver/Src/stm32f0xx_hal_pcd.c ****    /* Control until ep is actvated */
 169:Drivers/STM32F0xx_HAL_Driver/Src/stm32f0xx_hal_pcd.c ****    hpcd->IN_ep[i].type = PCD_EP_TYPE_CTRL;
 170:Drivers/STM32F0xx_HAL_Driver/Src/stm32f0xx_hal_pcd.c ****    hpcd->IN_ep[i].maxpacket =  0U;
 171:Drivers/STM32F0xx_HAL_Driver/Src/stm32f0xx_hal_pcd.c ****    hpcd->IN_ep[i].xfer_buff = 0U;
 172:Drivers/STM32F0xx_HAL_Driver/Src/stm32f0xx_hal_pcd.c ****    hpcd->IN_ep[i].xfer_len = 0U;
 173:Drivers/STM32F0xx_HAL_Driver/Src/stm32f0xx_hal_pcd.c ****  }
 174:Drivers/STM32F0xx_HAL_Driver/Src/stm32f0xx_hal_pcd.c ****  
 175:Drivers/STM32F0xx_HAL_Driver/Src/stm32f0xx_hal_pcd.c ****  for (i = 0U; i < hpcd->Init.dev_endpoints ; i++)
 176:Drivers/STM32F0xx_HAL_Driver/Src/stm32f0xx_hal_pcd.c ****  {
 177:Drivers/STM32F0xx_HAL_Driver/Src/stm32f0xx_hal_pcd.c ****    hpcd->OUT_ep[i].is_in = 0U;
 178:Drivers/STM32F0xx_HAL_Driver/Src/stm32f0xx_hal_pcd.c ****    hpcd->OUT_ep[i].num = i;
 179:Drivers/STM32F0xx_HAL_Driver/Src/stm32f0xx_hal_pcd.c ****    /* Control until ep is activated */
 180:Drivers/STM32F0xx_HAL_Driver/Src/stm32f0xx_hal_pcd.c ****    hpcd->OUT_ep[i].type = PCD_EP_TYPE_CTRL;
 181:Drivers/STM32F0xx_HAL_Driver/Src/stm32f0xx_hal_pcd.c ****    hpcd->OUT_ep[i].maxpacket = 0U;
 182:Drivers/STM32F0xx_HAL_Driver/Src/stm32f0xx_hal_pcd.c ****    hpcd->OUT_ep[i].xfer_buff = 0U;
 183:Drivers/STM32F0xx_HAL_Driver/Src/stm32f0xx_hal_pcd.c ****    hpcd->OUT_ep[i].xfer_len = 0U;
 184:Drivers/STM32F0xx_HAL_Driver/Src/stm32f0xx_hal_pcd.c ****  }
 185:Drivers/STM32F0xx_HAL_Driver/Src/stm32f0xx_hal_pcd.c ****   
 186:Drivers/STM32F0xx_HAL_Driver/Src/stm32f0xx_hal_pcd.c ****  /* Init Device */
 187:Drivers/STM32F0xx_HAL_Driver/Src/stm32f0xx_hal_pcd.c ****  /*CNTR_FRES = 1*/
 188:Drivers/STM32F0xx_HAL_Driver/Src/stm32f0xx_hal_pcd.c ****  hpcd->Instance->CNTR = USB_CNTR_FRES;
 189:Drivers/STM32F0xx_HAL_Driver/Src/stm32f0xx_hal_pcd.c ****  
 190:Drivers/STM32F0xx_HAL_Driver/Src/stm32f0xx_hal_pcd.c ****  /*CNTR_FRES = 0*/
 191:Drivers/STM32F0xx_HAL_Driver/Src/stm32f0xx_hal_pcd.c ****  hpcd->Instance->CNTR = 0;
 192:Drivers/STM32F0xx_HAL_Driver/Src/stm32f0xx_hal_pcd.c ****  
 193:Drivers/STM32F0xx_HAL_Driver/Src/stm32f0xx_hal_pcd.c ****  /*Clear pending interrupts*/
 194:Drivers/STM32F0xx_HAL_Driver/Src/stm32f0xx_hal_pcd.c ****  hpcd->Instance->ISTR = 0;
 195:Drivers/STM32F0xx_HAL_Driver/Src/stm32f0xx_hal_pcd.c ****  
 196:Drivers/STM32F0xx_HAL_Driver/Src/stm32f0xx_hal_pcd.c ****   /*Set Btable Adress*/
 197:Drivers/STM32F0xx_HAL_Driver/Src/stm32f0xx_hal_pcd.c ****  hpcd->Instance->BTABLE = BTABLE_ADDRESS;
 198:Drivers/STM32F0xx_HAL_Driver/Src/stm32f0xx_hal_pcd.c ****   
 199:Drivers/STM32F0xx_HAL_Driver/Src/stm32f0xx_hal_pcd.c ****   /*set wInterrupt_Mask global variable*/
 200:Drivers/STM32F0xx_HAL_Driver/Src/stm32f0xx_hal_pcd.c ****  wInterrupt_Mask = USB_CNTR_CTRM  | USB_CNTR_WKUPM | USB_CNTR_SUSPM | USB_CNTR_ERRM \
 201:Drivers/STM32F0xx_HAL_Driver/Src/stm32f0xx_hal_pcd.c ****    | USB_CNTR_SOFM | USB_CNTR_ESOFM | USB_CNTR_RESETM;
 202:Drivers/STM32F0xx_HAL_Driver/Src/stm32f0xx_hal_pcd.c ****   
ARM GAS  /tmp/cc8iG1bp.s 			page 5


 203:Drivers/STM32F0xx_HAL_Driver/Src/stm32f0xx_hal_pcd.c ****   /*Set interrupt mask*/
 204:Drivers/STM32F0xx_HAL_Driver/Src/stm32f0xx_hal_pcd.c ****   hpcd->Instance->CNTR = wInterrupt_Mask;
 205:Drivers/STM32F0xx_HAL_Driver/Src/stm32f0xx_hal_pcd.c ****   
 206:Drivers/STM32F0xx_HAL_Driver/Src/stm32f0xx_hal_pcd.c ****   hpcd->USB_Address = 0U;
 207:Drivers/STM32F0xx_HAL_Driver/Src/stm32f0xx_hal_pcd.c ****   hpcd->State= HAL_PCD_STATE_READY;
 208:Drivers/STM32F0xx_HAL_Driver/Src/stm32f0xx_hal_pcd.c **** 
 209:Drivers/STM32F0xx_HAL_Driver/Src/stm32f0xx_hal_pcd.c ****  return HAL_OK;
 210:Drivers/STM32F0xx_HAL_Driver/Src/stm32f0xx_hal_pcd.c **** }
 211:Drivers/STM32F0xx_HAL_Driver/Src/stm32f0xx_hal_pcd.c **** 
 212:Drivers/STM32F0xx_HAL_Driver/Src/stm32f0xx_hal_pcd.c **** /**
 213:Drivers/STM32F0xx_HAL_Driver/Src/stm32f0xx_hal_pcd.c ****   * @brief  DeInitializes the PCD peripheral 
 214:Drivers/STM32F0xx_HAL_Driver/Src/stm32f0xx_hal_pcd.c ****   * @param  hpcd PCD handle
 215:Drivers/STM32F0xx_HAL_Driver/Src/stm32f0xx_hal_pcd.c ****   * @retval HAL status
 216:Drivers/STM32F0xx_HAL_Driver/Src/stm32f0xx_hal_pcd.c ****   */
 217:Drivers/STM32F0xx_HAL_Driver/Src/stm32f0xx_hal_pcd.c **** HAL_StatusTypeDef HAL_PCD_DeInit(PCD_HandleTypeDef *hpcd)
 218:Drivers/STM32F0xx_HAL_Driver/Src/stm32f0xx_hal_pcd.c **** {
 219:Drivers/STM32F0xx_HAL_Driver/Src/stm32f0xx_hal_pcd.c ****   /* Check the PCD handle allocation */
 220:Drivers/STM32F0xx_HAL_Driver/Src/stm32f0xx_hal_pcd.c ****   if(hpcd == NULL)
 221:Drivers/STM32F0xx_HAL_Driver/Src/stm32f0xx_hal_pcd.c ****   {
 222:Drivers/STM32F0xx_HAL_Driver/Src/stm32f0xx_hal_pcd.c ****     return HAL_ERROR;
 223:Drivers/STM32F0xx_HAL_Driver/Src/stm32f0xx_hal_pcd.c ****   }
 224:Drivers/STM32F0xx_HAL_Driver/Src/stm32f0xx_hal_pcd.c **** 
 225:Drivers/STM32F0xx_HAL_Driver/Src/stm32f0xx_hal_pcd.c ****   hpcd->State = HAL_PCD_STATE_BUSY;
 226:Drivers/STM32F0xx_HAL_Driver/Src/stm32f0xx_hal_pcd.c ****   
 227:Drivers/STM32F0xx_HAL_Driver/Src/stm32f0xx_hal_pcd.c ****   /* Stop Device */
 228:Drivers/STM32F0xx_HAL_Driver/Src/stm32f0xx_hal_pcd.c ****   HAL_PCD_Stop(hpcd);
 229:Drivers/STM32F0xx_HAL_Driver/Src/stm32f0xx_hal_pcd.c ****     
 230:Drivers/STM32F0xx_HAL_Driver/Src/stm32f0xx_hal_pcd.c ****   /* DeInit the low level hardware */
 231:Drivers/STM32F0xx_HAL_Driver/Src/stm32f0xx_hal_pcd.c ****   HAL_PCD_MspDeInit(hpcd);
 232:Drivers/STM32F0xx_HAL_Driver/Src/stm32f0xx_hal_pcd.c ****   
 233:Drivers/STM32F0xx_HAL_Driver/Src/stm32f0xx_hal_pcd.c ****   hpcd->State = HAL_PCD_STATE_RESET; 
 234:Drivers/STM32F0xx_HAL_Driver/Src/stm32f0xx_hal_pcd.c ****   
 235:Drivers/STM32F0xx_HAL_Driver/Src/stm32f0xx_hal_pcd.c ****   return HAL_OK;
 236:Drivers/STM32F0xx_HAL_Driver/Src/stm32f0xx_hal_pcd.c **** }
 237:Drivers/STM32F0xx_HAL_Driver/Src/stm32f0xx_hal_pcd.c **** 
 238:Drivers/STM32F0xx_HAL_Driver/Src/stm32f0xx_hal_pcd.c **** /**
 239:Drivers/STM32F0xx_HAL_Driver/Src/stm32f0xx_hal_pcd.c ****   * @brief  Initializes the PCD MSP.
 240:Drivers/STM32F0xx_HAL_Driver/Src/stm32f0xx_hal_pcd.c ****   * @param  hpcd PCD handle
 241:Drivers/STM32F0xx_HAL_Driver/Src/stm32f0xx_hal_pcd.c ****   * @retval None
 242:Drivers/STM32F0xx_HAL_Driver/Src/stm32f0xx_hal_pcd.c ****   */
 243:Drivers/STM32F0xx_HAL_Driver/Src/stm32f0xx_hal_pcd.c **** __weak void HAL_PCD_MspInit(PCD_HandleTypeDef *hpcd)
 244:Drivers/STM32F0xx_HAL_Driver/Src/stm32f0xx_hal_pcd.c **** {
  28              		.loc 1 244 1 view -0
  29              		.cfi_startproc
  30              		@ args = 0, pretend = 0, frame = 0
  31              		@ frame_needed = 0, uses_anonymous_args = 0
  32              		@ link register save eliminated.
 245:Drivers/STM32F0xx_HAL_Driver/Src/stm32f0xx_hal_pcd.c ****   /* Prevent unused argument(s) compilation warning */
 246:Drivers/STM32F0xx_HAL_Driver/Src/stm32f0xx_hal_pcd.c ****   UNUSED(hpcd);
  33              		.loc 1 246 3 view .LVU1
 247:Drivers/STM32F0xx_HAL_Driver/Src/stm32f0xx_hal_pcd.c **** 
 248:Drivers/STM32F0xx_HAL_Driver/Src/stm32f0xx_hal_pcd.c ****   /* NOTE : This function Should not be modified, when the callback is needed,
 249:Drivers/STM32F0xx_HAL_Driver/Src/stm32f0xx_hal_pcd.c ****             the HAL_PCD_MspInit could be implemented in the user file
 250:Drivers/STM32F0xx_HAL_Driver/Src/stm32f0xx_hal_pcd.c ****    */
 251:Drivers/STM32F0xx_HAL_Driver/Src/stm32f0xx_hal_pcd.c **** }
  34              		.loc 1 251 1 is_stmt 0 view .LVU2
  35              		@ sp needed
ARM GAS  /tmp/cc8iG1bp.s 			page 6


  36 0000 7047     		bx	lr
  37              		.cfi_endproc
  38              	.LFE39:
  40              		.section	.text.HAL_PCD_Init,"ax",%progbits
  41              		.align	1
  42              		.global	HAL_PCD_Init
  43              		.syntax unified
  44              		.code	16
  45              		.thumb_func
  46              		.fpu softvfp
  48              	HAL_PCD_Init:
  49              	.LVL1:
  50              	.LFB37:
 137:Drivers/STM32F0xx_HAL_Driver/Src/stm32f0xx_hal_pcd.c ****   uint32_t i = 0U;
  51              		.loc 1 137 1 is_stmt 1 view -0
  52              		.cfi_startproc
  53              		@ args = 0, pretend = 0, frame = 0
  54              		@ frame_needed = 0, uses_anonymous_args = 0
 137:Drivers/STM32F0xx_HAL_Driver/Src/stm32f0xx_hal_pcd.c ****   uint32_t i = 0U;
  55              		.loc 1 137 1 is_stmt 0 view .LVU4
  56 0000 70B5     		push	{r4, r5, r6, lr}
  57              	.LCFI0:
  58              		.cfi_def_cfa_offset 16
  59              		.cfi_offset 4, -16
  60              		.cfi_offset 5, -12
  61              		.cfi_offset 6, -8
  62              		.cfi_offset 14, -4
  63 0002 041E     		subs	r4, r0, #0
 138:Drivers/STM32F0xx_HAL_Driver/Src/stm32f0xx_hal_pcd.c **** 
  64              		.loc 1 138 3 is_stmt 1 view .LVU5
  65              	.LVL2:
 140:Drivers/STM32F0xx_HAL_Driver/Src/stm32f0xx_hal_pcd.c ****   
  66              		.loc 1 140 3 view .LVU6
 143:Drivers/STM32F0xx_HAL_Driver/Src/stm32f0xx_hal_pcd.c ****   {
  67              		.loc 1 143 3 view .LVU7
 143:Drivers/STM32F0xx_HAL_Driver/Src/stm32f0xx_hal_pcd.c ****   {
  68              		.loc 1 143 5 is_stmt 0 view .LVU8
  69 0004 58D0     		beq	.L9
 149:Drivers/STM32F0xx_HAL_Driver/Src/stm32f0xx_hal_pcd.c **** 
  70              		.loc 1 149 3 is_stmt 1 view .LVU9
 151:Drivers/STM32F0xx_HAL_Driver/Src/stm32f0xx_hal_pcd.c ****   {  
  71              		.loc 1 151 3 view .LVU10
 151:Drivers/STM32F0xx_HAL_Driver/Src/stm32f0xx_hal_pcd.c ****   {  
  72              		.loc 1 151 10 is_stmt 0 view .LVU11
  73 0006 EA23     		movs	r3, #234
  74 0008 FF33     		adds	r3, r3, #255
  75 000a C35C     		ldrb	r3, [r0, r3]
 151:Drivers/STM32F0xx_HAL_Driver/Src/stm32f0xx_hal_pcd.c ****   {  
  76              		.loc 1 151 5 view .LVU12
  77 000c 002B     		cmp	r3, #0
  78 000e 05D0     		beq	.L10
  79              	.LVL3:
  80              	.L4:
 160:Drivers/STM32F0xx_HAL_Driver/Src/stm32f0xx_hal_pcd.c ****  
  81              		.loc 1 160 3 is_stmt 1 view .LVU13
 160:Drivers/STM32F0xx_HAL_Driver/Src/stm32f0xx_hal_pcd.c ****  
  82              		.loc 1 160 15 is_stmt 0 view .LVU14
ARM GAS  /tmp/cc8iG1bp.s 			page 7


  83 0010 EA23     		movs	r3, #234
  84 0012 FF33     		adds	r3, r3, #255
  85 0014 0322     		movs	r2, #3
  86 0016 E254     		strb	r2, [r4, r3]
 163:Drivers/STM32F0xx_HAL_Driver/Src/stm32f0xx_hal_pcd.c ****  {
  87              		.loc 1 163 2 is_stmt 1 view .LVU15
 163:Drivers/STM32F0xx_HAL_Driver/Src/stm32f0xx_hal_pcd.c ****  {
  88              		.loc 1 163 9 is_stmt 0 view .LVU16
  89 0018 0022     		movs	r2, #0
 163:Drivers/STM32F0xx_HAL_Driver/Src/stm32f0xx_hal_pcd.c ****  {
  90              		.loc 1 163 2 view .LVU17
  91 001a 18E0     		b	.L5
  92              	.LVL4:
  93              	.L10:
 154:Drivers/STM32F0xx_HAL_Driver/Src/stm32f0xx_hal_pcd.c ****   
  94              		.loc 1 154 5 is_stmt 1 view .LVU18
 154:Drivers/STM32F0xx_HAL_Driver/Src/stm32f0xx_hal_pcd.c ****   
  95              		.loc 1 154 16 is_stmt 0 view .LVU19
  96 001c E933     		adds	r3, r3, #233
  97 001e FF33     		adds	r3, r3, #255
  98 0020 0022     		movs	r2, #0
  99 0022 C254     		strb	r2, [r0, r3]
 157:Drivers/STM32F0xx_HAL_Driver/Src/stm32f0xx_hal_pcd.c ****   }
 100              		.loc 1 157 5 is_stmt 1 view .LVU20
 101 0024 FFF7FEFF 		bl	HAL_PCD_MspInit
 102              	.LVL5:
 157:Drivers/STM32F0xx_HAL_Driver/Src/stm32f0xx_hal_pcd.c ****   }
 103              		.loc 1 157 5 is_stmt 0 view .LVU21
 104 0028 F2E7     		b	.L4
 105              	.LVL6:
 106              	.L6:
 166:Drivers/STM32F0xx_HAL_Driver/Src/stm32f0xx_hal_pcd.c ****    hpcd->IN_ep[i].num = i;
 107              		.loc 1 166 4 is_stmt 1 discriminator 3 view .LVU22
 166:Drivers/STM32F0xx_HAL_Driver/Src/stm32f0xx_hal_pcd.c ****    hpcd->IN_ep[i].num = i;
 108              		.loc 1 166 25 is_stmt 0 discriminator 3 view .LVU23
 109 002a D300     		lsls	r3, r2, #3
 110 002c 9B1A     		subs	r3, r3, r2
 111 002e 9B00     		lsls	r3, r3, #2
 112 0030 E318     		adds	r3, r4, r3
 113 0032 1900     		movs	r1, r3
 114 0034 2931     		adds	r1, r1, #41
 115 0036 0120     		movs	r0, #1
 116 0038 0870     		strb	r0, [r1]
 167:Drivers/STM32F0xx_HAL_Driver/Src/stm32f0xx_hal_pcd.c ****    /* Control until ep is actvated */
 117              		.loc 1 167 4 is_stmt 1 discriminator 3 view .LVU24
 167:Drivers/STM32F0xx_HAL_Driver/Src/stm32f0xx_hal_pcd.c ****    /* Control until ep is actvated */
 118              		.loc 1 167 23 is_stmt 0 discriminator 3 view .LVU25
 119 003a 0139     		subs	r1, r1, #1
 120 003c 0A70     		strb	r2, [r1]
 169:Drivers/STM32F0xx_HAL_Driver/Src/stm32f0xx_hal_pcd.c ****    hpcd->IN_ep[i].maxpacket =  0U;
 121              		.loc 1 169 4 is_stmt 1 discriminator 3 view .LVU26
 169:Drivers/STM32F0xx_HAL_Driver/Src/stm32f0xx_hal_pcd.c ****    hpcd->IN_ep[i].maxpacket =  0U;
 122              		.loc 1 169 24 is_stmt 0 discriminator 3 view .LVU27
 123 003e 1800     		movs	r0, r3
 124 0040 2B30     		adds	r0, r0, #43
 125 0042 0021     		movs	r1, #0
 126 0044 0170     		strb	r1, [r0]
ARM GAS  /tmp/cc8iG1bp.s 			page 8


 170:Drivers/STM32F0xx_HAL_Driver/Src/stm32f0xx_hal_pcd.c ****    hpcd->IN_ep[i].xfer_buff = 0U;
 127              		.loc 1 170 4 is_stmt 1 discriminator 3 view .LVU28
 170:Drivers/STM32F0xx_HAL_Driver/Src/stm32f0xx_hal_pcd.c ****    hpcd->IN_ep[i].xfer_buff = 0U;
 128              		.loc 1 170 29 is_stmt 0 discriminator 3 view .LVU29
 129 0046 5963     		str	r1, [r3, #52]
 171:Drivers/STM32F0xx_HAL_Driver/Src/stm32f0xx_hal_pcd.c ****    hpcd->IN_ep[i].xfer_len = 0U;
 130              		.loc 1 171 4 is_stmt 1 discriminator 3 view .LVU30
 171:Drivers/STM32F0xx_HAL_Driver/Src/stm32f0xx_hal_pcd.c ****    hpcd->IN_ep[i].xfer_len = 0U;
 131              		.loc 1 171 29 is_stmt 0 discriminator 3 view .LVU31
 132 0048 9963     		str	r1, [r3, #56]
 172:Drivers/STM32F0xx_HAL_Driver/Src/stm32f0xx_hal_pcd.c ****  }
 133              		.loc 1 172 4 is_stmt 1 discriminator 3 view .LVU32
 172:Drivers/STM32F0xx_HAL_Driver/Src/stm32f0xx_hal_pcd.c ****  }
 134              		.loc 1 172 28 is_stmt 0 discriminator 3 view .LVU33
 135 004a D963     		str	r1, [r3, #60]
 163:Drivers/STM32F0xx_HAL_Driver/Src/stm32f0xx_hal_pcd.c ****  {
 136              		.loc 1 163 46 is_stmt 1 discriminator 3 view .LVU34
 163:Drivers/STM32F0xx_HAL_Driver/Src/stm32f0xx_hal_pcd.c ****  {
 137              		.loc 1 163 47 is_stmt 0 discriminator 3 view .LVU35
 138 004c 0132     		adds	r2, r2, #1
 139              	.LVL7:
 140              	.L5:
 163:Drivers/STM32F0xx_HAL_Driver/Src/stm32f0xx_hal_pcd.c ****  {
 141              		.loc 1 163 15 is_stmt 1 discriminator 1 view .LVU36
 163:Drivers/STM32F0xx_HAL_Driver/Src/stm32f0xx_hal_pcd.c ****  {
 142              		.loc 1 163 29 is_stmt 0 discriminator 1 view .LVU37
 143 004e 6068     		ldr	r0, [r4, #4]
 163:Drivers/STM32F0xx_HAL_Driver/Src/stm32f0xx_hal_pcd.c ****  {
 144              		.loc 1 163 2 discriminator 1 view .LVU38
 145 0050 9042     		cmp	r0, r2
 146 0052 EAD8     		bhi	.L6
 175:Drivers/STM32F0xx_HAL_Driver/Src/stm32f0xx_hal_pcd.c ****  {
 147              		.loc 1 175 9 view .LVU39
 148 0054 0022     		movs	r2, #0
 149              	.LVL8:
 175:Drivers/STM32F0xx_HAL_Driver/Src/stm32f0xx_hal_pcd.c ****  {
 150              		.loc 1 175 9 view .LVU40
 151 0056 14E0     		b	.L7
 152              	.LVL9:
 153              	.L8:
 177:Drivers/STM32F0xx_HAL_Driver/Src/stm32f0xx_hal_pcd.c ****    hpcd->OUT_ep[i].num = i;
 154              		.loc 1 177 4 is_stmt 1 discriminator 3 view .LVU41
 177:Drivers/STM32F0xx_HAL_Driver/Src/stm32f0xx_hal_pcd.c ****    hpcd->OUT_ep[i].num = i;
 155              		.loc 1 177 26 is_stmt 0 discriminator 3 view .LVU42
 156 0058 D300     		lsls	r3, r2, #3
 157 005a 9B1A     		subs	r3, r3, r2
 158 005c 9B00     		lsls	r3, r3, #2
 159 005e E318     		adds	r3, r4, r3
 160 0060 1D00     		movs	r5, r3
 161 0062 0A35     		adds	r5, r5, #10
 162 0064 FF35     		adds	r5, r5, #255
 163 0066 0021     		movs	r1, #0
 164 0068 2970     		strb	r1, [r5]
 178:Drivers/STM32F0xx_HAL_Driver/Src/stm32f0xx_hal_pcd.c ****    /* Control until ep is activated */
 165              		.loc 1 178 4 is_stmt 1 discriminator 3 view .LVU43
 178:Drivers/STM32F0xx_HAL_Driver/Src/stm32f0xx_hal_pcd.c ****    /* Control until ep is activated */
 166              		.loc 1 178 24 is_stmt 0 discriminator 3 view .LVU44
ARM GAS  /tmp/cc8iG1bp.s 			page 9


 167 006a 013D     		subs	r5, r5, #1
 168 006c 2A70     		strb	r2, [r5]
 180:Drivers/STM32F0xx_HAL_Driver/Src/stm32f0xx_hal_pcd.c ****    hpcd->OUT_ep[i].maxpacket = 0U;
 169              		.loc 1 180 4 is_stmt 1 discriminator 3 view .LVU45
 180:Drivers/STM32F0xx_HAL_Driver/Src/stm32f0xx_hal_pcd.c ****    hpcd->OUT_ep[i].maxpacket = 0U;
 170              		.loc 1 180 25 is_stmt 0 discriminator 3 view .LVU46
 171 006e 0335     		adds	r5, r5, #3
 172 0070 2970     		strb	r1, [r5]
 181:Drivers/STM32F0xx_HAL_Driver/Src/stm32f0xx_hal_pcd.c ****    hpcd->OUT_ep[i].xfer_buff = 0U;
 173              		.loc 1 181 4 is_stmt 1 discriminator 3 view .LVU47
 181:Drivers/STM32F0xx_HAL_Driver/Src/stm32f0xx_hal_pcd.c ****    hpcd->OUT_ep[i].xfer_buff = 0U;
 174              		.loc 1 181 30 is_stmt 0 discriminator 3 view .LVU48
 175 0072 0935     		adds	r5, r5, #9
 176 0074 2960     		str	r1, [r5]
 182:Drivers/STM32F0xx_HAL_Driver/Src/stm32f0xx_hal_pcd.c ****    hpcd->OUT_ep[i].xfer_len = 0U;
 177              		.loc 1 182 4 is_stmt 1 discriminator 3 view .LVU49
 182:Drivers/STM32F0xx_HAL_Driver/Src/stm32f0xx_hal_pcd.c ****    hpcd->OUT_ep[i].xfer_len = 0U;
 178              		.loc 1 182 30 is_stmt 0 discriminator 3 view .LVU50
 179 0076 0435     		adds	r5, r5, #4
 180 0078 2960     		str	r1, [r5]
 183:Drivers/STM32F0xx_HAL_Driver/Src/stm32f0xx_hal_pcd.c ****  }
 181              		.loc 1 183 4 is_stmt 1 discriminator 3 view .LVU51
 183:Drivers/STM32F0xx_HAL_Driver/Src/stm32f0xx_hal_pcd.c ****  }
 182              		.loc 1 183 29 is_stmt 0 discriminator 3 view .LVU52
 183 007a 1D33     		adds	r3, r3, #29
 184 007c FF33     		adds	r3, r3, #255
 185 007e 1960     		str	r1, [r3]
 175:Drivers/STM32F0xx_HAL_Driver/Src/stm32f0xx_hal_pcd.c ****  {
 186              		.loc 1 175 46 is_stmt 1 discriminator 3 view .LVU53
 175:Drivers/STM32F0xx_HAL_Driver/Src/stm32f0xx_hal_pcd.c ****  {
 187              		.loc 1 175 47 is_stmt 0 discriminator 3 view .LVU54
 188 0080 0132     		adds	r2, r2, #1
 189              	.LVL10:
 190              	.L7:
 175:Drivers/STM32F0xx_HAL_Driver/Src/stm32f0xx_hal_pcd.c ****  {
 191              		.loc 1 175 15 is_stmt 1 discriminator 1 view .LVU55
 175:Drivers/STM32F0xx_HAL_Driver/Src/stm32f0xx_hal_pcd.c ****  {
 192              		.loc 1 175 2 is_stmt 0 discriminator 1 view .LVU56
 193 0082 9042     		cmp	r0, r2
 194 0084 E8D8     		bhi	.L8
 188:Drivers/STM32F0xx_HAL_Driver/Src/stm32f0xx_hal_pcd.c ****  
 195              		.loc 1 188 2 is_stmt 1 view .LVU57
 188:Drivers/STM32F0xx_HAL_Driver/Src/stm32f0xx_hal_pcd.c ****  
 196              		.loc 1 188 23 is_stmt 0 view .LVU58
 197 0086 4023     		movs	r3, #64
 198 0088 0122     		movs	r2, #1
 199              	.LVL11:
 188:Drivers/STM32F0xx_HAL_Driver/Src/stm32f0xx_hal_pcd.c ****  
 200              		.loc 1 188 23 view .LVU59
 201 008a 2168     		ldr	r1, [r4]
 202 008c CA52     		strh	r2, [r1, r3]
 191:Drivers/STM32F0xx_HAL_Driver/Src/stm32f0xx_hal_pcd.c ****  
 203              		.loc 1 191 2 is_stmt 1 view .LVU60
 191:Drivers/STM32F0xx_HAL_Driver/Src/stm32f0xx_hal_pcd.c ****  
 204              		.loc 1 191 23 is_stmt 0 view .LVU61
 205 008e 0022     		movs	r2, #0
 206 0090 2168     		ldr	r1, [r4]
ARM GAS  /tmp/cc8iG1bp.s 			page 10


 207 0092 CA52     		strh	r2, [r1, r3]
 194:Drivers/STM32F0xx_HAL_Driver/Src/stm32f0xx_hal_pcd.c ****  
 208              		.loc 1 194 2 is_stmt 1 view .LVU62
 194:Drivers/STM32F0xx_HAL_Driver/Src/stm32f0xx_hal_pcd.c ****  
 209              		.loc 1 194 23 is_stmt 0 view .LVU63
 210 0094 4421     		movs	r1, #68
 211 0096 2068     		ldr	r0, [r4]
 212 0098 4252     		strh	r2, [r0, r1]
 197:Drivers/STM32F0xx_HAL_Driver/Src/stm32f0xx_hal_pcd.c ****   
 213              		.loc 1 197 2 is_stmt 1 view .LVU64
 197:Drivers/STM32F0xx_HAL_Driver/Src/stm32f0xx_hal_pcd.c ****   
 214              		.loc 1 197 25 is_stmt 0 view .LVU65
 215 009a 0C31     		adds	r1, r1, #12
 216 009c 2068     		ldr	r0, [r4]
 217 009e 4252     		strh	r2, [r0, r1]
 200:Drivers/STM32F0xx_HAL_Driver/Src/stm32f0xx_hal_pcd.c ****    | USB_CNTR_SOFM | USB_CNTR_ESOFM | USB_CNTR_RESETM;
 218              		.loc 1 200 2 is_stmt 1 view .LVU66
 219              	.LVL12:
 204:Drivers/STM32F0xx_HAL_Driver/Src/stm32f0xx_hal_pcd.c ****   
 220              		.loc 1 204 3 view .LVU67
 204:Drivers/STM32F0xx_HAL_Driver/Src/stm32f0xx_hal_pcd.c ****   
 221              		.loc 1 204 24 is_stmt 0 view .LVU68
 222 00a0 064A     		ldr	r2, .L11
 223 00a2 2168     		ldr	r1, [r4]
 224 00a4 CA52     		strh	r2, [r1, r3]
 206:Drivers/STM32F0xx_HAL_Driver/Src/stm32f0xx_hal_pcd.c ****   hpcd->State= HAL_PCD_STATE_READY;
 225              		.loc 1 206 3 is_stmt 1 view .LVU69
 206:Drivers/STM32F0xx_HAL_Driver/Src/stm32f0xx_hal_pcd.c ****   hpcd->State= HAL_PCD_STATE_READY;
 226              		.loc 1 206 21 is_stmt 0 view .LVU70
 227 00a6 0022     		movs	r2, #0
 228 00a8 1C3B     		subs	r3, r3, #28
 229 00aa E254     		strb	r2, [r4, r3]
 207:Drivers/STM32F0xx_HAL_Driver/Src/stm32f0xx_hal_pcd.c **** 
 230              		.loc 1 207 3 is_stmt 1 view .LVU71
 207:Drivers/STM32F0xx_HAL_Driver/Src/stm32f0xx_hal_pcd.c **** 
 231              		.loc 1 207 14 is_stmt 0 view .LVU72
 232 00ac 0122     		movs	r2, #1
 233 00ae EA23     		movs	r3, #234
 234 00b0 FF33     		adds	r3, r3, #255
 235 00b2 E254     		strb	r2, [r4, r3]
 209:Drivers/STM32F0xx_HAL_Driver/Src/stm32f0xx_hal_pcd.c **** }
 236              		.loc 1 209 2 is_stmt 1 view .LVU73
 209:Drivers/STM32F0xx_HAL_Driver/Src/stm32f0xx_hal_pcd.c **** }
 237              		.loc 1 209 9 is_stmt 0 view .LVU74
 238 00b4 0020     		movs	r0, #0
 239              	.LVL13:
 240              	.L3:
 210:Drivers/STM32F0xx_HAL_Driver/Src/stm32f0xx_hal_pcd.c **** 
 241              		.loc 1 210 1 view .LVU75
 242              		@ sp needed
 243              	.LVL14:
 210:Drivers/STM32F0xx_HAL_Driver/Src/stm32f0xx_hal_pcd.c **** 
 244              		.loc 1 210 1 view .LVU76
 245 00b6 70BD     		pop	{r4, r5, r6, pc}
 246              	.LVL15:
 247              	.L9:
 145:Drivers/STM32F0xx_HAL_Driver/Src/stm32f0xx_hal_pcd.c ****   }
ARM GAS  /tmp/cc8iG1bp.s 			page 11


 248              		.loc 1 145 12 view .LVU77
 249 00b8 0120     		movs	r0, #1
 250              	.LVL16:
 145:Drivers/STM32F0xx_HAL_Driver/Src/stm32f0xx_hal_pcd.c ****   }
 251              		.loc 1 145 12 view .LVU78
 252 00ba FCE7     		b	.L3
 253              	.L12:
 254              		.align	2
 255              	.L11:
 256 00bc 00BFFFFF 		.word	-16640
 257              		.cfi_endproc
 258              	.LFE37:
 260              		.section	.text.HAL_PCD_MspDeInit,"ax",%progbits
 261              		.align	1
 262              		.weak	HAL_PCD_MspDeInit
 263              		.syntax unified
 264              		.code	16
 265              		.thumb_func
 266              		.fpu softvfp
 268              	HAL_PCD_MspDeInit:
 269              	.LVL17:
 270              	.LFB40:
 252:Drivers/STM32F0xx_HAL_Driver/Src/stm32f0xx_hal_pcd.c **** 
 253:Drivers/STM32F0xx_HAL_Driver/Src/stm32f0xx_hal_pcd.c **** /**
 254:Drivers/STM32F0xx_HAL_Driver/Src/stm32f0xx_hal_pcd.c ****   * @brief  DeInitializes PCD MSP.
 255:Drivers/STM32F0xx_HAL_Driver/Src/stm32f0xx_hal_pcd.c ****   * @param  hpcd PCD handle
 256:Drivers/STM32F0xx_HAL_Driver/Src/stm32f0xx_hal_pcd.c ****   * @retval None
 257:Drivers/STM32F0xx_HAL_Driver/Src/stm32f0xx_hal_pcd.c ****   */
 258:Drivers/STM32F0xx_HAL_Driver/Src/stm32f0xx_hal_pcd.c **** __weak void HAL_PCD_MspDeInit(PCD_HandleTypeDef *hpcd)
 259:Drivers/STM32F0xx_HAL_Driver/Src/stm32f0xx_hal_pcd.c **** {
 271              		.loc 1 259 1 is_stmt 1 view -0
 272              		.cfi_startproc
 273              		@ args = 0, pretend = 0, frame = 0
 274              		@ frame_needed = 0, uses_anonymous_args = 0
 275              		@ link register save eliminated.
 260:Drivers/STM32F0xx_HAL_Driver/Src/stm32f0xx_hal_pcd.c ****   /* Prevent unused argument(s) compilation warning */
 261:Drivers/STM32F0xx_HAL_Driver/Src/stm32f0xx_hal_pcd.c ****   UNUSED(hpcd);
 276              		.loc 1 261 3 view .LVU80
 262:Drivers/STM32F0xx_HAL_Driver/Src/stm32f0xx_hal_pcd.c **** 
 263:Drivers/STM32F0xx_HAL_Driver/Src/stm32f0xx_hal_pcd.c ****   /* NOTE : This function Should not be modified, when the callback is needed,
 264:Drivers/STM32F0xx_HAL_Driver/Src/stm32f0xx_hal_pcd.c ****             the HAL_PCD_MspDeInit could be implemented in the user file
 265:Drivers/STM32F0xx_HAL_Driver/Src/stm32f0xx_hal_pcd.c ****    */
 266:Drivers/STM32F0xx_HAL_Driver/Src/stm32f0xx_hal_pcd.c **** }
 277              		.loc 1 266 1 is_stmt 0 view .LVU81
 278              		@ sp needed
 279 0000 7047     		bx	lr
 280              		.cfi_endproc
 281              	.LFE40:
 283              		.section	.text.HAL_PCD_Start,"ax",%progbits
 284              		.align	1
 285              		.global	HAL_PCD_Start
 286              		.syntax unified
 287              		.code	16
 288              		.thumb_func
 289              		.fpu softvfp
 291              	HAL_PCD_Start:
 292              	.LVL18:
ARM GAS  /tmp/cc8iG1bp.s 			page 12


 293              	.LFB41:
 267:Drivers/STM32F0xx_HAL_Driver/Src/stm32f0xx_hal_pcd.c **** 
 268:Drivers/STM32F0xx_HAL_Driver/Src/stm32f0xx_hal_pcd.c **** /**
 269:Drivers/STM32F0xx_HAL_Driver/Src/stm32f0xx_hal_pcd.c ****   * @}
 270:Drivers/STM32F0xx_HAL_Driver/Src/stm32f0xx_hal_pcd.c ****   */
 271:Drivers/STM32F0xx_HAL_Driver/Src/stm32f0xx_hal_pcd.c **** 
 272:Drivers/STM32F0xx_HAL_Driver/Src/stm32f0xx_hal_pcd.c **** /** @defgroup PCD_Exported_Functions_Group2 IO operation functions 
 273:Drivers/STM32F0xx_HAL_Driver/Src/stm32f0xx_hal_pcd.c ****  *  @brief   Data transfers functions 
 274:Drivers/STM32F0xx_HAL_Driver/Src/stm32f0xx_hal_pcd.c ****  *
 275:Drivers/STM32F0xx_HAL_Driver/Src/stm32f0xx_hal_pcd.c **** @verbatim   
 276:Drivers/STM32F0xx_HAL_Driver/Src/stm32f0xx_hal_pcd.c ****  ===============================================================================
 277:Drivers/STM32F0xx_HAL_Driver/Src/stm32f0xx_hal_pcd.c ****                       ##### IO operation functions #####
 278:Drivers/STM32F0xx_HAL_Driver/Src/stm32f0xx_hal_pcd.c ****  ===============================================================================  
 279:Drivers/STM32F0xx_HAL_Driver/Src/stm32f0xx_hal_pcd.c ****     [..]
 280:Drivers/STM32F0xx_HAL_Driver/Src/stm32f0xx_hal_pcd.c ****     This subsection provides a set of functions allowing to manage the PCD data 
 281:Drivers/STM32F0xx_HAL_Driver/Src/stm32f0xx_hal_pcd.c ****     transfers.
 282:Drivers/STM32F0xx_HAL_Driver/Src/stm32f0xx_hal_pcd.c **** 
 283:Drivers/STM32F0xx_HAL_Driver/Src/stm32f0xx_hal_pcd.c **** @endverbatim
 284:Drivers/STM32F0xx_HAL_Driver/Src/stm32f0xx_hal_pcd.c ****   * @{
 285:Drivers/STM32F0xx_HAL_Driver/Src/stm32f0xx_hal_pcd.c ****   */
 286:Drivers/STM32F0xx_HAL_Driver/Src/stm32f0xx_hal_pcd.c ****   
 287:Drivers/STM32F0xx_HAL_Driver/Src/stm32f0xx_hal_pcd.c **** /**
 288:Drivers/STM32F0xx_HAL_Driver/Src/stm32f0xx_hal_pcd.c ****   * @brief  Start the USB device.
 289:Drivers/STM32F0xx_HAL_Driver/Src/stm32f0xx_hal_pcd.c ****   * @param  hpcd PCD handle
 290:Drivers/STM32F0xx_HAL_Driver/Src/stm32f0xx_hal_pcd.c ****   * @retval HAL status
 291:Drivers/STM32F0xx_HAL_Driver/Src/stm32f0xx_hal_pcd.c ****   */
 292:Drivers/STM32F0xx_HAL_Driver/Src/stm32f0xx_hal_pcd.c **** HAL_StatusTypeDef HAL_PCD_Start(PCD_HandleTypeDef *hpcd)
 293:Drivers/STM32F0xx_HAL_Driver/Src/stm32f0xx_hal_pcd.c **** { 
 294              		.loc 1 293 1 is_stmt 1 view -0
 295              		.cfi_startproc
 296              		@ args = 0, pretend = 0, frame = 0
 297              		@ frame_needed = 0, uses_anonymous_args = 0
 298              		@ link register save eliminated.
 294:Drivers/STM32F0xx_HAL_Driver/Src/stm32f0xx_hal_pcd.c ****   /* Enabling DP Pull-Down bit to Connect internal pull-up on USB DP line */
 295:Drivers/STM32F0xx_HAL_Driver/Src/stm32f0xx_hal_pcd.c ****   hpcd->Instance->BCDR |= USB_BCDR_DPPU;
 299              		.loc 1 295 3 view .LVU83
 300              		.loc 1 295 7 is_stmt 0 view .LVU84
 301 0000 0168     		ldr	r1, [r0]
 302              		.loc 1 295 24 view .LVU85
 303 0002 5822     		movs	r2, #88
 304 0004 8B5A     		ldrh	r3, [r1, r2]
 305 0006 0348     		ldr	r0, .L15
 306              	.LVL19:
 307              		.loc 1 295 24 view .LVU86
 308 0008 0343     		orrs	r3, r0
 309 000a 9BB2     		uxth	r3, r3
 310 000c 8B52     		strh	r3, [r1, r2]
 296:Drivers/STM32F0xx_HAL_Driver/Src/stm32f0xx_hal_pcd.c ****   
 297:Drivers/STM32F0xx_HAL_Driver/Src/stm32f0xx_hal_pcd.c ****   return HAL_OK;
 311              		.loc 1 297 3 is_stmt 1 view .LVU87
 298:Drivers/STM32F0xx_HAL_Driver/Src/stm32f0xx_hal_pcd.c **** }
 312              		.loc 1 298 1 is_stmt 0 view .LVU88
 313 000e 0020     		movs	r0, #0
 314              		@ sp needed
 315 0010 7047     		bx	lr
 316              	.L16:
 317 0012 C046     		.align	2
ARM GAS  /tmp/cc8iG1bp.s 			page 13


 318              	.L15:
 319 0014 0080FFFF 		.word	-32768
 320              		.cfi_endproc
 321              	.LFE41:
 323              		.section	.text.HAL_PCD_Stop,"ax",%progbits
 324              		.align	1
 325              		.global	HAL_PCD_Stop
 326              		.syntax unified
 327              		.code	16
 328              		.thumb_func
 329              		.fpu softvfp
 331              	HAL_PCD_Stop:
 332              	.LVL20:
 333              	.LFB42:
 299:Drivers/STM32F0xx_HAL_Driver/Src/stm32f0xx_hal_pcd.c **** 
 300:Drivers/STM32F0xx_HAL_Driver/Src/stm32f0xx_hal_pcd.c **** /**
 301:Drivers/STM32F0xx_HAL_Driver/Src/stm32f0xx_hal_pcd.c ****   * @brief  Stop the USB device.
 302:Drivers/STM32F0xx_HAL_Driver/Src/stm32f0xx_hal_pcd.c ****   * @param  hpcd PCD handle
 303:Drivers/STM32F0xx_HAL_Driver/Src/stm32f0xx_hal_pcd.c ****   * @retval HAL status
 304:Drivers/STM32F0xx_HAL_Driver/Src/stm32f0xx_hal_pcd.c ****   */
 305:Drivers/STM32F0xx_HAL_Driver/Src/stm32f0xx_hal_pcd.c **** HAL_StatusTypeDef HAL_PCD_Stop(PCD_HandleTypeDef *hpcd)
 306:Drivers/STM32F0xx_HAL_Driver/Src/stm32f0xx_hal_pcd.c **** { 
 334              		.loc 1 306 1 is_stmt 1 view -0
 335              		.cfi_startproc
 336              		@ args = 0, pretend = 0, frame = 0
 337              		@ frame_needed = 0, uses_anonymous_args = 0
 338              		.loc 1 306 1 is_stmt 0 view .LVU90
 339 0000 30B5     		push	{r4, r5, lr}
 340              	.LCFI1:
 341              		.cfi_def_cfa_offset 12
 342              		.cfi_offset 4, -12
 343              		.cfi_offset 5, -8
 344              		.cfi_offset 14, -4
 307:Drivers/STM32F0xx_HAL_Driver/Src/stm32f0xx_hal_pcd.c ****   __HAL_LOCK(hpcd); 
 345              		.loc 1 307 3 is_stmt 1 view .LVU91
 346              		.loc 1 307 3 view .LVU92
 347 0002 F423     		movs	r3, #244
 348 0004 5B00     		lsls	r3, r3, #1
 349 0006 C35C     		ldrb	r3, [r0, r3]
 350 0008 012B     		cmp	r3, #1
 351 000a 11D0     		beq	.L19
 352              		.loc 1 307 3 discriminator 2 view .LVU93
 353 000c F423     		movs	r3, #244
 354 000e 5B00     		lsls	r3, r3, #1
 355 0010 0121     		movs	r1, #1
 356 0012 C154     		strb	r1, [r0, r3]
 357              		.loc 1 307 3 discriminator 2 view .LVU94
 308:Drivers/STM32F0xx_HAL_Driver/Src/stm32f0xx_hal_pcd.c ****   
 309:Drivers/STM32F0xx_HAL_Driver/Src/stm32f0xx_hal_pcd.c ****     /* disable all interrupts and force USB reset */
 310:Drivers/STM32F0xx_HAL_Driver/Src/stm32f0xx_hal_pcd.c ****   hpcd->Instance->CNTR = USB_CNTR_FRES;
 358              		.loc 1 310 3 discriminator 2 view .LVU95
 359              		.loc 1 310 24 is_stmt 0 discriminator 2 view .LVU96
 360 0014 4022     		movs	r2, #64
 361 0016 0468     		ldr	r4, [r0]
 362 0018 A152     		strh	r1, [r4, r2]
 311:Drivers/STM32F0xx_HAL_Driver/Src/stm32f0xx_hal_pcd.c ****   
 312:Drivers/STM32F0xx_HAL_Driver/Src/stm32f0xx_hal_pcd.c ****   /* clear interrupt status register */
ARM GAS  /tmp/cc8iG1bp.s 			page 14


 313:Drivers/STM32F0xx_HAL_Driver/Src/stm32f0xx_hal_pcd.c ****   hpcd->Instance->ISTR = 0;
 363              		.loc 1 313 3 is_stmt 1 discriminator 2 view .LVU97
 364              		.loc 1 313 24 is_stmt 0 discriminator 2 view .LVU98
 365 001a 4331     		adds	r1, r1, #67
 366 001c 0024     		movs	r4, #0
 367 001e 0568     		ldr	r5, [r0]
 368 0020 6C52     		strh	r4, [r5, r1]
 314:Drivers/STM32F0xx_HAL_Driver/Src/stm32f0xx_hal_pcd.c ****   
 315:Drivers/STM32F0xx_HAL_Driver/Src/stm32f0xx_hal_pcd.c ****   /* switch-off device */
 316:Drivers/STM32F0xx_HAL_Driver/Src/stm32f0xx_hal_pcd.c ****   hpcd->Instance->CNTR = (USB_CNTR_FRES | USB_CNTR_PDWN);
 369              		.loc 1 316 3 is_stmt 1 discriminator 2 view .LVU99
 370              		.loc 1 316 24 is_stmt 0 discriminator 2 view .LVU100
 371 0022 4139     		subs	r1, r1, #65
 372 0024 0468     		ldr	r4, [r0]
 373 0026 A152     		strh	r1, [r4, r2]
 317:Drivers/STM32F0xx_HAL_Driver/Src/stm32f0xx_hal_pcd.c ****   
 318:Drivers/STM32F0xx_HAL_Driver/Src/stm32f0xx_hal_pcd.c ****   __HAL_UNLOCK(hpcd); 
 374              		.loc 1 318 3 is_stmt 1 discriminator 2 view .LVU101
 375              		.loc 1 318 3 discriminator 2 view .LVU102
 376 0028 0022     		movs	r2, #0
 377 002a C254     		strb	r2, [r0, r3]
 378              		.loc 1 318 3 discriminator 2 view .LVU103
 319:Drivers/STM32F0xx_HAL_Driver/Src/stm32f0xx_hal_pcd.c ****   return HAL_OK;
 379              		.loc 1 319 3 discriminator 2 view .LVU104
 380              		.loc 1 319 10 is_stmt 0 discriminator 2 view .LVU105
 381 002c 0020     		movs	r0, #0
 382              	.LVL21:
 383              	.L18:
 320:Drivers/STM32F0xx_HAL_Driver/Src/stm32f0xx_hal_pcd.c **** }
 384              		.loc 1 320 1 view .LVU106
 385              		@ sp needed
 386 002e 30BD     		pop	{r4, r5, pc}
 387              	.LVL22:
 388              	.L19:
 307:Drivers/STM32F0xx_HAL_Driver/Src/stm32f0xx_hal_pcd.c ****   
 389              		.loc 1 307 3 view .LVU107
 390 0030 0220     		movs	r0, #2
 391              	.LVL23:
 307:Drivers/STM32F0xx_HAL_Driver/Src/stm32f0xx_hal_pcd.c ****   
 392              		.loc 1 307 3 view .LVU108
 393 0032 FCE7     		b	.L18
 394              		.cfi_endproc
 395              	.LFE42:
 397              		.section	.text.HAL_PCD_DeInit,"ax",%progbits
 398              		.align	1
 399              		.global	HAL_PCD_DeInit
 400              		.syntax unified
 401              		.code	16
 402              		.thumb_func
 403              		.fpu softvfp
 405              	HAL_PCD_DeInit:
 406              	.LVL24:
 407              	.LFB38:
 218:Drivers/STM32F0xx_HAL_Driver/Src/stm32f0xx_hal_pcd.c ****   /* Check the PCD handle allocation */
 408              		.loc 1 218 1 is_stmt 1 view -0
 409              		.cfi_startproc
 410              		@ args = 0, pretend = 0, frame = 0
ARM GAS  /tmp/cc8iG1bp.s 			page 15


 411              		@ frame_needed = 0, uses_anonymous_args = 0
 218:Drivers/STM32F0xx_HAL_Driver/Src/stm32f0xx_hal_pcd.c ****   /* Check the PCD handle allocation */
 412              		.loc 1 218 1 is_stmt 0 view .LVU110
 413 0000 70B5     		push	{r4, r5, r6, lr}
 414              	.LCFI2:
 415              		.cfi_def_cfa_offset 16
 416              		.cfi_offset 4, -16
 417              		.cfi_offset 5, -12
 418              		.cfi_offset 6, -8
 419              		.cfi_offset 14, -4
 420 0002 041E     		subs	r4, r0, #0
 220:Drivers/STM32F0xx_HAL_Driver/Src/stm32f0xx_hal_pcd.c ****   {
 421              		.loc 1 220 3 is_stmt 1 view .LVU111
 220:Drivers/STM32F0xx_HAL_Driver/Src/stm32f0xx_hal_pcd.c ****   {
 422              		.loc 1 220 5 is_stmt 0 view .LVU112
 423 0004 0CD0     		beq	.L22
 225:Drivers/STM32F0xx_HAL_Driver/Src/stm32f0xx_hal_pcd.c ****   
 424              		.loc 1 225 3 is_stmt 1 view .LVU113
 225:Drivers/STM32F0xx_HAL_Driver/Src/stm32f0xx_hal_pcd.c ****   
 425              		.loc 1 225 15 is_stmt 0 view .LVU114
 426 0006 EA25     		movs	r5, #234
 427 0008 FF35     		adds	r5, r5, #255
 428 000a 0323     		movs	r3, #3
 429 000c 4355     		strb	r3, [r0, r5]
 228:Drivers/STM32F0xx_HAL_Driver/Src/stm32f0xx_hal_pcd.c ****     
 430              		.loc 1 228 3 is_stmt 1 view .LVU115
 431 000e FFF7FEFF 		bl	HAL_PCD_Stop
 432              	.LVL25:
 231:Drivers/STM32F0xx_HAL_Driver/Src/stm32f0xx_hal_pcd.c ****   
 433              		.loc 1 231 3 view .LVU116
 434 0012 2000     		movs	r0, r4
 435 0014 FFF7FEFF 		bl	HAL_PCD_MspDeInit
 436              	.LVL26:
 233:Drivers/STM32F0xx_HAL_Driver/Src/stm32f0xx_hal_pcd.c ****   
 437              		.loc 1 233 3 view .LVU117
 233:Drivers/STM32F0xx_HAL_Driver/Src/stm32f0xx_hal_pcd.c ****   
 438              		.loc 1 233 15 is_stmt 0 view .LVU118
 439 0018 0023     		movs	r3, #0
 440 001a 6355     		strb	r3, [r4, r5]
 235:Drivers/STM32F0xx_HAL_Driver/Src/stm32f0xx_hal_pcd.c **** }
 441              		.loc 1 235 3 is_stmt 1 view .LVU119
 235:Drivers/STM32F0xx_HAL_Driver/Src/stm32f0xx_hal_pcd.c **** }
 442              		.loc 1 235 10 is_stmt 0 view .LVU120
 443 001c 0020     		movs	r0, #0
 444              	.L21:
 236:Drivers/STM32F0xx_HAL_Driver/Src/stm32f0xx_hal_pcd.c **** 
 445              		.loc 1 236 1 view .LVU121
 446              		@ sp needed
 447              	.LVL27:
 236:Drivers/STM32F0xx_HAL_Driver/Src/stm32f0xx_hal_pcd.c **** 
 448              		.loc 1 236 1 view .LVU122
 449 001e 70BD     		pop	{r4, r5, r6, pc}
 450              	.LVL28:
 451              	.L22:
 222:Drivers/STM32F0xx_HAL_Driver/Src/stm32f0xx_hal_pcd.c ****   }
 452              		.loc 1 222 12 view .LVU123
 453 0020 0120     		movs	r0, #1
ARM GAS  /tmp/cc8iG1bp.s 			page 16


 454              	.LVL29:
 222:Drivers/STM32F0xx_HAL_Driver/Src/stm32f0xx_hal_pcd.c ****   }
 455              		.loc 1 222 12 view .LVU124
 456 0022 FCE7     		b	.L21
 457              		.cfi_endproc
 458              	.LFE38:
 460              		.section	.text.HAL_PCD_DataOutStageCallback,"ax",%progbits
 461              		.align	1
 462              		.weak	HAL_PCD_DataOutStageCallback
 463              		.syntax unified
 464              		.code	16
 465              		.thumb_func
 466              		.fpu softvfp
 468              	HAL_PCD_DataOutStageCallback:
 469              	.LVL30:
 470              	.LFB44:
 321:Drivers/STM32F0xx_HAL_Driver/Src/stm32f0xx_hal_pcd.c **** 
 322:Drivers/STM32F0xx_HAL_Driver/Src/stm32f0xx_hal_pcd.c **** /**
 323:Drivers/STM32F0xx_HAL_Driver/Src/stm32f0xx_hal_pcd.c ****   * @brief  This function handles PCD interrupt request.
 324:Drivers/STM32F0xx_HAL_Driver/Src/stm32f0xx_hal_pcd.c ****   * @param  hpcd PCD handle
 325:Drivers/STM32F0xx_HAL_Driver/Src/stm32f0xx_hal_pcd.c ****   * @retval HAL status
 326:Drivers/STM32F0xx_HAL_Driver/Src/stm32f0xx_hal_pcd.c ****   */
 327:Drivers/STM32F0xx_HAL_Driver/Src/stm32f0xx_hal_pcd.c **** void HAL_PCD_IRQHandler(PCD_HandleTypeDef *hpcd)
 328:Drivers/STM32F0xx_HAL_Driver/Src/stm32f0xx_hal_pcd.c **** {
 329:Drivers/STM32F0xx_HAL_Driver/Src/stm32f0xx_hal_pcd.c ****   uint32_t wInterrupt_Mask = 0U;
 330:Drivers/STM32F0xx_HAL_Driver/Src/stm32f0xx_hal_pcd.c ****   
 331:Drivers/STM32F0xx_HAL_Driver/Src/stm32f0xx_hal_pcd.c ****   if (__HAL_PCD_GET_FLAG (hpcd, USB_ISTR_CTR))
 332:Drivers/STM32F0xx_HAL_Driver/Src/stm32f0xx_hal_pcd.c ****   {
 333:Drivers/STM32F0xx_HAL_Driver/Src/stm32f0xx_hal_pcd.c ****     /* servicing of the endpoint correct transfer interrupt */
 334:Drivers/STM32F0xx_HAL_Driver/Src/stm32f0xx_hal_pcd.c ****     /* clear of the CTR flag into the sub */
 335:Drivers/STM32F0xx_HAL_Driver/Src/stm32f0xx_hal_pcd.c ****     PCD_EP_ISR_Handler(hpcd);
 336:Drivers/STM32F0xx_HAL_Driver/Src/stm32f0xx_hal_pcd.c ****   }
 337:Drivers/STM32F0xx_HAL_Driver/Src/stm32f0xx_hal_pcd.c **** 
 338:Drivers/STM32F0xx_HAL_Driver/Src/stm32f0xx_hal_pcd.c ****   if (__HAL_PCD_GET_FLAG (hpcd, USB_ISTR_RESET))
 339:Drivers/STM32F0xx_HAL_Driver/Src/stm32f0xx_hal_pcd.c ****   {
 340:Drivers/STM32F0xx_HAL_Driver/Src/stm32f0xx_hal_pcd.c ****     __HAL_PCD_CLEAR_FLAG(hpcd, USB_ISTR_RESET);
 341:Drivers/STM32F0xx_HAL_Driver/Src/stm32f0xx_hal_pcd.c ****     HAL_PCD_ResetCallback(hpcd);
 342:Drivers/STM32F0xx_HAL_Driver/Src/stm32f0xx_hal_pcd.c ****     HAL_PCD_SetAddress(hpcd, 0U);
 343:Drivers/STM32F0xx_HAL_Driver/Src/stm32f0xx_hal_pcd.c ****   }
 344:Drivers/STM32F0xx_HAL_Driver/Src/stm32f0xx_hal_pcd.c **** 
 345:Drivers/STM32F0xx_HAL_Driver/Src/stm32f0xx_hal_pcd.c ****   if (__HAL_PCD_GET_FLAG (hpcd, USB_ISTR_PMAOVR))
 346:Drivers/STM32F0xx_HAL_Driver/Src/stm32f0xx_hal_pcd.c ****   {
 347:Drivers/STM32F0xx_HAL_Driver/Src/stm32f0xx_hal_pcd.c ****     __HAL_PCD_CLEAR_FLAG(hpcd, USB_ISTR_PMAOVR);    
 348:Drivers/STM32F0xx_HAL_Driver/Src/stm32f0xx_hal_pcd.c ****   }
 349:Drivers/STM32F0xx_HAL_Driver/Src/stm32f0xx_hal_pcd.c **** 
 350:Drivers/STM32F0xx_HAL_Driver/Src/stm32f0xx_hal_pcd.c ****   if (__HAL_PCD_GET_FLAG (hpcd, USB_ISTR_ERR))
 351:Drivers/STM32F0xx_HAL_Driver/Src/stm32f0xx_hal_pcd.c ****   {
 352:Drivers/STM32F0xx_HAL_Driver/Src/stm32f0xx_hal_pcd.c ****     __HAL_PCD_CLEAR_FLAG(hpcd, USB_ISTR_ERR); 
 353:Drivers/STM32F0xx_HAL_Driver/Src/stm32f0xx_hal_pcd.c ****   }
 354:Drivers/STM32F0xx_HAL_Driver/Src/stm32f0xx_hal_pcd.c **** 
 355:Drivers/STM32F0xx_HAL_Driver/Src/stm32f0xx_hal_pcd.c ****   if (__HAL_PCD_GET_FLAG (hpcd, USB_ISTR_WKUP))
 356:Drivers/STM32F0xx_HAL_Driver/Src/stm32f0xx_hal_pcd.c ****   {
 357:Drivers/STM32F0xx_HAL_Driver/Src/stm32f0xx_hal_pcd.c ****     
 358:Drivers/STM32F0xx_HAL_Driver/Src/stm32f0xx_hal_pcd.c ****     hpcd->Instance->CNTR &= (uint16_t)(~(USB_CNTR_LPMODE));
 359:Drivers/STM32F0xx_HAL_Driver/Src/stm32f0xx_hal_pcd.c **** 
 360:Drivers/STM32F0xx_HAL_Driver/Src/stm32f0xx_hal_pcd.c ****     /*set wInterrupt_Mask global variable*/
 361:Drivers/STM32F0xx_HAL_Driver/Src/stm32f0xx_hal_pcd.c ****     wInterrupt_Mask = USB_CNTR_CTRM  | USB_CNTR_WKUPM | USB_CNTR_SUSPM | USB_CNTR_ERRM \
ARM GAS  /tmp/cc8iG1bp.s 			page 17


 362:Drivers/STM32F0xx_HAL_Driver/Src/stm32f0xx_hal_pcd.c ****       | USB_CNTR_ESOFM | USB_CNTR_RESETM;
 363:Drivers/STM32F0xx_HAL_Driver/Src/stm32f0xx_hal_pcd.c ****     
 364:Drivers/STM32F0xx_HAL_Driver/Src/stm32f0xx_hal_pcd.c ****     /*Set interrupt mask*/
 365:Drivers/STM32F0xx_HAL_Driver/Src/stm32f0xx_hal_pcd.c ****     hpcd->Instance->CNTR = wInterrupt_Mask;
 366:Drivers/STM32F0xx_HAL_Driver/Src/stm32f0xx_hal_pcd.c ****     
 367:Drivers/STM32F0xx_HAL_Driver/Src/stm32f0xx_hal_pcd.c ****     HAL_PCD_ResumeCallback(hpcd);
 368:Drivers/STM32F0xx_HAL_Driver/Src/stm32f0xx_hal_pcd.c ****     
 369:Drivers/STM32F0xx_HAL_Driver/Src/stm32f0xx_hal_pcd.c ****     __HAL_PCD_CLEAR_FLAG(hpcd, USB_ISTR_WKUP);     
 370:Drivers/STM32F0xx_HAL_Driver/Src/stm32f0xx_hal_pcd.c ****   }
 371:Drivers/STM32F0xx_HAL_Driver/Src/stm32f0xx_hal_pcd.c **** 
 372:Drivers/STM32F0xx_HAL_Driver/Src/stm32f0xx_hal_pcd.c ****   if (__HAL_PCD_GET_FLAG (hpcd, USB_ISTR_SUSP))
 373:Drivers/STM32F0xx_HAL_Driver/Src/stm32f0xx_hal_pcd.c ****   {    
 374:Drivers/STM32F0xx_HAL_Driver/Src/stm32f0xx_hal_pcd.c ****     /* clear of the ISTR bit must be done after setting of CNTR_FSUSP */
 375:Drivers/STM32F0xx_HAL_Driver/Src/stm32f0xx_hal_pcd.c ****     __HAL_PCD_CLEAR_FLAG(hpcd, USB_ISTR_SUSP);  
 376:Drivers/STM32F0xx_HAL_Driver/Src/stm32f0xx_hal_pcd.c ****     
 377:Drivers/STM32F0xx_HAL_Driver/Src/stm32f0xx_hal_pcd.c ****     /* Force low-power mode in the macrocell */
 378:Drivers/STM32F0xx_HAL_Driver/Src/stm32f0xx_hal_pcd.c ****     hpcd->Instance->CNTR |= USB_CNTR_FSUSP;
 379:Drivers/STM32F0xx_HAL_Driver/Src/stm32f0xx_hal_pcd.c ****     hpcd->Instance->CNTR |= USB_CNTR_LPMODE;
 380:Drivers/STM32F0xx_HAL_Driver/Src/stm32f0xx_hal_pcd.c **** 
 381:Drivers/STM32F0xx_HAL_Driver/Src/stm32f0xx_hal_pcd.c ****     if (__HAL_PCD_GET_FLAG (hpcd, USB_ISTR_WKUP) == 0)
 382:Drivers/STM32F0xx_HAL_Driver/Src/stm32f0xx_hal_pcd.c ****     {
 383:Drivers/STM32F0xx_HAL_Driver/Src/stm32f0xx_hal_pcd.c ****       HAL_PCD_SuspendCallback(hpcd);
 384:Drivers/STM32F0xx_HAL_Driver/Src/stm32f0xx_hal_pcd.c ****     }
 385:Drivers/STM32F0xx_HAL_Driver/Src/stm32f0xx_hal_pcd.c ****   }
 386:Drivers/STM32F0xx_HAL_Driver/Src/stm32f0xx_hal_pcd.c **** 
 387:Drivers/STM32F0xx_HAL_Driver/Src/stm32f0xx_hal_pcd.c ****   if (__HAL_PCD_GET_FLAG (hpcd, USB_ISTR_SOF))
 388:Drivers/STM32F0xx_HAL_Driver/Src/stm32f0xx_hal_pcd.c ****   {
 389:Drivers/STM32F0xx_HAL_Driver/Src/stm32f0xx_hal_pcd.c ****     __HAL_PCD_CLEAR_FLAG(hpcd, USB_ISTR_SOF); 
 390:Drivers/STM32F0xx_HAL_Driver/Src/stm32f0xx_hal_pcd.c ****     HAL_PCD_SOFCallback(hpcd);
 391:Drivers/STM32F0xx_HAL_Driver/Src/stm32f0xx_hal_pcd.c ****   }
 392:Drivers/STM32F0xx_HAL_Driver/Src/stm32f0xx_hal_pcd.c **** 
 393:Drivers/STM32F0xx_HAL_Driver/Src/stm32f0xx_hal_pcd.c ****   if (__HAL_PCD_GET_FLAG (hpcd, USB_ISTR_ESOF))
 394:Drivers/STM32F0xx_HAL_Driver/Src/stm32f0xx_hal_pcd.c ****   {
 395:Drivers/STM32F0xx_HAL_Driver/Src/stm32f0xx_hal_pcd.c ****     /* clear ESOF flag in ISTR */
 396:Drivers/STM32F0xx_HAL_Driver/Src/stm32f0xx_hal_pcd.c ****     __HAL_PCD_CLEAR_FLAG(hpcd, USB_ISTR_ESOF); 
 397:Drivers/STM32F0xx_HAL_Driver/Src/stm32f0xx_hal_pcd.c ****   }
 398:Drivers/STM32F0xx_HAL_Driver/Src/stm32f0xx_hal_pcd.c **** }
 399:Drivers/STM32F0xx_HAL_Driver/Src/stm32f0xx_hal_pcd.c **** 
 400:Drivers/STM32F0xx_HAL_Driver/Src/stm32f0xx_hal_pcd.c **** /**
 401:Drivers/STM32F0xx_HAL_Driver/Src/stm32f0xx_hal_pcd.c ****   * @brief  Data out stage callbacks
 402:Drivers/STM32F0xx_HAL_Driver/Src/stm32f0xx_hal_pcd.c ****   * @param  hpcd PCD handle
 403:Drivers/STM32F0xx_HAL_Driver/Src/stm32f0xx_hal_pcd.c ****   * @param  epnum endpoint number
 404:Drivers/STM32F0xx_HAL_Driver/Src/stm32f0xx_hal_pcd.c ****   * @retval None
 405:Drivers/STM32F0xx_HAL_Driver/Src/stm32f0xx_hal_pcd.c ****   */
 406:Drivers/STM32F0xx_HAL_Driver/Src/stm32f0xx_hal_pcd.c ****  __weak void HAL_PCD_DataOutStageCallback(PCD_HandleTypeDef *hpcd, uint8_t epnum)
 407:Drivers/STM32F0xx_HAL_Driver/Src/stm32f0xx_hal_pcd.c **** {
 471              		.loc 1 407 1 is_stmt 1 view -0
 472              		.cfi_startproc
 473              		@ args = 0, pretend = 0, frame = 0
 474              		@ frame_needed = 0, uses_anonymous_args = 0
 475              		@ link register save eliminated.
 408:Drivers/STM32F0xx_HAL_Driver/Src/stm32f0xx_hal_pcd.c ****   /* Prevent unused argument(s) compilation warning */
 409:Drivers/STM32F0xx_HAL_Driver/Src/stm32f0xx_hal_pcd.c ****   UNUSED(hpcd);
 476              		.loc 1 409 3 view .LVU126
 410:Drivers/STM32F0xx_HAL_Driver/Src/stm32f0xx_hal_pcd.c ****   UNUSED(epnum);
 477              		.loc 1 410 3 view .LVU127
 411:Drivers/STM32F0xx_HAL_Driver/Src/stm32f0xx_hal_pcd.c **** 
ARM GAS  /tmp/cc8iG1bp.s 			page 18


 412:Drivers/STM32F0xx_HAL_Driver/Src/stm32f0xx_hal_pcd.c ****   /* NOTE : This function Should not be modified, when the callback is needed,
 413:Drivers/STM32F0xx_HAL_Driver/Src/stm32f0xx_hal_pcd.c ****             the HAL_PCD_DataOutStageCallback could be implemented in the user file
 414:Drivers/STM32F0xx_HAL_Driver/Src/stm32f0xx_hal_pcd.c ****    */ 
 415:Drivers/STM32F0xx_HAL_Driver/Src/stm32f0xx_hal_pcd.c **** }
 478              		.loc 1 415 1 is_stmt 0 view .LVU128
 479              		@ sp needed
 480 0000 7047     		bx	lr
 481              		.cfi_endproc
 482              	.LFE44:
 484              		.section	.text.HAL_PCD_DataInStageCallback,"ax",%progbits
 485              		.align	1
 486              		.weak	HAL_PCD_DataInStageCallback
 487              		.syntax unified
 488              		.code	16
 489              		.thumb_func
 490              		.fpu softvfp
 492              	HAL_PCD_DataInStageCallback:
 493              	.LVL31:
 494              	.LFB45:
 416:Drivers/STM32F0xx_HAL_Driver/Src/stm32f0xx_hal_pcd.c **** 
 417:Drivers/STM32F0xx_HAL_Driver/Src/stm32f0xx_hal_pcd.c **** /**
 418:Drivers/STM32F0xx_HAL_Driver/Src/stm32f0xx_hal_pcd.c ****   * @brief  Data IN stage callbacks
 419:Drivers/STM32F0xx_HAL_Driver/Src/stm32f0xx_hal_pcd.c ****   * @param  hpcd PCD handle
 420:Drivers/STM32F0xx_HAL_Driver/Src/stm32f0xx_hal_pcd.c ****   * @param  epnum endpoint number
 421:Drivers/STM32F0xx_HAL_Driver/Src/stm32f0xx_hal_pcd.c ****   * @retval None
 422:Drivers/STM32F0xx_HAL_Driver/Src/stm32f0xx_hal_pcd.c ****   */
 423:Drivers/STM32F0xx_HAL_Driver/Src/stm32f0xx_hal_pcd.c ****  __weak void HAL_PCD_DataInStageCallback(PCD_HandleTypeDef *hpcd, uint8_t epnum)
 424:Drivers/STM32F0xx_HAL_Driver/Src/stm32f0xx_hal_pcd.c **** {
 495              		.loc 1 424 1 is_stmt 1 view -0
 496              		.cfi_startproc
 497              		@ args = 0, pretend = 0, frame = 0
 498              		@ frame_needed = 0, uses_anonymous_args = 0
 499              		@ link register save eliminated.
 425:Drivers/STM32F0xx_HAL_Driver/Src/stm32f0xx_hal_pcd.c ****   /* Prevent unused argument(s) compilation warning */
 426:Drivers/STM32F0xx_HAL_Driver/Src/stm32f0xx_hal_pcd.c ****   UNUSED(hpcd);
 500              		.loc 1 426 3 view .LVU130
 427:Drivers/STM32F0xx_HAL_Driver/Src/stm32f0xx_hal_pcd.c ****   UNUSED(epnum);
 501              		.loc 1 427 3 view .LVU131
 428:Drivers/STM32F0xx_HAL_Driver/Src/stm32f0xx_hal_pcd.c **** 
 429:Drivers/STM32F0xx_HAL_Driver/Src/stm32f0xx_hal_pcd.c ****   /* NOTE : This function Should not be modified, when the callback is needed,
 430:Drivers/STM32F0xx_HAL_Driver/Src/stm32f0xx_hal_pcd.c ****             the HAL_PCD_DataInStageCallback could be implemented in the user file
 431:Drivers/STM32F0xx_HAL_Driver/Src/stm32f0xx_hal_pcd.c ****    */ 
 432:Drivers/STM32F0xx_HAL_Driver/Src/stm32f0xx_hal_pcd.c **** }
 502              		.loc 1 432 1 is_stmt 0 view .LVU132
 503              		@ sp needed
 504 0000 7047     		bx	lr
 505              		.cfi_endproc
 506              	.LFE45:
 508              		.section	.text.HAL_PCD_SetupStageCallback,"ax",%progbits
 509              		.align	1
 510              		.weak	HAL_PCD_SetupStageCallback
 511              		.syntax unified
 512              		.code	16
 513              		.thumb_func
 514              		.fpu softvfp
 516              	HAL_PCD_SetupStageCallback:
 517              	.LVL32:
ARM GAS  /tmp/cc8iG1bp.s 			page 19


 518              	.LFB46:
 433:Drivers/STM32F0xx_HAL_Driver/Src/stm32f0xx_hal_pcd.c **** /**
 434:Drivers/STM32F0xx_HAL_Driver/Src/stm32f0xx_hal_pcd.c ****   * @brief  Setup stage callback
 435:Drivers/STM32F0xx_HAL_Driver/Src/stm32f0xx_hal_pcd.c ****   * @param  hpcd PCD handle
 436:Drivers/STM32F0xx_HAL_Driver/Src/stm32f0xx_hal_pcd.c ****   * @retval None
 437:Drivers/STM32F0xx_HAL_Driver/Src/stm32f0xx_hal_pcd.c ****   */
 438:Drivers/STM32F0xx_HAL_Driver/Src/stm32f0xx_hal_pcd.c ****  __weak void HAL_PCD_SetupStageCallback(PCD_HandleTypeDef *hpcd)
 439:Drivers/STM32F0xx_HAL_Driver/Src/stm32f0xx_hal_pcd.c **** {
 519              		.loc 1 439 1 is_stmt 1 view -0
 520              		.cfi_startproc
 521              		@ args = 0, pretend = 0, frame = 0
 522              		@ frame_needed = 0, uses_anonymous_args = 0
 523              		@ link register save eliminated.
 440:Drivers/STM32F0xx_HAL_Driver/Src/stm32f0xx_hal_pcd.c ****   /* Prevent unused argument(s) compilation warning */
 441:Drivers/STM32F0xx_HAL_Driver/Src/stm32f0xx_hal_pcd.c ****   UNUSED(hpcd);
 524              		.loc 1 441 3 view .LVU134
 442:Drivers/STM32F0xx_HAL_Driver/Src/stm32f0xx_hal_pcd.c **** 
 443:Drivers/STM32F0xx_HAL_Driver/Src/stm32f0xx_hal_pcd.c ****   /* NOTE : This function Should not be modified, when the callback is needed,
 444:Drivers/STM32F0xx_HAL_Driver/Src/stm32f0xx_hal_pcd.c ****             the HAL_PCD_SetupStageCallback could be implemented in the user file
 445:Drivers/STM32F0xx_HAL_Driver/Src/stm32f0xx_hal_pcd.c ****    */ 
 446:Drivers/STM32F0xx_HAL_Driver/Src/stm32f0xx_hal_pcd.c **** }
 525              		.loc 1 446 1 is_stmt 0 view .LVU135
 526              		@ sp needed
 527 0000 7047     		bx	lr
 528              		.cfi_endproc
 529              	.LFE46:
 531              		.section	.text.HAL_PCD_SOFCallback,"ax",%progbits
 532              		.align	1
 533              		.weak	HAL_PCD_SOFCallback
 534              		.syntax unified
 535              		.code	16
 536              		.thumb_func
 537              		.fpu softvfp
 539              	HAL_PCD_SOFCallback:
 540              	.LVL33:
 541              	.LFB47:
 447:Drivers/STM32F0xx_HAL_Driver/Src/stm32f0xx_hal_pcd.c **** 
 448:Drivers/STM32F0xx_HAL_Driver/Src/stm32f0xx_hal_pcd.c **** /**
 449:Drivers/STM32F0xx_HAL_Driver/Src/stm32f0xx_hal_pcd.c ****   * @brief  USB Start Of Frame callbacks
 450:Drivers/STM32F0xx_HAL_Driver/Src/stm32f0xx_hal_pcd.c ****   * @param  hpcd PCD handle
 451:Drivers/STM32F0xx_HAL_Driver/Src/stm32f0xx_hal_pcd.c ****   * @retval None
 452:Drivers/STM32F0xx_HAL_Driver/Src/stm32f0xx_hal_pcd.c ****   */
 453:Drivers/STM32F0xx_HAL_Driver/Src/stm32f0xx_hal_pcd.c ****  __weak void HAL_PCD_SOFCallback(PCD_HandleTypeDef *hpcd)
 454:Drivers/STM32F0xx_HAL_Driver/Src/stm32f0xx_hal_pcd.c **** {
 542              		.loc 1 454 1 is_stmt 1 view -0
 543              		.cfi_startproc
 544              		@ args = 0, pretend = 0, frame = 0
 545              		@ frame_needed = 0, uses_anonymous_args = 0
 546              		@ link register save eliminated.
 455:Drivers/STM32F0xx_HAL_Driver/Src/stm32f0xx_hal_pcd.c ****   /* Prevent unused argument(s) compilation warning */
 456:Drivers/STM32F0xx_HAL_Driver/Src/stm32f0xx_hal_pcd.c ****   UNUSED(hpcd);
 547              		.loc 1 456 3 view .LVU137
 457:Drivers/STM32F0xx_HAL_Driver/Src/stm32f0xx_hal_pcd.c **** 
 458:Drivers/STM32F0xx_HAL_Driver/Src/stm32f0xx_hal_pcd.c ****   /* NOTE : This function Should not be modified, when the callback is needed,
 459:Drivers/STM32F0xx_HAL_Driver/Src/stm32f0xx_hal_pcd.c ****             the HAL_PCD_SOFCallback could be implemented in the user file
 460:Drivers/STM32F0xx_HAL_Driver/Src/stm32f0xx_hal_pcd.c ****    */ 
 461:Drivers/STM32F0xx_HAL_Driver/Src/stm32f0xx_hal_pcd.c **** }
ARM GAS  /tmp/cc8iG1bp.s 			page 20


 548              		.loc 1 461 1 is_stmt 0 view .LVU138
 549              		@ sp needed
 550 0000 7047     		bx	lr
 551              		.cfi_endproc
 552              	.LFE47:
 554              		.section	.text.HAL_PCD_ResetCallback,"ax",%progbits
 555              		.align	1
 556              		.weak	HAL_PCD_ResetCallback
 557              		.syntax unified
 558              		.code	16
 559              		.thumb_func
 560              		.fpu softvfp
 562              	HAL_PCD_ResetCallback:
 563              	.LVL34:
 564              	.LFB48:
 462:Drivers/STM32F0xx_HAL_Driver/Src/stm32f0xx_hal_pcd.c **** 
 463:Drivers/STM32F0xx_HAL_Driver/Src/stm32f0xx_hal_pcd.c **** /**
 464:Drivers/STM32F0xx_HAL_Driver/Src/stm32f0xx_hal_pcd.c ****   * @brief  USB Reset callbacks
 465:Drivers/STM32F0xx_HAL_Driver/Src/stm32f0xx_hal_pcd.c ****   * @param  hpcd PCD handle
 466:Drivers/STM32F0xx_HAL_Driver/Src/stm32f0xx_hal_pcd.c ****   * @retval None
 467:Drivers/STM32F0xx_HAL_Driver/Src/stm32f0xx_hal_pcd.c ****   */
 468:Drivers/STM32F0xx_HAL_Driver/Src/stm32f0xx_hal_pcd.c ****  __weak void HAL_PCD_ResetCallback(PCD_HandleTypeDef *hpcd)
 469:Drivers/STM32F0xx_HAL_Driver/Src/stm32f0xx_hal_pcd.c **** {
 565              		.loc 1 469 1 is_stmt 1 view -0
 566              		.cfi_startproc
 567              		@ args = 0, pretend = 0, frame = 0
 568              		@ frame_needed = 0, uses_anonymous_args = 0
 569              		@ link register save eliminated.
 470:Drivers/STM32F0xx_HAL_Driver/Src/stm32f0xx_hal_pcd.c ****   /* Prevent unused argument(s) compilation warning */
 471:Drivers/STM32F0xx_HAL_Driver/Src/stm32f0xx_hal_pcd.c ****   UNUSED(hpcd);
 570              		.loc 1 471 3 view .LVU140
 472:Drivers/STM32F0xx_HAL_Driver/Src/stm32f0xx_hal_pcd.c **** 
 473:Drivers/STM32F0xx_HAL_Driver/Src/stm32f0xx_hal_pcd.c ****   /* NOTE : This function Should not be modified, when the callback is needed,
 474:Drivers/STM32F0xx_HAL_Driver/Src/stm32f0xx_hal_pcd.c ****             the HAL_PCD_ResetCallback could be implemented in the user file
 475:Drivers/STM32F0xx_HAL_Driver/Src/stm32f0xx_hal_pcd.c ****    */ 
 476:Drivers/STM32F0xx_HAL_Driver/Src/stm32f0xx_hal_pcd.c **** }
 571              		.loc 1 476 1 is_stmt 0 view .LVU141
 572              		@ sp needed
 573 0000 7047     		bx	lr
 574              		.cfi_endproc
 575              	.LFE48:
 577              		.section	.text.HAL_PCD_SuspendCallback,"ax",%progbits
 578              		.align	1
 579              		.weak	HAL_PCD_SuspendCallback
 580              		.syntax unified
 581              		.code	16
 582              		.thumb_func
 583              		.fpu softvfp
 585              	HAL_PCD_SuspendCallback:
 586              	.LVL35:
 587              	.LFB49:
 477:Drivers/STM32F0xx_HAL_Driver/Src/stm32f0xx_hal_pcd.c **** 
 478:Drivers/STM32F0xx_HAL_Driver/Src/stm32f0xx_hal_pcd.c **** /**
 479:Drivers/STM32F0xx_HAL_Driver/Src/stm32f0xx_hal_pcd.c ****   * @brief  Suspend event callbacks
 480:Drivers/STM32F0xx_HAL_Driver/Src/stm32f0xx_hal_pcd.c ****   * @param  hpcd PCD handle
 481:Drivers/STM32F0xx_HAL_Driver/Src/stm32f0xx_hal_pcd.c ****   * @retval None
 482:Drivers/STM32F0xx_HAL_Driver/Src/stm32f0xx_hal_pcd.c ****   */
ARM GAS  /tmp/cc8iG1bp.s 			page 21


 483:Drivers/STM32F0xx_HAL_Driver/Src/stm32f0xx_hal_pcd.c ****  __weak void HAL_PCD_SuspendCallback(PCD_HandleTypeDef *hpcd)
 484:Drivers/STM32F0xx_HAL_Driver/Src/stm32f0xx_hal_pcd.c **** {
 588              		.loc 1 484 1 is_stmt 1 view -0
 589              		.cfi_startproc
 590              		@ args = 0, pretend = 0, frame = 0
 591              		@ frame_needed = 0, uses_anonymous_args = 0
 592              		@ link register save eliminated.
 485:Drivers/STM32F0xx_HAL_Driver/Src/stm32f0xx_hal_pcd.c ****   /* Prevent unused argument(s) compilation warning */
 486:Drivers/STM32F0xx_HAL_Driver/Src/stm32f0xx_hal_pcd.c ****   UNUSED(hpcd);
 593              		.loc 1 486 3 view .LVU143
 487:Drivers/STM32F0xx_HAL_Driver/Src/stm32f0xx_hal_pcd.c **** 
 488:Drivers/STM32F0xx_HAL_Driver/Src/stm32f0xx_hal_pcd.c ****   /* NOTE : This function Should not be modified, when the callback is needed,
 489:Drivers/STM32F0xx_HAL_Driver/Src/stm32f0xx_hal_pcd.c ****             the HAL_PCD_SuspendCallback could be implemented in the user file
 490:Drivers/STM32F0xx_HAL_Driver/Src/stm32f0xx_hal_pcd.c ****    */ 
 491:Drivers/STM32F0xx_HAL_Driver/Src/stm32f0xx_hal_pcd.c **** }
 594              		.loc 1 491 1 is_stmt 0 view .LVU144
 595              		@ sp needed
 596 0000 7047     		bx	lr
 597              		.cfi_endproc
 598              	.LFE49:
 600              		.section	.text.HAL_PCD_ResumeCallback,"ax",%progbits
 601              		.align	1
 602              		.weak	HAL_PCD_ResumeCallback
 603              		.syntax unified
 604              		.code	16
 605              		.thumb_func
 606              		.fpu softvfp
 608              	HAL_PCD_ResumeCallback:
 609              	.LVL36:
 610              	.LFB50:
 492:Drivers/STM32F0xx_HAL_Driver/Src/stm32f0xx_hal_pcd.c **** 
 493:Drivers/STM32F0xx_HAL_Driver/Src/stm32f0xx_hal_pcd.c **** /**
 494:Drivers/STM32F0xx_HAL_Driver/Src/stm32f0xx_hal_pcd.c ****   * @brief  Resume event callbacks
 495:Drivers/STM32F0xx_HAL_Driver/Src/stm32f0xx_hal_pcd.c ****   * @param  hpcd PCD handle
 496:Drivers/STM32F0xx_HAL_Driver/Src/stm32f0xx_hal_pcd.c ****   * @retval None
 497:Drivers/STM32F0xx_HAL_Driver/Src/stm32f0xx_hal_pcd.c ****   */
 498:Drivers/STM32F0xx_HAL_Driver/Src/stm32f0xx_hal_pcd.c ****  __weak void HAL_PCD_ResumeCallback(PCD_HandleTypeDef *hpcd)
 499:Drivers/STM32F0xx_HAL_Driver/Src/stm32f0xx_hal_pcd.c **** {
 611              		.loc 1 499 1 is_stmt 1 view -0
 612              		.cfi_startproc
 613              		@ args = 0, pretend = 0, frame = 0
 614              		@ frame_needed = 0, uses_anonymous_args = 0
 615              		@ link register save eliminated.
 500:Drivers/STM32F0xx_HAL_Driver/Src/stm32f0xx_hal_pcd.c ****   /* Prevent unused argument(s) compilation warning */
 501:Drivers/STM32F0xx_HAL_Driver/Src/stm32f0xx_hal_pcd.c ****   UNUSED(hpcd);
 616              		.loc 1 501 3 view .LVU146
 502:Drivers/STM32F0xx_HAL_Driver/Src/stm32f0xx_hal_pcd.c **** 
 503:Drivers/STM32F0xx_HAL_Driver/Src/stm32f0xx_hal_pcd.c ****   /* NOTE : This function Should not be modified, when the callback is needed,
 504:Drivers/STM32F0xx_HAL_Driver/Src/stm32f0xx_hal_pcd.c ****             the HAL_PCD_ResumeCallback could be implemented in the user file
 505:Drivers/STM32F0xx_HAL_Driver/Src/stm32f0xx_hal_pcd.c ****    */ 
 506:Drivers/STM32F0xx_HAL_Driver/Src/stm32f0xx_hal_pcd.c **** }
 617              		.loc 1 506 1 is_stmt 0 view .LVU147
 618              		@ sp needed
 619 0000 7047     		bx	lr
 620              		.cfi_endproc
 621              	.LFE50:
 623              		.section	.text.HAL_PCD_ISOOUTIncompleteCallback,"ax",%progbits
ARM GAS  /tmp/cc8iG1bp.s 			page 22


 624              		.align	1
 625              		.weak	HAL_PCD_ISOOUTIncompleteCallback
 626              		.syntax unified
 627              		.code	16
 628              		.thumb_func
 629              		.fpu softvfp
 631              	HAL_PCD_ISOOUTIncompleteCallback:
 632              	.LVL37:
 633              	.LFB51:
 507:Drivers/STM32F0xx_HAL_Driver/Src/stm32f0xx_hal_pcd.c **** 
 508:Drivers/STM32F0xx_HAL_Driver/Src/stm32f0xx_hal_pcd.c **** /**
 509:Drivers/STM32F0xx_HAL_Driver/Src/stm32f0xx_hal_pcd.c ****   * @brief  Incomplete ISO OUT callbacks
 510:Drivers/STM32F0xx_HAL_Driver/Src/stm32f0xx_hal_pcd.c ****   * @param  hpcd PCD handle
 511:Drivers/STM32F0xx_HAL_Driver/Src/stm32f0xx_hal_pcd.c ****   * @param  epnum endpoint number
 512:Drivers/STM32F0xx_HAL_Driver/Src/stm32f0xx_hal_pcd.c ****   * @retval None
 513:Drivers/STM32F0xx_HAL_Driver/Src/stm32f0xx_hal_pcd.c ****   */
 514:Drivers/STM32F0xx_HAL_Driver/Src/stm32f0xx_hal_pcd.c ****  __weak void HAL_PCD_ISOOUTIncompleteCallback(PCD_HandleTypeDef *hpcd, uint8_t epnum)
 515:Drivers/STM32F0xx_HAL_Driver/Src/stm32f0xx_hal_pcd.c **** {
 634              		.loc 1 515 1 is_stmt 1 view -0
 635              		.cfi_startproc
 636              		@ args = 0, pretend = 0, frame = 0
 637              		@ frame_needed = 0, uses_anonymous_args = 0
 638              		@ link register save eliminated.
 516:Drivers/STM32F0xx_HAL_Driver/Src/stm32f0xx_hal_pcd.c ****   /* Prevent unused argument(s) compilation warning */
 517:Drivers/STM32F0xx_HAL_Driver/Src/stm32f0xx_hal_pcd.c ****   UNUSED(hpcd);
 639              		.loc 1 517 3 view .LVU149
 518:Drivers/STM32F0xx_HAL_Driver/Src/stm32f0xx_hal_pcd.c ****   UNUSED(epnum);
 640              		.loc 1 518 3 view .LVU150
 519:Drivers/STM32F0xx_HAL_Driver/Src/stm32f0xx_hal_pcd.c **** 
 520:Drivers/STM32F0xx_HAL_Driver/Src/stm32f0xx_hal_pcd.c ****   /* NOTE : This function Should not be modified, when the callback is needed,
 521:Drivers/STM32F0xx_HAL_Driver/Src/stm32f0xx_hal_pcd.c ****             the HAL_PCD_ISOOUTIncompleteCallback could be implemented in the user file
 522:Drivers/STM32F0xx_HAL_Driver/Src/stm32f0xx_hal_pcd.c ****    */ 
 523:Drivers/STM32F0xx_HAL_Driver/Src/stm32f0xx_hal_pcd.c **** }
 641              		.loc 1 523 1 is_stmt 0 view .LVU151
 642              		@ sp needed
 643 0000 7047     		bx	lr
 644              		.cfi_endproc
 645              	.LFE51:
 647              		.section	.text.HAL_PCD_ISOINIncompleteCallback,"ax",%progbits
 648              		.align	1
 649              		.weak	HAL_PCD_ISOINIncompleteCallback
 650              		.syntax unified
 651              		.code	16
 652              		.thumb_func
 653              		.fpu softvfp
 655              	HAL_PCD_ISOINIncompleteCallback:
 656              	.LVL38:
 657              	.LFB52:
 524:Drivers/STM32F0xx_HAL_Driver/Src/stm32f0xx_hal_pcd.c **** 
 525:Drivers/STM32F0xx_HAL_Driver/Src/stm32f0xx_hal_pcd.c **** /**
 526:Drivers/STM32F0xx_HAL_Driver/Src/stm32f0xx_hal_pcd.c ****   * @brief  Incomplete ISO IN  callbacks
 527:Drivers/STM32F0xx_HAL_Driver/Src/stm32f0xx_hal_pcd.c ****   * @param  hpcd PCD handle
 528:Drivers/STM32F0xx_HAL_Driver/Src/stm32f0xx_hal_pcd.c ****   * @param  epnum endpoint number
 529:Drivers/STM32F0xx_HAL_Driver/Src/stm32f0xx_hal_pcd.c ****   * @retval None
 530:Drivers/STM32F0xx_HAL_Driver/Src/stm32f0xx_hal_pcd.c ****   */
 531:Drivers/STM32F0xx_HAL_Driver/Src/stm32f0xx_hal_pcd.c ****  __weak void HAL_PCD_ISOINIncompleteCallback(PCD_HandleTypeDef *hpcd, uint8_t epnum)
 532:Drivers/STM32F0xx_HAL_Driver/Src/stm32f0xx_hal_pcd.c **** {
ARM GAS  /tmp/cc8iG1bp.s 			page 23


 658              		.loc 1 532 1 is_stmt 1 view -0
 659              		.cfi_startproc
 660              		@ args = 0, pretend = 0, frame = 0
 661              		@ frame_needed = 0, uses_anonymous_args = 0
 662              		@ link register save eliminated.
 533:Drivers/STM32F0xx_HAL_Driver/Src/stm32f0xx_hal_pcd.c ****   /* Prevent unused argument(s) compilation warning */
 534:Drivers/STM32F0xx_HAL_Driver/Src/stm32f0xx_hal_pcd.c ****   UNUSED(hpcd);
 663              		.loc 1 534 3 view .LVU153
 535:Drivers/STM32F0xx_HAL_Driver/Src/stm32f0xx_hal_pcd.c ****   UNUSED(epnum);
 664              		.loc 1 535 3 view .LVU154
 536:Drivers/STM32F0xx_HAL_Driver/Src/stm32f0xx_hal_pcd.c **** 
 537:Drivers/STM32F0xx_HAL_Driver/Src/stm32f0xx_hal_pcd.c ****   /* NOTE : This function Should not be modified, when the callback is needed,
 538:Drivers/STM32F0xx_HAL_Driver/Src/stm32f0xx_hal_pcd.c ****             the HAL_PCD_ISOINIncompleteCallback could be implemented in the user file
 539:Drivers/STM32F0xx_HAL_Driver/Src/stm32f0xx_hal_pcd.c ****    */ 
 540:Drivers/STM32F0xx_HAL_Driver/Src/stm32f0xx_hal_pcd.c **** }
 665              		.loc 1 540 1 is_stmt 0 view .LVU155
 666              		@ sp needed
 667 0000 7047     		bx	lr
 668              		.cfi_endproc
 669              	.LFE52:
 671              		.section	.text.HAL_PCD_ConnectCallback,"ax",%progbits
 672              		.align	1
 673              		.weak	HAL_PCD_ConnectCallback
 674              		.syntax unified
 675              		.code	16
 676              		.thumb_func
 677              		.fpu softvfp
 679              	HAL_PCD_ConnectCallback:
 680              	.LVL39:
 681              	.LFB53:
 541:Drivers/STM32F0xx_HAL_Driver/Src/stm32f0xx_hal_pcd.c **** 
 542:Drivers/STM32F0xx_HAL_Driver/Src/stm32f0xx_hal_pcd.c **** /**
 543:Drivers/STM32F0xx_HAL_Driver/Src/stm32f0xx_hal_pcd.c ****   * @brief  Connection event callbacks
 544:Drivers/STM32F0xx_HAL_Driver/Src/stm32f0xx_hal_pcd.c ****   * @param  hpcd PCD handle
 545:Drivers/STM32F0xx_HAL_Driver/Src/stm32f0xx_hal_pcd.c ****   * @retval None
 546:Drivers/STM32F0xx_HAL_Driver/Src/stm32f0xx_hal_pcd.c ****   */
 547:Drivers/STM32F0xx_HAL_Driver/Src/stm32f0xx_hal_pcd.c ****  __weak void HAL_PCD_ConnectCallback(PCD_HandleTypeDef *hpcd)
 548:Drivers/STM32F0xx_HAL_Driver/Src/stm32f0xx_hal_pcd.c **** {
 682              		.loc 1 548 1 is_stmt 1 view -0
 683              		.cfi_startproc
 684              		@ args = 0, pretend = 0, frame = 0
 685              		@ frame_needed = 0, uses_anonymous_args = 0
 686              		@ link register save eliminated.
 549:Drivers/STM32F0xx_HAL_Driver/Src/stm32f0xx_hal_pcd.c ****   /* Prevent unused argument(s) compilation warning */
 550:Drivers/STM32F0xx_HAL_Driver/Src/stm32f0xx_hal_pcd.c ****   UNUSED(hpcd);
 687              		.loc 1 550 3 view .LVU157
 551:Drivers/STM32F0xx_HAL_Driver/Src/stm32f0xx_hal_pcd.c **** 
 552:Drivers/STM32F0xx_HAL_Driver/Src/stm32f0xx_hal_pcd.c ****   /* NOTE : This function Should not be modified, when the callback is needed,
 553:Drivers/STM32F0xx_HAL_Driver/Src/stm32f0xx_hal_pcd.c ****             the HAL_PCD_ConnectCallback could be implemented in the user file
 554:Drivers/STM32F0xx_HAL_Driver/Src/stm32f0xx_hal_pcd.c ****    */ 
 555:Drivers/STM32F0xx_HAL_Driver/Src/stm32f0xx_hal_pcd.c **** }
 688              		.loc 1 555 1 is_stmt 0 view .LVU158
 689              		@ sp needed
 690 0000 7047     		bx	lr
 691              		.cfi_endproc
 692              	.LFE53:
 694              		.section	.text.HAL_PCD_DisconnectCallback,"ax",%progbits
ARM GAS  /tmp/cc8iG1bp.s 			page 24


 695              		.align	1
 696              		.weak	HAL_PCD_DisconnectCallback
 697              		.syntax unified
 698              		.code	16
 699              		.thumb_func
 700              		.fpu softvfp
 702              	HAL_PCD_DisconnectCallback:
 703              	.LVL40:
 704              	.LFB54:
 556:Drivers/STM32F0xx_HAL_Driver/Src/stm32f0xx_hal_pcd.c **** 
 557:Drivers/STM32F0xx_HAL_Driver/Src/stm32f0xx_hal_pcd.c **** /**
 558:Drivers/STM32F0xx_HAL_Driver/Src/stm32f0xx_hal_pcd.c ****   * @brief  Disconnection event callbacks
 559:Drivers/STM32F0xx_HAL_Driver/Src/stm32f0xx_hal_pcd.c ****   * @param  hpcd PCD handle
 560:Drivers/STM32F0xx_HAL_Driver/Src/stm32f0xx_hal_pcd.c ****   * @retval None
 561:Drivers/STM32F0xx_HAL_Driver/Src/stm32f0xx_hal_pcd.c ****   */
 562:Drivers/STM32F0xx_HAL_Driver/Src/stm32f0xx_hal_pcd.c ****  __weak void HAL_PCD_DisconnectCallback(PCD_HandleTypeDef *hpcd)
 563:Drivers/STM32F0xx_HAL_Driver/Src/stm32f0xx_hal_pcd.c **** {
 705              		.loc 1 563 1 is_stmt 1 view -0
 706              		.cfi_startproc
 707              		@ args = 0, pretend = 0, frame = 0
 708              		@ frame_needed = 0, uses_anonymous_args = 0
 709              		@ link register save eliminated.
 564:Drivers/STM32F0xx_HAL_Driver/Src/stm32f0xx_hal_pcd.c ****   /* Prevent unused argument(s) compilation warning */
 565:Drivers/STM32F0xx_HAL_Driver/Src/stm32f0xx_hal_pcd.c ****   UNUSED(hpcd);
 710              		.loc 1 565 3 view .LVU160
 566:Drivers/STM32F0xx_HAL_Driver/Src/stm32f0xx_hal_pcd.c **** 
 567:Drivers/STM32F0xx_HAL_Driver/Src/stm32f0xx_hal_pcd.c ****   /* NOTE : This function Should not be modified, when the callback is needed,
 568:Drivers/STM32F0xx_HAL_Driver/Src/stm32f0xx_hal_pcd.c ****             the HAL_PCD_DisconnectCallback could be implemented in the user file
 569:Drivers/STM32F0xx_HAL_Driver/Src/stm32f0xx_hal_pcd.c ****    */ 
 570:Drivers/STM32F0xx_HAL_Driver/Src/stm32f0xx_hal_pcd.c **** }
 711              		.loc 1 570 1 is_stmt 0 view .LVU161
 712              		@ sp needed
 713 0000 7047     		bx	lr
 714              		.cfi_endproc
 715              	.LFE54:
 717              		.section	.text.HAL_PCD_DevConnect,"ax",%progbits
 718              		.align	1
 719              		.global	HAL_PCD_DevConnect
 720              		.syntax unified
 721              		.code	16
 722              		.thumb_func
 723              		.fpu softvfp
 725              	HAL_PCD_DevConnect:
 726              	.LVL41:
 727              	.LFB55:
 571:Drivers/STM32F0xx_HAL_Driver/Src/stm32f0xx_hal_pcd.c **** /**
 572:Drivers/STM32F0xx_HAL_Driver/Src/stm32f0xx_hal_pcd.c ****   * @}
 573:Drivers/STM32F0xx_HAL_Driver/Src/stm32f0xx_hal_pcd.c ****   */
 574:Drivers/STM32F0xx_HAL_Driver/Src/stm32f0xx_hal_pcd.c ****     
 575:Drivers/STM32F0xx_HAL_Driver/Src/stm32f0xx_hal_pcd.c **** /** @defgroup PCD_Exported_Functions_Group3 Peripheral Control functions 
 576:Drivers/STM32F0xx_HAL_Driver/Src/stm32f0xx_hal_pcd.c ****  *  @brief   management functions 
 577:Drivers/STM32F0xx_HAL_Driver/Src/stm32f0xx_hal_pcd.c ****  *
 578:Drivers/STM32F0xx_HAL_Driver/Src/stm32f0xx_hal_pcd.c **** @verbatim   
 579:Drivers/STM32F0xx_HAL_Driver/Src/stm32f0xx_hal_pcd.c ****  ===============================================================================
 580:Drivers/STM32F0xx_HAL_Driver/Src/stm32f0xx_hal_pcd.c ****                       ##### Peripheral Control functions #####
 581:Drivers/STM32F0xx_HAL_Driver/Src/stm32f0xx_hal_pcd.c ****  ===============================================================================  
 582:Drivers/STM32F0xx_HAL_Driver/Src/stm32f0xx_hal_pcd.c ****     [..]
ARM GAS  /tmp/cc8iG1bp.s 			page 25


 583:Drivers/STM32F0xx_HAL_Driver/Src/stm32f0xx_hal_pcd.c ****     This subsection provides a set of functions allowing to control the PCD data 
 584:Drivers/STM32F0xx_HAL_Driver/Src/stm32f0xx_hal_pcd.c ****     transfers.
 585:Drivers/STM32F0xx_HAL_Driver/Src/stm32f0xx_hal_pcd.c **** 
 586:Drivers/STM32F0xx_HAL_Driver/Src/stm32f0xx_hal_pcd.c **** @endverbatim
 587:Drivers/STM32F0xx_HAL_Driver/Src/stm32f0xx_hal_pcd.c ****   * @{
 588:Drivers/STM32F0xx_HAL_Driver/Src/stm32f0xx_hal_pcd.c ****   */
 589:Drivers/STM32F0xx_HAL_Driver/Src/stm32f0xx_hal_pcd.c **** 
 590:Drivers/STM32F0xx_HAL_Driver/Src/stm32f0xx_hal_pcd.c **** /**
 591:Drivers/STM32F0xx_HAL_Driver/Src/stm32f0xx_hal_pcd.c ****   * @brief  Connect the USB device 
 592:Drivers/STM32F0xx_HAL_Driver/Src/stm32f0xx_hal_pcd.c ****   * @param  hpcd PCD handle
 593:Drivers/STM32F0xx_HAL_Driver/Src/stm32f0xx_hal_pcd.c ****   * @retval HAL status
 594:Drivers/STM32F0xx_HAL_Driver/Src/stm32f0xx_hal_pcd.c ****   */
 595:Drivers/STM32F0xx_HAL_Driver/Src/stm32f0xx_hal_pcd.c **** HAL_StatusTypeDef HAL_PCD_DevConnect(PCD_HandleTypeDef *hpcd)
 596:Drivers/STM32F0xx_HAL_Driver/Src/stm32f0xx_hal_pcd.c **** {
 728              		.loc 1 596 1 is_stmt 1 view -0
 729              		.cfi_startproc
 730              		@ args = 0, pretend = 0, frame = 0
 731              		@ frame_needed = 0, uses_anonymous_args = 0
 732              		.loc 1 596 1 is_stmt 0 view .LVU163
 733 0000 10B5     		push	{r4, lr}
 734              	.LCFI3:
 735              		.cfi_def_cfa_offset 8
 736              		.cfi_offset 4, -8
 737              		.cfi_offset 14, -4
 597:Drivers/STM32F0xx_HAL_Driver/Src/stm32f0xx_hal_pcd.c ****   __HAL_LOCK(hpcd); 
 738              		.loc 1 597 3 is_stmt 1 view .LVU164
 739              		.loc 1 597 3 view .LVU165
 740 0002 F423     		movs	r3, #244
 741 0004 5B00     		lsls	r3, r3, #1
 742 0006 C35C     		ldrb	r3, [r0, r3]
 743 0008 012B     		cmp	r3, #1
 744 000a 0FD0     		beq	.L36
 745              		.loc 1 597 3 discriminator 2 view .LVU166
 746 000c F422     		movs	r2, #244
 747 000e 5200     		lsls	r2, r2, #1
 748 0010 0123     		movs	r3, #1
 749 0012 8354     		strb	r3, [r0, r2]
 750              		.loc 1 597 3 discriminator 2 view .LVU167
 598:Drivers/STM32F0xx_HAL_Driver/Src/stm32f0xx_hal_pcd.c ****   
 599:Drivers/STM32F0xx_HAL_Driver/Src/stm32f0xx_hal_pcd.c ****   /* Enabling DP Pull-Down bit to Connect internal pull-up on USB DP line */
 600:Drivers/STM32F0xx_HAL_Driver/Src/stm32f0xx_hal_pcd.c ****   hpcd->Instance->BCDR |= USB_BCDR_DPPU;
 751              		.loc 1 600 3 discriminator 2 view .LVU168
 752              		.loc 1 600 24 is_stmt 0 discriminator 2 view .LVU169
 753 0014 5821     		movs	r1, #88
 754 0016 0368     		ldr	r3, [r0]
 755 0018 5B5A     		ldrh	r3, [r3, r1]
 756 001a 054C     		ldr	r4, .L37
 757 001c 2343     		orrs	r3, r4
 758 001e 9BB2     		uxth	r3, r3
 759 0020 0468     		ldr	r4, [r0]
 760 0022 6352     		strh	r3, [r4, r1]
 601:Drivers/STM32F0xx_HAL_Driver/Src/stm32f0xx_hal_pcd.c ****   
 602:Drivers/STM32F0xx_HAL_Driver/Src/stm32f0xx_hal_pcd.c ****   __HAL_UNLOCK(hpcd); 
 761              		.loc 1 602 3 is_stmt 1 discriminator 2 view .LVU170
 762              		.loc 1 602 3 discriminator 2 view .LVU171
 763 0024 0023     		movs	r3, #0
 764 0026 8354     		strb	r3, [r0, r2]
ARM GAS  /tmp/cc8iG1bp.s 			page 26


 765              		.loc 1 602 3 discriminator 2 view .LVU172
 603:Drivers/STM32F0xx_HAL_Driver/Src/stm32f0xx_hal_pcd.c ****   return HAL_OK;
 766              		.loc 1 603 3 discriminator 2 view .LVU173
 767              		.loc 1 603 10 is_stmt 0 discriminator 2 view .LVU174
 768 0028 0020     		movs	r0, #0
 769              	.LVL42:
 770              	.L35:
 604:Drivers/STM32F0xx_HAL_Driver/Src/stm32f0xx_hal_pcd.c **** }
 771              		.loc 1 604 1 view .LVU175
 772              		@ sp needed
 773 002a 10BD     		pop	{r4, pc}
 774              	.LVL43:
 775              	.L36:
 597:Drivers/STM32F0xx_HAL_Driver/Src/stm32f0xx_hal_pcd.c ****   
 776              		.loc 1 597 3 view .LVU176
 777 002c 0220     		movs	r0, #2
 778              	.LVL44:
 597:Drivers/STM32F0xx_HAL_Driver/Src/stm32f0xx_hal_pcd.c ****   
 779              		.loc 1 597 3 view .LVU177
 780 002e FCE7     		b	.L35
 781              	.L38:
 782              		.align	2
 783              	.L37:
 784 0030 0080FFFF 		.word	-32768
 785              		.cfi_endproc
 786              	.LFE55:
 788              		.section	.text.HAL_PCD_DevDisconnect,"ax",%progbits
 789              		.align	1
 790              		.global	HAL_PCD_DevDisconnect
 791              		.syntax unified
 792              		.code	16
 793              		.thumb_func
 794              		.fpu softvfp
 796              	HAL_PCD_DevDisconnect:
 797              	.LVL45:
 798              	.LFB56:
 605:Drivers/STM32F0xx_HAL_Driver/Src/stm32f0xx_hal_pcd.c **** 
 606:Drivers/STM32F0xx_HAL_Driver/Src/stm32f0xx_hal_pcd.c **** /**
 607:Drivers/STM32F0xx_HAL_Driver/Src/stm32f0xx_hal_pcd.c ****   * @brief  Disconnect the USB device 
 608:Drivers/STM32F0xx_HAL_Driver/Src/stm32f0xx_hal_pcd.c ****   * @param  hpcd PCD handle
 609:Drivers/STM32F0xx_HAL_Driver/Src/stm32f0xx_hal_pcd.c ****   * @retval HAL status
 610:Drivers/STM32F0xx_HAL_Driver/Src/stm32f0xx_hal_pcd.c ****   */
 611:Drivers/STM32F0xx_HAL_Driver/Src/stm32f0xx_hal_pcd.c **** HAL_StatusTypeDef HAL_PCD_DevDisconnect(PCD_HandleTypeDef *hpcd)
 612:Drivers/STM32F0xx_HAL_Driver/Src/stm32f0xx_hal_pcd.c **** {
 799              		.loc 1 612 1 is_stmt 1 view -0
 800              		.cfi_startproc
 801              		@ args = 0, pretend = 0, frame = 0
 802              		@ frame_needed = 0, uses_anonymous_args = 0
 803              		.loc 1 612 1 is_stmt 0 view .LVU179
 804 0000 10B5     		push	{r4, lr}
 805              	.LCFI4:
 806              		.cfi_def_cfa_offset 8
 807              		.cfi_offset 4, -8
 808              		.cfi_offset 14, -4
 613:Drivers/STM32F0xx_HAL_Driver/Src/stm32f0xx_hal_pcd.c ****   __HAL_LOCK(hpcd); 
 809              		.loc 1 613 3 is_stmt 1 view .LVU180
 810              		.loc 1 613 3 view .LVU181
ARM GAS  /tmp/cc8iG1bp.s 			page 27


 811 0002 F423     		movs	r3, #244
 812 0004 5B00     		lsls	r3, r3, #1
 813 0006 C35C     		ldrb	r3, [r0, r3]
 814 0008 012B     		cmp	r3, #1
 815 000a 0ED0     		beq	.L41
 816              		.loc 1 613 3 discriminator 2 view .LVU182
 817 000c F422     		movs	r2, #244
 818 000e 5200     		lsls	r2, r2, #1
 819 0010 0123     		movs	r3, #1
 820 0012 8354     		strb	r3, [r0, r2]
 821              		.loc 1 613 3 discriminator 2 view .LVU183
 614:Drivers/STM32F0xx_HAL_Driver/Src/stm32f0xx_hal_pcd.c ****   
 615:Drivers/STM32F0xx_HAL_Driver/Src/stm32f0xx_hal_pcd.c ****   /* Disable DP Pull-Down bit*/
 616:Drivers/STM32F0xx_HAL_Driver/Src/stm32f0xx_hal_pcd.c ****    hpcd->Instance->BCDR &= (uint16_t)(~(USB_BCDR_DPPU));
 822              		.loc 1 616 4 discriminator 2 view .LVU184
 823              		.loc 1 616 25 is_stmt 0 discriminator 2 view .LVU185
 824 0014 5821     		movs	r1, #88
 825 0016 0368     		ldr	r3, [r0]
 826 0018 5B5A     		ldrh	r3, [r3, r1]
 827 001a 5B04     		lsls	r3, r3, #17
 828 001c 5B0C     		lsrs	r3, r3, #17
 829 001e 0468     		ldr	r4, [r0]
 830 0020 6352     		strh	r3, [r4, r1]
 617:Drivers/STM32F0xx_HAL_Driver/Src/stm32f0xx_hal_pcd.c ****   
 618:Drivers/STM32F0xx_HAL_Driver/Src/stm32f0xx_hal_pcd.c ****   __HAL_UNLOCK(hpcd); 
 831              		.loc 1 618 3 is_stmt 1 discriminator 2 view .LVU186
 832              		.loc 1 618 3 discriminator 2 view .LVU187
 833 0022 0023     		movs	r3, #0
 834 0024 8354     		strb	r3, [r0, r2]
 835              		.loc 1 618 3 discriminator 2 view .LVU188
 619:Drivers/STM32F0xx_HAL_Driver/Src/stm32f0xx_hal_pcd.c ****   return HAL_OK;
 836              		.loc 1 619 3 discriminator 2 view .LVU189
 837              		.loc 1 619 10 is_stmt 0 discriminator 2 view .LVU190
 838 0026 0020     		movs	r0, #0
 839              	.LVL46:
 840              	.L40:
 620:Drivers/STM32F0xx_HAL_Driver/Src/stm32f0xx_hal_pcd.c **** }
 841              		.loc 1 620 1 view .LVU191
 842              		@ sp needed
 843 0028 10BD     		pop	{r4, pc}
 844              	.LVL47:
 845              	.L41:
 613:Drivers/STM32F0xx_HAL_Driver/Src/stm32f0xx_hal_pcd.c ****   
 846              		.loc 1 613 3 view .LVU192
 847 002a 0220     		movs	r0, #2
 848              	.LVL48:
 613:Drivers/STM32F0xx_HAL_Driver/Src/stm32f0xx_hal_pcd.c ****   
 849              		.loc 1 613 3 view .LVU193
 850 002c FCE7     		b	.L40
 851              		.cfi_endproc
 852              	.LFE56:
 854              		.section	.text.HAL_PCD_SetAddress,"ax",%progbits
 855              		.align	1
 856              		.global	HAL_PCD_SetAddress
 857              		.syntax unified
 858              		.code	16
 859              		.thumb_func
ARM GAS  /tmp/cc8iG1bp.s 			page 28


 860              		.fpu softvfp
 862              	HAL_PCD_SetAddress:
 863              	.LVL49:
 864              	.LFB57:
 621:Drivers/STM32F0xx_HAL_Driver/Src/stm32f0xx_hal_pcd.c **** 
 622:Drivers/STM32F0xx_HAL_Driver/Src/stm32f0xx_hal_pcd.c **** /**
 623:Drivers/STM32F0xx_HAL_Driver/Src/stm32f0xx_hal_pcd.c ****   * @brief  Set the USB Device address 
 624:Drivers/STM32F0xx_HAL_Driver/Src/stm32f0xx_hal_pcd.c ****   * @param  hpcd PCD handle
 625:Drivers/STM32F0xx_HAL_Driver/Src/stm32f0xx_hal_pcd.c ****   * @param  address new device address
 626:Drivers/STM32F0xx_HAL_Driver/Src/stm32f0xx_hal_pcd.c ****   * @retval HAL status
 627:Drivers/STM32F0xx_HAL_Driver/Src/stm32f0xx_hal_pcd.c ****   */
 628:Drivers/STM32F0xx_HAL_Driver/Src/stm32f0xx_hal_pcd.c **** HAL_StatusTypeDef HAL_PCD_SetAddress(PCD_HandleTypeDef *hpcd, uint8_t address)
 629:Drivers/STM32F0xx_HAL_Driver/Src/stm32f0xx_hal_pcd.c **** {
 865              		.loc 1 629 1 is_stmt 1 view -0
 866              		.cfi_startproc
 867              		@ args = 0, pretend = 0, frame = 0
 868              		@ frame_needed = 0, uses_anonymous_args = 0
 869              		@ link register save eliminated.
 630:Drivers/STM32F0xx_HAL_Driver/Src/stm32f0xx_hal_pcd.c ****    __HAL_LOCK(hpcd); 
 870              		.loc 1 630 4 view .LVU195
 871              		.loc 1 630 4 view .LVU196
 872 0000 F423     		movs	r3, #244
 873 0002 5B00     		lsls	r3, r3, #1
 874 0004 C35C     		ldrb	r3, [r0, r3]
 875 0006 012B     		cmp	r3, #1
 876 0008 13D0     		beq	.L46
 877              		.loc 1 630 4 discriminator 2 view .LVU197
 878 000a F423     		movs	r3, #244
 879 000c 5B00     		lsls	r3, r3, #1
 880 000e 0122     		movs	r2, #1
 881 0010 C254     		strb	r2, [r0, r3]
 882              		.loc 1 630 4 discriminator 2 view .LVU198
 631:Drivers/STM32F0xx_HAL_Driver/Src/stm32f0xx_hal_pcd.c **** 
 632:Drivers/STM32F0xx_HAL_Driver/Src/stm32f0xx_hal_pcd.c ****    if(address == 0U) 
 883              		.loc 1 632 4 discriminator 2 view .LVU199
 884              		.loc 1 632 6 is_stmt 0 discriminator 2 view .LVU200
 885 0012 0029     		cmp	r1, #0
 886 0014 0AD1     		bne	.L44
 633:Drivers/STM32F0xx_HAL_Driver/Src/stm32f0xx_hal_pcd.c ****    {
 634:Drivers/STM32F0xx_HAL_Driver/Src/stm32f0xx_hal_pcd.c ****      /* set device address and enable function */
 635:Drivers/STM32F0xx_HAL_Driver/Src/stm32f0xx_hal_pcd.c ****      hpcd->Instance->DADDR = USB_DADDR_EF;
 887              		.loc 1 635 6 is_stmt 1 view .LVU201
 888              		.loc 1 635 28 is_stmt 0 view .LVU202
 889 0016 9D3B     		subs	r3, r3, #157
 890 0018 FF3B     		subs	r3, r3, #255
 891 001a 7F32     		adds	r2, r2, #127
 892 001c 0168     		ldr	r1, [r0]
 893              	.LVL50:
 894              		.loc 1 635 28 view .LVU203
 895 001e CA52     		strh	r2, [r1, r3]
 896              	.L45:
 636:Drivers/STM32F0xx_HAL_Driver/Src/stm32f0xx_hal_pcd.c ****    }
 637:Drivers/STM32F0xx_HAL_Driver/Src/stm32f0xx_hal_pcd.c ****    else /* USB Address will be applied later */
 638:Drivers/STM32F0xx_HAL_Driver/Src/stm32f0xx_hal_pcd.c ****    {
 639:Drivers/STM32F0xx_HAL_Driver/Src/stm32f0xx_hal_pcd.c ****      hpcd->USB_Address = address;
 640:Drivers/STM32F0xx_HAL_Driver/Src/stm32f0xx_hal_pcd.c ****    }
 641:Drivers/STM32F0xx_HAL_Driver/Src/stm32f0xx_hal_pcd.c **** 
ARM GAS  /tmp/cc8iG1bp.s 			page 29


 642:Drivers/STM32F0xx_HAL_Driver/Src/stm32f0xx_hal_pcd.c ****   __HAL_UNLOCK(hpcd);   
 897              		.loc 1 642 3 is_stmt 1 view .LVU204
 898              		.loc 1 642 3 view .LVU205
 899 0020 F423     		movs	r3, #244
 900 0022 5B00     		lsls	r3, r3, #1
 901 0024 0022     		movs	r2, #0
 902 0026 C254     		strb	r2, [r0, r3]
 903              		.loc 1 642 3 view .LVU206
 643:Drivers/STM32F0xx_HAL_Driver/Src/stm32f0xx_hal_pcd.c ****   return HAL_OK;
 904              		.loc 1 643 3 view .LVU207
 905              		.loc 1 643 10 is_stmt 0 view .LVU208
 906 0028 0020     		movs	r0, #0
 907              	.LVL51:
 908              	.L43:
 644:Drivers/STM32F0xx_HAL_Driver/Src/stm32f0xx_hal_pcd.c **** }
 909              		.loc 1 644 1 view .LVU209
 910              		@ sp needed
 911 002a 7047     		bx	lr
 912              	.LVL52:
 913              	.L44:
 639:Drivers/STM32F0xx_HAL_Driver/Src/stm32f0xx_hal_pcd.c ****    }
 914              		.loc 1 639 6 is_stmt 1 view .LVU210
 639:Drivers/STM32F0xx_HAL_Driver/Src/stm32f0xx_hal_pcd.c ****    }
 915              		.loc 1 639 24 is_stmt 0 view .LVU211
 916 002c 2423     		movs	r3, #36
 917 002e C154     		strb	r1, [r0, r3]
 918 0030 F6E7     		b	.L45
 919              	.L46:
 630:Drivers/STM32F0xx_HAL_Driver/Src/stm32f0xx_hal_pcd.c **** 
 920              		.loc 1 630 4 view .LVU212
 921 0032 0220     		movs	r0, #2
 922              	.LVL53:
 630:Drivers/STM32F0xx_HAL_Driver/Src/stm32f0xx_hal_pcd.c **** 
 923              		.loc 1 630 4 view .LVU213
 924 0034 F9E7     		b	.L43
 925              		.cfi_endproc
 926              	.LFE57:
 928              		.section	.text.HAL_PCD_EP_Open,"ax",%progbits
 929              		.align	1
 930              		.global	HAL_PCD_EP_Open
 931              		.syntax unified
 932              		.code	16
 933              		.thumb_func
 934              		.fpu softvfp
 936              	HAL_PCD_EP_Open:
 937              	.LVL54:
 938              	.LFB58:
 645:Drivers/STM32F0xx_HAL_Driver/Src/stm32f0xx_hal_pcd.c **** /**
 646:Drivers/STM32F0xx_HAL_Driver/Src/stm32f0xx_hal_pcd.c ****   * @brief  Open and configure an endpoint
 647:Drivers/STM32F0xx_HAL_Driver/Src/stm32f0xx_hal_pcd.c ****   * @param  hpcd PCD handle
 648:Drivers/STM32F0xx_HAL_Driver/Src/stm32f0xx_hal_pcd.c ****   * @param  ep_addr endpoint address
 649:Drivers/STM32F0xx_HAL_Driver/Src/stm32f0xx_hal_pcd.c ****   * @param  ep_mps endpoint max packert size
 650:Drivers/STM32F0xx_HAL_Driver/Src/stm32f0xx_hal_pcd.c ****   * @param  ep_type endpoint type   
 651:Drivers/STM32F0xx_HAL_Driver/Src/stm32f0xx_hal_pcd.c ****   * @retval HAL status
 652:Drivers/STM32F0xx_HAL_Driver/Src/stm32f0xx_hal_pcd.c ****   */
 653:Drivers/STM32F0xx_HAL_Driver/Src/stm32f0xx_hal_pcd.c **** HAL_StatusTypeDef HAL_PCD_EP_Open(PCD_HandleTypeDef *hpcd, uint8_t ep_addr, uint16_t ep_mps, uint8_
 654:Drivers/STM32F0xx_HAL_Driver/Src/stm32f0xx_hal_pcd.c **** {
ARM GAS  /tmp/cc8iG1bp.s 			page 30


 939              		.loc 1 654 1 is_stmt 1 view -0
 940              		.cfi_startproc
 941              		@ args = 0, pretend = 0, frame = 0
 942              		@ frame_needed = 0, uses_anonymous_args = 0
 943              		.loc 1 654 1 is_stmt 0 view .LVU215
 944 0000 F0B5     		push	{r4, r5, r6, r7, lr}
 945              	.LCFI5:
 946              		.cfi_def_cfa_offset 20
 947              		.cfi_offset 4, -20
 948              		.cfi_offset 5, -16
 949              		.cfi_offset 6, -12
 950              		.cfi_offset 7, -8
 951              		.cfi_offset 14, -4
 655:Drivers/STM32F0xx_HAL_Driver/Src/stm32f0xx_hal_pcd.c ****   HAL_StatusTypeDef  ret = HAL_OK;
 952              		.loc 1 655 3 is_stmt 1 view .LVU216
 953              	.LVL55:
 656:Drivers/STM32F0xx_HAL_Driver/Src/stm32f0xx_hal_pcd.c ****   PCD_EPTypeDef *ep;
 954              		.loc 1 656 3 view .LVU217
 657:Drivers/STM32F0xx_HAL_Driver/Src/stm32f0xx_hal_pcd.c ****   
 658:Drivers/STM32F0xx_HAL_Driver/Src/stm32f0xx_hal_pcd.c ****   if ((ep_addr & 0x80U) == 0x80U)
 955              		.loc 1 658 3 view .LVU218
 956              		.loc 1 658 25 is_stmt 0 view .LVU219
 957 0002 4DB2     		sxtb	r5, r1
 958              		.loc 1 658 6 view .LVU220
 959 0004 002D     		cmp	r5, #0
 960 0006 2EDB     		blt	.L72
 659:Drivers/STM32F0xx_HAL_Driver/Src/stm32f0xx_hal_pcd.c ****   {
 660:Drivers/STM32F0xx_HAL_Driver/Src/stm32f0xx_hal_pcd.c ****     ep = &hpcd->IN_ep[ep_addr & 0x7FU];
 661:Drivers/STM32F0xx_HAL_Driver/Src/stm32f0xx_hal_pcd.c ****   }
 662:Drivers/STM32F0xx_HAL_Driver/Src/stm32f0xx_hal_pcd.c ****   else
 663:Drivers/STM32F0xx_HAL_Driver/Src/stm32f0xx_hal_pcd.c ****   {
 664:Drivers/STM32F0xx_HAL_Driver/Src/stm32f0xx_hal_pcd.c ****     ep = &hpcd->OUT_ep[ep_addr & 0x7FU];
 961              		.loc 1 664 5 is_stmt 1 view .LVU221
 962              		.loc 1 664 32 is_stmt 0 view .LVU222
 963 0008 7F26     		movs	r6, #127
 964 000a 0E40     		ands	r6, r1
 965              		.loc 1 664 8 view .LVU223
 966 000c F400     		lsls	r4, r6, #3
 967 000e A41B     		subs	r4, r4, r6
 968 0010 A400     		lsls	r4, r4, #2
 969 0012 0934     		adds	r4, r4, #9
 970 0014 FF34     		adds	r4, r4, #255
 971 0016 0419     		adds	r4, r0, r4
 972              	.LVL56:
 973              	.L49:
 665:Drivers/STM32F0xx_HAL_Driver/Src/stm32f0xx_hal_pcd.c ****   }
 666:Drivers/STM32F0xx_HAL_Driver/Src/stm32f0xx_hal_pcd.c ****   ep->num   = ep_addr & 0x7FU;
 974              		.loc 1 666 3 is_stmt 1 view .LVU224
 975              		.loc 1 666 23 is_stmt 0 view .LVU225
 976 0018 7F26     		movs	r6, #127
 977 001a 3140     		ands	r1, r6
 978              	.LVL57:
 979              		.loc 1 666 13 view .LVU226
 980 001c 2170     		strb	r1, [r4]
 667:Drivers/STM32F0xx_HAL_Driver/Src/stm32f0xx_hal_pcd.c ****   
 668:Drivers/STM32F0xx_HAL_Driver/Src/stm32f0xx_hal_pcd.c ****   ep->is_in = (0x80U & ep_addr) != 0U;
 981              		.loc 1 668 3 is_stmt 1 view .LVU227
ARM GAS  /tmp/cc8iG1bp.s 			page 31


 982              		.loc 1 668 33 is_stmt 0 view .LVU228
 983 001e ED0F     		lsrs	r5, r5, #31
 984              	.LVL58:
 985              		.loc 1 668 13 view .LVU229
 986 0020 6570     		strb	r5, [r4, #1]
 669:Drivers/STM32F0xx_HAL_Driver/Src/stm32f0xx_hal_pcd.c ****   ep->maxpacket = ep_mps;
 987              		.loc 1 669 3 is_stmt 1 view .LVU230
 988              		.loc 1 669 17 is_stmt 0 view .LVU231
 989 0022 E260     		str	r2, [r4, #12]
 670:Drivers/STM32F0xx_HAL_Driver/Src/stm32f0xx_hal_pcd.c ****   ep->type = ep_type;
 990              		.loc 1 670 3 is_stmt 1 view .LVU232
 991              		.loc 1 670 12 is_stmt 0 view .LVU233
 992 0024 E370     		strb	r3, [r4, #3]
 671:Drivers/STM32F0xx_HAL_Driver/Src/stm32f0xx_hal_pcd.c ****   
 672:Drivers/STM32F0xx_HAL_Driver/Src/stm32f0xx_hal_pcd.c ****   __HAL_LOCK(hpcd); 
 993              		.loc 1 672 3 is_stmt 1 view .LVU234
 994              		.loc 1 672 3 view .LVU235
 995 0026 F423     		movs	r3, #244
 996              	.LVL59:
 997              		.loc 1 672 3 is_stmt 0 view .LVU236
 998 0028 5B00     		lsls	r3, r3, #1
 999 002a C35C     		ldrb	r3, [r0, r3]
 1000 002c 012B     		cmp	r3, #1
 1001 002e 00D1     		bne	.LCB772
 1002 0030 8EE1     		b	.L71	@long jump
 1003              	.LCB772:
 1004              		.loc 1 672 3 is_stmt 1 discriminator 2 view .LVU237
 1005 0032 F423     		movs	r3, #244
 1006 0034 5B00     		lsls	r3, r3, #1
 1007 0036 0122     		movs	r2, #1
 1008              	.LVL60:
 1009              		.loc 1 672 3 is_stmt 0 discriminator 2 view .LVU238
 1010 0038 C254     		strb	r2, [r0, r3]
 1011              	.LVL61:
 1012              		.loc 1 672 3 is_stmt 1 discriminator 2 view .LVU239
 673:Drivers/STM32F0xx_HAL_Driver/Src/stm32f0xx_hal_pcd.c **** 
 674:Drivers/STM32F0xx_HAL_Driver/Src/stm32f0xx_hal_pcd.c ****   /* initialize Endpoint */
 675:Drivers/STM32F0xx_HAL_Driver/Src/stm32f0xx_hal_pcd.c ****   switch (ep->type)
 1013              		.loc 1 675 3 discriminator 2 view .LVU240
 1014              		.loc 1 675 13 is_stmt 0 discriminator 2 view .LVU241
 1015 003a E378     		ldrb	r3, [r4, #3]
 1016              		.loc 1 675 3 discriminator 2 view .LVU242
 1017 003c 022B     		cmp	r3, #2
 1018 003e 00D1     		bne	.LCB786
 1019 0040 7BE0     		b	.L51	@long jump
 1020              	.LCB786:
 1021              		.loc 1 675 3 view .LVU243
 1022 0042 18D8     		bhi	.L52
 1023 0044 002B     		cmp	r3, #0
 1024 0046 25D0     		beq	.L53
 1025 0048 012B     		cmp	r3, #1
 1026 004a 2FD1     		bne	.L55
 676:Drivers/STM32F0xx_HAL_Driver/Src/stm32f0xx_hal_pcd.c ****   {
 677:Drivers/STM32F0xx_HAL_Driver/Src/stm32f0xx_hal_pcd.c ****   case PCD_EP_TYPE_CTRL:
 678:Drivers/STM32F0xx_HAL_Driver/Src/stm32f0xx_hal_pcd.c ****     PCD_SET_EPTYPE(hpcd->Instance, ep->num, USB_EP_CONTROL);
 679:Drivers/STM32F0xx_HAL_Driver/Src/stm32f0xx_hal_pcd.c ****     break;
 680:Drivers/STM32F0xx_HAL_Driver/Src/stm32f0xx_hal_pcd.c ****   case PCD_EP_TYPE_BULK:
ARM GAS  /tmp/cc8iG1bp.s 			page 32


 681:Drivers/STM32F0xx_HAL_Driver/Src/stm32f0xx_hal_pcd.c ****     PCD_SET_EPTYPE(hpcd->Instance, ep->num, USB_EP_BULK);
 682:Drivers/STM32F0xx_HAL_Driver/Src/stm32f0xx_hal_pcd.c ****     break;
 683:Drivers/STM32F0xx_HAL_Driver/Src/stm32f0xx_hal_pcd.c ****   case PCD_EP_TYPE_INTR:
 684:Drivers/STM32F0xx_HAL_Driver/Src/stm32f0xx_hal_pcd.c ****     PCD_SET_EPTYPE(hpcd->Instance, ep->num, USB_EP_INTERRUPT);
 685:Drivers/STM32F0xx_HAL_Driver/Src/stm32f0xx_hal_pcd.c ****     break;
 686:Drivers/STM32F0xx_HAL_Driver/Src/stm32f0xx_hal_pcd.c ****   case PCD_EP_TYPE_ISOC:
 687:Drivers/STM32F0xx_HAL_Driver/Src/stm32f0xx_hal_pcd.c ****     PCD_SET_EPTYPE(hpcd->Instance, ep->num, USB_EP_ISOCHRONOUS);
 1027              		.loc 1 687 5 is_stmt 1 view .LVU244
 1028 004c 2278     		ldrb	r2, [r4]
 1029 004e 9200     		lsls	r2, r2, #2
 1030 0050 0368     		ldr	r3, [r0]
 1031 0052 9C46     		mov	ip, r3
 1032 0054 6244     		add	r2, r2, ip
 1033 0056 1388     		ldrh	r3, [r2]
 1034 0058 BE49     		ldr	r1, .L73
 1035 005a 1940     		ands	r1, r3
 1036 005c BE4B     		ldr	r3, .L73+4
 1037 005e 0B43     		orrs	r3, r1
 1038 0060 9BB2     		uxth	r3, r3
 1039 0062 1380     		strh	r3, [r2]
 688:Drivers/STM32F0xx_HAL_Driver/Src/stm32f0xx_hal_pcd.c ****     break;
 1040              		.loc 1 688 5 view .LVU245
 1041 0064 22E0     		b	.L55
 1042              	.LVL62:
 1043              	.L72:
 660:Drivers/STM32F0xx_HAL_Driver/Src/stm32f0xx_hal_pcd.c ****   }
 1044              		.loc 1 660 5 view .LVU246
 660:Drivers/STM32F0xx_HAL_Driver/Src/stm32f0xx_hal_pcd.c ****   }
 1045              		.loc 1 660 31 is_stmt 0 view .LVU247
 1046 0066 7F26     		movs	r6, #127
 1047 0068 0E40     		ands	r6, r1
 660:Drivers/STM32F0xx_HAL_Driver/Src/stm32f0xx_hal_pcd.c ****   }
 1048              		.loc 1 660 8 view .LVU248
 1049 006a F400     		lsls	r4, r6, #3
 1050 006c A41B     		subs	r4, r4, r6
 1051 006e A400     		lsls	r4, r4, #2
 1052 0070 2834     		adds	r4, r4, #40
 1053 0072 0419     		adds	r4, r0, r4
 1054              	.LVL63:
 660:Drivers/STM32F0xx_HAL_Driver/Src/stm32f0xx_hal_pcd.c ****   }
 1055              		.loc 1 660 8 view .LVU249
 1056 0074 D0E7     		b	.L49
 1057              	.LVL64:
 1058              	.L52:
 675:Drivers/STM32F0xx_HAL_Driver/Src/stm32f0xx_hal_pcd.c ****   {
 1059              		.loc 1 675 3 view .LVU250
 1060 0076 032B     		cmp	r3, #3
 1061 0078 18D1     		bne	.L55
 684:Drivers/STM32F0xx_HAL_Driver/Src/stm32f0xx_hal_pcd.c ****     break;
 1062              		.loc 1 684 5 is_stmt 1 view .LVU251
 1063 007a 2278     		ldrb	r2, [r4]
 1064 007c 9200     		lsls	r2, r2, #2
 1065 007e 0368     		ldr	r3, [r0]
 1066 0080 9C46     		mov	ip, r3
 1067 0082 6244     		add	r2, r2, ip
 1068 0084 1388     		ldrh	r3, [r2]
 1069 0086 B349     		ldr	r1, .L73
ARM GAS  /tmp/cc8iG1bp.s 			page 33


 1070 0088 1940     		ands	r1, r3
 1071 008a B44B     		ldr	r3, .L73+8
 1072 008c 0B43     		orrs	r3, r1
 1073 008e 9BB2     		uxth	r3, r3
 1074 0090 1380     		strh	r3, [r2]
 685:Drivers/STM32F0xx_HAL_Driver/Src/stm32f0xx_hal_pcd.c ****   case PCD_EP_TYPE_ISOC:
 1075              		.loc 1 685 5 view .LVU252
 1076 0092 0BE0     		b	.L55
 1077              	.L53:
 678:Drivers/STM32F0xx_HAL_Driver/Src/stm32f0xx_hal_pcd.c ****     break;
 1078              		.loc 1 678 5 view .LVU253
 1079 0094 2278     		ldrb	r2, [r4]
 1080 0096 9200     		lsls	r2, r2, #2
 1081 0098 0368     		ldr	r3, [r0]
 1082 009a 9C46     		mov	ip, r3
 1083 009c 6244     		add	r2, r2, ip
 1084 009e 1388     		ldrh	r3, [r2]
 1085 00a0 AC49     		ldr	r1, .L73
 1086 00a2 1940     		ands	r1, r3
 1087 00a4 AE4B     		ldr	r3, .L73+12
 1088 00a6 0B43     		orrs	r3, r1
 1089 00a8 9BB2     		uxth	r3, r3
 1090 00aa 1380     		strh	r3, [r2]
 679:Drivers/STM32F0xx_HAL_Driver/Src/stm32f0xx_hal_pcd.c ****   case PCD_EP_TYPE_BULK:
 1091              		.loc 1 679 5 view .LVU254
 1092              	.L55:
 689:Drivers/STM32F0xx_HAL_Driver/Src/stm32f0xx_hal_pcd.c ****   default:
 690:Drivers/STM32F0xx_HAL_Driver/Src/stm32f0xx_hal_pcd.c ****     break;
 691:Drivers/STM32F0xx_HAL_Driver/Src/stm32f0xx_hal_pcd.c ****   } 
 692:Drivers/STM32F0xx_HAL_Driver/Src/stm32f0xx_hal_pcd.c ****   
 693:Drivers/STM32F0xx_HAL_Driver/Src/stm32f0xx_hal_pcd.c ****   PCD_SET_EP_ADDRESS(hpcd->Instance, ep->num, ep->num);
 1093              		.loc 1 693 3 view .LVU255
 1094 00ac 2378     		ldrb	r3, [r4]
 1095 00ae 9A00     		lsls	r2, r3, #2
 1096 00b0 0168     		ldr	r1, [r0]
 1097 00b2 8C46     		mov	ip, r1
 1098 00b4 6244     		add	r2, r2, ip
 1099 00b6 1188     		ldrh	r1, [r2]
 1100 00b8 AA4D     		ldr	r5, .L73+16
 1101 00ba 2940     		ands	r1, r5
 1102 00bc 1943     		orrs	r1, r3
 1103 00be AA4B     		ldr	r3, .L73+20
 1104 00c0 0B43     		orrs	r3, r1
 1105 00c2 9BB2     		uxth	r3, r3
 1106 00c4 1380     		strh	r3, [r2]
 694:Drivers/STM32F0xx_HAL_Driver/Src/stm32f0xx_hal_pcd.c ****   
 695:Drivers/STM32F0xx_HAL_Driver/Src/stm32f0xx_hal_pcd.c ****   if (ep->doublebuffer == 0U) 
 1107              		.loc 1 695 3 view .LVU256
 1108              		.loc 1 695 9 is_stmt 0 view .LVU257
 1109 00c6 A37A     		ldrb	r3, [r4, #10]
 1110              		.loc 1 695 6 view .LVU258
 1111 00c8 002B     		cmp	r3, #0
 1112 00ca 00D0     		beq	.LCB906
 1113 00cc 8FE0     		b	.L57	@long jump
 1114              	.LCB906:
 696:Drivers/STM32F0xx_HAL_Driver/Src/stm32f0xx_hal_pcd.c ****   {
 697:Drivers/STM32F0xx_HAL_Driver/Src/stm32f0xx_hal_pcd.c ****     if (ep->is_in)
ARM GAS  /tmp/cc8iG1bp.s 			page 34


 1115              		.loc 1 697 5 is_stmt 1 view .LVU259
 1116              		.loc 1 697 11 is_stmt 0 view .LVU260
 1117 00ce 6378     		ldrb	r3, [r4, #1]
 1118              		.loc 1 697 8 view .LVU261
 1119 00d0 002B     		cmp	r3, #0
 1120 00d2 3FD0     		beq	.L58
 698:Drivers/STM32F0xx_HAL_Driver/Src/stm32f0xx_hal_pcd.c ****     {
 699:Drivers/STM32F0xx_HAL_Driver/Src/stm32f0xx_hal_pcd.c ****       /*Set the endpoint Transmit buffer address */
 700:Drivers/STM32F0xx_HAL_Driver/Src/stm32f0xx_hal_pcd.c ****       PCD_SET_EP_TX_ADDRESS(hpcd->Instance, ep->num, ep->pmaadress);
 1121              		.loc 1 700 7 is_stmt 1 view .LVU262
 1122 00d4 A288     		ldrh	r2, [r4, #4]
 1123 00d6 0568     		ldr	r5, [r0]
 1124 00d8 5023     		movs	r3, #80
 1125 00da EB5A     		ldrh	r3, [r5, r3]
 1126 00dc 2178     		ldrb	r1, [r4]
 1127 00de C900     		lsls	r1, r1, #3
 1128 00e0 5B18     		adds	r3, r3, r1
 1129 00e2 5B19     		adds	r3, r3, r5
 1130 00e4 8021     		movs	r1, #128
 1131 00e6 C900     		lsls	r1, r1, #3
 1132 00e8 8C46     		mov	ip, r1
 1133 00ea 6344     		add	r3, r3, ip
 1134 00ec 0121     		movs	r1, #1
 1135 00ee 8A43     		bics	r2, r1
 1136 00f0 1A80     		strh	r2, [r3]
 701:Drivers/STM32F0xx_HAL_Driver/Src/stm32f0xx_hal_pcd.c ****       PCD_CLEAR_TX_DTOG(hpcd->Instance, ep->num)
 1137              		.loc 1 701 7 view .LVU263
 1138 00f2 2378     		ldrb	r3, [r4]
 1139 00f4 9B00     		lsls	r3, r3, #2
 1140 00f6 0268     		ldr	r2, [r0]
 1141 00f8 9446     		mov	ip, r2
 1142 00fa 6344     		add	r3, r3, ip
 1143 00fc 1A88     		ldrh	r2, [r3]
 1144 00fe 5206     		lsls	r2, r2, #25
 1145 0100 06D5     		bpl	.L59
 1146              		.loc 1 701 7 discriminator 1 view .LVU264
 1147 0102 1A88     		ldrh	r2, [r3]
 1148 0104 9749     		ldr	r1, .L73+16
 1149 0106 1140     		ands	r1, r2
 1150 0108 984A     		ldr	r2, .L73+24
 1151 010a 0A43     		orrs	r2, r1
 1152 010c 92B2     		uxth	r2, r2
 1153 010e 1A80     		strh	r2, [r3]
 1154              	.L59:
 1155              	.LBB2:
 702:Drivers/STM32F0xx_HAL_Driver/Src/stm32f0xx_hal_pcd.c ****       /* Configure NAK status for the Endpoint*/
 703:Drivers/STM32F0xx_HAL_Driver/Src/stm32f0xx_hal_pcd.c ****       PCD_SET_EP_TX_STATUS(hpcd->Instance, ep->num, USB_EP_TX_NAK) 
 1156              		.loc 1 703 7 view .LVU265
 1157              		.loc 1 703 7 view .LVU266
 1158 0110 2178     		ldrb	r1, [r4]
 1159 0112 8900     		lsls	r1, r1, #2
 1160 0114 0368     		ldr	r3, [r0]
 1161 0116 9C46     		mov	ip, r3
 1162 0118 6144     		add	r1, r1, ip
 1163 011a 0B88     		ldrh	r3, [r1]
 1164 011c 944A     		ldr	r2, .L73+28
 1165 011e 1340     		ands	r3, r2
ARM GAS  /tmp/cc8iG1bp.s 			page 35


 1166              	.LVL65:
 1167              		.loc 1 703 7 view .LVU267
 1168              		.loc 1 703 7 view .LVU268
 1169              		.loc 1 703 7 view .LVU269
 1170 0120 2022     		movs	r2, #32
 1171 0122 5340     		eors	r3, r2
 1172              	.LVL66:
 1173              		.loc 1 703 7 is_stmt 0 view .LVU270
 1174 0124 9BB2     		uxth	r3, r3
 1175              	.LVL67:
 1176              		.loc 1 703 7 is_stmt 1 view .LVU271
 1177 0126 904A     		ldr	r2, .L73+20
 1178 0128 1343     		orrs	r3, r2
 1179              	.LVL68:
 1180              		.loc 1 703 7 is_stmt 0 view .LVU272
 1181 012a 9BB2     		uxth	r3, r3
 1182 012c 0B80     		strh	r3, [r1]
 1183              	.LVL69:
 1184              	.L60:
 1185              		.loc 1 703 7 view .LVU273
 1186              	.LBE2:
 704:Drivers/STM32F0xx_HAL_Driver/Src/stm32f0xx_hal_pcd.c ****     }
 705:Drivers/STM32F0xx_HAL_Driver/Src/stm32f0xx_hal_pcd.c ****     else
 706:Drivers/STM32F0xx_HAL_Driver/Src/stm32f0xx_hal_pcd.c ****     {
 707:Drivers/STM32F0xx_HAL_Driver/Src/stm32f0xx_hal_pcd.c ****       /*Set the endpoint Receive buffer address */
 708:Drivers/STM32F0xx_HAL_Driver/Src/stm32f0xx_hal_pcd.c ****       PCD_SET_EP_RX_ADDRESS(hpcd->Instance, ep->num, ep->pmaadress);
 709:Drivers/STM32F0xx_HAL_Driver/Src/stm32f0xx_hal_pcd.c ****       /*Set the endpoint Receive buffer counter*/
 710:Drivers/STM32F0xx_HAL_Driver/Src/stm32f0xx_hal_pcd.c ****       PCD_SET_EP_RX_CNT(hpcd->Instance, ep->num, ep->maxpacket)
 711:Drivers/STM32F0xx_HAL_Driver/Src/stm32f0xx_hal_pcd.c ****       PCD_CLEAR_RX_DTOG(hpcd->Instance, ep->num)
 712:Drivers/STM32F0xx_HAL_Driver/Src/stm32f0xx_hal_pcd.c ****       /* Configure VALID status for the Endpoint*/
 713:Drivers/STM32F0xx_HAL_Driver/Src/stm32f0xx_hal_pcd.c ****       PCD_SET_EP_RX_STATUS(hpcd->Instance, ep->num, USB_EP_RX_VALID)
 714:Drivers/STM32F0xx_HAL_Driver/Src/stm32f0xx_hal_pcd.c ****     }
 715:Drivers/STM32F0xx_HAL_Driver/Src/stm32f0xx_hal_pcd.c ****   }
 716:Drivers/STM32F0xx_HAL_Driver/Src/stm32f0xx_hal_pcd.c ****   /*Double Buffer*/
 717:Drivers/STM32F0xx_HAL_Driver/Src/stm32f0xx_hal_pcd.c ****   else
 718:Drivers/STM32F0xx_HAL_Driver/Src/stm32f0xx_hal_pcd.c ****   {
 719:Drivers/STM32F0xx_HAL_Driver/Src/stm32f0xx_hal_pcd.c ****     /*Set the endpoint as double buffered*/
 720:Drivers/STM32F0xx_HAL_Driver/Src/stm32f0xx_hal_pcd.c ****     PCD_SET_EP_DBUF(hpcd->Instance, ep->num);
 721:Drivers/STM32F0xx_HAL_Driver/Src/stm32f0xx_hal_pcd.c ****     /*Set buffer address for double buffered mode*/
 722:Drivers/STM32F0xx_HAL_Driver/Src/stm32f0xx_hal_pcd.c ****     PCD_SET_EP_DBUF_ADDR(hpcd->Instance, ep->num,ep->pmaaddr0, ep->pmaaddr1)
 723:Drivers/STM32F0xx_HAL_Driver/Src/stm32f0xx_hal_pcd.c ****     
 724:Drivers/STM32F0xx_HAL_Driver/Src/stm32f0xx_hal_pcd.c ****     if (ep->is_in==0U)
 725:Drivers/STM32F0xx_HAL_Driver/Src/stm32f0xx_hal_pcd.c ****     {
 726:Drivers/STM32F0xx_HAL_Driver/Src/stm32f0xx_hal_pcd.c ****       /* Clear the data toggle bits for the endpoint IN/OUT*/
 727:Drivers/STM32F0xx_HAL_Driver/Src/stm32f0xx_hal_pcd.c ****       PCD_CLEAR_RX_DTOG(hpcd->Instance, ep->num)
 728:Drivers/STM32F0xx_HAL_Driver/Src/stm32f0xx_hal_pcd.c ****       PCD_CLEAR_TX_DTOG(hpcd->Instance, ep->num)
 729:Drivers/STM32F0xx_HAL_Driver/Src/stm32f0xx_hal_pcd.c ****       
 730:Drivers/STM32F0xx_HAL_Driver/Src/stm32f0xx_hal_pcd.c ****       /* Reset value of the data toggle bits for the endpoint out*/
 731:Drivers/STM32F0xx_HAL_Driver/Src/stm32f0xx_hal_pcd.c ****       PCD_TX_DTOG(hpcd->Instance, ep->num);
 732:Drivers/STM32F0xx_HAL_Driver/Src/stm32f0xx_hal_pcd.c ****       
 733:Drivers/STM32F0xx_HAL_Driver/Src/stm32f0xx_hal_pcd.c ****       PCD_SET_EP_RX_STATUS(hpcd->Instance, ep->num, USB_EP_RX_VALID)
 734:Drivers/STM32F0xx_HAL_Driver/Src/stm32f0xx_hal_pcd.c ****       PCD_SET_EP_TX_STATUS(hpcd->Instance, ep->num, USB_EP_TX_DIS)
 735:Drivers/STM32F0xx_HAL_Driver/Src/stm32f0xx_hal_pcd.c ****     }
 736:Drivers/STM32F0xx_HAL_Driver/Src/stm32f0xx_hal_pcd.c ****     else
 737:Drivers/STM32F0xx_HAL_Driver/Src/stm32f0xx_hal_pcd.c ****     {
 738:Drivers/STM32F0xx_HAL_Driver/Src/stm32f0xx_hal_pcd.c ****       /* Clear the data toggle bits for the endpoint IN/OUT*/
 739:Drivers/STM32F0xx_HAL_Driver/Src/stm32f0xx_hal_pcd.c ****       PCD_CLEAR_RX_DTOG(hpcd->Instance, ep->num)
ARM GAS  /tmp/cc8iG1bp.s 			page 36


 740:Drivers/STM32F0xx_HAL_Driver/Src/stm32f0xx_hal_pcd.c ****       PCD_CLEAR_TX_DTOG(hpcd->Instance, ep->num)
 741:Drivers/STM32F0xx_HAL_Driver/Src/stm32f0xx_hal_pcd.c ****       PCD_RX_DTOG(hpcd->Instance, ep->num);
 742:Drivers/STM32F0xx_HAL_Driver/Src/stm32f0xx_hal_pcd.c ****       /* Configure DISABLE status for the Endpoint*/
 743:Drivers/STM32F0xx_HAL_Driver/Src/stm32f0xx_hal_pcd.c ****       PCD_SET_EP_TX_STATUS(hpcd->Instance, ep->num, USB_EP_TX_DIS)
 744:Drivers/STM32F0xx_HAL_Driver/Src/stm32f0xx_hal_pcd.c ****       PCD_SET_EP_RX_STATUS(hpcd->Instance, ep->num, USB_EP_RX_DIS)
 745:Drivers/STM32F0xx_HAL_Driver/Src/stm32f0xx_hal_pcd.c ****     }
 746:Drivers/STM32F0xx_HAL_Driver/Src/stm32f0xx_hal_pcd.c ****   } 
 747:Drivers/STM32F0xx_HAL_Driver/Src/stm32f0xx_hal_pcd.c ****   
 748:Drivers/STM32F0xx_HAL_Driver/Src/stm32f0xx_hal_pcd.c ****   __HAL_UNLOCK(hpcd);   
 1187              		.loc 1 748 3 is_stmt 1 view .LVU274
 1188              		.loc 1 748 3 view .LVU275
 1189 012e F423     		movs	r3, #244
 1190 0130 5B00     		lsls	r3, r3, #1
 1191 0132 0022     		movs	r2, #0
 1192 0134 C254     		strb	r2, [r0, r3]
 1193              		.loc 1 748 3 view .LVU276
 749:Drivers/STM32F0xx_HAL_Driver/Src/stm32f0xx_hal_pcd.c ****   return ret;
 1194              		.loc 1 749 3 view .LVU277
 1195              		.loc 1 749 10 is_stmt 0 view .LVU278
 1196 0136 0020     		movs	r0, #0
 1197              	.LVL70:
 1198              	.L50:
 750:Drivers/STM32F0xx_HAL_Driver/Src/stm32f0xx_hal_pcd.c **** }
 1199              		.loc 1 750 1 view .LVU279
 1200              		@ sp needed
 1201 0138 F0BD     		pop	{r4, r5, r6, r7, pc}
 1202              	.LVL71:
 1203              	.L51:
 681:Drivers/STM32F0xx_HAL_Driver/Src/stm32f0xx_hal_pcd.c ****     break;
 1204              		.loc 1 681 5 is_stmt 1 view .LVU280
 1205 013a 2278     		ldrb	r2, [r4]
 1206 013c 9200     		lsls	r2, r2, #2
 1207 013e 0368     		ldr	r3, [r0]
 1208 0140 9C46     		mov	ip, r3
 1209 0142 6244     		add	r2, r2, ip
 1210 0144 1388     		ldrh	r3, [r2]
 1211 0146 8349     		ldr	r1, .L73
 1212 0148 1940     		ands	r1, r3
 1213 014a 874B     		ldr	r3, .L73+20
 1214 014c 0B43     		orrs	r3, r1
 1215 014e 9BB2     		uxth	r3, r3
 1216 0150 1380     		strh	r3, [r2]
 682:Drivers/STM32F0xx_HAL_Driver/Src/stm32f0xx_hal_pcd.c ****   case PCD_EP_TYPE_INTR:
 1217              		.loc 1 682 5 view .LVU281
 1218 0152 ABE7     		b	.L55
 1219              	.L58:
 708:Drivers/STM32F0xx_HAL_Driver/Src/stm32f0xx_hal_pcd.c ****       /*Set the endpoint Receive buffer counter*/
 1220              		.loc 1 708 7 view .LVU282
 1221 0154 A288     		ldrh	r2, [r4, #4]
 1222 0156 0568     		ldr	r5, [r0]
 1223 0158 5026     		movs	r6, #80
 1224 015a AB5B     		ldrh	r3, [r5, r6]
 1225 015c 2178     		ldrb	r1, [r4]
 1226 015e C900     		lsls	r1, r1, #3
 1227 0160 5B18     		adds	r3, r3, r1
 1228 0162 5B19     		adds	r3, r3, r5
 1229 0164 8349     		ldr	r1, .L73+32
ARM GAS  /tmp/cc8iG1bp.s 			page 37


 1230 0166 8C46     		mov	ip, r1
 1231 0168 6344     		add	r3, r3, ip
 1232 016a 0121     		movs	r1, #1
 1233 016c 8A43     		bics	r2, r1
 1234 016e 1A80     		strh	r2, [r3]
 1235              	.LBB3:
 710:Drivers/STM32F0xx_HAL_Driver/Src/stm32f0xx_hal_pcd.c ****       PCD_CLEAR_RX_DTOG(hpcd->Instance, ep->num)
 1236              		.loc 1 710 7 view .LVU283
 1237 0170 0168     		ldr	r1, [r0]
 1238 0172 8B5B     		ldrh	r3, [r1, r6]
 1239 0174 2278     		ldrb	r2, [r4]
 1240 0176 D200     		lsls	r2, r2, #3
 1241 0178 9B18     		adds	r3, r3, r2
 1242 017a 5B18     		adds	r3, r3, r1
 1243 017c 7E4A     		ldr	r2, .L73+36
 1244 017e 9446     		mov	ip, r2
 1245 0180 6344     		add	r3, r3, ip
 1246              	.LVL72:
 1247              	.LBB4:
 710:Drivers/STM32F0xx_HAL_Driver/Src/stm32f0xx_hal_pcd.c ****       PCD_CLEAR_RX_DTOG(hpcd->Instance, ep->num)
 1248              		.loc 1 710 7 view .LVU284
 710:Drivers/STM32F0xx_HAL_Driver/Src/stm32f0xx_hal_pcd.c ****       PCD_CLEAR_RX_DTOG(hpcd->Instance, ep->num)
 1249              		.loc 1 710 7 view .LVU285
 1250 0182 E168     		ldr	r1, [r4, #12]
 1251 0184 3E29     		cmp	r1, #62
 1252 0186 29D9     		bls	.L61
 710:Drivers/STM32F0xx_HAL_Driver/Src/stm32f0xx_hal_pcd.c ****       PCD_CLEAR_RX_DTOG(hpcd->Instance, ep->num)
 1253              		.loc 1 710 7 discriminator 1 view .LVU286
 1254 0188 4A09     		lsrs	r2, r1, #5
 1255 018a 92B2     		uxth	r2, r2
 1256              	.LVL73:
 710:Drivers/STM32F0xx_HAL_Driver/Src/stm32f0xx_hal_pcd.c ****       PCD_CLEAR_RX_DTOG(hpcd->Instance, ep->num)
 1257              		.loc 1 710 7 discriminator 1 view .LVU287
 1258 018c C906     		lsls	r1, r1, #27
 1259 018e 01D1     		bne	.L62
 710:Drivers/STM32F0xx_HAL_Driver/Src/stm32f0xx_hal_pcd.c ****       PCD_CLEAR_RX_DTOG(hpcd->Instance, ep->num)
 1260              		.loc 1 710 7 discriminator 3 view .LVU288
 1261 0190 013A     		subs	r2, r2, #1
 1262              	.LVL74:
 710:Drivers/STM32F0xx_HAL_Driver/Src/stm32f0xx_hal_pcd.c ****       PCD_CLEAR_RX_DTOG(hpcd->Instance, ep->num)
 1263              		.loc 1 710 7 is_stmt 0 discriminator 3 view .LVU289
 1264 0192 92B2     		uxth	r2, r2
 1265              	.LVL75:
 1266              	.L62:
 710:Drivers/STM32F0xx_HAL_Driver/Src/stm32f0xx_hal_pcd.c ****       PCD_CLEAR_RX_DTOG(hpcd->Instance, ep->num)
 1267              		.loc 1 710 7 is_stmt 1 discriminator 5 view .LVU290
 1268 0194 9202     		lsls	r2, r2, #10
 1269              	.LVL76:
 710:Drivers/STM32F0xx_HAL_Driver/Src/stm32f0xx_hal_pcd.c ****       PCD_CLEAR_RX_DTOG(hpcd->Instance, ep->num)
 1270              		.loc 1 710 7 is_stmt 0 discriminator 5 view .LVU291
 1271 0196 92B2     		uxth	r2, r2
 1272 0198 7849     		ldr	r1, .L73+40
 1273 019a 0A43     		orrs	r2, r1
 1274 019c 1A80     		strh	r2, [r3]
 1275              	.L63:
 710:Drivers/STM32F0xx_HAL_Driver/Src/stm32f0xx_hal_pcd.c ****       PCD_CLEAR_RX_DTOG(hpcd->Instance, ep->num)
 1276              		.loc 1 710 7 discriminator 5 view .LVU292
ARM GAS  /tmp/cc8iG1bp.s 			page 38


 1277              	.LBE4:
 1278              	.LBE3:
 711:Drivers/STM32F0xx_HAL_Driver/Src/stm32f0xx_hal_pcd.c ****       /* Configure VALID status for the Endpoint*/
 1279              		.loc 1 711 7 is_stmt 1 view .LVU293
 1280 019e 2378     		ldrb	r3, [r4]
 1281              	.LVL77:
 711:Drivers/STM32F0xx_HAL_Driver/Src/stm32f0xx_hal_pcd.c ****       /* Configure VALID status for the Endpoint*/
 1282              		.loc 1 711 7 is_stmt 0 view .LVU294
 1283 01a0 9B00     		lsls	r3, r3, #2
 1284 01a2 0268     		ldr	r2, [r0]
 1285 01a4 9446     		mov	ip, r2
 1286 01a6 6344     		add	r3, r3, ip
 1287 01a8 1A88     		ldrh	r2, [r3]
 1288 01aa 5204     		lsls	r2, r2, #17
 1289 01ac 06D5     		bpl	.L65
 711:Drivers/STM32F0xx_HAL_Driver/Src/stm32f0xx_hal_pcd.c ****       /* Configure VALID status for the Endpoint*/
 1290              		.loc 1 711 7 is_stmt 1 discriminator 1 view .LVU295
 1291 01ae 1A88     		ldrh	r2, [r3]
 1292 01b0 6C49     		ldr	r1, .L73+16
 1293 01b2 1140     		ands	r1, r2
 1294 01b4 724A     		ldr	r2, .L73+44
 1295 01b6 0A43     		orrs	r2, r1
 1296 01b8 92B2     		uxth	r2, r2
 1297 01ba 1A80     		strh	r2, [r3]
 1298              	.L65:
 1299              	.LBB6:
 713:Drivers/STM32F0xx_HAL_Driver/Src/stm32f0xx_hal_pcd.c ****     }
 1300              		.loc 1 713 7 view .LVU296
 713:Drivers/STM32F0xx_HAL_Driver/Src/stm32f0xx_hal_pcd.c ****     }
 1301              		.loc 1 713 7 view .LVU297
 1302 01bc 2278     		ldrb	r2, [r4]
 1303 01be 9200     		lsls	r2, r2, #2
 1304 01c0 0368     		ldr	r3, [r0]
 1305 01c2 9C46     		mov	ip, r3
 1306 01c4 6244     		add	r2, r2, ip
 1307 01c6 1188     		ldrh	r1, [r2]
 1308 01c8 6E4B     		ldr	r3, .L73+48
 1309 01ca 1940     		ands	r1, r3
 1310              	.LVL78:
 713:Drivers/STM32F0xx_HAL_Driver/Src/stm32f0xx_hal_pcd.c ****     }
 1311              		.loc 1 713 7 view .LVU298
 713:Drivers/STM32F0xx_HAL_Driver/Src/stm32f0xx_hal_pcd.c ****     }
 1312              		.loc 1 713 7 view .LVU299
 713:Drivers/STM32F0xx_HAL_Driver/Src/stm32f0xx_hal_pcd.c ****     }
 1313              		.loc 1 713 7 view .LVU300
 713:Drivers/STM32F0xx_HAL_Driver/Src/stm32f0xx_hal_pcd.c ****     }
 1314              		.loc 1 713 7 view .LVU301
 1315 01cc C023     		movs	r3, #192
 1316 01ce 9B01     		lsls	r3, r3, #6
 1317 01d0 5940     		eors	r1, r3
 1318              	.LVL79:
 713:Drivers/STM32F0xx_HAL_Driver/Src/stm32f0xx_hal_pcd.c ****     }
 1319              		.loc 1 713 7 view .LVU302
 1320 01d2 654B     		ldr	r3, .L73+20
 1321 01d4 0B43     		orrs	r3, r1
 1322 01d6 9BB2     		uxth	r3, r3
 1323 01d8 1380     		strh	r3, [r2]
ARM GAS  /tmp/cc8iG1bp.s 			page 39


 1324 01da A8E7     		b	.L60
 1325              	.LVL80:
 1326              	.L61:
 713:Drivers/STM32F0xx_HAL_Driver/Src/stm32f0xx_hal_pcd.c ****     }
 1327              		.loc 1 713 7 is_stmt 0 view .LVU303
 1328              	.LBE6:
 1329              	.LBB7:
 1330              	.LBB5:
 710:Drivers/STM32F0xx_HAL_Driver/Src/stm32f0xx_hal_pcd.c ****       PCD_CLEAR_RX_DTOG(hpcd->Instance, ep->num)
 1331              		.loc 1 710 7 is_stmt 1 discriminator 2 view .LVU304
 1332 01dc 4A08     		lsrs	r2, r1, #1
 1333 01de 92B2     		uxth	r2, r2
 1334              	.LVL81:
 710:Drivers/STM32F0xx_HAL_Driver/Src/stm32f0xx_hal_pcd.c ****       PCD_CLEAR_RX_DTOG(hpcd->Instance, ep->num)
 1335              		.loc 1 710 7 discriminator 2 view .LVU305
 1336 01e0 C907     		lsls	r1, r1, #31
 1337 01e2 01D5     		bpl	.L64
 710:Drivers/STM32F0xx_HAL_Driver/Src/stm32f0xx_hal_pcd.c ****       PCD_CLEAR_RX_DTOG(hpcd->Instance, ep->num)
 1338              		.loc 1 710 7 discriminator 6 view .LVU306
 1339 01e4 0132     		adds	r2, r2, #1
 1340              	.LVL82:
 710:Drivers/STM32F0xx_HAL_Driver/Src/stm32f0xx_hal_pcd.c ****       PCD_CLEAR_RX_DTOG(hpcd->Instance, ep->num)
 1341              		.loc 1 710 7 is_stmt 0 discriminator 6 view .LVU307
 1342 01e6 92B2     		uxth	r2, r2
 1343              	.LVL83:
 1344              	.L64:
 710:Drivers/STM32F0xx_HAL_Driver/Src/stm32f0xx_hal_pcd.c ****       PCD_CLEAR_RX_DTOG(hpcd->Instance, ep->num)
 1345              		.loc 1 710 7 is_stmt 1 discriminator 8 view .LVU308
 1346 01e8 9202     		lsls	r2, r2, #10
 1347              	.LVL84:
 710:Drivers/STM32F0xx_HAL_Driver/Src/stm32f0xx_hal_pcd.c ****       PCD_CLEAR_RX_DTOG(hpcd->Instance, ep->num)
 1348              		.loc 1 710 7 is_stmt 0 discriminator 8 view .LVU309
 1349 01ea 1A80     		strh	r2, [r3]
 1350 01ec D7E7     		b	.L63
 1351              	.LVL85:
 1352              	.L57:
 710:Drivers/STM32F0xx_HAL_Driver/Src/stm32f0xx_hal_pcd.c ****       PCD_CLEAR_RX_DTOG(hpcd->Instance, ep->num)
 1353              		.loc 1 710 7 discriminator 8 view .LVU310
 1354              	.LBE5:
 1355              	.LBE7:
 720:Drivers/STM32F0xx_HAL_Driver/Src/stm32f0xx_hal_pcd.c ****     /*Set buffer address for double buffered mode*/
 1356              		.loc 1 720 5 is_stmt 1 view .LVU311
 1357 01ee 2278     		ldrb	r2, [r4]
 1358 01f0 9200     		lsls	r2, r2, #2
 1359 01f2 0368     		ldr	r3, [r0]
 1360 01f4 9C46     		mov	ip, r3
 1361 01f6 6244     		add	r2, r2, ip
 1362 01f8 1388     		ldrh	r3, [r2]
 1363 01fa 6349     		ldr	r1, .L73+52
 1364 01fc 1940     		ands	r1, r3
 1365 01fe 634B     		ldr	r3, .L73+56
 1366 0200 0B43     		orrs	r3, r1
 1367 0202 9BB2     		uxth	r3, r3
 1368 0204 1380     		strh	r3, [r2]
 722:Drivers/STM32F0xx_HAL_Driver/Src/stm32f0xx_hal_pcd.c ****     
 1369              		.loc 1 722 5 view .LVU312
 1370 0206 E288     		ldrh	r2, [r4, #6]
ARM GAS  /tmp/cc8iG1bp.s 			page 40


 1371 0208 0568     		ldr	r5, [r0]
 1372 020a 5027     		movs	r7, #80
 1373 020c EB5B     		ldrh	r3, [r5, r7]
 1374 020e 2178     		ldrb	r1, [r4]
 1375 0210 C900     		lsls	r1, r1, #3
 1376 0212 5B18     		adds	r3, r3, r1
 1377 0214 5B19     		adds	r3, r3, r5
 1378 0216 8021     		movs	r1, #128
 1379 0218 C900     		lsls	r1, r1, #3
 1380 021a 8C46     		mov	ip, r1
 1381 021c 6344     		add	r3, r3, ip
 1382 021e 0126     		movs	r6, #1
 1383 0220 B243     		bics	r2, r6
 1384 0222 1A80     		strh	r2, [r3]
 722:Drivers/STM32F0xx_HAL_Driver/Src/stm32f0xx_hal_pcd.c ****     
 1385              		.loc 1 722 5 view .LVU313
 1386 0224 2289     		ldrh	r2, [r4, #8]
 1387 0226 0568     		ldr	r5, [r0]
 1388 0228 EB5B     		ldrh	r3, [r5, r7]
 1389 022a 2178     		ldrb	r1, [r4]
 1390 022c C900     		lsls	r1, r1, #3
 1391 022e 5B18     		adds	r3, r3, r1
 1392 0230 5B19     		adds	r3, r3, r5
 1393 0232 5049     		ldr	r1, .L73+32
 1394 0234 8C46     		mov	ip, r1
 1395 0236 6344     		add	r3, r3, ip
 1396 0238 B243     		bics	r2, r6
 1397 023a 1A80     		strh	r2, [r3]
 724:Drivers/STM32F0xx_HAL_Driver/Src/stm32f0xx_hal_pcd.c ****     {
 1398              		.loc 1 724 5 view .LVU314
 724:Drivers/STM32F0xx_HAL_Driver/Src/stm32f0xx_hal_pcd.c ****     {
 1399              		.loc 1 724 11 is_stmt 0 view .LVU315
 1400 023c 6378     		ldrb	r3, [r4, #1]
 724:Drivers/STM32F0xx_HAL_Driver/Src/stm32f0xx_hal_pcd.c ****     {
 1401              		.loc 1 724 8 view .LVU316
 1402 023e 002B     		cmp	r3, #0
 1403 0240 44D1     		bne	.L66
 727:Drivers/STM32F0xx_HAL_Driver/Src/stm32f0xx_hal_pcd.c ****       PCD_CLEAR_TX_DTOG(hpcd->Instance, ep->num)
 1404              		.loc 1 727 7 is_stmt 1 view .LVU317
 1405 0242 2378     		ldrb	r3, [r4]
 1406 0244 9B00     		lsls	r3, r3, #2
 1407 0246 0268     		ldr	r2, [r0]
 1408 0248 9446     		mov	ip, r2
 1409 024a 6344     		add	r3, r3, ip
 1410 024c 1A88     		ldrh	r2, [r3]
 1411 024e 5204     		lsls	r2, r2, #17
 1412 0250 06D5     		bpl	.L67
 727:Drivers/STM32F0xx_HAL_Driver/Src/stm32f0xx_hal_pcd.c ****       PCD_CLEAR_TX_DTOG(hpcd->Instance, ep->num)
 1413              		.loc 1 727 7 discriminator 1 view .LVU318
 1414 0252 1A88     		ldrh	r2, [r3]
 1415 0254 4349     		ldr	r1, .L73+16
 1416 0256 1140     		ands	r1, r2
 1417 0258 494A     		ldr	r2, .L73+44
 1418 025a 0A43     		orrs	r2, r1
 1419 025c 92B2     		uxth	r2, r2
 1420 025e 1A80     		strh	r2, [r3]
 1421              	.L67:
ARM GAS  /tmp/cc8iG1bp.s 			page 41


 728:Drivers/STM32F0xx_HAL_Driver/Src/stm32f0xx_hal_pcd.c ****       
 1422              		.loc 1 728 7 view .LVU319
 1423 0260 2378     		ldrb	r3, [r4]
 1424 0262 9B00     		lsls	r3, r3, #2
 1425 0264 0268     		ldr	r2, [r0]
 1426 0266 9446     		mov	ip, r2
 1427 0268 6344     		add	r3, r3, ip
 1428 026a 1A88     		ldrh	r2, [r3]
 1429 026c 5206     		lsls	r2, r2, #25
 1430 026e 06D5     		bpl	.L68
 728:Drivers/STM32F0xx_HAL_Driver/Src/stm32f0xx_hal_pcd.c ****       
 1431              		.loc 1 728 7 discriminator 1 view .LVU320
 1432 0270 1A88     		ldrh	r2, [r3]
 1433 0272 3C49     		ldr	r1, .L73+16
 1434 0274 1140     		ands	r1, r2
 1435 0276 3D4A     		ldr	r2, .L73+24
 1436 0278 0A43     		orrs	r2, r1
 1437 027a 92B2     		uxth	r2, r2
 1438 027c 1A80     		strh	r2, [r3]
 1439              	.L68:
 731:Drivers/STM32F0xx_HAL_Driver/Src/stm32f0xx_hal_pcd.c ****       
 1440              		.loc 1 731 7 view .LVU321
 1441 027e 2278     		ldrb	r2, [r4]
 1442 0280 9200     		lsls	r2, r2, #2
 1443 0282 0368     		ldr	r3, [r0]
 1444 0284 9C46     		mov	ip, r3
 1445 0286 6244     		add	r2, r2, ip
 1446 0288 1388     		ldrh	r3, [r2]
 1447 028a 3649     		ldr	r1, .L73+16
 1448 028c 1940     		ands	r1, r3
 1449 028e 374B     		ldr	r3, .L73+24
 1450 0290 0B43     		orrs	r3, r1
 1451 0292 9BB2     		uxth	r3, r3
 1452 0294 1380     		strh	r3, [r2]
 1453              	.LBB8:
 733:Drivers/STM32F0xx_HAL_Driver/Src/stm32f0xx_hal_pcd.c ****       PCD_SET_EP_TX_STATUS(hpcd->Instance, ep->num, USB_EP_TX_DIS)
 1454              		.loc 1 733 7 view .LVU322
 733:Drivers/STM32F0xx_HAL_Driver/Src/stm32f0xx_hal_pcd.c ****       PCD_SET_EP_TX_STATUS(hpcd->Instance, ep->num, USB_EP_TX_DIS)
 1455              		.loc 1 733 7 view .LVU323
 1456 0296 2178     		ldrb	r1, [r4]
 1457 0298 8900     		lsls	r1, r1, #2
 1458 029a 0368     		ldr	r3, [r0]
 1459 029c 9C46     		mov	ip, r3
 1460 029e 6144     		add	r1, r1, ip
 1461 02a0 0B88     		ldrh	r3, [r1]
 1462 02a2 384A     		ldr	r2, .L73+48
 1463 02a4 1A40     		ands	r2, r3
 1464              	.LVL86:
 733:Drivers/STM32F0xx_HAL_Driver/Src/stm32f0xx_hal_pcd.c ****       PCD_SET_EP_TX_STATUS(hpcd->Instance, ep->num, USB_EP_TX_DIS)
 1465              		.loc 1 733 7 view .LVU324
 733:Drivers/STM32F0xx_HAL_Driver/Src/stm32f0xx_hal_pcd.c ****       PCD_SET_EP_TX_STATUS(hpcd->Instance, ep->num, USB_EP_TX_DIS)
 1466              		.loc 1 733 7 view .LVU325
 733:Drivers/STM32F0xx_HAL_Driver/Src/stm32f0xx_hal_pcd.c ****       PCD_SET_EP_TX_STATUS(hpcd->Instance, ep->num, USB_EP_TX_DIS)
 1467              		.loc 1 733 7 view .LVU326
 733:Drivers/STM32F0xx_HAL_Driver/Src/stm32f0xx_hal_pcd.c ****       PCD_SET_EP_TX_STATUS(hpcd->Instance, ep->num, USB_EP_TX_DIS)
 1468              		.loc 1 733 7 view .LVU327
 1469 02a6 C023     		movs	r3, #192
ARM GAS  /tmp/cc8iG1bp.s 			page 42


 1470 02a8 9B01     		lsls	r3, r3, #6
 1471 02aa 5340     		eors	r3, r2
 1472              	.LVL87:
 733:Drivers/STM32F0xx_HAL_Driver/Src/stm32f0xx_hal_pcd.c ****       PCD_SET_EP_TX_STATUS(hpcd->Instance, ep->num, USB_EP_TX_DIS)
 1473              		.loc 1 733 7 view .LVU328
 1474 02ac 2E4A     		ldr	r2, .L73+20
 1475 02ae 1343     		orrs	r3, r2
 1476              	.LVL88:
 733:Drivers/STM32F0xx_HAL_Driver/Src/stm32f0xx_hal_pcd.c ****       PCD_SET_EP_TX_STATUS(hpcd->Instance, ep->num, USB_EP_TX_DIS)
 1477              		.loc 1 733 7 is_stmt 0 view .LVU329
 1478 02b0 9BB2     		uxth	r3, r3
 1479 02b2 0B80     		strh	r3, [r1]
 1480              	.LBE8:
 1481              	.LBB9:
 734:Drivers/STM32F0xx_HAL_Driver/Src/stm32f0xx_hal_pcd.c ****     }
 1482              		.loc 1 734 7 is_stmt 1 view .LVU330
 734:Drivers/STM32F0xx_HAL_Driver/Src/stm32f0xx_hal_pcd.c ****     }
 1483              		.loc 1 734 7 view .LVU331
 1484 02b4 2378     		ldrb	r3, [r4]
 1485 02b6 9B00     		lsls	r3, r3, #2
 1486 02b8 0168     		ldr	r1, [r0]
 1487 02ba 8C46     		mov	ip, r1
 1488 02bc 6344     		add	r3, r3, ip
 1489 02be 1988     		ldrh	r1, [r3]
 1490 02c0 2B4C     		ldr	r4, .L73+28
 1491              	.LVL89:
 734:Drivers/STM32F0xx_HAL_Driver/Src/stm32f0xx_hal_pcd.c ****     }
 1492              		.loc 1 734 7 is_stmt 0 view .LVU332
 1493 02c2 2140     		ands	r1, r4
 1494              	.LVL90:
 734:Drivers/STM32F0xx_HAL_Driver/Src/stm32f0xx_hal_pcd.c ****     }
 1495              		.loc 1 734 7 is_stmt 1 view .LVU333
 734:Drivers/STM32F0xx_HAL_Driver/Src/stm32f0xx_hal_pcd.c ****     }
 1496              		.loc 1 734 7 view .LVU334
 734:Drivers/STM32F0xx_HAL_Driver/Src/stm32f0xx_hal_pcd.c ****     }
 1497              		.loc 1 734 7 view .LVU335
 1498 02c4 0A43     		orrs	r2, r1
 1499 02c6 92B2     		uxth	r2, r2
 1500 02c8 1A80     		strh	r2, [r3]
 1501              	.LBE9:
 1502 02ca 30E7     		b	.L60
 1503              	.LVL91:
 1504              	.L66:
 739:Drivers/STM32F0xx_HAL_Driver/Src/stm32f0xx_hal_pcd.c ****       PCD_CLEAR_TX_DTOG(hpcd->Instance, ep->num)
 1505              		.loc 1 739 7 view .LVU336
 1506 02cc 2378     		ldrb	r3, [r4]
 1507 02ce 9B00     		lsls	r3, r3, #2
 1508 02d0 0268     		ldr	r2, [r0]
 1509 02d2 9446     		mov	ip, r2
 1510 02d4 6344     		add	r3, r3, ip
 1511 02d6 1A88     		ldrh	r2, [r3]
 1512 02d8 5204     		lsls	r2, r2, #17
 1513 02da 06D5     		bpl	.L69
 739:Drivers/STM32F0xx_HAL_Driver/Src/stm32f0xx_hal_pcd.c ****       PCD_CLEAR_TX_DTOG(hpcd->Instance, ep->num)
 1514              		.loc 1 739 7 discriminator 1 view .LVU337
 1515 02dc 1A88     		ldrh	r2, [r3]
 1516 02de 2149     		ldr	r1, .L73+16
ARM GAS  /tmp/cc8iG1bp.s 			page 43


 1517 02e0 1140     		ands	r1, r2
 1518 02e2 274A     		ldr	r2, .L73+44
 1519 02e4 0A43     		orrs	r2, r1
 1520 02e6 92B2     		uxth	r2, r2
 1521 02e8 1A80     		strh	r2, [r3]
 1522              	.L69:
 740:Drivers/STM32F0xx_HAL_Driver/Src/stm32f0xx_hal_pcd.c ****       PCD_RX_DTOG(hpcd->Instance, ep->num);
 1523              		.loc 1 740 7 view .LVU338
 1524 02ea 2378     		ldrb	r3, [r4]
 1525 02ec 9B00     		lsls	r3, r3, #2
 1526 02ee 0268     		ldr	r2, [r0]
 1527 02f0 9446     		mov	ip, r2
 1528 02f2 6344     		add	r3, r3, ip
 1529 02f4 1A88     		ldrh	r2, [r3]
 1530 02f6 5206     		lsls	r2, r2, #25
 1531 02f8 06D5     		bpl	.L70
 740:Drivers/STM32F0xx_HAL_Driver/Src/stm32f0xx_hal_pcd.c ****       PCD_RX_DTOG(hpcd->Instance, ep->num);
 1532              		.loc 1 740 7 discriminator 1 view .LVU339
 1533 02fa 1A88     		ldrh	r2, [r3]
 1534 02fc 1949     		ldr	r1, .L73+16
 1535 02fe 1140     		ands	r1, r2
 1536 0300 1A4A     		ldr	r2, .L73+24
 1537 0302 0A43     		orrs	r2, r1
 1538 0304 92B2     		uxth	r2, r2
 1539 0306 1A80     		strh	r2, [r3]
 1540              	.L70:
 741:Drivers/STM32F0xx_HAL_Driver/Src/stm32f0xx_hal_pcd.c ****       /* Configure DISABLE status for the Endpoint*/
 1541              		.loc 1 741 7 view .LVU340
 1542 0308 2278     		ldrb	r2, [r4]
 1543 030a 9200     		lsls	r2, r2, #2
 1544 030c 0368     		ldr	r3, [r0]
 1545 030e 9C46     		mov	ip, r3
 1546 0310 6244     		add	r2, r2, ip
 1547 0312 1388     		ldrh	r3, [r2]
 1548 0314 1349     		ldr	r1, .L73+16
 1549 0316 1940     		ands	r1, r3
 1550 0318 194B     		ldr	r3, .L73+44
 1551 031a 0B43     		orrs	r3, r1
 1552 031c 9BB2     		uxth	r3, r3
 1553 031e 1380     		strh	r3, [r2]
 1554              	.LBB10:
 743:Drivers/STM32F0xx_HAL_Driver/Src/stm32f0xx_hal_pcd.c ****       PCD_SET_EP_RX_STATUS(hpcd->Instance, ep->num, USB_EP_RX_DIS)
 1555              		.loc 1 743 7 view .LVU341
 743:Drivers/STM32F0xx_HAL_Driver/Src/stm32f0xx_hal_pcd.c ****       PCD_SET_EP_RX_STATUS(hpcd->Instance, ep->num, USB_EP_RX_DIS)
 1556              		.loc 1 743 7 view .LVU342
 1557 0320 2178     		ldrb	r1, [r4]
 1558 0322 8900     		lsls	r1, r1, #2
 1559 0324 0368     		ldr	r3, [r0]
 1560 0326 9C46     		mov	ip, r3
 1561 0328 6144     		add	r1, r1, ip
 1562 032a 0B88     		ldrh	r3, [r1]
 1563 032c 104A     		ldr	r2, .L73+28
 1564 032e 1340     		ands	r3, r2
 1565              	.LVL92:
 743:Drivers/STM32F0xx_HAL_Driver/Src/stm32f0xx_hal_pcd.c ****       PCD_SET_EP_RX_STATUS(hpcd->Instance, ep->num, USB_EP_RX_DIS)
 1566              		.loc 1 743 7 view .LVU343
 743:Drivers/STM32F0xx_HAL_Driver/Src/stm32f0xx_hal_pcd.c ****       PCD_SET_EP_RX_STATUS(hpcd->Instance, ep->num, USB_EP_RX_DIS)
ARM GAS  /tmp/cc8iG1bp.s 			page 44


 1567              		.loc 1 743 7 view .LVU344
 743:Drivers/STM32F0xx_HAL_Driver/Src/stm32f0xx_hal_pcd.c ****       PCD_SET_EP_RX_STATUS(hpcd->Instance, ep->num, USB_EP_RX_DIS)
 1568              		.loc 1 743 7 view .LVU345
 1569 0330 0D4A     		ldr	r2, .L73+20
 1570 0332 1343     		orrs	r3, r2
 1571              	.LVL93:
 743:Drivers/STM32F0xx_HAL_Driver/Src/stm32f0xx_hal_pcd.c ****       PCD_SET_EP_RX_STATUS(hpcd->Instance, ep->num, USB_EP_RX_DIS)
 1572              		.loc 1 743 7 is_stmt 0 view .LVU346
 1573 0334 9BB2     		uxth	r3, r3
 1574 0336 0B80     		strh	r3, [r1]
 1575              	.LBE10:
 1576              	.LBB11:
 744:Drivers/STM32F0xx_HAL_Driver/Src/stm32f0xx_hal_pcd.c ****     }
 1577              		.loc 1 744 7 is_stmt 1 view .LVU347
 744:Drivers/STM32F0xx_HAL_Driver/Src/stm32f0xx_hal_pcd.c ****     }
 1578              		.loc 1 744 7 view .LVU348
 1579 0338 2378     		ldrb	r3, [r4]
 1580 033a 9B00     		lsls	r3, r3, #2
 1581 033c 0168     		ldr	r1, [r0]
 1582 033e 8C46     		mov	ip, r1
 1583 0340 6344     		add	r3, r3, ip
 1584 0342 1988     		ldrh	r1, [r3]
 1585 0344 0F4C     		ldr	r4, .L73+48
 1586              	.LVL94:
 744:Drivers/STM32F0xx_HAL_Driver/Src/stm32f0xx_hal_pcd.c ****     }
 1587              		.loc 1 744 7 is_stmt 0 view .LVU349
 1588 0346 2140     		ands	r1, r4
 1589              	.LVL95:
 744:Drivers/STM32F0xx_HAL_Driver/Src/stm32f0xx_hal_pcd.c ****     }
 1590              		.loc 1 744 7 is_stmt 1 view .LVU350
 744:Drivers/STM32F0xx_HAL_Driver/Src/stm32f0xx_hal_pcd.c ****     }
 1591              		.loc 1 744 7 view .LVU351
 744:Drivers/STM32F0xx_HAL_Driver/Src/stm32f0xx_hal_pcd.c ****     }
 1592              		.loc 1 744 7 view .LVU352
 1593 0348 0A43     		orrs	r2, r1
 1594 034a 92B2     		uxth	r2, r2
 1595 034c 1A80     		strh	r2, [r3]
 1596 034e EEE6     		b	.L60
 1597              	.LVL96:
 1598              	.L71:
 744:Drivers/STM32F0xx_HAL_Driver/Src/stm32f0xx_hal_pcd.c ****     }
 1599              		.loc 1 744 7 is_stmt 0 view .LVU353
 1600              	.LBE11:
 672:Drivers/STM32F0xx_HAL_Driver/Src/stm32f0xx_hal_pcd.c **** 
 1601              		.loc 1 672 3 view .LVU354
 1602 0350 0220     		movs	r0, #2
 1603              	.LVL97:
 672:Drivers/STM32F0xx_HAL_Driver/Src/stm32f0xx_hal_pcd.c **** 
 1604              		.loc 1 672 3 view .LVU355
 1605 0352 F1E6     		b	.L50
 1606              	.L74:
 1607              		.align	2
 1608              	.L73:
 1609 0354 0F090000 		.word	2319
 1610 0358 8084FFFF 		.word	-31616
 1611 035c 8086FFFF 		.word	-31104
 1612 0360 8082FFFF 		.word	-32128
ARM GAS  /tmp/cc8iG1bp.s 			page 45


 1613 0364 0F0F0000 		.word	3855
 1614 0368 8080FFFF 		.word	-32640
 1615 036c C080FFFF 		.word	-32576
 1616 0370 BF8FFFFF 		.word	-28737
 1617 0374 04040000 		.word	1028
 1618 0378 06040000 		.word	1030
 1619 037c 0080FFFF 		.word	-32768
 1620 0380 80C0FFFF 		.word	-16256
 1621 0384 8FBFFFFF 		.word	-16497
 1622 0388 0F0E0000 		.word	3599
 1623 038c 8081FFFF 		.word	-32384
 1624              		.cfi_endproc
 1625              	.LFE58:
 1627              		.section	.text.HAL_PCD_EP_Close,"ax",%progbits
 1628              		.align	1
 1629              		.global	HAL_PCD_EP_Close
 1630              		.syntax unified
 1631              		.code	16
 1632              		.thumb_func
 1633              		.fpu softvfp
 1635              	HAL_PCD_EP_Close:
 1636              	.LVL98:
 1637              	.LFB59:
 751:Drivers/STM32F0xx_HAL_Driver/Src/stm32f0xx_hal_pcd.c **** 
 752:Drivers/STM32F0xx_HAL_Driver/Src/stm32f0xx_hal_pcd.c **** 
 753:Drivers/STM32F0xx_HAL_Driver/Src/stm32f0xx_hal_pcd.c **** /**
 754:Drivers/STM32F0xx_HAL_Driver/Src/stm32f0xx_hal_pcd.c ****   * @brief  Deactivate an endpoint
 755:Drivers/STM32F0xx_HAL_Driver/Src/stm32f0xx_hal_pcd.c ****   * @param  hpcd PCD handle
 756:Drivers/STM32F0xx_HAL_Driver/Src/stm32f0xx_hal_pcd.c ****   * @param  ep_addr endpoint address
 757:Drivers/STM32F0xx_HAL_Driver/Src/stm32f0xx_hal_pcd.c ****   * @retval HAL status
 758:Drivers/STM32F0xx_HAL_Driver/Src/stm32f0xx_hal_pcd.c ****   */
 759:Drivers/STM32F0xx_HAL_Driver/Src/stm32f0xx_hal_pcd.c **** HAL_StatusTypeDef HAL_PCD_EP_Close(PCD_HandleTypeDef *hpcd, uint8_t ep_addr)
 760:Drivers/STM32F0xx_HAL_Driver/Src/stm32f0xx_hal_pcd.c **** {  
 1638              		.loc 1 760 1 is_stmt 1 view -0
 1639              		.cfi_startproc
 1640              		@ args = 0, pretend = 0, frame = 0
 1641              		@ frame_needed = 0, uses_anonymous_args = 0
 1642              		.loc 1 760 1 is_stmt 0 view .LVU357
 1643 0000 10B5     		push	{r4, lr}
 1644              	.LCFI6:
 1645              		.cfi_def_cfa_offset 8
 1646              		.cfi_offset 4, -8
 1647              		.cfi_offset 14, -4
 1648 0002 0C00     		movs	r4, r1
 761:Drivers/STM32F0xx_HAL_Driver/Src/stm32f0xx_hal_pcd.c ****   PCD_EPTypeDef *ep;
 1649              		.loc 1 761 3 is_stmt 1 view .LVU358
 762:Drivers/STM32F0xx_HAL_Driver/Src/stm32f0xx_hal_pcd.c ****   
 763:Drivers/STM32F0xx_HAL_Driver/Src/stm32f0xx_hal_pcd.c ****   if ((ep_addr & 0x80U) == 0x80U)
 1650              		.loc 1 763 3 view .LVU359
 1651              		.loc 1 763 25 is_stmt 0 view .LVU360
 1652 0004 4AB2     		sxtb	r2, r1
 1653              		.loc 1 763 6 view .LVU361
 1654 0006 002A     		cmp	r2, #0
 1655 0008 3DDB     		blt	.L90
 764:Drivers/STM32F0xx_HAL_Driver/Src/stm32f0xx_hal_pcd.c ****   {
 765:Drivers/STM32F0xx_HAL_Driver/Src/stm32f0xx_hal_pcd.c ****     ep = &hpcd->IN_ep[ep_addr & 0x7FU];
 766:Drivers/STM32F0xx_HAL_Driver/Src/stm32f0xx_hal_pcd.c ****   }
ARM GAS  /tmp/cc8iG1bp.s 			page 46


 767:Drivers/STM32F0xx_HAL_Driver/Src/stm32f0xx_hal_pcd.c ****   else
 768:Drivers/STM32F0xx_HAL_Driver/Src/stm32f0xx_hal_pcd.c ****   {
 769:Drivers/STM32F0xx_HAL_Driver/Src/stm32f0xx_hal_pcd.c ****     ep = &hpcd->OUT_ep[ep_addr & 0x7FU];
 1656              		.loc 1 769 5 is_stmt 1 view .LVU362
 1657              		.loc 1 769 32 is_stmt 0 view .LVU363
 1658 000a 7F21     		movs	r1, #127
 1659              	.LVL99:
 1660              		.loc 1 769 32 view .LVU364
 1661 000c 2140     		ands	r1, r4
 1662              		.loc 1 769 8 view .LVU365
 1663 000e CB00     		lsls	r3, r1, #3
 1664 0010 5B1A     		subs	r3, r3, r1
 1665 0012 9B00     		lsls	r3, r3, #2
 1666 0014 0933     		adds	r3, r3, #9
 1667 0016 FF33     		adds	r3, r3, #255
 1668 0018 C318     		adds	r3, r0, r3
 1669              	.LVL100:
 1670              	.L77:
 770:Drivers/STM32F0xx_HAL_Driver/Src/stm32f0xx_hal_pcd.c ****   }
 771:Drivers/STM32F0xx_HAL_Driver/Src/stm32f0xx_hal_pcd.c ****   ep->num   = ep_addr & 0x7FU;
 1671              		.loc 1 771 3 is_stmt 1 view .LVU366
 1672              		.loc 1 771 23 is_stmt 0 view .LVU367
 1673 001a 7F21     		movs	r1, #127
 1674 001c 2140     		ands	r1, r4
 1675              		.loc 1 771 13 view .LVU368
 1676 001e 1970     		strb	r1, [r3]
 772:Drivers/STM32F0xx_HAL_Driver/Src/stm32f0xx_hal_pcd.c ****   
 773:Drivers/STM32F0xx_HAL_Driver/Src/stm32f0xx_hal_pcd.c ****   ep->is_in = (0x80U & ep_addr) != 0U;
 1677              		.loc 1 773 3 is_stmt 1 view .LVU369
 1678              		.loc 1 773 33 is_stmt 0 view .LVU370
 1679 0020 D20F     		lsrs	r2, r2, #31
 1680              	.LVL101:
 1681              		.loc 1 773 13 view .LVU371
 1682 0022 5A70     		strb	r2, [r3, #1]
 774:Drivers/STM32F0xx_HAL_Driver/Src/stm32f0xx_hal_pcd.c ****   
 775:Drivers/STM32F0xx_HAL_Driver/Src/stm32f0xx_hal_pcd.c ****   __HAL_LOCK(hpcd); 
 1683              		.loc 1 775 3 is_stmt 1 view .LVU372
 1684              		.loc 1 775 3 view .LVU373
 1685 0024 F422     		movs	r2, #244
 1686 0026 5200     		lsls	r2, r2, #1
 1687 0028 825C     		ldrb	r2, [r0, r2]
 1688 002a 012A     		cmp	r2, #1
 1689 002c 00D1     		bne	.LCB1597
 1690 002e D5E0     		b	.L89	@long jump
 1691              	.LCB1597:
 1692              		.loc 1 775 3 discriminator 2 view .LVU374
 1693 0030 F422     		movs	r2, #244
 1694 0032 5200     		lsls	r2, r2, #1
 1695 0034 0121     		movs	r1, #1
 1696 0036 8154     		strb	r1, [r0, r2]
 1697              		.loc 1 775 3 discriminator 2 view .LVU375
 776:Drivers/STM32F0xx_HAL_Driver/Src/stm32f0xx_hal_pcd.c **** 
 777:Drivers/STM32F0xx_HAL_Driver/Src/stm32f0xx_hal_pcd.c ****   if (ep->doublebuffer == 0U) 
 1698              		.loc 1 777 3 discriminator 2 view .LVU376
 1699              		.loc 1 777 9 is_stmt 0 discriminator 2 view .LVU377
 1700 0038 9A7A     		ldrb	r2, [r3, #10]
 1701              		.loc 1 777 6 discriminator 2 view .LVU378
ARM GAS  /tmp/cc8iG1bp.s 			page 47


 1702 003a 002A     		cmp	r2, #0
 1703 003c 47D1     		bne	.L79
 778:Drivers/STM32F0xx_HAL_Driver/Src/stm32f0xx_hal_pcd.c ****   {
 779:Drivers/STM32F0xx_HAL_Driver/Src/stm32f0xx_hal_pcd.c ****     if (ep->is_in)
 1704              		.loc 1 779 5 is_stmt 1 view .LVU379
 1705              		.loc 1 779 11 is_stmt 0 view .LVU380
 1706 003e 5A78     		ldrb	r2, [r3, #1]
 1707              		.loc 1 779 8 view .LVU381
 1708 0040 002A     		cmp	r2, #0
 1709 0042 28D0     		beq	.L80
 780:Drivers/STM32F0xx_HAL_Driver/Src/stm32f0xx_hal_pcd.c ****     {
 781:Drivers/STM32F0xx_HAL_Driver/Src/stm32f0xx_hal_pcd.c ****       PCD_CLEAR_TX_DTOG(hpcd->Instance, ep->num)
 1710              		.loc 1 781 7 is_stmt 1 view .LVU382
 1711 0044 1A78     		ldrb	r2, [r3]
 1712 0046 9200     		lsls	r2, r2, #2
 1713 0048 0168     		ldr	r1, [r0]
 1714 004a 8C46     		mov	ip, r1
 1715 004c 6244     		add	r2, r2, ip
 1716 004e 1188     		ldrh	r1, [r2]
 1717 0050 4906     		lsls	r1, r1, #25
 1718 0052 06D5     		bpl	.L81
 1719              		.loc 1 781 7 discriminator 1 view .LVU383
 1720 0054 1188     		ldrh	r1, [r2]
 1721 0056 624C     		ldr	r4, .L91
 1722 0058 0C40     		ands	r4, r1
 1723 005a 6249     		ldr	r1, .L91+4
 1724 005c 2143     		orrs	r1, r4
 1725 005e 89B2     		uxth	r1, r1
 1726 0060 1180     		strh	r1, [r2]
 1727              	.L81:
 1728              	.LBB12:
 782:Drivers/STM32F0xx_HAL_Driver/Src/stm32f0xx_hal_pcd.c ****       /* Configure DISABLE status for the Endpoint*/
 783:Drivers/STM32F0xx_HAL_Driver/Src/stm32f0xx_hal_pcd.c ****       PCD_SET_EP_TX_STATUS(hpcd->Instance, ep->num, USB_EP_TX_DIS)
 1729              		.loc 1 783 7 view .LVU384
 1730              		.loc 1 783 7 view .LVU385
 1731 0062 1A78     		ldrb	r2, [r3]
 1732 0064 9200     		lsls	r2, r2, #2
 1733 0066 0368     		ldr	r3, [r0]
 1734              	.LVL102:
 1735              		.loc 1 783 7 is_stmt 0 view .LVU386
 1736 0068 9C46     		mov	ip, r3
 1737 006a 6244     		add	r2, r2, ip
 1738 006c 1388     		ldrh	r3, [r2]
 1739 006e 5E49     		ldr	r1, .L91+8
 1740 0070 1940     		ands	r1, r3
 1741              	.LVL103:
 1742              		.loc 1 783 7 is_stmt 1 view .LVU387
 1743              		.loc 1 783 7 view .LVU388
 1744              		.loc 1 783 7 view .LVU389
 1745 0072 5E4B     		ldr	r3, .L91+12
 1746 0074 0B43     		orrs	r3, r1
 1747 0076 9BB2     		uxth	r3, r3
 1748 0078 1380     		strh	r3, [r2]
 1749              	.LVL104:
 1750              	.L82:
 1751              		.loc 1 783 7 is_stmt 0 view .LVU390
 1752              	.LBE12:
ARM GAS  /tmp/cc8iG1bp.s 			page 48


 784:Drivers/STM32F0xx_HAL_Driver/Src/stm32f0xx_hal_pcd.c ****     }
 785:Drivers/STM32F0xx_HAL_Driver/Src/stm32f0xx_hal_pcd.c ****     else
 786:Drivers/STM32F0xx_HAL_Driver/Src/stm32f0xx_hal_pcd.c ****     {
 787:Drivers/STM32F0xx_HAL_Driver/Src/stm32f0xx_hal_pcd.c ****       PCD_CLEAR_RX_DTOG(hpcd->Instance, ep->num)
 788:Drivers/STM32F0xx_HAL_Driver/Src/stm32f0xx_hal_pcd.c ****       /* Configure DISABLE status for the Endpoint*/
 789:Drivers/STM32F0xx_HAL_Driver/Src/stm32f0xx_hal_pcd.c ****       PCD_SET_EP_RX_STATUS(hpcd->Instance, ep->num, USB_EP_RX_DIS)
 790:Drivers/STM32F0xx_HAL_Driver/Src/stm32f0xx_hal_pcd.c ****     }
 791:Drivers/STM32F0xx_HAL_Driver/Src/stm32f0xx_hal_pcd.c ****   }
 792:Drivers/STM32F0xx_HAL_Driver/Src/stm32f0xx_hal_pcd.c ****   /*Double Buffer*/
 793:Drivers/STM32F0xx_HAL_Driver/Src/stm32f0xx_hal_pcd.c ****   else
 794:Drivers/STM32F0xx_HAL_Driver/Src/stm32f0xx_hal_pcd.c ****   { 
 795:Drivers/STM32F0xx_HAL_Driver/Src/stm32f0xx_hal_pcd.c ****     if (ep->is_in==0U)
 796:Drivers/STM32F0xx_HAL_Driver/Src/stm32f0xx_hal_pcd.c ****     {
 797:Drivers/STM32F0xx_HAL_Driver/Src/stm32f0xx_hal_pcd.c ****       /* Clear the data toggle bits for the endpoint IN/OUT*/
 798:Drivers/STM32F0xx_HAL_Driver/Src/stm32f0xx_hal_pcd.c ****       PCD_CLEAR_RX_DTOG(hpcd->Instance, ep->num)
 799:Drivers/STM32F0xx_HAL_Driver/Src/stm32f0xx_hal_pcd.c ****       PCD_CLEAR_TX_DTOG(hpcd->Instance, ep->num)
 800:Drivers/STM32F0xx_HAL_Driver/Src/stm32f0xx_hal_pcd.c ****       
 801:Drivers/STM32F0xx_HAL_Driver/Src/stm32f0xx_hal_pcd.c ****       /* Reset value of the data toggle bits for the endpoint out*/
 802:Drivers/STM32F0xx_HAL_Driver/Src/stm32f0xx_hal_pcd.c ****       PCD_TX_DTOG(hpcd->Instance, ep->num);
 803:Drivers/STM32F0xx_HAL_Driver/Src/stm32f0xx_hal_pcd.c ****       
 804:Drivers/STM32F0xx_HAL_Driver/Src/stm32f0xx_hal_pcd.c ****       PCD_SET_EP_RX_STATUS(hpcd->Instance, ep->num, USB_EP_RX_DIS)
 805:Drivers/STM32F0xx_HAL_Driver/Src/stm32f0xx_hal_pcd.c ****       PCD_SET_EP_TX_STATUS(hpcd->Instance, ep->num, USB_EP_TX_DIS)
 806:Drivers/STM32F0xx_HAL_Driver/Src/stm32f0xx_hal_pcd.c ****     }
 807:Drivers/STM32F0xx_HAL_Driver/Src/stm32f0xx_hal_pcd.c ****     else
 808:Drivers/STM32F0xx_HAL_Driver/Src/stm32f0xx_hal_pcd.c ****     {
 809:Drivers/STM32F0xx_HAL_Driver/Src/stm32f0xx_hal_pcd.c ****       /* Clear the data toggle bits for the endpoint IN/OUT*/
 810:Drivers/STM32F0xx_HAL_Driver/Src/stm32f0xx_hal_pcd.c ****       PCD_CLEAR_RX_DTOG(hpcd->Instance, ep->num)
 811:Drivers/STM32F0xx_HAL_Driver/Src/stm32f0xx_hal_pcd.c ****       PCD_CLEAR_TX_DTOG(hpcd->Instance, ep->num)
 812:Drivers/STM32F0xx_HAL_Driver/Src/stm32f0xx_hal_pcd.c ****       PCD_RX_DTOG(hpcd->Instance, ep->num);
 813:Drivers/STM32F0xx_HAL_Driver/Src/stm32f0xx_hal_pcd.c ****       /* Configure DISABLE status for the Endpoint*/
 814:Drivers/STM32F0xx_HAL_Driver/Src/stm32f0xx_hal_pcd.c ****       PCD_SET_EP_TX_STATUS(hpcd->Instance, ep->num, USB_EP_TX_DIS)
 815:Drivers/STM32F0xx_HAL_Driver/Src/stm32f0xx_hal_pcd.c ****       PCD_SET_EP_RX_STATUS(hpcd->Instance, ep->num, USB_EP_RX_DIS)
 816:Drivers/STM32F0xx_HAL_Driver/Src/stm32f0xx_hal_pcd.c ****     }
 817:Drivers/STM32F0xx_HAL_Driver/Src/stm32f0xx_hal_pcd.c ****   } 
 818:Drivers/STM32F0xx_HAL_Driver/Src/stm32f0xx_hal_pcd.c ****   
 819:Drivers/STM32F0xx_HAL_Driver/Src/stm32f0xx_hal_pcd.c ****   __HAL_UNLOCK(hpcd);   
 1753              		.loc 1 819 3 is_stmt 1 view .LVU391
 1754              		.loc 1 819 3 view .LVU392
 1755 007a F423     		movs	r3, #244
 1756 007c 5B00     		lsls	r3, r3, #1
 1757 007e 0022     		movs	r2, #0
 1758 0080 C254     		strb	r2, [r0, r3]
 1759              		.loc 1 819 3 view .LVU393
 820:Drivers/STM32F0xx_HAL_Driver/Src/stm32f0xx_hal_pcd.c ****   return HAL_OK;
 1760              		.loc 1 820 3 view .LVU394
 1761              		.loc 1 820 10 is_stmt 0 view .LVU395
 1762 0082 0020     		movs	r0, #0
 1763              	.LVL105:
 1764              	.L78:
 821:Drivers/STM32F0xx_HAL_Driver/Src/stm32f0xx_hal_pcd.c **** }
 1765              		.loc 1 821 1 view .LVU396
 1766              		@ sp needed
 1767 0084 10BD     		pop	{r4, pc}
 1768              	.LVL106:
 1769              	.L90:
 765:Drivers/STM32F0xx_HAL_Driver/Src/stm32f0xx_hal_pcd.c ****   }
 1770              		.loc 1 765 5 is_stmt 1 view .LVU397
ARM GAS  /tmp/cc8iG1bp.s 			page 49


 765:Drivers/STM32F0xx_HAL_Driver/Src/stm32f0xx_hal_pcd.c ****   }
 1771              		.loc 1 765 31 is_stmt 0 view .LVU398
 1772 0086 7F21     		movs	r1, #127
 1773              	.LVL107:
 765:Drivers/STM32F0xx_HAL_Driver/Src/stm32f0xx_hal_pcd.c ****   }
 1774              		.loc 1 765 31 view .LVU399
 1775 0088 2140     		ands	r1, r4
 765:Drivers/STM32F0xx_HAL_Driver/Src/stm32f0xx_hal_pcd.c ****   }
 1776              		.loc 1 765 8 view .LVU400
 1777 008a CB00     		lsls	r3, r1, #3
 1778 008c 5B1A     		subs	r3, r3, r1
 1779 008e 9B00     		lsls	r3, r3, #2
 1780 0090 2833     		adds	r3, r3, #40
 1781 0092 C318     		adds	r3, r0, r3
 1782              	.LVL108:
 765:Drivers/STM32F0xx_HAL_Driver/Src/stm32f0xx_hal_pcd.c ****   }
 1783              		.loc 1 765 8 view .LVU401
 1784 0094 C1E7     		b	.L77
 1785              	.LVL109:
 1786              	.L80:
 787:Drivers/STM32F0xx_HAL_Driver/Src/stm32f0xx_hal_pcd.c ****       /* Configure DISABLE status for the Endpoint*/
 1787              		.loc 1 787 7 is_stmt 1 view .LVU402
 1788 0096 1A78     		ldrb	r2, [r3]
 1789 0098 9200     		lsls	r2, r2, #2
 1790 009a 0168     		ldr	r1, [r0]
 1791 009c 8C46     		mov	ip, r1
 1792 009e 6244     		add	r2, r2, ip
 1793 00a0 1188     		ldrh	r1, [r2]
 1794 00a2 4904     		lsls	r1, r1, #17
 1795 00a4 06D5     		bpl	.L83
 787:Drivers/STM32F0xx_HAL_Driver/Src/stm32f0xx_hal_pcd.c ****       /* Configure DISABLE status for the Endpoint*/
 1796              		.loc 1 787 7 discriminator 1 view .LVU403
 1797 00a6 1188     		ldrh	r1, [r2]
 1798 00a8 4D4C     		ldr	r4, .L91
 1799 00aa 0C40     		ands	r4, r1
 1800 00ac 5049     		ldr	r1, .L91+16
 1801 00ae 2143     		orrs	r1, r4
 1802 00b0 89B2     		uxth	r1, r1
 1803 00b2 1180     		strh	r1, [r2]
 1804              	.L83:
 1805              	.LBB13:
 789:Drivers/STM32F0xx_HAL_Driver/Src/stm32f0xx_hal_pcd.c ****     }
 1806              		.loc 1 789 7 view .LVU404
 789:Drivers/STM32F0xx_HAL_Driver/Src/stm32f0xx_hal_pcd.c ****     }
 1807              		.loc 1 789 7 view .LVU405
 1808 00b4 1A78     		ldrb	r2, [r3]
 1809 00b6 9200     		lsls	r2, r2, #2
 1810 00b8 0368     		ldr	r3, [r0]
 1811              	.LVL110:
 789:Drivers/STM32F0xx_HAL_Driver/Src/stm32f0xx_hal_pcd.c ****     }
 1812              		.loc 1 789 7 is_stmt 0 view .LVU406
 1813 00ba 9C46     		mov	ip, r3
 1814 00bc 6244     		add	r2, r2, ip
 1815 00be 1388     		ldrh	r3, [r2]
 1816 00c0 4C49     		ldr	r1, .L91+20
 1817 00c2 1940     		ands	r1, r3
 1818              	.LVL111:
ARM GAS  /tmp/cc8iG1bp.s 			page 50


 789:Drivers/STM32F0xx_HAL_Driver/Src/stm32f0xx_hal_pcd.c ****     }
 1819              		.loc 1 789 7 is_stmt 1 view .LVU407
 789:Drivers/STM32F0xx_HAL_Driver/Src/stm32f0xx_hal_pcd.c ****     }
 1820              		.loc 1 789 7 view .LVU408
 789:Drivers/STM32F0xx_HAL_Driver/Src/stm32f0xx_hal_pcd.c ****     }
 1821              		.loc 1 789 7 view .LVU409
 1822 00c4 494B     		ldr	r3, .L91+12
 1823 00c6 0B43     		orrs	r3, r1
 1824 00c8 9BB2     		uxth	r3, r3
 1825 00ca 1380     		strh	r3, [r2]
 1826 00cc D5E7     		b	.L82
 1827              	.LVL112:
 1828              	.L79:
 789:Drivers/STM32F0xx_HAL_Driver/Src/stm32f0xx_hal_pcd.c ****     }
 1829              		.loc 1 789 7 is_stmt 0 view .LVU410
 1830              	.LBE13:
 795:Drivers/STM32F0xx_HAL_Driver/Src/stm32f0xx_hal_pcd.c ****     {
 1831              		.loc 1 795 5 is_stmt 1 view .LVU411
 795:Drivers/STM32F0xx_HAL_Driver/Src/stm32f0xx_hal_pcd.c ****     {
 1832              		.loc 1 795 11 is_stmt 0 view .LVU412
 1833 00ce 5A78     		ldrb	r2, [r3, #1]
 795:Drivers/STM32F0xx_HAL_Driver/Src/stm32f0xx_hal_pcd.c ****     {
 1834              		.loc 1 795 8 view .LVU413
 1835 00d0 002A     		cmp	r2, #0
 1836 00d2 41D1     		bne	.L84
 798:Drivers/STM32F0xx_HAL_Driver/Src/stm32f0xx_hal_pcd.c ****       PCD_CLEAR_TX_DTOG(hpcd->Instance, ep->num)
 1837              		.loc 1 798 7 is_stmt 1 view .LVU414
 1838 00d4 1A78     		ldrb	r2, [r3]
 1839 00d6 9200     		lsls	r2, r2, #2
 1840 00d8 0168     		ldr	r1, [r0]
 1841 00da 8C46     		mov	ip, r1
 1842 00dc 6244     		add	r2, r2, ip
 1843 00de 1188     		ldrh	r1, [r2]
 1844 00e0 4904     		lsls	r1, r1, #17
 1845 00e2 06D5     		bpl	.L85
 798:Drivers/STM32F0xx_HAL_Driver/Src/stm32f0xx_hal_pcd.c ****       PCD_CLEAR_TX_DTOG(hpcd->Instance, ep->num)
 1846              		.loc 1 798 7 discriminator 1 view .LVU415
 1847 00e4 1188     		ldrh	r1, [r2]
 1848 00e6 3E4C     		ldr	r4, .L91
 1849 00e8 0C40     		ands	r4, r1
 1850 00ea 4149     		ldr	r1, .L91+16
 1851 00ec 2143     		orrs	r1, r4
 1852 00ee 89B2     		uxth	r1, r1
 1853 00f0 1180     		strh	r1, [r2]
 1854              	.L85:
 799:Drivers/STM32F0xx_HAL_Driver/Src/stm32f0xx_hal_pcd.c ****       
 1855              		.loc 1 799 7 view .LVU416
 1856 00f2 1A78     		ldrb	r2, [r3]
 1857 00f4 9200     		lsls	r2, r2, #2
 1858 00f6 0168     		ldr	r1, [r0]
 1859 00f8 8C46     		mov	ip, r1
 1860 00fa 6244     		add	r2, r2, ip
 1861 00fc 1188     		ldrh	r1, [r2]
 1862 00fe 4906     		lsls	r1, r1, #25
 1863 0100 06D5     		bpl	.L86
 799:Drivers/STM32F0xx_HAL_Driver/Src/stm32f0xx_hal_pcd.c ****       
 1864              		.loc 1 799 7 discriminator 1 view .LVU417
ARM GAS  /tmp/cc8iG1bp.s 			page 51


 1865 0102 1188     		ldrh	r1, [r2]
 1866 0104 364C     		ldr	r4, .L91
 1867 0106 0C40     		ands	r4, r1
 1868 0108 3649     		ldr	r1, .L91+4
 1869 010a 2143     		orrs	r1, r4
 1870 010c 89B2     		uxth	r1, r1
 1871 010e 1180     		strh	r1, [r2]
 1872              	.L86:
 802:Drivers/STM32F0xx_HAL_Driver/Src/stm32f0xx_hal_pcd.c ****       
 1873              		.loc 1 802 7 view .LVU418
 1874 0110 1978     		ldrb	r1, [r3]
 1875 0112 8900     		lsls	r1, r1, #2
 1876 0114 0268     		ldr	r2, [r0]
 1877 0116 9446     		mov	ip, r2
 1878 0118 6144     		add	r1, r1, ip
 1879 011a 0A88     		ldrh	r2, [r1]
 1880 011c 304C     		ldr	r4, .L91
 1881 011e 1440     		ands	r4, r2
 1882 0120 304A     		ldr	r2, .L91+4
 1883 0122 2243     		orrs	r2, r4
 1884 0124 92B2     		uxth	r2, r2
 1885 0126 0A80     		strh	r2, [r1]
 1886              	.LBB14:
 804:Drivers/STM32F0xx_HAL_Driver/Src/stm32f0xx_hal_pcd.c ****       PCD_SET_EP_TX_STATUS(hpcd->Instance, ep->num, USB_EP_TX_DIS)
 1887              		.loc 1 804 7 view .LVU419
 804:Drivers/STM32F0xx_HAL_Driver/Src/stm32f0xx_hal_pcd.c ****       PCD_SET_EP_TX_STATUS(hpcd->Instance, ep->num, USB_EP_TX_DIS)
 1888              		.loc 1 804 7 view .LVU420
 1889 0128 1C78     		ldrb	r4, [r3]
 1890 012a A400     		lsls	r4, r4, #2
 1891 012c 0268     		ldr	r2, [r0]
 1892 012e 9446     		mov	ip, r2
 1893 0130 6444     		add	r4, r4, ip
 1894 0132 2288     		ldrh	r2, [r4]
 1895 0134 2F49     		ldr	r1, .L91+20
 1896 0136 0A40     		ands	r2, r1
 1897              	.LVL113:
 804:Drivers/STM32F0xx_HAL_Driver/Src/stm32f0xx_hal_pcd.c ****       PCD_SET_EP_TX_STATUS(hpcd->Instance, ep->num, USB_EP_TX_DIS)
 1898              		.loc 1 804 7 view .LVU421
 804:Drivers/STM32F0xx_HAL_Driver/Src/stm32f0xx_hal_pcd.c ****       PCD_SET_EP_TX_STATUS(hpcd->Instance, ep->num, USB_EP_TX_DIS)
 1899              		.loc 1 804 7 view .LVU422
 804:Drivers/STM32F0xx_HAL_Driver/Src/stm32f0xx_hal_pcd.c ****       PCD_SET_EP_TX_STATUS(hpcd->Instance, ep->num, USB_EP_TX_DIS)
 1900              		.loc 1 804 7 view .LVU423
 1901 0138 2C49     		ldr	r1, .L91+12
 1902 013a 0A43     		orrs	r2, r1
 1903              	.LVL114:
 804:Drivers/STM32F0xx_HAL_Driver/Src/stm32f0xx_hal_pcd.c ****       PCD_SET_EP_TX_STATUS(hpcd->Instance, ep->num, USB_EP_TX_DIS)
 1904              		.loc 1 804 7 is_stmt 0 view .LVU424
 1905 013c 92B2     		uxth	r2, r2
 1906 013e 2280     		strh	r2, [r4]
 1907              	.LBE14:
 1908              	.LBB15:
 805:Drivers/STM32F0xx_HAL_Driver/Src/stm32f0xx_hal_pcd.c ****     }
 1909              		.loc 1 805 7 is_stmt 1 view .LVU425
 805:Drivers/STM32F0xx_HAL_Driver/Src/stm32f0xx_hal_pcd.c ****     }
 1910              		.loc 1 805 7 view .LVU426
 1911 0140 1B78     		ldrb	r3, [r3]
 1912              	.LVL115:
ARM GAS  /tmp/cc8iG1bp.s 			page 52


 805:Drivers/STM32F0xx_HAL_Driver/Src/stm32f0xx_hal_pcd.c ****     }
 1913              		.loc 1 805 7 is_stmt 0 view .LVU427
 1914 0142 9B00     		lsls	r3, r3, #2
 1915 0144 0268     		ldr	r2, [r0]
 1916 0146 9446     		mov	ip, r2
 1917 0148 6344     		add	r3, r3, ip
 1918 014a 1A88     		ldrh	r2, [r3]
 1919 014c 264C     		ldr	r4, .L91+8
 1920 014e 2240     		ands	r2, r4
 1921              	.LVL116:
 805:Drivers/STM32F0xx_HAL_Driver/Src/stm32f0xx_hal_pcd.c ****     }
 1922              		.loc 1 805 7 is_stmt 1 view .LVU428
 805:Drivers/STM32F0xx_HAL_Driver/Src/stm32f0xx_hal_pcd.c ****     }
 1923              		.loc 1 805 7 view .LVU429
 805:Drivers/STM32F0xx_HAL_Driver/Src/stm32f0xx_hal_pcd.c ****     }
 1924              		.loc 1 805 7 view .LVU430
 1925 0150 1143     		orrs	r1, r2
 1926 0152 89B2     		uxth	r1, r1
 1927 0154 1980     		strh	r1, [r3]
 1928              	.LBE15:
 1929 0156 90E7     		b	.L82
 1930              	.LVL117:
 1931              	.L84:
 810:Drivers/STM32F0xx_HAL_Driver/Src/stm32f0xx_hal_pcd.c ****       PCD_CLEAR_TX_DTOG(hpcd->Instance, ep->num)
 1932              		.loc 1 810 7 view .LVU431
 1933 0158 1A78     		ldrb	r2, [r3]
 1934 015a 9200     		lsls	r2, r2, #2
 1935 015c 0168     		ldr	r1, [r0]
 1936 015e 8C46     		mov	ip, r1
 1937 0160 6244     		add	r2, r2, ip
 1938 0162 1188     		ldrh	r1, [r2]
 1939 0164 4904     		lsls	r1, r1, #17
 1940 0166 06D5     		bpl	.L87
 810:Drivers/STM32F0xx_HAL_Driver/Src/stm32f0xx_hal_pcd.c ****       PCD_CLEAR_TX_DTOG(hpcd->Instance, ep->num)
 1941              		.loc 1 810 7 discriminator 1 view .LVU432
 1942 0168 1188     		ldrh	r1, [r2]
 1943 016a 1D4C     		ldr	r4, .L91
 1944 016c 0C40     		ands	r4, r1
 1945 016e 2049     		ldr	r1, .L91+16
 1946 0170 2143     		orrs	r1, r4
 1947 0172 89B2     		uxth	r1, r1
 1948 0174 1180     		strh	r1, [r2]
 1949              	.L87:
 811:Drivers/STM32F0xx_HAL_Driver/Src/stm32f0xx_hal_pcd.c ****       PCD_RX_DTOG(hpcd->Instance, ep->num);
 1950              		.loc 1 811 7 view .LVU433
 1951 0176 1A78     		ldrb	r2, [r3]
 1952 0178 9200     		lsls	r2, r2, #2
 1953 017a 0168     		ldr	r1, [r0]
 1954 017c 8C46     		mov	ip, r1
 1955 017e 6244     		add	r2, r2, ip
 1956 0180 1188     		ldrh	r1, [r2]
 1957 0182 4906     		lsls	r1, r1, #25
 1958 0184 06D5     		bpl	.L88
 811:Drivers/STM32F0xx_HAL_Driver/Src/stm32f0xx_hal_pcd.c ****       PCD_RX_DTOG(hpcd->Instance, ep->num);
 1959              		.loc 1 811 7 discriminator 1 view .LVU434
 1960 0186 1188     		ldrh	r1, [r2]
 1961 0188 154C     		ldr	r4, .L91
ARM GAS  /tmp/cc8iG1bp.s 			page 53


 1962 018a 0C40     		ands	r4, r1
 1963 018c 1549     		ldr	r1, .L91+4
 1964 018e 2143     		orrs	r1, r4
 1965 0190 89B2     		uxth	r1, r1
 1966 0192 1180     		strh	r1, [r2]
 1967              	.L88:
 812:Drivers/STM32F0xx_HAL_Driver/Src/stm32f0xx_hal_pcd.c ****       /* Configure DISABLE status for the Endpoint*/
 1968              		.loc 1 812 7 view .LVU435
 1969 0194 1978     		ldrb	r1, [r3]
 1970 0196 8900     		lsls	r1, r1, #2
 1971 0198 0268     		ldr	r2, [r0]
 1972 019a 9446     		mov	ip, r2
 1973 019c 6144     		add	r1, r1, ip
 1974 019e 0A88     		ldrh	r2, [r1]
 1975 01a0 0F4C     		ldr	r4, .L91
 1976 01a2 1440     		ands	r4, r2
 1977 01a4 124A     		ldr	r2, .L91+16
 1978 01a6 2243     		orrs	r2, r4
 1979 01a8 92B2     		uxth	r2, r2
 1980 01aa 0A80     		strh	r2, [r1]
 1981              	.LBB16:
 814:Drivers/STM32F0xx_HAL_Driver/Src/stm32f0xx_hal_pcd.c ****       PCD_SET_EP_RX_STATUS(hpcd->Instance, ep->num, USB_EP_RX_DIS)
 1982              		.loc 1 814 7 view .LVU436
 814:Drivers/STM32F0xx_HAL_Driver/Src/stm32f0xx_hal_pcd.c ****       PCD_SET_EP_RX_STATUS(hpcd->Instance, ep->num, USB_EP_RX_DIS)
 1983              		.loc 1 814 7 view .LVU437
 1984 01ac 1C78     		ldrb	r4, [r3]
 1985 01ae A400     		lsls	r4, r4, #2
 1986 01b0 0268     		ldr	r2, [r0]
 1987 01b2 9446     		mov	ip, r2
 1988 01b4 6444     		add	r4, r4, ip
 1989 01b6 2288     		ldrh	r2, [r4]
 1990 01b8 0B49     		ldr	r1, .L91+8
 1991 01ba 0A40     		ands	r2, r1
 1992              	.LVL118:
 814:Drivers/STM32F0xx_HAL_Driver/Src/stm32f0xx_hal_pcd.c ****       PCD_SET_EP_RX_STATUS(hpcd->Instance, ep->num, USB_EP_RX_DIS)
 1993              		.loc 1 814 7 view .LVU438
 814:Drivers/STM32F0xx_HAL_Driver/Src/stm32f0xx_hal_pcd.c ****       PCD_SET_EP_RX_STATUS(hpcd->Instance, ep->num, USB_EP_RX_DIS)
 1994              		.loc 1 814 7 view .LVU439
 814:Drivers/STM32F0xx_HAL_Driver/Src/stm32f0xx_hal_pcd.c ****       PCD_SET_EP_RX_STATUS(hpcd->Instance, ep->num, USB_EP_RX_DIS)
 1995              		.loc 1 814 7 view .LVU440
 1996 01bc 0B49     		ldr	r1, .L91+12
 1997 01be 0A43     		orrs	r2, r1
 1998              	.LVL119:
 814:Drivers/STM32F0xx_HAL_Driver/Src/stm32f0xx_hal_pcd.c ****       PCD_SET_EP_RX_STATUS(hpcd->Instance, ep->num, USB_EP_RX_DIS)
 1999              		.loc 1 814 7 is_stmt 0 view .LVU441
 2000 01c0 92B2     		uxth	r2, r2
 2001 01c2 2280     		strh	r2, [r4]
 2002              	.LBE16:
 2003              	.LBB17:
 815:Drivers/STM32F0xx_HAL_Driver/Src/stm32f0xx_hal_pcd.c ****     }
 2004              		.loc 1 815 7 is_stmt 1 view .LVU442
 815:Drivers/STM32F0xx_HAL_Driver/Src/stm32f0xx_hal_pcd.c ****     }
 2005              		.loc 1 815 7 view .LVU443
 2006 01c4 1B78     		ldrb	r3, [r3]
 2007              	.LVL120:
 815:Drivers/STM32F0xx_HAL_Driver/Src/stm32f0xx_hal_pcd.c ****     }
 2008              		.loc 1 815 7 is_stmt 0 view .LVU444
ARM GAS  /tmp/cc8iG1bp.s 			page 54


 2009 01c6 9B00     		lsls	r3, r3, #2
 2010 01c8 0268     		ldr	r2, [r0]
 2011 01ca 9446     		mov	ip, r2
 2012 01cc 6344     		add	r3, r3, ip
 2013 01ce 1A88     		ldrh	r2, [r3]
 2014 01d0 084C     		ldr	r4, .L91+20
 2015 01d2 2240     		ands	r2, r4
 2016              	.LVL121:
 815:Drivers/STM32F0xx_HAL_Driver/Src/stm32f0xx_hal_pcd.c ****     }
 2017              		.loc 1 815 7 is_stmt 1 view .LVU445
 815:Drivers/STM32F0xx_HAL_Driver/Src/stm32f0xx_hal_pcd.c ****     }
 2018              		.loc 1 815 7 view .LVU446
 815:Drivers/STM32F0xx_HAL_Driver/Src/stm32f0xx_hal_pcd.c ****     }
 2019              		.loc 1 815 7 view .LVU447
 2020 01d4 1143     		orrs	r1, r2
 2021 01d6 89B2     		uxth	r1, r1
 2022 01d8 1980     		strh	r1, [r3]
 2023 01da 4EE7     		b	.L82
 2024              	.LVL122:
 2025              	.L89:
 815:Drivers/STM32F0xx_HAL_Driver/Src/stm32f0xx_hal_pcd.c ****     }
 2026              		.loc 1 815 7 is_stmt 0 view .LVU448
 2027              	.LBE17:
 775:Drivers/STM32F0xx_HAL_Driver/Src/stm32f0xx_hal_pcd.c **** 
 2028              		.loc 1 775 3 view .LVU449
 2029 01dc 0220     		movs	r0, #2
 2030              	.LVL123:
 775:Drivers/STM32F0xx_HAL_Driver/Src/stm32f0xx_hal_pcd.c **** 
 2031              		.loc 1 775 3 view .LVU450
 2032 01de 51E7     		b	.L78
 2033              	.L92:
 2034              		.align	2
 2035              	.L91:
 2036 01e0 0F0F0000 		.word	3855
 2037 01e4 C080FFFF 		.word	-32576
 2038 01e8 BF8FFFFF 		.word	-28737
 2039 01ec 8080FFFF 		.word	-32640
 2040 01f0 80C0FFFF 		.word	-16256
 2041 01f4 8FBFFFFF 		.word	-16497
 2042              		.cfi_endproc
 2043              	.LFE59:
 2045              		.section	.text.HAL_PCD_EP_Receive,"ax",%progbits
 2046              		.align	1
 2047              		.global	HAL_PCD_EP_Receive
 2048              		.syntax unified
 2049              		.code	16
 2050              		.thumb_func
 2051              		.fpu softvfp
 2053              	HAL_PCD_EP_Receive:
 2054              	.LVL124:
 2055              	.LFB60:
 822:Drivers/STM32F0xx_HAL_Driver/Src/stm32f0xx_hal_pcd.c **** 
 823:Drivers/STM32F0xx_HAL_Driver/Src/stm32f0xx_hal_pcd.c **** 
 824:Drivers/STM32F0xx_HAL_Driver/Src/stm32f0xx_hal_pcd.c **** /**
 825:Drivers/STM32F0xx_HAL_Driver/Src/stm32f0xx_hal_pcd.c ****   * @brief  Receive an amount of data  
 826:Drivers/STM32F0xx_HAL_Driver/Src/stm32f0xx_hal_pcd.c ****   * @param  hpcd PCD handle
 827:Drivers/STM32F0xx_HAL_Driver/Src/stm32f0xx_hal_pcd.c ****   * @param  ep_addr endpoint address
ARM GAS  /tmp/cc8iG1bp.s 			page 55


 828:Drivers/STM32F0xx_HAL_Driver/Src/stm32f0xx_hal_pcd.c ****   * @param  pBuf pointer to the reception buffer   
 829:Drivers/STM32F0xx_HAL_Driver/Src/stm32f0xx_hal_pcd.c ****   * @param  len amount of data to be received
 830:Drivers/STM32F0xx_HAL_Driver/Src/stm32f0xx_hal_pcd.c ****   * @retval HAL status
 831:Drivers/STM32F0xx_HAL_Driver/Src/stm32f0xx_hal_pcd.c ****   */
 832:Drivers/STM32F0xx_HAL_Driver/Src/stm32f0xx_hal_pcd.c **** HAL_StatusTypeDef HAL_PCD_EP_Receive(PCD_HandleTypeDef *hpcd, uint8_t ep_addr, uint8_t *pBuf, uint3
 833:Drivers/STM32F0xx_HAL_Driver/Src/stm32f0xx_hal_pcd.c **** {
 2056              		.loc 1 833 1 is_stmt 1 view -0
 2057              		.cfi_startproc
 2058              		@ args = 0, pretend = 0, frame = 0
 2059              		@ frame_needed = 0, uses_anonymous_args = 0
 2060              		.loc 1 833 1 is_stmt 0 view .LVU452
 2061 0000 30B5     		push	{r4, r5, lr}
 2062              	.LCFI7:
 2063              		.cfi_def_cfa_offset 12
 2064              		.cfi_offset 4, -12
 2065              		.cfi_offset 5, -8
 2066              		.cfi_offset 14, -4
 834:Drivers/STM32F0xx_HAL_Driver/Src/stm32f0xx_hal_pcd.c ****   
 835:Drivers/STM32F0xx_HAL_Driver/Src/stm32f0xx_hal_pcd.c ****  PCD_EPTypeDef *ep;
 2067              		.loc 1 835 2 is_stmt 1 view .LVU453
 836:Drivers/STM32F0xx_HAL_Driver/Src/stm32f0xx_hal_pcd.c ****   
 837:Drivers/STM32F0xx_HAL_Driver/Src/stm32f0xx_hal_pcd.c ****   ep = &hpcd->OUT_ep[ep_addr & 0x7FU];
 2068              		.loc 1 837 3 view .LVU454
 2069 0002 7F24     		movs	r4, #127
 2070 0004 2140     		ands	r1, r4
 2071              	.LVL125:
 838:Drivers/STM32F0xx_HAL_Driver/Src/stm32f0xx_hal_pcd.c ****   
 839:Drivers/STM32F0xx_HAL_Driver/Src/stm32f0xx_hal_pcd.c ****   /*setup and start the Xfer */
 840:Drivers/STM32F0xx_HAL_Driver/Src/stm32f0xx_hal_pcd.c ****   ep->xfer_buff = pBuf;  
 2072              		.loc 1 840 3 view .LVU455
 2073              		.loc 1 840 17 is_stmt 0 view .LVU456
 2074 0006 CC00     		lsls	r4, r1, #3
 2075 0008 641A     		subs	r4, r4, r1
 2076 000a A400     		lsls	r4, r4, #2
 2077 000c 0419     		adds	r4, r0, r4
 2078 000e 2500     		movs	r5, r4
 2079 0010 1935     		adds	r5, r5, #25
 2080 0012 FF35     		adds	r5, r5, #255
 2081 0014 2A60     		str	r2, [r5]
 841:Drivers/STM32F0xx_HAL_Driver/Src/stm32f0xx_hal_pcd.c ****   ep->xfer_len = len;
 2082              		.loc 1 841 3 is_stmt 1 view .LVU457
 2083              		.loc 1 841 16 is_stmt 0 view .LVU458
 2084 0016 2200     		movs	r2, r4
 2085              	.LVL126:
 2086              		.loc 1 841 16 view .LVU459
 2087 0018 1D32     		adds	r2, r2, #29
 2088 001a FF32     		adds	r2, r2, #255
 2089 001c 1360     		str	r3, [r2]
 842:Drivers/STM32F0xx_HAL_Driver/Src/stm32f0xx_hal_pcd.c ****   ep->xfer_count = 0U;
 2090              		.loc 1 842 3 is_stmt 1 view .LVU460
 2091              		.loc 1 842 18 is_stmt 0 view .LVU461
 2092 001e 0835     		adds	r5, r5, #8
 2093              	.LVL127:
 2094              		.loc 1 842 18 view .LVU462
 2095 0020 0022     		movs	r2, #0
 2096 0022 2A60     		str	r2, [r5]
 843:Drivers/STM32F0xx_HAL_Driver/Src/stm32f0xx_hal_pcd.c ****   ep->is_in = 0U;
ARM GAS  /tmp/cc8iG1bp.s 			page 56


 2097              		.loc 1 843 3 is_stmt 1 view .LVU463
 2098              		.loc 1 843 13 is_stmt 0 view .LVU464
 2099 0024 173D     		subs	r5, r5, #23
 2100              	.LVL128:
 2101              		.loc 1 843 13 view .LVU465
 2102 0026 2A70     		strb	r2, [r5]
 844:Drivers/STM32F0xx_HAL_Driver/Src/stm32f0xx_hal_pcd.c ****   ep->num = ep_addr & 0x7FU;
 2103              		.loc 1 844 3 is_stmt 1 view .LVU466
 2104              		.loc 1 844 11 is_stmt 0 view .LVU467
 2105 0028 2200     		movs	r2, r4
 2106 002a 0932     		adds	r2, r2, #9
 2107 002c FF32     		adds	r2, r2, #255
 2108 002e 1170     		strb	r1, [r2]
 845:Drivers/STM32F0xx_HAL_Driver/Src/stm32f0xx_hal_pcd.c ****    
 846:Drivers/STM32F0xx_HAL_Driver/Src/stm32f0xx_hal_pcd.c ****   /* Multi packet transfer*/
 847:Drivers/STM32F0xx_HAL_Driver/Src/stm32f0xx_hal_pcd.c ****   if (ep->xfer_len > ep->maxpacket)
 2109              		.loc 1 847 3 is_stmt 1 view .LVU468
 2110              		.loc 1 847 24 is_stmt 0 view .LVU469
 2111 0030 1534     		adds	r4, r4, #21
 2112 0032 FF34     		adds	r4, r4, #255
 2113 0034 2268     		ldr	r2, [r4]
 2114              		.loc 1 847 6 view .LVU470
 2115 0036 9A42     		cmp	r2, r3
 2116 0038 3CD2     		bcs	.L94
 848:Drivers/STM32F0xx_HAL_Driver/Src/stm32f0xx_hal_pcd.c ****   {
 849:Drivers/STM32F0xx_HAL_Driver/Src/stm32f0xx_hal_pcd.c ****     len=ep->maxpacket;
 2117              		.loc 1 849 5 is_stmt 1 view .LVU471
 2118              	.LVL129:
 850:Drivers/STM32F0xx_HAL_Driver/Src/stm32f0xx_hal_pcd.c ****     ep->xfer_len-=len; 
 2119              		.loc 1 850 5 view .LVU472
 2120              		.loc 1 850 17 is_stmt 0 view .LVU473
 2121 003a CC00     		lsls	r4, r1, #3
 2122 003c 641A     		subs	r4, r4, r1
 2123 003e A400     		lsls	r4, r4, #2
 2124 0040 0419     		adds	r4, r0, r4
 2125 0042 1D34     		adds	r4, r4, #29
 2126 0044 FF34     		adds	r4, r4, #255
 2127 0046 9B1A     		subs	r3, r3, r2
 2128 0048 2360     		str	r3, [r4]
 2129              	.LVL130:
 2130              	.L95:
 851:Drivers/STM32F0xx_HAL_Driver/Src/stm32f0xx_hal_pcd.c ****   }
 852:Drivers/STM32F0xx_HAL_Driver/Src/stm32f0xx_hal_pcd.c ****   else
 853:Drivers/STM32F0xx_HAL_Driver/Src/stm32f0xx_hal_pcd.c ****   {
 854:Drivers/STM32F0xx_HAL_Driver/Src/stm32f0xx_hal_pcd.c ****     len=ep->xfer_len;
 855:Drivers/STM32F0xx_HAL_Driver/Src/stm32f0xx_hal_pcd.c ****     ep->xfer_len =0U;
 856:Drivers/STM32F0xx_HAL_Driver/Src/stm32f0xx_hal_pcd.c ****   }
 857:Drivers/STM32F0xx_HAL_Driver/Src/stm32f0xx_hal_pcd.c ****   
 858:Drivers/STM32F0xx_HAL_Driver/Src/stm32f0xx_hal_pcd.c ****   /* configure and validate Rx endpoint */
 859:Drivers/STM32F0xx_HAL_Driver/Src/stm32f0xx_hal_pcd.c ****   if (ep->doublebuffer == 0) 
 2131              		.loc 1 859 3 is_stmt 1 view .LVU474
 2132              		.loc 1 859 9 is_stmt 0 view .LVU475
 2133 004a CB00     		lsls	r3, r1, #3
 2134 004c 5B1A     		subs	r3, r3, r1
 2135 004e 9B00     		lsls	r3, r3, #2
 2136 0050 C318     		adds	r3, r0, r3
 2137 0052 1333     		adds	r3, r3, #19
ARM GAS  /tmp/cc8iG1bp.s 			page 57


 2138 0054 FF33     		adds	r3, r3, #255
 2139 0056 1B78     		ldrb	r3, [r3]
 2140              		.loc 1 859 6 view .LVU476
 2141 0058 002B     		cmp	r3, #0
 2142 005a 3ED1     		bne	.L96
 2143              	.LBB18:
 860:Drivers/STM32F0xx_HAL_Driver/Src/stm32f0xx_hal_pcd.c ****   {
 861:Drivers/STM32F0xx_HAL_Driver/Src/stm32f0xx_hal_pcd.c ****     /*Set RX buffer count*/
 862:Drivers/STM32F0xx_HAL_Driver/Src/stm32f0xx_hal_pcd.c ****     PCD_SET_EP_RX_CNT(hpcd->Instance, ep->num, len)
 2144              		.loc 1 862 5 is_stmt 1 view .LVU477
 2145 005c 0468     		ldr	r4, [r0]
 2146 005e 5033     		adds	r3, r3, #80
 2147 0060 E35A     		ldrh	r3, [r4, r3]
 2148 0062 CD00     		lsls	r5, r1, #3
 2149 0064 5B19     		adds	r3, r3, r5
 2150 0066 1B19     		adds	r3, r3, r4
 2151 0068 4E4C     		ldr	r4, .L109
 2152 006a A446     		mov	ip, r4
 2153 006c 6344     		add	r3, r3, ip
 2154              	.LVL131:
 2155              	.LBB19:
 2156              		.loc 1 862 5 view .LVU478
 2157              		.loc 1 862 5 view .LVU479
 2158 006e 3E2A     		cmp	r2, #62
 2159 0070 2AD9     		bls	.L97
 2160              		.loc 1 862 5 discriminator 1 view .LVU480
 2161 0072 5409     		lsrs	r4, r2, #5
 2162 0074 A4B2     		uxth	r4, r4
 2163              	.LVL132:
 2164              		.loc 1 862 5 discriminator 1 view .LVU481
 2165 0076 D206     		lsls	r2, r2, #27
 2166 0078 01D1     		bne	.L98
 2167              	.LVL133:
 2168              		.loc 1 862 5 discriminator 3 view .LVU482
 2169 007a 013C     		subs	r4, r4, #1
 2170              	.LVL134:
 2171              		.loc 1 862 5 is_stmt 0 discriminator 3 view .LVU483
 2172 007c A4B2     		uxth	r4, r4
 2173              	.LVL135:
 2174              	.L98:
 2175              		.loc 1 862 5 is_stmt 1 discriminator 5 view .LVU484
 2176 007e A402     		lsls	r4, r4, #10
 2177              	.LVL136:
 2178              		.loc 1 862 5 is_stmt 0 discriminator 5 view .LVU485
 2179 0080 A4B2     		uxth	r4, r4
 2180 0082 494A     		ldr	r2, .L109+4
 2181 0084 1443     		orrs	r4, r2
 2182 0086 1C80     		strh	r4, [r3]
 2183              	.LVL137:
 2184              	.L99:
 2185              		.loc 1 862 5 discriminator 5 view .LVU486
 2186              	.LBE19:
 2187              	.LBE18:
 2188              	.LBB21:
 863:Drivers/STM32F0xx_HAL_Driver/Src/stm32f0xx_hal_pcd.c ****   }
 864:Drivers/STM32F0xx_HAL_Driver/Src/stm32f0xx_hal_pcd.c ****   else
 865:Drivers/STM32F0xx_HAL_Driver/Src/stm32f0xx_hal_pcd.c ****   {
ARM GAS  /tmp/cc8iG1bp.s 			page 58


 866:Drivers/STM32F0xx_HAL_Driver/Src/stm32f0xx_hal_pcd.c ****     /*Set the Double buffer counter*/
 867:Drivers/STM32F0xx_HAL_Driver/Src/stm32f0xx_hal_pcd.c ****     PCD_SET_EP_DBUF_CNT(hpcd->Instance, ep->num, ep->is_in, len)
 868:Drivers/STM32F0xx_HAL_Driver/Src/stm32f0xx_hal_pcd.c ****   } 
 869:Drivers/STM32F0xx_HAL_Driver/Src/stm32f0xx_hal_pcd.c ****   
 870:Drivers/STM32F0xx_HAL_Driver/Src/stm32f0xx_hal_pcd.c ****   PCD_SET_EP_RX_STATUS(hpcd->Instance, ep->num, USB_EP_RX_VALID)
 2189              		.loc 1 870 3 is_stmt 1 view .LVU487
 2190              		.loc 1 870 3 view .LVU488
 2191 0088 0268     		ldr	r2, [r0]
 2192 008a CB00     		lsls	r3, r1, #3
 2193 008c 591A     		subs	r1, r3, r1
 2194              	.LVL138:
 2195              		.loc 1 870 3 is_stmt 0 view .LVU489
 2196 008e 8900     		lsls	r1, r1, #2
 2197 0090 4018     		adds	r0, r0, r1
 2198              	.LVL139:
 2199              		.loc 1 870 3 view .LVU490
 2200 0092 0930     		adds	r0, r0, #9
 2201 0094 FF30     		adds	r0, r0, #255
 2202 0096 0378     		ldrb	r3, [r0]
 2203 0098 9B00     		lsls	r3, r3, #2
 2204 009a D218     		adds	r2, r2, r3
 2205 009c 1188     		ldrh	r1, [r2]
 2206 009e 434B     		ldr	r3, .L109+8
 2207 00a0 1940     		ands	r1, r3
 2208              	.LVL140:
 2209              		.loc 1 870 3 is_stmt 1 view .LVU491
 2210              		.loc 1 870 3 view .LVU492
 2211              		.loc 1 870 3 view .LVU493
 2212              		.loc 1 870 3 view .LVU494
 2213 00a2 C023     		movs	r3, #192
 2214 00a4 9B01     		lsls	r3, r3, #6
 2215 00a6 5940     		eors	r1, r3
 2216              	.LVL141:
 2217              		.loc 1 870 3 view .LVU495
 2218 00a8 414B     		ldr	r3, .L109+12
 2219 00aa 0B43     		orrs	r3, r1
 2220 00ac 9BB2     		uxth	r3, r3
 2221 00ae 1380     		strh	r3, [r2]
 2222              	.LBE21:
 871:Drivers/STM32F0xx_HAL_Driver/Src/stm32f0xx_hal_pcd.c ****   
 872:Drivers/STM32F0xx_HAL_Driver/Src/stm32f0xx_hal_pcd.c ****   return HAL_OK;
 2223              		.loc 1 872 3 view .LVU496
 873:Drivers/STM32F0xx_HAL_Driver/Src/stm32f0xx_hal_pcd.c **** }
 2224              		.loc 1 873 1 is_stmt 0 view .LVU497
 2225 00b0 0020     		movs	r0, #0
 2226              		@ sp needed
 2227 00b2 30BD     		pop	{r4, r5, pc}
 2228              	.LVL142:
 2229              	.L94:
 854:Drivers/STM32F0xx_HAL_Driver/Src/stm32f0xx_hal_pcd.c ****     ep->xfer_len =0U;
 2230              		.loc 1 854 5 is_stmt 1 view .LVU498
 855:Drivers/STM32F0xx_HAL_Driver/Src/stm32f0xx_hal_pcd.c ****   }
 2231              		.loc 1 855 5 view .LVU499
 855:Drivers/STM32F0xx_HAL_Driver/Src/stm32f0xx_hal_pcd.c ****   }
 2232              		.loc 1 855 18 is_stmt 0 view .LVU500
 2233 00b4 CA00     		lsls	r2, r1, #3
 2234 00b6 521A     		subs	r2, r2, r1
ARM GAS  /tmp/cc8iG1bp.s 			page 59


 2235 00b8 9200     		lsls	r2, r2, #2
 2236 00ba 8218     		adds	r2, r0, r2
 2237 00bc 1D32     		adds	r2, r2, #29
 2238 00be FF32     		adds	r2, r2, #255
 2239 00c0 0024     		movs	r4, #0
 2240 00c2 1460     		str	r4, [r2]
 2241              	.LVL143:
 854:Drivers/STM32F0xx_HAL_Driver/Src/stm32f0xx_hal_pcd.c ****     ep->xfer_len =0U;
 2242              		.loc 1 854 8 view .LVU501
 2243 00c4 1A00     		movs	r2, r3
 2244 00c6 C0E7     		b	.L95
 2245              	.LVL144:
 2246              	.L97:
 2247              	.LBB22:
 2248              	.LBB20:
 862:Drivers/STM32F0xx_HAL_Driver/Src/stm32f0xx_hal_pcd.c ****   }
 2249              		.loc 1 862 5 is_stmt 1 discriminator 2 view .LVU502
 2250 00c8 5408     		lsrs	r4, r2, #1
 2251 00ca A4B2     		uxth	r4, r4
 2252              	.LVL145:
 862:Drivers/STM32F0xx_HAL_Driver/Src/stm32f0xx_hal_pcd.c ****   }
 2253              		.loc 1 862 5 discriminator 2 view .LVU503
 2254 00cc D207     		lsls	r2, r2, #31
 2255 00ce 01D5     		bpl	.L100
 2256              	.LVL146:
 862:Drivers/STM32F0xx_HAL_Driver/Src/stm32f0xx_hal_pcd.c ****   }
 2257              		.loc 1 862 5 discriminator 6 view .LVU504
 2258 00d0 0134     		adds	r4, r4, #1
 2259              	.LVL147:
 862:Drivers/STM32F0xx_HAL_Driver/Src/stm32f0xx_hal_pcd.c ****   }
 2260              		.loc 1 862 5 is_stmt 0 discriminator 6 view .LVU505
 2261 00d2 A4B2     		uxth	r4, r4
 2262              	.LVL148:
 2263              	.L100:
 862:Drivers/STM32F0xx_HAL_Driver/Src/stm32f0xx_hal_pcd.c ****   }
 2264              		.loc 1 862 5 is_stmt 1 discriminator 8 view .LVU506
 2265 00d4 A402     		lsls	r4, r4, #10
 2266              	.LVL149:
 862:Drivers/STM32F0xx_HAL_Driver/Src/stm32f0xx_hal_pcd.c ****   }
 2267              		.loc 1 862 5 is_stmt 0 discriminator 8 view .LVU507
 2268 00d6 1C80     		strh	r4, [r3]
 2269 00d8 D6E7     		b	.L99
 2270              	.LVL150:
 2271              	.L96:
 862:Drivers/STM32F0xx_HAL_Driver/Src/stm32f0xx_hal_pcd.c ****   }
 2272              		.loc 1 862 5 discriminator 8 view .LVU508
 2273              	.LBE20:
 2274              	.LBE22:
 867:Drivers/STM32F0xx_HAL_Driver/Src/stm32f0xx_hal_pcd.c ****   } 
 2275              		.loc 1 867 5 is_stmt 1 discriminator 1 view .LVU509
 2276              	.LBB23:
 867:Drivers/STM32F0xx_HAL_Driver/Src/stm32f0xx_hal_pcd.c ****   } 
 2277              		.loc 1 867 5 discriminator 1 view .LVU510
 2278 00da 0468     		ldr	r4, [r0]
 2279 00dc 5023     		movs	r3, #80
 2280 00de E35A     		ldrh	r3, [r4, r3]
 2281 00e0 CD00     		lsls	r5, r1, #3
ARM GAS  /tmp/cc8iG1bp.s 			page 60


 2282 00e2 5B19     		adds	r3, r3, r5
 2283 00e4 1B19     		adds	r3, r3, r4
 2284 00e6 334C     		ldr	r4, .L109+16
 2285 00e8 A446     		mov	ip, r4
 2286 00ea 6344     		add	r3, r3, ip
 2287              	.LVL151:
 2288              	.LBB24:
 867:Drivers/STM32F0xx_HAL_Driver/Src/stm32f0xx_hal_pcd.c ****   } 
 2289              		.loc 1 867 5 discriminator 1 view .LVU511
 867:Drivers/STM32F0xx_HAL_Driver/Src/stm32f0xx_hal_pcd.c ****   } 
 2290              		.loc 1 867 5 discriminator 1 view .LVU512
 2291 00ec 3E2A     		cmp	r2, #62
 2292 00ee 31D9     		bls	.L101
 867:Drivers/STM32F0xx_HAL_Driver/Src/stm32f0xx_hal_pcd.c ****   } 
 2293              		.loc 1 867 5 discriminator 3 view .LVU513
 2294 00f0 5409     		lsrs	r4, r2, #5
 2295 00f2 A4B2     		uxth	r4, r4
 2296              	.LVL152:
 867:Drivers/STM32F0xx_HAL_Driver/Src/stm32f0xx_hal_pcd.c ****   } 
 2297              		.loc 1 867 5 discriminator 3 view .LVU514
 2298 00f4 D506     		lsls	r5, r2, #27
 2299 00f6 01D1     		bne	.L102
 867:Drivers/STM32F0xx_HAL_Driver/Src/stm32f0xx_hal_pcd.c ****   } 
 2300              		.loc 1 867 5 discriminator 5 view .LVU515
 2301 00f8 013C     		subs	r4, r4, #1
 2302              	.LVL153:
 867:Drivers/STM32F0xx_HAL_Driver/Src/stm32f0xx_hal_pcd.c ****   } 
 2303              		.loc 1 867 5 is_stmt 0 discriminator 5 view .LVU516
 2304 00fa A4B2     		uxth	r4, r4
 2305              	.LVL154:
 2306              	.L102:
 867:Drivers/STM32F0xx_HAL_Driver/Src/stm32f0xx_hal_pcd.c ****   } 
 2307              		.loc 1 867 5 is_stmt 1 discriminator 7 view .LVU517
 2308 00fc A402     		lsls	r4, r4, #10
 2309              	.LVL155:
 867:Drivers/STM32F0xx_HAL_Driver/Src/stm32f0xx_hal_pcd.c ****   } 
 2310              		.loc 1 867 5 is_stmt 0 discriminator 7 view .LVU518
 2311 00fe A4B2     		uxth	r4, r4
 2312 0100 294D     		ldr	r5, .L109+4
 2313 0102 2C43     		orrs	r4, r5
 2314 0104 1C80     		strh	r4, [r3]
 2315              	.L103:
 867:Drivers/STM32F0xx_HAL_Driver/Src/stm32f0xx_hal_pcd.c ****   } 
 2316              		.loc 1 867 5 discriminator 7 view .LVU519
 2317              	.LBE24:
 2318              	.LBE23:
 867:Drivers/STM32F0xx_HAL_Driver/Src/stm32f0xx_hal_pcd.c ****   } 
 2319              		.loc 1 867 5 is_stmt 1 discriminator 13 view .LVU520
 2320 0106 CB00     		lsls	r3, r1, #3
 2321              	.LVL156:
 867:Drivers/STM32F0xx_HAL_Driver/Src/stm32f0xx_hal_pcd.c ****   } 
 2322              		.loc 1 867 5 is_stmt 0 discriminator 13 view .LVU521
 2323 0108 5B1A     		subs	r3, r3, r1
 2324 010a 9B00     		lsls	r3, r3, #2
 2325 010c C318     		adds	r3, r0, r3
 2326 010e 0A33     		adds	r3, r3, #10
 2327 0110 FF33     		adds	r3, r3, #255
ARM GAS  /tmp/cc8iG1bp.s 			page 61


 2328 0112 1B78     		ldrb	r3, [r3]
 2329 0114 002B     		cmp	r3, #0
 2330 0116 2FD1     		bne	.L105
 2331              	.LBB26:
 867:Drivers/STM32F0xx_HAL_Driver/Src/stm32f0xx_hal_pcd.c ****   } 
 2332              		.loc 1 867 5 is_stmt 1 discriminator 14 view .LVU522
 2333 0118 0468     		ldr	r4, [r0]
 2334 011a 5033     		adds	r3, r3, #80
 2335 011c E55A     		ldrh	r5, [r4, r3]
 2336 011e CB00     		lsls	r3, r1, #3
 2337 0120 5B1A     		subs	r3, r3, r1
 2338 0122 9B00     		lsls	r3, r3, #2
 2339 0124 C318     		adds	r3, r0, r3
 2340 0126 0933     		adds	r3, r3, #9
 2341 0128 FF33     		adds	r3, r3, #255
 2342 012a 1B78     		ldrb	r3, [r3]
 2343 012c DB00     		lsls	r3, r3, #3
 2344 012e EB18     		adds	r3, r5, r3
 2345 0130 1C19     		adds	r4, r3, r4
 2346 0132 1C4B     		ldr	r3, .L109
 2347 0134 9C46     		mov	ip, r3
 2348 0136 6444     		add	r4, r4, ip
 2349              	.LVL157:
 2350              	.LBB27:
 867:Drivers/STM32F0xx_HAL_Driver/Src/stm32f0xx_hal_pcd.c ****   } 
 2351              		.loc 1 867 5 discriminator 14 view .LVU523
 867:Drivers/STM32F0xx_HAL_Driver/Src/stm32f0xx_hal_pcd.c ****   } 
 2352              		.loc 1 867 5 discriminator 14 view .LVU524
 2353 0138 3E2A     		cmp	r2, #62
 2354 013a 14D9     		bls	.L106
 867:Drivers/STM32F0xx_HAL_Driver/Src/stm32f0xx_hal_pcd.c ****   } 
 2355              		.loc 1 867 5 discriminator 16 view .LVU525
 2356 013c 5309     		lsrs	r3, r2, #5
 2357 013e 9BB2     		uxth	r3, r3
 2358              	.LVL158:
 867:Drivers/STM32F0xx_HAL_Driver/Src/stm32f0xx_hal_pcd.c ****   } 
 2359              		.loc 1 867 5 discriminator 16 view .LVU526
 2360 0140 D206     		lsls	r2, r2, #27
 2361 0142 01D1     		bne	.L107
 2362              	.LVL159:
 867:Drivers/STM32F0xx_HAL_Driver/Src/stm32f0xx_hal_pcd.c ****   } 
 2363              		.loc 1 867 5 discriminator 18 view .LVU527
 2364 0144 013B     		subs	r3, r3, #1
 2365              	.LVL160:
 867:Drivers/STM32F0xx_HAL_Driver/Src/stm32f0xx_hal_pcd.c ****   } 
 2366              		.loc 1 867 5 is_stmt 0 discriminator 18 view .LVU528
 2367 0146 9BB2     		uxth	r3, r3
 2368              	.LVL161:
 2369              	.L107:
 867:Drivers/STM32F0xx_HAL_Driver/Src/stm32f0xx_hal_pcd.c ****   } 
 2370              		.loc 1 867 5 is_stmt 1 discriminator 20 view .LVU529
 2371 0148 9B02     		lsls	r3, r3, #10
 2372              	.LVL162:
 867:Drivers/STM32F0xx_HAL_Driver/Src/stm32f0xx_hal_pcd.c ****   } 
 2373              		.loc 1 867 5 is_stmt 0 discriminator 20 view .LVU530
 2374 014a 9BB2     		uxth	r3, r3
 2375 014c 164A     		ldr	r2, .L109+4
ARM GAS  /tmp/cc8iG1bp.s 			page 62


 2376 014e 1343     		orrs	r3, r2
 2377 0150 2380     		strh	r3, [r4]
 2378 0152 99E7     		b	.L99
 2379              	.LVL163:
 2380              	.L101:
 867:Drivers/STM32F0xx_HAL_Driver/Src/stm32f0xx_hal_pcd.c ****   } 
 2381              		.loc 1 867 5 discriminator 20 view .LVU531
 2382              	.LBE27:
 2383              	.LBE26:
 2384              	.LBB29:
 2385              	.LBB25:
 867:Drivers/STM32F0xx_HAL_Driver/Src/stm32f0xx_hal_pcd.c ****   } 
 2386              		.loc 1 867 5 is_stmt 1 discriminator 4 view .LVU532
 2387 0154 5408     		lsrs	r4, r2, #1
 2388 0156 A4B2     		uxth	r4, r4
 2389              	.LVL164:
 867:Drivers/STM32F0xx_HAL_Driver/Src/stm32f0xx_hal_pcd.c ****   } 
 2390              		.loc 1 867 5 discriminator 4 view .LVU533
 2391 0158 D507     		lsls	r5, r2, #31
 2392 015a 01D5     		bpl	.L104
 867:Drivers/STM32F0xx_HAL_Driver/Src/stm32f0xx_hal_pcd.c ****   } 
 2393              		.loc 1 867 5 discriminator 8 view .LVU534
 2394 015c 0134     		adds	r4, r4, #1
 2395              	.LVL165:
 867:Drivers/STM32F0xx_HAL_Driver/Src/stm32f0xx_hal_pcd.c ****   } 
 2396              		.loc 1 867 5 is_stmt 0 discriminator 8 view .LVU535
 2397 015e A4B2     		uxth	r4, r4
 2398              	.LVL166:
 2399              	.L104:
 867:Drivers/STM32F0xx_HAL_Driver/Src/stm32f0xx_hal_pcd.c ****   } 
 2400              		.loc 1 867 5 is_stmt 1 discriminator 10 view .LVU536
 2401 0160 A402     		lsls	r4, r4, #10
 2402              	.LVL167:
 867:Drivers/STM32F0xx_HAL_Driver/Src/stm32f0xx_hal_pcd.c ****   } 
 2403              		.loc 1 867 5 is_stmt 0 discriminator 10 view .LVU537
 2404 0162 1C80     		strh	r4, [r3]
 2405 0164 CFE7     		b	.L103
 2406              	.LVL168:
 2407              	.L106:
 867:Drivers/STM32F0xx_HAL_Driver/Src/stm32f0xx_hal_pcd.c ****   } 
 2408              		.loc 1 867 5 discriminator 10 view .LVU538
 2409              	.LBE25:
 2410              	.LBE29:
 2411              	.LBB30:
 2412              	.LBB28:
 867:Drivers/STM32F0xx_HAL_Driver/Src/stm32f0xx_hal_pcd.c ****   } 
 2413              		.loc 1 867 5 is_stmt 1 discriminator 17 view .LVU539
 2414 0166 5308     		lsrs	r3, r2, #1
 2415 0168 9BB2     		uxth	r3, r3
 2416              	.LVL169:
 867:Drivers/STM32F0xx_HAL_Driver/Src/stm32f0xx_hal_pcd.c ****   } 
 2417              		.loc 1 867 5 discriminator 17 view .LVU540
 2418 016a D207     		lsls	r2, r2, #31
 2419 016c 01D5     		bpl	.L108
 2420              	.LVL170:
 867:Drivers/STM32F0xx_HAL_Driver/Src/stm32f0xx_hal_pcd.c ****   } 
 2421              		.loc 1 867 5 discriminator 21 view .LVU541
ARM GAS  /tmp/cc8iG1bp.s 			page 63


 2422 016e 0133     		adds	r3, r3, #1
 2423              	.LVL171:
 867:Drivers/STM32F0xx_HAL_Driver/Src/stm32f0xx_hal_pcd.c ****   } 
 2424              		.loc 1 867 5 is_stmt 0 discriminator 21 view .LVU542
 2425 0170 9BB2     		uxth	r3, r3
 2426              	.LVL172:
 2427              	.L108:
 867:Drivers/STM32F0xx_HAL_Driver/Src/stm32f0xx_hal_pcd.c ****   } 
 2428              		.loc 1 867 5 is_stmt 1 discriminator 23 view .LVU543
 2429 0172 9B02     		lsls	r3, r3, #10
 2430              	.LVL173:
 867:Drivers/STM32F0xx_HAL_Driver/Src/stm32f0xx_hal_pcd.c ****   } 
 2431              		.loc 1 867 5 is_stmt 0 discriminator 23 view .LVU544
 2432 0174 2380     		strh	r3, [r4]
 2433 0176 87E7     		b	.L99
 2434              	.LVL174:
 2435              	.L105:
 867:Drivers/STM32F0xx_HAL_Driver/Src/stm32f0xx_hal_pcd.c ****   } 
 2436              		.loc 1 867 5 discriminator 23 view .LVU545
 2437              	.LBE28:
 2438              	.LBE30:
 867:Drivers/STM32F0xx_HAL_Driver/Src/stm32f0xx_hal_pcd.c ****   } 
 2439              		.loc 1 867 5 is_stmt 1 discriminator 15 view .LVU546
 2440 0178 012B     		cmp	r3, #1
 2441 017a 00D0     		beq	.LCB2488
 2442 017c 84E7     		b	.L99	@long jump
 2443              	.LCB2488:
 867:Drivers/STM32F0xx_HAL_Driver/Src/stm32f0xx_hal_pcd.c ****   } 
 2444              		.loc 1 867 5 discriminator 24 view .LVU547
 2445 017e 0468     		ldr	r4, [r0]
 2446 0180 4F33     		adds	r3, r3, #79
 2447 0182 E55A     		ldrh	r5, [r4, r3]
 2448 0184 CB00     		lsls	r3, r1, #3
 2449 0186 5B1A     		subs	r3, r3, r1
 2450 0188 9B00     		lsls	r3, r3, #2
 2451 018a C318     		adds	r3, r0, r3
 2452 018c 0933     		adds	r3, r3, #9
 2453 018e FF33     		adds	r3, r3, #255
 2454 0190 1B78     		ldrb	r3, [r3]
 2455 0192 DB00     		lsls	r3, r3, #3
 2456 0194 EB18     		adds	r3, r5, r3
 2457 0196 1C19     		adds	r4, r3, r4
 2458 0198 024B     		ldr	r3, .L109
 2459 019a 9C46     		mov	ip, r3
 2460 019c 6444     		add	r4, r4, ip
 2461 019e 2280     		strh	r2, [r4]
 2462 01a0 72E7     		b	.L99
 2463              	.L110:
 2464 01a2 C046     		.align	2
 2465              	.L109:
 2466 01a4 06040000 		.word	1030
 2467 01a8 0080FFFF 		.word	-32768
 2468 01ac 8FBFFFFF 		.word	-16497
 2469 01b0 8080FFFF 		.word	-32640
 2470 01b4 02040000 		.word	1026
 2471              		.cfi_endproc
 2472              	.LFE60:
ARM GAS  /tmp/cc8iG1bp.s 			page 64


 2474              		.section	.text.HAL_PCD_EP_GetRxCount,"ax",%progbits
 2475              		.align	1
 2476              		.global	HAL_PCD_EP_GetRxCount
 2477              		.syntax unified
 2478              		.code	16
 2479              		.thumb_func
 2480              		.fpu softvfp
 2482              	HAL_PCD_EP_GetRxCount:
 2483              	.LVL175:
 2484              	.LFB61:
 874:Drivers/STM32F0xx_HAL_Driver/Src/stm32f0xx_hal_pcd.c **** 
 875:Drivers/STM32F0xx_HAL_Driver/Src/stm32f0xx_hal_pcd.c **** /**
 876:Drivers/STM32F0xx_HAL_Driver/Src/stm32f0xx_hal_pcd.c ****   * @brief  Get Received Data Size
 877:Drivers/STM32F0xx_HAL_Driver/Src/stm32f0xx_hal_pcd.c ****   * @param  hpcd PCD handle
 878:Drivers/STM32F0xx_HAL_Driver/Src/stm32f0xx_hal_pcd.c ****   * @param  ep_addr endpoint address
 879:Drivers/STM32F0xx_HAL_Driver/Src/stm32f0xx_hal_pcd.c ****   * @retval Data Size
 880:Drivers/STM32F0xx_HAL_Driver/Src/stm32f0xx_hal_pcd.c ****   */
 881:Drivers/STM32F0xx_HAL_Driver/Src/stm32f0xx_hal_pcd.c **** uint16_t HAL_PCD_EP_GetRxCount(PCD_HandleTypeDef *hpcd, uint8_t ep_addr)
 882:Drivers/STM32F0xx_HAL_Driver/Src/stm32f0xx_hal_pcd.c **** {
 2485              		.loc 1 882 1 view -0
 2486              		.cfi_startproc
 2487              		@ args = 0, pretend = 0, frame = 0
 2488              		@ frame_needed = 0, uses_anonymous_args = 0
 2489              		@ link register save eliminated.
 2490              		.loc 1 882 1 is_stmt 0 view .LVU549
 2491 0000 0B00     		movs	r3, r1
 883:Drivers/STM32F0xx_HAL_Driver/Src/stm32f0xx_hal_pcd.c ****   return hpcd->OUT_ep[ep_addr & 0x7FU].xfer_count;
 2492              		.loc 1 883 3 is_stmt 1 view .LVU550
 2493              		.loc 1 883 31 is_stmt 0 view .LVU551
 2494 0002 7F21     		movs	r1, #127
 2495              	.LVL176:
 2496              		.loc 1 883 31 view .LVU552
 2497 0004 1940     		ands	r1, r3
 2498              		.loc 1 883 39 view .LVU553
 2499 0006 CB00     		lsls	r3, r1, #3
 2500 0008 591A     		subs	r1, r3, r1
 2501 000a 8900     		lsls	r1, r1, #2
 2502 000c 4018     		adds	r0, r0, r1
 2503              	.LVL177:
 2504              		.loc 1 883 39 view .LVU554
 2505 000e 2130     		adds	r0, r0, #33
 2506 0010 FF30     		adds	r0, r0, #255
 2507 0012 0088     		ldrh	r0, [r0]
 884:Drivers/STM32F0xx_HAL_Driver/Src/stm32f0xx_hal_pcd.c **** }
 2508              		.loc 1 884 1 view .LVU555
 2509              		@ sp needed
 2510 0014 7047     		bx	lr
 2511              		.cfi_endproc
 2512              	.LFE61:
 2514              		.section	.text.HAL_PCD_EP_SetStall,"ax",%progbits
 2515              		.align	1
 2516              		.global	HAL_PCD_EP_SetStall
 2517              		.syntax unified
 2518              		.code	16
 2519              		.thumb_func
 2520              		.fpu softvfp
 2522              	HAL_PCD_EP_SetStall:
ARM GAS  /tmp/cc8iG1bp.s 			page 65


 2523              	.LVL178:
 2524              	.LFB63:
 885:Drivers/STM32F0xx_HAL_Driver/Src/stm32f0xx_hal_pcd.c **** /**
 886:Drivers/STM32F0xx_HAL_Driver/Src/stm32f0xx_hal_pcd.c ****   * @brief  Send an amount of data  
 887:Drivers/STM32F0xx_HAL_Driver/Src/stm32f0xx_hal_pcd.c ****   * @param  hpcd PCD handle
 888:Drivers/STM32F0xx_HAL_Driver/Src/stm32f0xx_hal_pcd.c ****   * @param  ep_addr endpoint address
 889:Drivers/STM32F0xx_HAL_Driver/Src/stm32f0xx_hal_pcd.c ****   * @param  pBuf pointer to the transmission buffer   
 890:Drivers/STM32F0xx_HAL_Driver/Src/stm32f0xx_hal_pcd.c ****   * @param  len amount of data to be sent
 891:Drivers/STM32F0xx_HAL_Driver/Src/stm32f0xx_hal_pcd.c ****   * @retval HAL status
 892:Drivers/STM32F0xx_HAL_Driver/Src/stm32f0xx_hal_pcd.c ****   */
 893:Drivers/STM32F0xx_HAL_Driver/Src/stm32f0xx_hal_pcd.c **** HAL_StatusTypeDef HAL_PCD_EP_Transmit(PCD_HandleTypeDef *hpcd, uint8_t ep_addr, uint8_t *pBuf, uint
 894:Drivers/STM32F0xx_HAL_Driver/Src/stm32f0xx_hal_pcd.c **** {
 895:Drivers/STM32F0xx_HAL_Driver/Src/stm32f0xx_hal_pcd.c ****   PCD_EPTypeDef *ep;
 896:Drivers/STM32F0xx_HAL_Driver/Src/stm32f0xx_hal_pcd.c ****   uint16_t pmabuffer = 0U;
 897:Drivers/STM32F0xx_HAL_Driver/Src/stm32f0xx_hal_pcd.c ****     
 898:Drivers/STM32F0xx_HAL_Driver/Src/stm32f0xx_hal_pcd.c ****   ep = &hpcd->IN_ep[ep_addr & 0x7FU];
 899:Drivers/STM32F0xx_HAL_Driver/Src/stm32f0xx_hal_pcd.c ****   
 900:Drivers/STM32F0xx_HAL_Driver/Src/stm32f0xx_hal_pcd.c ****   /*setup and start the Xfer */
 901:Drivers/STM32F0xx_HAL_Driver/Src/stm32f0xx_hal_pcd.c ****   ep->xfer_buff = pBuf;  
 902:Drivers/STM32F0xx_HAL_Driver/Src/stm32f0xx_hal_pcd.c ****   ep->xfer_len = len;
 903:Drivers/STM32F0xx_HAL_Driver/Src/stm32f0xx_hal_pcd.c ****   ep->xfer_count = 0U;
 904:Drivers/STM32F0xx_HAL_Driver/Src/stm32f0xx_hal_pcd.c ****   ep->is_in = 1U;
 905:Drivers/STM32F0xx_HAL_Driver/Src/stm32f0xx_hal_pcd.c ****   ep->num = ep_addr & 0x7FU;
 906:Drivers/STM32F0xx_HAL_Driver/Src/stm32f0xx_hal_pcd.c ****   
 907:Drivers/STM32F0xx_HAL_Driver/Src/stm32f0xx_hal_pcd.c ****   /*Multi packet transfer*/
 908:Drivers/STM32F0xx_HAL_Driver/Src/stm32f0xx_hal_pcd.c ****   if (ep->xfer_len > ep->maxpacket)
 909:Drivers/STM32F0xx_HAL_Driver/Src/stm32f0xx_hal_pcd.c ****   {
 910:Drivers/STM32F0xx_HAL_Driver/Src/stm32f0xx_hal_pcd.c ****     len=ep->maxpacket;
 911:Drivers/STM32F0xx_HAL_Driver/Src/stm32f0xx_hal_pcd.c ****     ep->xfer_len-=len; 
 912:Drivers/STM32F0xx_HAL_Driver/Src/stm32f0xx_hal_pcd.c ****   }
 913:Drivers/STM32F0xx_HAL_Driver/Src/stm32f0xx_hal_pcd.c ****   else
 914:Drivers/STM32F0xx_HAL_Driver/Src/stm32f0xx_hal_pcd.c ****   {  
 915:Drivers/STM32F0xx_HAL_Driver/Src/stm32f0xx_hal_pcd.c ****     len=ep->xfer_len;
 916:Drivers/STM32F0xx_HAL_Driver/Src/stm32f0xx_hal_pcd.c ****     ep->xfer_len =0U;
 917:Drivers/STM32F0xx_HAL_Driver/Src/stm32f0xx_hal_pcd.c ****   }
 918:Drivers/STM32F0xx_HAL_Driver/Src/stm32f0xx_hal_pcd.c ****   
 919:Drivers/STM32F0xx_HAL_Driver/Src/stm32f0xx_hal_pcd.c ****   /* configure and validate Tx endpoint */
 920:Drivers/STM32F0xx_HAL_Driver/Src/stm32f0xx_hal_pcd.c ****   if (ep->doublebuffer == 0U) 
 921:Drivers/STM32F0xx_HAL_Driver/Src/stm32f0xx_hal_pcd.c ****   {
 922:Drivers/STM32F0xx_HAL_Driver/Src/stm32f0xx_hal_pcd.c ****     PCD_WritePMA(hpcd->Instance, ep->xfer_buff, ep->pmaadress, len);
 923:Drivers/STM32F0xx_HAL_Driver/Src/stm32f0xx_hal_pcd.c ****     PCD_SET_EP_TX_CNT(hpcd->Instance, ep->num, len);
 924:Drivers/STM32F0xx_HAL_Driver/Src/stm32f0xx_hal_pcd.c ****   }
 925:Drivers/STM32F0xx_HAL_Driver/Src/stm32f0xx_hal_pcd.c ****   else
 926:Drivers/STM32F0xx_HAL_Driver/Src/stm32f0xx_hal_pcd.c ****   {
 927:Drivers/STM32F0xx_HAL_Driver/Src/stm32f0xx_hal_pcd.c ****     /*Write the data to the USB endpoint*/
 928:Drivers/STM32F0xx_HAL_Driver/Src/stm32f0xx_hal_pcd.c ****     if ((PCD_GET_ENDPOINT(hpcd->Instance, ep->num)& USB_EP_DTOG_TX) == USB_EP_DTOG_TX)
 929:Drivers/STM32F0xx_HAL_Driver/Src/stm32f0xx_hal_pcd.c ****     {
 930:Drivers/STM32F0xx_HAL_Driver/Src/stm32f0xx_hal_pcd.c ****       /*Set the Double buffer counter for pmabuffer1*/
 931:Drivers/STM32F0xx_HAL_Driver/Src/stm32f0xx_hal_pcd.c ****       PCD_SET_EP_DBUF1_CNT(hpcd->Instance, ep->num, ep->is_in, len)
 932:Drivers/STM32F0xx_HAL_Driver/Src/stm32f0xx_hal_pcd.c ****       pmabuffer = ep->pmaaddr1;
 933:Drivers/STM32F0xx_HAL_Driver/Src/stm32f0xx_hal_pcd.c ****     }
 934:Drivers/STM32F0xx_HAL_Driver/Src/stm32f0xx_hal_pcd.c ****     else
 935:Drivers/STM32F0xx_HAL_Driver/Src/stm32f0xx_hal_pcd.c ****     {
 936:Drivers/STM32F0xx_HAL_Driver/Src/stm32f0xx_hal_pcd.c ****       /*Set the Double buffer counter for pmabuffer0*/
 937:Drivers/STM32F0xx_HAL_Driver/Src/stm32f0xx_hal_pcd.c ****       PCD_SET_EP_DBUF0_CNT(hpcd->Instance, ep->num, ep->is_in, len)
 938:Drivers/STM32F0xx_HAL_Driver/Src/stm32f0xx_hal_pcd.c ****       pmabuffer = ep->pmaaddr0;
 939:Drivers/STM32F0xx_HAL_Driver/Src/stm32f0xx_hal_pcd.c ****     }
ARM GAS  /tmp/cc8iG1bp.s 			page 66


 940:Drivers/STM32F0xx_HAL_Driver/Src/stm32f0xx_hal_pcd.c **** 
 941:Drivers/STM32F0xx_HAL_Driver/Src/stm32f0xx_hal_pcd.c ****     PCD_WritePMA(hpcd->Instance, ep->xfer_buff, pmabuffer, len);
 942:Drivers/STM32F0xx_HAL_Driver/Src/stm32f0xx_hal_pcd.c ****     PCD_FreeUserBuffer(hpcd->Instance, ep->num, ep->is_in)
 943:Drivers/STM32F0xx_HAL_Driver/Src/stm32f0xx_hal_pcd.c ****   }
 944:Drivers/STM32F0xx_HAL_Driver/Src/stm32f0xx_hal_pcd.c **** 
 945:Drivers/STM32F0xx_HAL_Driver/Src/stm32f0xx_hal_pcd.c ****   PCD_SET_EP_TX_STATUS(hpcd->Instance, ep->num, USB_EP_TX_VALID)
 946:Drivers/STM32F0xx_HAL_Driver/Src/stm32f0xx_hal_pcd.c ****      
 947:Drivers/STM32F0xx_HAL_Driver/Src/stm32f0xx_hal_pcd.c ****   return HAL_OK;
 948:Drivers/STM32F0xx_HAL_Driver/Src/stm32f0xx_hal_pcd.c **** }
 949:Drivers/STM32F0xx_HAL_Driver/Src/stm32f0xx_hal_pcd.c **** 
 950:Drivers/STM32F0xx_HAL_Driver/Src/stm32f0xx_hal_pcd.c **** /**
 951:Drivers/STM32F0xx_HAL_Driver/Src/stm32f0xx_hal_pcd.c ****   * @brief  Set a STALL condition over an endpoint
 952:Drivers/STM32F0xx_HAL_Driver/Src/stm32f0xx_hal_pcd.c ****   * @param  hpcd PCD handle
 953:Drivers/STM32F0xx_HAL_Driver/Src/stm32f0xx_hal_pcd.c ****   * @param  ep_addr endpoint address
 954:Drivers/STM32F0xx_HAL_Driver/Src/stm32f0xx_hal_pcd.c ****   * @retval HAL status
 955:Drivers/STM32F0xx_HAL_Driver/Src/stm32f0xx_hal_pcd.c ****   */
 956:Drivers/STM32F0xx_HAL_Driver/Src/stm32f0xx_hal_pcd.c **** HAL_StatusTypeDef HAL_PCD_EP_SetStall(PCD_HandleTypeDef *hpcd, uint8_t ep_addr)
 957:Drivers/STM32F0xx_HAL_Driver/Src/stm32f0xx_hal_pcd.c **** {
 2525              		.loc 1 957 1 is_stmt 1 view -0
 2526              		.cfi_startproc
 2527              		@ args = 0, pretend = 0, frame = 0
 2528              		@ frame_needed = 0, uses_anonymous_args = 0
 2529              		.loc 1 957 1 is_stmt 0 view .LVU557
 2530 0000 10B5     		push	{r4, lr}
 2531              	.LCFI8:
 2532              		.cfi_def_cfa_offset 8
 2533              		.cfi_offset 4, -8
 2534              		.cfi_offset 14, -4
 2535 0002 0C00     		movs	r4, r1
 958:Drivers/STM32F0xx_HAL_Driver/Src/stm32f0xx_hal_pcd.c ****   PCD_EPTypeDef *ep;
 2536              		.loc 1 958 3 is_stmt 1 view .LVU558
 959:Drivers/STM32F0xx_HAL_Driver/Src/stm32f0xx_hal_pcd.c ****    
 960:Drivers/STM32F0xx_HAL_Driver/Src/stm32f0xx_hal_pcd.c ****   __HAL_LOCK(hpcd); 
 2537              		.loc 1 960 3 view .LVU559
 2538              		.loc 1 960 3 view .LVU560
 2539 0004 F423     		movs	r3, #244
 2540 0006 5B00     		lsls	r3, r3, #1
 2541 0008 C35C     		ldrb	r3, [r0, r3]
 2542 000a 012B     		cmp	r3, #1
 2543 000c 50D0     		beq	.L119
 2544              		.loc 1 960 3 discriminator 2 view .LVU561
 2545 000e F423     		movs	r3, #244
 2546 0010 5B00     		lsls	r3, r3, #1
 2547 0012 0122     		movs	r2, #1
 2548 0014 C254     		strb	r2, [r0, r3]
 2549              		.loc 1 960 3 discriminator 2 view .LVU562
 961:Drivers/STM32F0xx_HAL_Driver/Src/stm32f0xx_hal_pcd.c ****    
 962:Drivers/STM32F0xx_HAL_Driver/Src/stm32f0xx_hal_pcd.c ****   if ((0x80U & ep_addr) == 0x80U)
 2550              		.loc 1 962 3 discriminator 2 view .LVU563
 2551              		.loc 1 962 25 is_stmt 0 discriminator 2 view .LVU564
 2552 0016 4AB2     		sxtb	r2, r1
 2553              		.loc 1 962 6 discriminator 2 view .LVU565
 2554 0018 002A     		cmp	r2, #0
 2555 001a 21DB     		blt	.L120
 963:Drivers/STM32F0xx_HAL_Driver/Src/stm32f0xx_hal_pcd.c ****   {
 964:Drivers/STM32F0xx_HAL_Driver/Src/stm32f0xx_hal_pcd.c ****     ep = &hpcd->IN_ep[ep_addr & 0x7FU];
 965:Drivers/STM32F0xx_HAL_Driver/Src/stm32f0xx_hal_pcd.c ****   }
ARM GAS  /tmp/cc8iG1bp.s 			page 67


 966:Drivers/STM32F0xx_HAL_Driver/Src/stm32f0xx_hal_pcd.c ****   else
 967:Drivers/STM32F0xx_HAL_Driver/Src/stm32f0xx_hal_pcd.c ****   {
 968:Drivers/STM32F0xx_HAL_Driver/Src/stm32f0xx_hal_pcd.c ****     ep = &hpcd->OUT_ep[ep_addr];
 2556              		.loc 1 968 5 is_stmt 1 view .LVU566
 2557              		.loc 1 968 8 is_stmt 0 view .LVU567
 2558 001c CB00     		lsls	r3, r1, #3
 2559 001e 5B1A     		subs	r3, r3, r1
 2560 0020 9B00     		lsls	r3, r3, #2
 2561 0022 0933     		adds	r3, r3, #9
 2562 0024 FF33     		adds	r3, r3, #255
 2563 0026 C318     		adds	r3, r0, r3
 2564              	.LVL179:
 2565              	.L115:
 969:Drivers/STM32F0xx_HAL_Driver/Src/stm32f0xx_hal_pcd.c ****   }
 970:Drivers/STM32F0xx_HAL_Driver/Src/stm32f0xx_hal_pcd.c ****   
 971:Drivers/STM32F0xx_HAL_Driver/Src/stm32f0xx_hal_pcd.c ****   ep->is_stall = 1;
 2566              		.loc 1 971 3 is_stmt 1 view .LVU568
 2567              		.loc 1 971 16 is_stmt 0 view .LVU569
 2568 0028 0121     		movs	r1, #1
 2569 002a 9970     		strb	r1, [r3, #2]
 972:Drivers/STM32F0xx_HAL_Driver/Src/stm32f0xx_hal_pcd.c ****   ep->num   = ep_addr & 0x7FU;
 2570              		.loc 1 972 3 is_stmt 1 view .LVU570
 2571              		.loc 1 972 23 is_stmt 0 view .LVU571
 2572 002c 7E31     		adds	r1, r1, #126
 2573 002e 2140     		ands	r1, r4
 2574              		.loc 1 972 13 view .LVU572
 2575 0030 1970     		strb	r1, [r3]
 973:Drivers/STM32F0xx_HAL_Driver/Src/stm32f0xx_hal_pcd.c ****   ep->is_in = ((ep_addr & 0x80U) == 0x80U);
 2576              		.loc 1 973 3 is_stmt 1 view .LVU573
 2577              		.loc 1 973 34 is_stmt 0 view .LVU574
 2578 0032 D20F     		lsrs	r2, r2, #31
 2579              	.LVL180:
 2580              		.loc 1 973 13 view .LVU575
 2581 0034 5A70     		strb	r2, [r3, #1]
 974:Drivers/STM32F0xx_HAL_Driver/Src/stm32f0xx_hal_pcd.c ****   
 975:Drivers/STM32F0xx_HAL_Driver/Src/stm32f0xx_hal_pcd.c ****   if (ep->num == 0U)
 2582              		.loc 1 975 3 is_stmt 1 view .LVU576
 2583              		.loc 1 975 6 is_stmt 0 view .LVU577
 2584 0036 0029     		cmp	r1, #0
 2585 0038 1AD1     		bne	.L116
 2586              	.LBB31:
 976:Drivers/STM32F0xx_HAL_Driver/Src/stm32f0xx_hal_pcd.c ****   {
 977:Drivers/STM32F0xx_HAL_Driver/Src/stm32f0xx_hal_pcd.c ****     /* This macro sets STALL status for RX & TX*/ 
 978:Drivers/STM32F0xx_HAL_Driver/Src/stm32f0xx_hal_pcd.c ****     PCD_SET_EP_TXRX_STATUS(hpcd->Instance, ep->num, USB_EP_RX_STALL, USB_EP_TX_STALL)
 2587              		.loc 1 978 5 is_stmt 1 view .LVU578
 2588              		.loc 1 978 5 view .LVU579
 2589 003a 8900     		lsls	r1, r1, #2
 2590 003c 0368     		ldr	r3, [r0]
 2591              	.LVL181:
 2592              		.loc 1 978 5 is_stmt 0 view .LVU580
 2593 003e 9C46     		mov	ip, r3
 2594 0040 6144     		add	r1, r1, ip
 2595 0042 0A88     		ldrh	r2, [r1]
 2596              	.LVL182:
 2597              		.loc 1 978 5 is_stmt 1 view .LVU581
 2598              		.loc 1 978 5 view .LVU582
 2599              		.loc 1 978 5 view .LVU583
ARM GAS  /tmp/cc8iG1bp.s 			page 68


 2600              		.loc 1 978 5 view .LVU584
 2601              		.loc 1 978 5 view .LVU585
 2602              		.loc 1 978 5 view .LVU586
 2603              		.loc 1 978 5 view .LVU587
 2604 0044 1B4B     		ldr	r3, .L121
 2605 0046 1A40     		ands	r2, r3
 2606              	.LVL183:
 2607              		.loc 1 978 5 is_stmt 0 view .LVU588
 2608 0048 1B4B     		ldr	r3, .L121+4
 2609 004a 5A40     		eors	r2, r3
 2610 004c 1B4B     		ldr	r3, .L121+8
 2611 004e 1343     		orrs	r3, r2
 2612 0050 9BB2     		uxth	r3, r3
 2613 0052 0B80     		strh	r3, [r1]
 2614              	.L117:
 2615              		.loc 1 978 5 view .LVU589
 2616              	.LBE31:
 979:Drivers/STM32F0xx_HAL_Driver/Src/stm32f0xx_hal_pcd.c ****   }
 980:Drivers/STM32F0xx_HAL_Driver/Src/stm32f0xx_hal_pcd.c ****   else
 981:Drivers/STM32F0xx_HAL_Driver/Src/stm32f0xx_hal_pcd.c ****   {
 982:Drivers/STM32F0xx_HAL_Driver/Src/stm32f0xx_hal_pcd.c ****     if (ep->is_in)
 983:Drivers/STM32F0xx_HAL_Driver/Src/stm32f0xx_hal_pcd.c ****     {
 984:Drivers/STM32F0xx_HAL_Driver/Src/stm32f0xx_hal_pcd.c ****       PCD_SET_EP_TX_STATUS(hpcd->Instance, ep->num , USB_EP_TX_STALL)
 985:Drivers/STM32F0xx_HAL_Driver/Src/stm32f0xx_hal_pcd.c ****     }
 986:Drivers/STM32F0xx_HAL_Driver/Src/stm32f0xx_hal_pcd.c ****     else
 987:Drivers/STM32F0xx_HAL_Driver/Src/stm32f0xx_hal_pcd.c ****     {
 988:Drivers/STM32F0xx_HAL_Driver/Src/stm32f0xx_hal_pcd.c ****       PCD_SET_EP_RX_STATUS(hpcd->Instance, ep->num , USB_EP_RX_STALL)
 989:Drivers/STM32F0xx_HAL_Driver/Src/stm32f0xx_hal_pcd.c ****     }
 990:Drivers/STM32F0xx_HAL_Driver/Src/stm32f0xx_hal_pcd.c ****   }
 991:Drivers/STM32F0xx_HAL_Driver/Src/stm32f0xx_hal_pcd.c ****   __HAL_UNLOCK(hpcd); 
 2617              		.loc 1 991 3 is_stmt 1 view .LVU590
 2618              		.loc 1 991 3 view .LVU591
 2619 0054 F423     		movs	r3, #244
 2620 0056 5B00     		lsls	r3, r3, #1
 2621 0058 0022     		movs	r2, #0
 2622 005a C254     		strb	r2, [r0, r3]
 2623              		.loc 1 991 3 view .LVU592
 992:Drivers/STM32F0xx_HAL_Driver/Src/stm32f0xx_hal_pcd.c ****   
 993:Drivers/STM32F0xx_HAL_Driver/Src/stm32f0xx_hal_pcd.c ****   return HAL_OK;
 2624              		.loc 1 993 3 view .LVU593
 2625              		.loc 1 993 10 is_stmt 0 view .LVU594
 2626 005c 0020     		movs	r0, #0
 2627              	.LVL184:
 2628              	.L113:
 994:Drivers/STM32F0xx_HAL_Driver/Src/stm32f0xx_hal_pcd.c **** }
 2629              		.loc 1 994 1 view .LVU595
 2630              		@ sp needed
 2631 005e 10BD     		pop	{r4, pc}
 2632              	.LVL185:
 2633              	.L120:
 964:Drivers/STM32F0xx_HAL_Driver/Src/stm32f0xx_hal_pcd.c ****   }
 2634              		.loc 1 964 5 is_stmt 1 view .LVU596
 964:Drivers/STM32F0xx_HAL_Driver/Src/stm32f0xx_hal_pcd.c ****   }
 2635              		.loc 1 964 31 is_stmt 0 view .LVU597
 2636 0060 7F21     		movs	r1, #127
 2637              	.LVL186:
 964:Drivers/STM32F0xx_HAL_Driver/Src/stm32f0xx_hal_pcd.c ****   }
ARM GAS  /tmp/cc8iG1bp.s 			page 69


 2638              		.loc 1 964 31 view .LVU598
 2639 0062 2140     		ands	r1, r4
 964:Drivers/STM32F0xx_HAL_Driver/Src/stm32f0xx_hal_pcd.c ****   }
 2640              		.loc 1 964 8 view .LVU599
 2641 0064 CB00     		lsls	r3, r1, #3
 2642 0066 5B1A     		subs	r3, r3, r1
 2643 0068 9B00     		lsls	r3, r3, #2
 2644 006a 2833     		adds	r3, r3, #40
 2645 006c C318     		adds	r3, r0, r3
 2646              	.LVL187:
 964:Drivers/STM32F0xx_HAL_Driver/Src/stm32f0xx_hal_pcd.c ****   }
 2647              		.loc 1 964 8 view .LVU600
 2648 006e DBE7     		b	.L115
 2649              	.LVL188:
 2650              	.L116:
 982:Drivers/STM32F0xx_HAL_Driver/Src/stm32f0xx_hal_pcd.c ****     {
 2651              		.loc 1 982 5 is_stmt 1 view .LVU601
 982:Drivers/STM32F0xx_HAL_Driver/Src/stm32f0xx_hal_pcd.c ****     {
 2652              		.loc 1 982 8 is_stmt 0 view .LVU602
 2653 0070 002A     		cmp	r2, #0
 2654 0072 0ED0     		beq	.L118
 2655              	.LBB32:
 984:Drivers/STM32F0xx_HAL_Driver/Src/stm32f0xx_hal_pcd.c ****     }
 2656              		.loc 1 984 7 is_stmt 1 view .LVU603
 984:Drivers/STM32F0xx_HAL_Driver/Src/stm32f0xx_hal_pcd.c ****     }
 2657              		.loc 1 984 7 view .LVU604
 2658 0074 8900     		lsls	r1, r1, #2
 2659 0076 0368     		ldr	r3, [r0]
 2660              	.LVL189:
 984:Drivers/STM32F0xx_HAL_Driver/Src/stm32f0xx_hal_pcd.c ****     }
 2661              		.loc 1 984 7 is_stmt 0 view .LVU605
 2662 0078 9C46     		mov	ip, r3
 2663 007a 6144     		add	r1, r1, ip
 2664 007c 0B88     		ldrh	r3, [r1]
 2665 007e 104A     		ldr	r2, .L121+12
 2666 0080 1340     		ands	r3, r2
 2667              	.LVL190:
 984:Drivers/STM32F0xx_HAL_Driver/Src/stm32f0xx_hal_pcd.c ****     }
 2668              		.loc 1 984 7 is_stmt 1 view .LVU606
 984:Drivers/STM32F0xx_HAL_Driver/Src/stm32f0xx_hal_pcd.c ****     }
 2669              		.loc 1 984 7 view .LVU607
 2670 0082 1022     		movs	r2, #16
 2671 0084 5340     		eors	r3, r2
 2672              	.LVL191:
 984:Drivers/STM32F0xx_HAL_Driver/Src/stm32f0xx_hal_pcd.c ****     }
 2673              		.loc 1 984 7 is_stmt 0 view .LVU608
 2674 0086 9BB2     		uxth	r3, r3
 2675              	.LVL192:
 984:Drivers/STM32F0xx_HAL_Driver/Src/stm32f0xx_hal_pcd.c ****     }
 2676              		.loc 1 984 7 is_stmt 1 view .LVU609
 984:Drivers/STM32F0xx_HAL_Driver/Src/stm32f0xx_hal_pcd.c ****     }
 2677              		.loc 1 984 7 view .LVU610
 2678 0088 0C4A     		ldr	r2, .L121+8
 2679 008a 1343     		orrs	r3, r2
 2680              	.LVL193:
 984:Drivers/STM32F0xx_HAL_Driver/Src/stm32f0xx_hal_pcd.c ****     }
 2681              		.loc 1 984 7 is_stmt 0 view .LVU611
ARM GAS  /tmp/cc8iG1bp.s 			page 70


 2682 008c 9BB2     		uxth	r3, r3
 2683 008e 0B80     		strh	r3, [r1]
 2684              	.LBE32:
 2685 0090 E0E7     		b	.L117
 2686              	.LVL194:
 2687              	.L118:
 2688              	.LBB33:
 988:Drivers/STM32F0xx_HAL_Driver/Src/stm32f0xx_hal_pcd.c ****     }
 2689              		.loc 1 988 7 is_stmt 1 view .LVU612
 988:Drivers/STM32F0xx_HAL_Driver/Src/stm32f0xx_hal_pcd.c ****     }
 2690              		.loc 1 988 7 view .LVU613
 2691 0092 8900     		lsls	r1, r1, #2
 2692 0094 0368     		ldr	r3, [r0]
 2693              	.LVL195:
 988:Drivers/STM32F0xx_HAL_Driver/Src/stm32f0xx_hal_pcd.c ****     }
 2694              		.loc 1 988 7 is_stmt 0 view .LVU614
 2695 0096 9C46     		mov	ip, r3
 2696 0098 6144     		add	r1, r1, ip
 2697 009a 0A88     		ldrh	r2, [r1]
 2698 009c 094B     		ldr	r3, .L121+16
 2699 009e 1A40     		ands	r2, r3
 2700              	.LVL196:
 988:Drivers/STM32F0xx_HAL_Driver/Src/stm32f0xx_hal_pcd.c ****     }
 2701              		.loc 1 988 7 is_stmt 1 view .LVU615
 988:Drivers/STM32F0xx_HAL_Driver/Src/stm32f0xx_hal_pcd.c ****     }
 2702              		.loc 1 988 7 view .LVU616
 2703 00a0 8023     		movs	r3, #128
 2704 00a2 5B01     		lsls	r3, r3, #5
 2705 00a4 5A40     		eors	r2, r3
 2706              	.LVL197:
 988:Drivers/STM32F0xx_HAL_Driver/Src/stm32f0xx_hal_pcd.c ****     }
 2707              		.loc 1 988 7 view .LVU617
 988:Drivers/STM32F0xx_HAL_Driver/Src/stm32f0xx_hal_pcd.c ****     }
 2708              		.loc 1 988 7 view .LVU618
 2709 00a6 054B     		ldr	r3, .L121+8
 2710 00a8 1343     		orrs	r3, r2
 2711 00aa 9BB2     		uxth	r3, r3
 2712 00ac 0B80     		strh	r3, [r1]
 2713 00ae D1E7     		b	.L117
 2714              	.LVL198:
 2715              	.L119:
 988:Drivers/STM32F0xx_HAL_Driver/Src/stm32f0xx_hal_pcd.c ****     }
 2716              		.loc 1 988 7 is_stmt 0 view .LVU619
 2717              	.LBE33:
 960:Drivers/STM32F0xx_HAL_Driver/Src/stm32f0xx_hal_pcd.c ****    
 2718              		.loc 1 960 3 view .LVU620
 2719 00b0 0220     		movs	r0, #2
 2720              	.LVL199:
 960:Drivers/STM32F0xx_HAL_Driver/Src/stm32f0xx_hal_pcd.c ****    
 2721              		.loc 1 960 3 view .LVU621
 2722 00b2 D4E7     		b	.L113
 2723              	.L122:
 2724              		.align	2
 2725              	.L121:
 2726 00b4 BFBFFFFF 		.word	-16449
 2727 00b8 10100000 		.word	4112
 2728 00bc 8080FFFF 		.word	-32640
ARM GAS  /tmp/cc8iG1bp.s 			page 71


 2729 00c0 BF8FFFFF 		.word	-28737
 2730 00c4 8FBFFFFF 		.word	-16497
 2731              		.cfi_endproc
 2732              	.LFE63:
 2734              		.section	.text.HAL_PCD_EP_ClrStall,"ax",%progbits
 2735              		.align	1
 2736              		.global	HAL_PCD_EP_ClrStall
 2737              		.syntax unified
 2738              		.code	16
 2739              		.thumb_func
 2740              		.fpu softvfp
 2742              	HAL_PCD_EP_ClrStall:
 2743              	.LVL200:
 2744              	.LFB64:
 995:Drivers/STM32F0xx_HAL_Driver/Src/stm32f0xx_hal_pcd.c **** 
 996:Drivers/STM32F0xx_HAL_Driver/Src/stm32f0xx_hal_pcd.c **** /**
 997:Drivers/STM32F0xx_HAL_Driver/Src/stm32f0xx_hal_pcd.c ****   * @brief  Clear a STALL condition over in an endpoint
 998:Drivers/STM32F0xx_HAL_Driver/Src/stm32f0xx_hal_pcd.c ****   * @param  hpcd PCD handle
 999:Drivers/STM32F0xx_HAL_Driver/Src/stm32f0xx_hal_pcd.c ****   * @param  ep_addr endpoint address
1000:Drivers/STM32F0xx_HAL_Driver/Src/stm32f0xx_hal_pcd.c ****   * @retval HAL status
1001:Drivers/STM32F0xx_HAL_Driver/Src/stm32f0xx_hal_pcd.c ****   */
1002:Drivers/STM32F0xx_HAL_Driver/Src/stm32f0xx_hal_pcd.c **** HAL_StatusTypeDef HAL_PCD_EP_ClrStall(PCD_HandleTypeDef *hpcd, uint8_t ep_addr)
1003:Drivers/STM32F0xx_HAL_Driver/Src/stm32f0xx_hal_pcd.c **** {
 2745              		.loc 1 1003 1 is_stmt 1 view -0
 2746              		.cfi_startproc
 2747              		@ args = 0, pretend = 0, frame = 0
 2748              		@ frame_needed = 0, uses_anonymous_args = 0
 2749              		.loc 1 1003 1 is_stmt 0 view .LVU623
 2750 0000 10B5     		push	{r4, lr}
 2751              	.LCFI9:
 2752              		.cfi_def_cfa_offset 8
 2753              		.cfi_offset 4, -8
 2754              		.cfi_offset 14, -4
 2755 0002 0C00     		movs	r4, r1
1004:Drivers/STM32F0xx_HAL_Driver/Src/stm32f0xx_hal_pcd.c ****   PCD_EPTypeDef *ep;
 2756              		.loc 1 1004 3 is_stmt 1 view .LVU624
1005:Drivers/STM32F0xx_HAL_Driver/Src/stm32f0xx_hal_pcd.c ****   
1006:Drivers/STM32F0xx_HAL_Driver/Src/stm32f0xx_hal_pcd.c ****   if ((0x80U & ep_addr) == 0x80U)
 2757              		.loc 1 1006 3 view .LVU625
 2758              		.loc 1 1006 25 is_stmt 0 view .LVU626
 2759 0004 4AB2     		sxtb	r2, r1
 2760              		.loc 1 1006 6 view .LVU627
 2761 0006 002A     		cmp	r2, #0
 2762 0008 3CDB     		blt	.L132
1007:Drivers/STM32F0xx_HAL_Driver/Src/stm32f0xx_hal_pcd.c ****   {
1008:Drivers/STM32F0xx_HAL_Driver/Src/stm32f0xx_hal_pcd.c ****     ep = &hpcd->IN_ep[ep_addr & 0x7FU];
1009:Drivers/STM32F0xx_HAL_Driver/Src/stm32f0xx_hal_pcd.c ****   }
1010:Drivers/STM32F0xx_HAL_Driver/Src/stm32f0xx_hal_pcd.c ****   else
1011:Drivers/STM32F0xx_HAL_Driver/Src/stm32f0xx_hal_pcd.c ****   {
1012:Drivers/STM32F0xx_HAL_Driver/Src/stm32f0xx_hal_pcd.c ****     ep = &hpcd->OUT_ep[ep_addr];
 2763              		.loc 1 1012 5 is_stmt 1 view .LVU628
 2764              		.loc 1 1012 8 is_stmt 0 view .LVU629
 2765 000a CB00     		lsls	r3, r1, #3
 2766 000c 5B1A     		subs	r3, r3, r1
 2767 000e 9B00     		lsls	r3, r3, #2
 2768 0010 0933     		adds	r3, r3, #9
 2769 0012 FF33     		adds	r3, r3, #255
ARM GAS  /tmp/cc8iG1bp.s 			page 72


 2770 0014 C318     		adds	r3, r0, r3
 2771              	.LVL201:
 2772              	.L125:
1013:Drivers/STM32F0xx_HAL_Driver/Src/stm32f0xx_hal_pcd.c ****   }
1014:Drivers/STM32F0xx_HAL_Driver/Src/stm32f0xx_hal_pcd.c ****   
1015:Drivers/STM32F0xx_HAL_Driver/Src/stm32f0xx_hal_pcd.c ****   ep->is_stall = 0U;
 2773              		.loc 1 1015 3 is_stmt 1 view .LVU630
 2774              		.loc 1 1015 16 is_stmt 0 view .LVU631
 2775 0016 0021     		movs	r1, #0
 2776 0018 9970     		strb	r1, [r3, #2]
1016:Drivers/STM32F0xx_HAL_Driver/Src/stm32f0xx_hal_pcd.c ****   ep->num   = ep_addr & 0x7FU;
 2777              		.loc 1 1016 3 is_stmt 1 view .LVU632
 2778              		.loc 1 1016 23 is_stmt 0 view .LVU633
 2779 001a 7F31     		adds	r1, r1, #127
 2780 001c 2140     		ands	r1, r4
 2781              		.loc 1 1016 13 view .LVU634
 2782 001e 1970     		strb	r1, [r3]
1017:Drivers/STM32F0xx_HAL_Driver/Src/stm32f0xx_hal_pcd.c ****   ep->is_in = ((ep_addr & 0x80U) == 0x80U);
 2783              		.loc 1 1017 3 is_stmt 1 view .LVU635
 2784              		.loc 1 1017 34 is_stmt 0 view .LVU636
 2785 0020 D20F     		lsrs	r2, r2, #31
 2786              	.LVL202:
 2787              		.loc 1 1017 13 view .LVU637
 2788 0022 5A70     		strb	r2, [r3, #1]
1018:Drivers/STM32F0xx_HAL_Driver/Src/stm32f0xx_hal_pcd.c ****   
1019:Drivers/STM32F0xx_HAL_Driver/Src/stm32f0xx_hal_pcd.c ****   __HAL_LOCK(hpcd); 
 2789              		.loc 1 1019 3 is_stmt 1 view .LVU638
 2790              		.loc 1 1019 3 view .LVU639
 2791 0024 F422     		movs	r2, #244
 2792 0026 5200     		lsls	r2, r2, #1
 2793 0028 825C     		ldrb	r2, [r0, r2]
 2794 002a 012A     		cmp	r2, #1
 2795 002c 51D0     		beq	.L131
 2796              		.loc 1 1019 3 discriminator 2 view .LVU640
 2797 002e F422     		movs	r2, #244
 2798 0030 5200     		lsls	r2, r2, #1
 2799 0032 0121     		movs	r1, #1
 2800 0034 8154     		strb	r1, [r0, r2]
 2801              		.loc 1 1019 3 discriminator 2 view .LVU641
1020:Drivers/STM32F0xx_HAL_Driver/Src/stm32f0xx_hal_pcd.c ****   
1021:Drivers/STM32F0xx_HAL_Driver/Src/stm32f0xx_hal_pcd.c ****   if (ep->is_in)
 2802              		.loc 1 1021 3 discriminator 2 view .LVU642
 2803              		.loc 1 1021 9 is_stmt 0 discriminator 2 view .LVU643
 2804 0036 5A78     		ldrb	r2, [r3, #1]
 2805              		.loc 1 1021 6 discriminator 2 view .LVU644
 2806 0038 002A     		cmp	r2, #0
 2807 003a 2BD0     		beq	.L127
1022:Drivers/STM32F0xx_HAL_Driver/Src/stm32f0xx_hal_pcd.c ****   {
1023:Drivers/STM32F0xx_HAL_Driver/Src/stm32f0xx_hal_pcd.c ****     PCD_CLEAR_TX_DTOG(hpcd->Instance, ep->num)
 2808              		.loc 1 1023 5 is_stmt 1 view .LVU645
 2809 003c 1A78     		ldrb	r2, [r3]
 2810 003e 9200     		lsls	r2, r2, #2
 2811 0040 0168     		ldr	r1, [r0]
 2812 0042 8C46     		mov	ip, r1
 2813 0044 6244     		add	r2, r2, ip
 2814 0046 1188     		ldrh	r1, [r2]
 2815 0048 4906     		lsls	r1, r1, #25
ARM GAS  /tmp/cc8iG1bp.s 			page 73


 2816 004a 06D5     		bpl	.L128
 2817              		.loc 1 1023 5 discriminator 1 view .LVU646
 2818 004c 1188     		ldrh	r1, [r2]
 2819 004e 224C     		ldr	r4, .L133
 2820 0050 0C40     		ands	r4, r1
 2821 0052 2249     		ldr	r1, .L133+4
 2822 0054 2143     		orrs	r1, r4
 2823 0056 89B2     		uxth	r1, r1
 2824 0058 1180     		strh	r1, [r2]
 2825              	.L128:
 2826              	.LBB34:
1024:Drivers/STM32F0xx_HAL_Driver/Src/stm32f0xx_hal_pcd.c ****     PCD_SET_EP_TX_STATUS(hpcd->Instance, ep->num, USB_EP_TX_VALID)
 2827              		.loc 1 1024 5 view .LVU647
 2828              		.loc 1 1024 5 view .LVU648
 2829 005a 1978     		ldrb	r1, [r3]
 2830 005c 8900     		lsls	r1, r1, #2
 2831 005e 0368     		ldr	r3, [r0]
 2832              	.LVL203:
 2833              		.loc 1 1024 5 is_stmt 0 view .LVU649
 2834 0060 9C46     		mov	ip, r3
 2835 0062 6144     		add	r1, r1, ip
 2836 0064 0B88     		ldrh	r3, [r1]
 2837 0066 1E4A     		ldr	r2, .L133+8
 2838 0068 1340     		ands	r3, r2
 2839              	.LVL204:
 2840              		.loc 1 1024 5 is_stmt 1 view .LVU650
 2841              		.loc 1 1024 5 view .LVU651
 2842              		.loc 1 1024 5 view .LVU652
 2843              		.loc 1 1024 5 view .LVU653
 2844 006a 3022     		movs	r2, #48
 2845 006c 5340     		eors	r3, r2
 2846              	.LVL205:
 2847              		.loc 1 1024 5 is_stmt 0 view .LVU654
 2848 006e 9BB2     		uxth	r3, r3
 2849              	.LVL206:
 2850              		.loc 1 1024 5 is_stmt 1 view .LVU655
 2851 0070 1C4A     		ldr	r2, .L133+12
 2852 0072 1343     		orrs	r3, r2
 2853              	.LVL207:
 2854              		.loc 1 1024 5 is_stmt 0 view .LVU656
 2855 0074 9BB2     		uxth	r3, r3
 2856 0076 0B80     		strh	r3, [r1]
 2857              	.L129:
 2858              		.loc 1 1024 5 view .LVU657
 2859              	.LBE34:
1025:Drivers/STM32F0xx_HAL_Driver/Src/stm32f0xx_hal_pcd.c ****   }
1026:Drivers/STM32F0xx_HAL_Driver/Src/stm32f0xx_hal_pcd.c ****   else
1027:Drivers/STM32F0xx_HAL_Driver/Src/stm32f0xx_hal_pcd.c ****   {
1028:Drivers/STM32F0xx_HAL_Driver/Src/stm32f0xx_hal_pcd.c ****     PCD_CLEAR_RX_DTOG(hpcd->Instance, ep->num)
1029:Drivers/STM32F0xx_HAL_Driver/Src/stm32f0xx_hal_pcd.c ****     PCD_SET_EP_RX_STATUS(hpcd->Instance, ep->num, USB_EP_RX_VALID)
1030:Drivers/STM32F0xx_HAL_Driver/Src/stm32f0xx_hal_pcd.c ****   }
1031:Drivers/STM32F0xx_HAL_Driver/Src/stm32f0xx_hal_pcd.c ****   __HAL_UNLOCK(hpcd); 
 2860              		.loc 1 1031 3 is_stmt 1 view .LVU658
 2861              		.loc 1 1031 3 view .LVU659
 2862 0078 F423     		movs	r3, #244
 2863 007a 5B00     		lsls	r3, r3, #1
 2864 007c 0022     		movs	r2, #0
ARM GAS  /tmp/cc8iG1bp.s 			page 74


 2865 007e C254     		strb	r2, [r0, r3]
 2866              		.loc 1 1031 3 view .LVU660
1032:Drivers/STM32F0xx_HAL_Driver/Src/stm32f0xx_hal_pcd.c ****     
1033:Drivers/STM32F0xx_HAL_Driver/Src/stm32f0xx_hal_pcd.c ****   return HAL_OK;
 2867              		.loc 1 1033 3 view .LVU661
 2868              		.loc 1 1033 10 is_stmt 0 view .LVU662
 2869 0080 0020     		movs	r0, #0
 2870              	.LVL208:
 2871              	.L126:
1034:Drivers/STM32F0xx_HAL_Driver/Src/stm32f0xx_hal_pcd.c **** }
 2872              		.loc 1 1034 1 view .LVU663
 2873              		@ sp needed
 2874 0082 10BD     		pop	{r4, pc}
 2875              	.LVL209:
 2876              	.L132:
1008:Drivers/STM32F0xx_HAL_Driver/Src/stm32f0xx_hal_pcd.c ****   }
 2877              		.loc 1 1008 5 is_stmt 1 view .LVU664
1008:Drivers/STM32F0xx_HAL_Driver/Src/stm32f0xx_hal_pcd.c ****   }
 2878              		.loc 1 1008 31 is_stmt 0 view .LVU665
 2879 0084 7F21     		movs	r1, #127
 2880              	.LVL210:
1008:Drivers/STM32F0xx_HAL_Driver/Src/stm32f0xx_hal_pcd.c ****   }
 2881              		.loc 1 1008 31 view .LVU666
 2882 0086 2140     		ands	r1, r4
1008:Drivers/STM32F0xx_HAL_Driver/Src/stm32f0xx_hal_pcd.c ****   }
 2883              		.loc 1 1008 8 view .LVU667
 2884 0088 CB00     		lsls	r3, r1, #3
 2885 008a 5B1A     		subs	r3, r3, r1
 2886 008c 9B00     		lsls	r3, r3, #2
 2887 008e 2833     		adds	r3, r3, #40
 2888 0090 C318     		adds	r3, r0, r3
 2889              	.LVL211:
1008:Drivers/STM32F0xx_HAL_Driver/Src/stm32f0xx_hal_pcd.c ****   }
 2890              		.loc 1 1008 8 view .LVU668
 2891 0092 C0E7     		b	.L125
 2892              	.LVL212:
 2893              	.L127:
1028:Drivers/STM32F0xx_HAL_Driver/Src/stm32f0xx_hal_pcd.c ****     PCD_SET_EP_RX_STATUS(hpcd->Instance, ep->num, USB_EP_RX_VALID)
 2894              		.loc 1 1028 5 is_stmt 1 view .LVU669
 2895 0094 1A78     		ldrb	r2, [r3]
 2896 0096 9200     		lsls	r2, r2, #2
 2897 0098 0168     		ldr	r1, [r0]
 2898 009a 8C46     		mov	ip, r1
 2899 009c 6244     		add	r2, r2, ip
 2900 009e 1188     		ldrh	r1, [r2]
 2901 00a0 4904     		lsls	r1, r1, #17
 2902 00a2 06D5     		bpl	.L130
1028:Drivers/STM32F0xx_HAL_Driver/Src/stm32f0xx_hal_pcd.c ****     PCD_SET_EP_RX_STATUS(hpcd->Instance, ep->num, USB_EP_RX_VALID)
 2903              		.loc 1 1028 5 discriminator 1 view .LVU670
 2904 00a4 1188     		ldrh	r1, [r2]
 2905 00a6 0C4C     		ldr	r4, .L133
 2906 00a8 0C40     		ands	r4, r1
 2907 00aa 0F49     		ldr	r1, .L133+16
 2908 00ac 2143     		orrs	r1, r4
 2909 00ae 89B2     		uxth	r1, r1
 2910 00b0 1180     		strh	r1, [r2]
 2911              	.L130:
ARM GAS  /tmp/cc8iG1bp.s 			page 75


 2912              	.LBB35:
1029:Drivers/STM32F0xx_HAL_Driver/Src/stm32f0xx_hal_pcd.c ****   }
 2913              		.loc 1 1029 5 view .LVU671
1029:Drivers/STM32F0xx_HAL_Driver/Src/stm32f0xx_hal_pcd.c ****   }
 2914              		.loc 1 1029 5 view .LVU672
 2915 00b2 1A78     		ldrb	r2, [r3]
 2916 00b4 9200     		lsls	r2, r2, #2
 2917 00b6 0368     		ldr	r3, [r0]
 2918              	.LVL213:
1029:Drivers/STM32F0xx_HAL_Driver/Src/stm32f0xx_hal_pcd.c ****   }
 2919              		.loc 1 1029 5 is_stmt 0 view .LVU673
 2920 00b8 9C46     		mov	ip, r3
 2921 00ba 6244     		add	r2, r2, ip
 2922 00bc 1188     		ldrh	r1, [r2]
 2923 00be 0B4B     		ldr	r3, .L133+20
 2924 00c0 1940     		ands	r1, r3
 2925              	.LVL214:
1029:Drivers/STM32F0xx_HAL_Driver/Src/stm32f0xx_hal_pcd.c ****   }
 2926              		.loc 1 1029 5 is_stmt 1 view .LVU674
1029:Drivers/STM32F0xx_HAL_Driver/Src/stm32f0xx_hal_pcd.c ****   }
 2927              		.loc 1 1029 5 view .LVU675
1029:Drivers/STM32F0xx_HAL_Driver/Src/stm32f0xx_hal_pcd.c ****   }
 2928              		.loc 1 1029 5 view .LVU676
1029:Drivers/STM32F0xx_HAL_Driver/Src/stm32f0xx_hal_pcd.c ****   }
 2929              		.loc 1 1029 5 view .LVU677
 2930 00c2 C023     		movs	r3, #192
 2931 00c4 9B01     		lsls	r3, r3, #6
 2932 00c6 5940     		eors	r1, r3
 2933              	.LVL215:
1029:Drivers/STM32F0xx_HAL_Driver/Src/stm32f0xx_hal_pcd.c ****   }
 2934              		.loc 1 1029 5 view .LVU678
 2935 00c8 064B     		ldr	r3, .L133+12
 2936 00ca 0B43     		orrs	r3, r1
 2937 00cc 9BB2     		uxth	r3, r3
 2938 00ce 1380     		strh	r3, [r2]
 2939 00d0 D2E7     		b	.L129
 2940              	.LVL216:
 2941              	.L131:
1029:Drivers/STM32F0xx_HAL_Driver/Src/stm32f0xx_hal_pcd.c ****   }
 2942              		.loc 1 1029 5 is_stmt 0 view .LVU679
 2943              	.LBE35:
1019:Drivers/STM32F0xx_HAL_Driver/Src/stm32f0xx_hal_pcd.c ****   
 2944              		.loc 1 1019 3 view .LVU680
 2945 00d2 0220     		movs	r0, #2
 2946              	.LVL217:
1019:Drivers/STM32F0xx_HAL_Driver/Src/stm32f0xx_hal_pcd.c ****   
 2947              		.loc 1 1019 3 view .LVU681
 2948 00d4 D5E7     		b	.L126
 2949              	.L134:
 2950 00d6 C046     		.align	2
 2951              	.L133:
 2952 00d8 0F0F0000 		.word	3855
 2953 00dc C080FFFF 		.word	-32576
 2954 00e0 BF8FFFFF 		.word	-28737
 2955 00e4 8080FFFF 		.word	-32640
 2956 00e8 80C0FFFF 		.word	-16256
 2957 00ec 8FBFFFFF 		.word	-16497
ARM GAS  /tmp/cc8iG1bp.s 			page 76


 2958              		.cfi_endproc
 2959              	.LFE64:
 2961              		.section	.text.HAL_PCD_EP_Flush,"ax",%progbits
 2962              		.align	1
 2963              		.global	HAL_PCD_EP_Flush
 2964              		.syntax unified
 2965              		.code	16
 2966              		.thumb_func
 2967              		.fpu softvfp
 2969              	HAL_PCD_EP_Flush:
 2970              	.LVL218:
 2971              	.LFB65:
1035:Drivers/STM32F0xx_HAL_Driver/Src/stm32f0xx_hal_pcd.c **** 
1036:Drivers/STM32F0xx_HAL_Driver/Src/stm32f0xx_hal_pcd.c **** /**
1037:Drivers/STM32F0xx_HAL_Driver/Src/stm32f0xx_hal_pcd.c ****   * @brief  Flush an endpoint
1038:Drivers/STM32F0xx_HAL_Driver/Src/stm32f0xx_hal_pcd.c ****   * @param  hpcd PCD handle
1039:Drivers/STM32F0xx_HAL_Driver/Src/stm32f0xx_hal_pcd.c ****   * @param  ep_addr endpoint address
1040:Drivers/STM32F0xx_HAL_Driver/Src/stm32f0xx_hal_pcd.c ****   * @retval HAL status
1041:Drivers/STM32F0xx_HAL_Driver/Src/stm32f0xx_hal_pcd.c ****   */
1042:Drivers/STM32F0xx_HAL_Driver/Src/stm32f0xx_hal_pcd.c **** HAL_StatusTypeDef HAL_PCD_EP_Flush(PCD_HandleTypeDef *hpcd, uint8_t ep_addr)
1043:Drivers/STM32F0xx_HAL_Driver/Src/stm32f0xx_hal_pcd.c **** { 
 2972              		.loc 1 1043 1 is_stmt 1 view -0
 2973              		.cfi_startproc
 2974              		@ args = 0, pretend = 0, frame = 0
 2975              		@ frame_needed = 0, uses_anonymous_args = 0
 2976              		@ link register save eliminated.
1044:Drivers/STM32F0xx_HAL_Driver/Src/stm32f0xx_hal_pcd.c ****   return HAL_OK;
 2977              		.loc 1 1044 3 view .LVU683
1045:Drivers/STM32F0xx_HAL_Driver/Src/stm32f0xx_hal_pcd.c **** }
 2978              		.loc 1 1045 1 is_stmt 0 view .LVU684
 2979 0000 0020     		movs	r0, #0
 2980              	.LVL219:
 2981              		.loc 1 1045 1 view .LVU685
 2982              		@ sp needed
 2983 0002 7047     		bx	lr
 2984              		.cfi_endproc
 2985              	.LFE65:
 2987              		.section	.text.HAL_PCD_ActivateRemoteWakeup,"ax",%progbits
 2988              		.align	1
 2989              		.global	HAL_PCD_ActivateRemoteWakeup
 2990              		.syntax unified
 2991              		.code	16
 2992              		.thumb_func
 2993              		.fpu softvfp
 2995              	HAL_PCD_ActivateRemoteWakeup:
 2996              	.LVL220:
 2997              	.LFB66:
1046:Drivers/STM32F0xx_HAL_Driver/Src/stm32f0xx_hal_pcd.c **** 
1047:Drivers/STM32F0xx_HAL_Driver/Src/stm32f0xx_hal_pcd.c **** /**
1048:Drivers/STM32F0xx_HAL_Driver/Src/stm32f0xx_hal_pcd.c ****   * @brief  HAL_PCD_ActivateRemoteWakeup : active remote wakeup signalling
1049:Drivers/STM32F0xx_HAL_Driver/Src/stm32f0xx_hal_pcd.c **** * @param  hpcd PCD handle
1050:Drivers/STM32F0xx_HAL_Driver/Src/stm32f0xx_hal_pcd.c **** * @retval HAL status
1051:Drivers/STM32F0xx_HAL_Driver/Src/stm32f0xx_hal_pcd.c **** */
1052:Drivers/STM32F0xx_HAL_Driver/Src/stm32f0xx_hal_pcd.c **** HAL_StatusTypeDef HAL_PCD_ActivateRemoteWakeup(PCD_HandleTypeDef *hpcd)
1053:Drivers/STM32F0xx_HAL_Driver/Src/stm32f0xx_hal_pcd.c **** {
 2998              		.loc 1 1053 1 is_stmt 1 view -0
 2999              		.cfi_startproc
ARM GAS  /tmp/cc8iG1bp.s 			page 77


 3000              		@ args = 0, pretend = 0, frame = 0
 3001              		@ frame_needed = 0, uses_anonymous_args = 0
 3002              		@ link register save eliminated.
1054:Drivers/STM32F0xx_HAL_Driver/Src/stm32f0xx_hal_pcd.c ****   if (hpcd->Init.lpm_enable ==1)
 3003              		.loc 1 1054 3 view .LVU687
 3004              		.loc 1 1054 6 is_stmt 0 view .LVU688
 3005 0000 C369     		ldr	r3, [r0, #28]
 3006 0002 012B     		cmp	r3, #1
 3007 0004 08D0     		beq	.L139
1055:Drivers/STM32F0xx_HAL_Driver/Src/stm32f0xx_hal_pcd.c ****   {
1056:Drivers/STM32F0xx_HAL_Driver/Src/stm32f0xx_hal_pcd.c ****     /* Apply L1 Resume */
1057:Drivers/STM32F0xx_HAL_Driver/Src/stm32f0xx_hal_pcd.c ****     hpcd->Instance->CNTR |= USB_CNTR_L1RESUME;
1058:Drivers/STM32F0xx_HAL_Driver/Src/stm32f0xx_hal_pcd.c ****   }
1059:Drivers/STM32F0xx_HAL_Driver/Src/stm32f0xx_hal_pcd.c ****   else
1060:Drivers/STM32F0xx_HAL_Driver/Src/stm32f0xx_hal_pcd.c ****   {
1061:Drivers/STM32F0xx_HAL_Driver/Src/stm32f0xx_hal_pcd.c ****     /* Apply L2 Resume */
1062:Drivers/STM32F0xx_HAL_Driver/Src/stm32f0xx_hal_pcd.c ****     hpcd->Instance->CNTR |= USB_CNTR_RESUME;
 3008              		.loc 1 1062 5 is_stmt 1 view .LVU689
 3009              		.loc 1 1062 9 is_stmt 0 view .LVU690
 3010 0006 0168     		ldr	r1, [r0]
 3011              		.loc 1 1062 26 view .LVU691
 3012 0008 4022     		movs	r2, #64
 3013 000a 8B5A     		ldrh	r3, [r1, r2]
 3014 000c 1020     		movs	r0, #16
 3015              	.LVL221:
 3016              		.loc 1 1062 26 view .LVU692
 3017 000e 0343     		orrs	r3, r0
 3018 0010 9BB2     		uxth	r3, r3
 3019 0012 8B52     		strh	r3, [r1, r2]
 3020              	.L138:
1063:Drivers/STM32F0xx_HAL_Driver/Src/stm32f0xx_hal_pcd.c ****   }
1064:Drivers/STM32F0xx_HAL_Driver/Src/stm32f0xx_hal_pcd.c ****   
1065:Drivers/STM32F0xx_HAL_Driver/Src/stm32f0xx_hal_pcd.c ****   return (HAL_OK);
 3021              		.loc 1 1065 3 is_stmt 1 view .LVU693
1066:Drivers/STM32F0xx_HAL_Driver/Src/stm32f0xx_hal_pcd.c **** }
 3022              		.loc 1 1066 1 is_stmt 0 view .LVU694
 3023 0014 0020     		movs	r0, #0
 3024              		@ sp needed
 3025 0016 7047     		bx	lr
 3026              	.LVL222:
 3027              	.L139:
1057:Drivers/STM32F0xx_HAL_Driver/Src/stm32f0xx_hal_pcd.c ****   }
 3028              		.loc 1 1057 5 is_stmt 1 view .LVU695
1057:Drivers/STM32F0xx_HAL_Driver/Src/stm32f0xx_hal_pcd.c ****   }
 3029              		.loc 1 1057 9 is_stmt 0 view .LVU696
 3030 0018 0168     		ldr	r1, [r0]
1057:Drivers/STM32F0xx_HAL_Driver/Src/stm32f0xx_hal_pcd.c ****   }
 3031              		.loc 1 1057 26 view .LVU697
 3032 001a 4022     		movs	r2, #64
 3033 001c 8B5A     		ldrh	r3, [r1, r2]
 3034 001e 2020     		movs	r0, #32
 3035              	.LVL223:
1057:Drivers/STM32F0xx_HAL_Driver/Src/stm32f0xx_hal_pcd.c ****   }
 3036              		.loc 1 1057 26 view .LVU698
 3037 0020 0343     		orrs	r3, r0
 3038 0022 9BB2     		uxth	r3, r3
 3039 0024 8B52     		strh	r3, [r1, r2]
ARM GAS  /tmp/cc8iG1bp.s 			page 78


 3040 0026 F5E7     		b	.L138
 3041              		.cfi_endproc
 3042              	.LFE66:
 3044              		.section	.text.HAL_PCD_DeActivateRemoteWakeup,"ax",%progbits
 3045              		.align	1
 3046              		.global	HAL_PCD_DeActivateRemoteWakeup
 3047              		.syntax unified
 3048              		.code	16
 3049              		.thumb_func
 3050              		.fpu softvfp
 3052              	HAL_PCD_DeActivateRemoteWakeup:
 3053              	.LVL224:
 3054              	.LFB67:
1067:Drivers/STM32F0xx_HAL_Driver/Src/stm32f0xx_hal_pcd.c **** 
1068:Drivers/STM32F0xx_HAL_Driver/Src/stm32f0xx_hal_pcd.c **** /**
1069:Drivers/STM32F0xx_HAL_Driver/Src/stm32f0xx_hal_pcd.c **** * @brief  HAL_PCD_DeActivateRemoteWakeup : de-active remote wakeup signalling
1070:Drivers/STM32F0xx_HAL_Driver/Src/stm32f0xx_hal_pcd.c **** * @param  hpcd PCD handle
1071:Drivers/STM32F0xx_HAL_Driver/Src/stm32f0xx_hal_pcd.c **** * @retval HAL status
1072:Drivers/STM32F0xx_HAL_Driver/Src/stm32f0xx_hal_pcd.c **** */
1073:Drivers/STM32F0xx_HAL_Driver/Src/stm32f0xx_hal_pcd.c **** HAL_StatusTypeDef HAL_PCD_DeActivateRemoteWakeup(PCD_HandleTypeDef *hpcd)
1074:Drivers/STM32F0xx_HAL_Driver/Src/stm32f0xx_hal_pcd.c **** {
 3055              		.loc 1 1074 1 is_stmt 1 view -0
 3056              		.cfi_startproc
 3057              		@ args = 0, pretend = 0, frame = 0
 3058              		@ frame_needed = 0, uses_anonymous_args = 0
 3059              		@ link register save eliminated.
1075:Drivers/STM32F0xx_HAL_Driver/Src/stm32f0xx_hal_pcd.c ****   if (hpcd->Init.lpm_enable ==1)
 3060              		.loc 1 1075 3 view .LVU700
 3061              		.loc 1 1075 6 is_stmt 0 view .LVU701
 3062 0000 C369     		ldr	r3, [r0, #28]
 3063 0002 012B     		cmp	r3, #1
 3064 0004 07D0     		beq	.L143
1076:Drivers/STM32F0xx_HAL_Driver/Src/stm32f0xx_hal_pcd.c ****   {
1077:Drivers/STM32F0xx_HAL_Driver/Src/stm32f0xx_hal_pcd.c ****     /* Release L1 Resume */
1078:Drivers/STM32F0xx_HAL_Driver/Src/stm32f0xx_hal_pcd.c ****     hpcd->Instance->CNTR &= ((uint16_t)(~ USB_CNTR_L1RESUME));
1079:Drivers/STM32F0xx_HAL_Driver/Src/stm32f0xx_hal_pcd.c ****   }
1080:Drivers/STM32F0xx_HAL_Driver/Src/stm32f0xx_hal_pcd.c ****   else
1081:Drivers/STM32F0xx_HAL_Driver/Src/stm32f0xx_hal_pcd.c ****   {
1082:Drivers/STM32F0xx_HAL_Driver/Src/stm32f0xx_hal_pcd.c ****     /* Release L2 Resume */
1083:Drivers/STM32F0xx_HAL_Driver/Src/stm32f0xx_hal_pcd.c ****     hpcd->Instance->CNTR &= ((uint16_t)(~ USB_CNTR_RESUME)) ;
 3065              		.loc 1 1083 5 is_stmt 1 view .LVU702
 3066              		.loc 1 1083 9 is_stmt 0 view .LVU703
 3067 0006 0168     		ldr	r1, [r0]
 3068              		.loc 1 1083 26 view .LVU704
 3069 0008 4022     		movs	r2, #64
 3070 000a 8B5A     		ldrh	r3, [r1, r2]
 3071 000c 1020     		movs	r0, #16
 3072              	.LVL225:
 3073              		.loc 1 1083 26 view .LVU705
 3074 000e 8343     		bics	r3, r0
 3075 0010 8B52     		strh	r3, [r1, r2]
 3076              	.L142:
1084:Drivers/STM32F0xx_HAL_Driver/Src/stm32f0xx_hal_pcd.c ****   }
1085:Drivers/STM32F0xx_HAL_Driver/Src/stm32f0xx_hal_pcd.c ****   
1086:Drivers/STM32F0xx_HAL_Driver/Src/stm32f0xx_hal_pcd.c ****   return (HAL_OK);
 3077              		.loc 1 1086 3 is_stmt 1 view .LVU706
1087:Drivers/STM32F0xx_HAL_Driver/Src/stm32f0xx_hal_pcd.c **** }
ARM GAS  /tmp/cc8iG1bp.s 			page 79


 3078              		.loc 1 1087 1 is_stmt 0 view .LVU707
 3079 0012 0020     		movs	r0, #0
 3080              		@ sp needed
 3081 0014 7047     		bx	lr
 3082              	.LVL226:
 3083              	.L143:
1078:Drivers/STM32F0xx_HAL_Driver/Src/stm32f0xx_hal_pcd.c ****   }
 3084              		.loc 1 1078 5 is_stmt 1 view .LVU708
1078:Drivers/STM32F0xx_HAL_Driver/Src/stm32f0xx_hal_pcd.c ****   }
 3085              		.loc 1 1078 9 is_stmt 0 view .LVU709
 3086 0016 0168     		ldr	r1, [r0]
1078:Drivers/STM32F0xx_HAL_Driver/Src/stm32f0xx_hal_pcd.c ****   }
 3087              		.loc 1 1078 26 view .LVU710
 3088 0018 4022     		movs	r2, #64
 3089 001a 8B5A     		ldrh	r3, [r1, r2]
 3090 001c 2020     		movs	r0, #32
 3091              	.LVL227:
1078:Drivers/STM32F0xx_HAL_Driver/Src/stm32f0xx_hal_pcd.c ****   }
 3092              		.loc 1 1078 26 view .LVU711
 3093 001e 8343     		bics	r3, r0
 3094 0020 8B52     		strh	r3, [r1, r2]
 3095 0022 F6E7     		b	.L142
 3096              		.cfi_endproc
 3097              	.LFE67:
 3099              		.section	.text.HAL_PCD_GetState,"ax",%progbits
 3100              		.align	1
 3101              		.global	HAL_PCD_GetState
 3102              		.syntax unified
 3103              		.code	16
 3104              		.thumb_func
 3105              		.fpu softvfp
 3107              	HAL_PCD_GetState:
 3108              	.LVL228:
 3109              	.LFB68:
1088:Drivers/STM32F0xx_HAL_Driver/Src/stm32f0xx_hal_pcd.c **** /**
1089:Drivers/STM32F0xx_HAL_Driver/Src/stm32f0xx_hal_pcd.c ****   * @}
1090:Drivers/STM32F0xx_HAL_Driver/Src/stm32f0xx_hal_pcd.c ****   */
1091:Drivers/STM32F0xx_HAL_Driver/Src/stm32f0xx_hal_pcd.c **** 
1092:Drivers/STM32F0xx_HAL_Driver/Src/stm32f0xx_hal_pcd.c **** /** @defgroup PCD_Exported_Functions_Group4 Peripheral State functions 
1093:Drivers/STM32F0xx_HAL_Driver/Src/stm32f0xx_hal_pcd.c ****  *  @brief   Peripheral State functions 
1094:Drivers/STM32F0xx_HAL_Driver/Src/stm32f0xx_hal_pcd.c ****  *
1095:Drivers/STM32F0xx_HAL_Driver/Src/stm32f0xx_hal_pcd.c **** @verbatim   
1096:Drivers/STM32F0xx_HAL_Driver/Src/stm32f0xx_hal_pcd.c ****  ===============================================================================
1097:Drivers/STM32F0xx_HAL_Driver/Src/stm32f0xx_hal_pcd.c ****                       ##### Peripheral State functions #####
1098:Drivers/STM32F0xx_HAL_Driver/Src/stm32f0xx_hal_pcd.c ****  ===============================================================================  
1099:Drivers/STM32F0xx_HAL_Driver/Src/stm32f0xx_hal_pcd.c ****     [..]
1100:Drivers/STM32F0xx_HAL_Driver/Src/stm32f0xx_hal_pcd.c ****     This subsection permits to get in run-time the status of the peripheral 
1101:Drivers/STM32F0xx_HAL_Driver/Src/stm32f0xx_hal_pcd.c ****     and the data flow.
1102:Drivers/STM32F0xx_HAL_Driver/Src/stm32f0xx_hal_pcd.c **** 
1103:Drivers/STM32F0xx_HAL_Driver/Src/stm32f0xx_hal_pcd.c **** @endverbatim
1104:Drivers/STM32F0xx_HAL_Driver/Src/stm32f0xx_hal_pcd.c ****   * @{
1105:Drivers/STM32F0xx_HAL_Driver/Src/stm32f0xx_hal_pcd.c ****   */
1106:Drivers/STM32F0xx_HAL_Driver/Src/stm32f0xx_hal_pcd.c **** 
1107:Drivers/STM32F0xx_HAL_Driver/Src/stm32f0xx_hal_pcd.c **** /**
1108:Drivers/STM32F0xx_HAL_Driver/Src/stm32f0xx_hal_pcd.c ****   * @brief  Return the PCD state
1109:Drivers/STM32F0xx_HAL_Driver/Src/stm32f0xx_hal_pcd.c ****   * @param  hpcd PCD handle
1110:Drivers/STM32F0xx_HAL_Driver/Src/stm32f0xx_hal_pcd.c ****   * @retval HAL state
ARM GAS  /tmp/cc8iG1bp.s 			page 80


1111:Drivers/STM32F0xx_HAL_Driver/Src/stm32f0xx_hal_pcd.c ****   */
1112:Drivers/STM32F0xx_HAL_Driver/Src/stm32f0xx_hal_pcd.c **** PCD_StateTypeDef HAL_PCD_GetState(PCD_HandleTypeDef *hpcd)
1113:Drivers/STM32F0xx_HAL_Driver/Src/stm32f0xx_hal_pcd.c **** {
 3110              		.loc 1 1113 1 is_stmt 1 view -0
 3111              		.cfi_startproc
 3112              		@ args = 0, pretend = 0, frame = 0
 3113              		@ frame_needed = 0, uses_anonymous_args = 0
 3114              		@ link register save eliminated.
1114:Drivers/STM32F0xx_HAL_Driver/Src/stm32f0xx_hal_pcd.c ****   return hpcd->State;
 3115              		.loc 1 1114 3 view .LVU713
 3116              		.loc 1 1114 14 is_stmt 0 view .LVU714
 3117 0000 EA23     		movs	r3, #234
 3118 0002 FF33     		adds	r3, r3, #255
 3119 0004 C05C     		ldrb	r0, [r0, r3]
 3120              	.LVL229:
 3121              		.loc 1 1114 14 view .LVU715
 3122 0006 C0B2     		uxtb	r0, r0
1115:Drivers/STM32F0xx_HAL_Driver/Src/stm32f0xx_hal_pcd.c **** }
 3123              		.loc 1 1115 1 view .LVU716
 3124              		@ sp needed
 3125 0008 7047     		bx	lr
 3126              		.cfi_endproc
 3127              	.LFE68:
 3129              		.section	.text.PCD_WritePMA,"ax",%progbits
 3130              		.align	1
 3131              		.global	PCD_WritePMA
 3132              		.syntax unified
 3133              		.code	16
 3134              		.thumb_func
 3135              		.fpu softvfp
 3137              	PCD_WritePMA:
 3138              	.LVL230:
 3139              	.LFB69:
1116:Drivers/STM32F0xx_HAL_Driver/Src/stm32f0xx_hal_pcd.c **** /**
1117:Drivers/STM32F0xx_HAL_Driver/Src/stm32f0xx_hal_pcd.c ****   * @}
1118:Drivers/STM32F0xx_HAL_Driver/Src/stm32f0xx_hal_pcd.c ****   */
1119:Drivers/STM32F0xx_HAL_Driver/Src/stm32f0xx_hal_pcd.c ****   
1120:Drivers/STM32F0xx_HAL_Driver/Src/stm32f0xx_hal_pcd.c **** /**
1121:Drivers/STM32F0xx_HAL_Driver/Src/stm32f0xx_hal_pcd.c ****   * @}
1122:Drivers/STM32F0xx_HAL_Driver/Src/stm32f0xx_hal_pcd.c ****   */
1123:Drivers/STM32F0xx_HAL_Driver/Src/stm32f0xx_hal_pcd.c **** 
1124:Drivers/STM32F0xx_HAL_Driver/Src/stm32f0xx_hal_pcd.c **** /** @addtogroup PCD_Private_Functions
1125:Drivers/STM32F0xx_HAL_Driver/Src/stm32f0xx_hal_pcd.c ****   * @{
1126:Drivers/STM32F0xx_HAL_Driver/Src/stm32f0xx_hal_pcd.c ****   */
1127:Drivers/STM32F0xx_HAL_Driver/Src/stm32f0xx_hal_pcd.c **** /**
1128:Drivers/STM32F0xx_HAL_Driver/Src/stm32f0xx_hal_pcd.c ****   * @brief Copy a buffer from user memory area to packet memory area (PMA)
1129:Drivers/STM32F0xx_HAL_Driver/Src/stm32f0xx_hal_pcd.c ****   * @param   USBx USB peripheral instance register address.
1130:Drivers/STM32F0xx_HAL_Driver/Src/stm32f0xx_hal_pcd.c ****   * @param   pbUsrBuf pointer to user memory area.
1131:Drivers/STM32F0xx_HAL_Driver/Src/stm32f0xx_hal_pcd.c ****   * @param   wPMABufAddr address into PMA.
1132:Drivers/STM32F0xx_HAL_Driver/Src/stm32f0xx_hal_pcd.c ****   * @param   wNBytes no. of bytes to be copied.
1133:Drivers/STM32F0xx_HAL_Driver/Src/stm32f0xx_hal_pcd.c ****   * @retval None
1134:Drivers/STM32F0xx_HAL_Driver/Src/stm32f0xx_hal_pcd.c ****   */
1135:Drivers/STM32F0xx_HAL_Driver/Src/stm32f0xx_hal_pcd.c **** void PCD_WritePMA(USB_TypeDef  *USBx, uint8_t *pbUsrBuf, uint16_t wPMABufAddr, uint16_t wNBytes)
1136:Drivers/STM32F0xx_HAL_Driver/Src/stm32f0xx_hal_pcd.c **** {
 3140              		.loc 1 1136 1 is_stmt 1 view -0
 3141              		.cfi_startproc
 3142              		@ args = 0, pretend = 0, frame = 0
ARM GAS  /tmp/cc8iG1bp.s 			page 81


 3143              		@ frame_needed = 0, uses_anonymous_args = 0
 3144              		.loc 1 1136 1 is_stmt 0 view .LVU718
 3145 0000 10B5     		push	{r4, lr}
 3146              	.LCFI10:
 3147              		.cfi_def_cfa_offset 8
 3148              		.cfi_offset 4, -8
 3149              		.cfi_offset 14, -4
1137:Drivers/STM32F0xx_HAL_Driver/Src/stm32f0xx_hal_pcd.c ****   uint32_t n =  ((uint32_t)((uint32_t)wNBytes + 1U)) >> 1U;
 3150              		.loc 1 1137 3 is_stmt 1 view .LVU719
 3151              		.loc 1 1137 18 is_stmt 0 view .LVU720
 3152 0002 0133     		adds	r3, r3, #1
 3153              	.LVL231:
 3154              		.loc 1 1137 12 view .LVU721
 3155 0004 5C08     		lsrs	r4, r3, #1
 3156              	.LVL232:
1138:Drivers/STM32F0xx_HAL_Driver/Src/stm32f0xx_hal_pcd.c ****   uint32_t i;
 3157              		.loc 1 1138 3 is_stmt 1 view .LVU722
1139:Drivers/STM32F0xx_HAL_Driver/Src/stm32f0xx_hal_pcd.c ****   uint16_t temp1, temp2;
 3158              		.loc 1 1139 3 view .LVU723
1140:Drivers/STM32F0xx_HAL_Driver/Src/stm32f0xx_hal_pcd.c ****   uint16_t *pdwVal;
 3159              		.loc 1 1140 3 view .LVU724
1141:Drivers/STM32F0xx_HAL_Driver/Src/stm32f0xx_hal_pcd.c ****   pdwVal = (uint16_t *)((uint32_t)(wPMABufAddr + (uint32_t)USBx + 0x400U));
 3160              		.loc 1 1141 3 view .LVU725
 3161              		.loc 1 1141 48 is_stmt 0 view .LVU726
 3162 0006 1218     		adds	r2, r2, r0
 3163              	.LVL233:
 3164              		.loc 1 1141 25 view .LVU727
 3165 0008 8023     		movs	r3, #128
 3166 000a DB00     		lsls	r3, r3, #3
 3167 000c 9C46     		mov	ip, r3
 3168 000e 6244     		add	r2, r2, ip
 3169              	.LVL234:
1142:Drivers/STM32F0xx_HAL_Driver/Src/stm32f0xx_hal_pcd.c ****   
1143:Drivers/STM32F0xx_HAL_Driver/Src/stm32f0xx_hal_pcd.c ****   for (i = n; i != 0; i--)
 3170              		.loc 1 1143 3 is_stmt 1 view .LVU728
 3171              		.loc 1 1143 3 is_stmt 0 view .LVU729
 3172 0010 07E0     		b	.L146
 3173              	.LVL235:
 3174              	.L147:
1144:Drivers/STM32F0xx_HAL_Driver/Src/stm32f0xx_hal_pcd.c ****   {
1145:Drivers/STM32F0xx_HAL_Driver/Src/stm32f0xx_hal_pcd.c ****     temp1 = (uint16_t) * pbUsrBuf;
 3175              		.loc 1 1145 5 is_stmt 1 discriminator 3 view .LVU730
 3176              		.loc 1 1145 11 is_stmt 0 discriminator 3 view .LVU731
 3177 0012 0878     		ldrb	r0, [r1]
 3178              	.LVL236:
1146:Drivers/STM32F0xx_HAL_Driver/Src/stm32f0xx_hal_pcd.c ****     pbUsrBuf++;
 3179              		.loc 1 1146 5 is_stmt 1 discriminator 3 view .LVU732
1147:Drivers/STM32F0xx_HAL_Driver/Src/stm32f0xx_hal_pcd.c ****     temp2 = temp1 | ((uint16_t)((uint16_t)  * pbUsrBuf << 8U)) ;
 3180              		.loc 1 1147 5 discriminator 3 view .LVU733
 3181              		.loc 1 1147 45 is_stmt 0 discriminator 3 view .LVU734
 3182 0014 4B78     		ldrb	r3, [r1, #1]
 3183              		.loc 1 1147 22 discriminator 3 view .LVU735
 3184 0016 1B02     		lsls	r3, r3, #8
 3185              		.loc 1 1147 11 discriminator 3 view .LVU736
 3186 0018 0343     		orrs	r3, r0
 3187              	.LVL237:
1148:Drivers/STM32F0xx_HAL_Driver/Src/stm32f0xx_hal_pcd.c ****     *pdwVal++ = temp2;
ARM GAS  /tmp/cc8iG1bp.s 			page 82


 3188              		.loc 1 1148 5 is_stmt 1 discriminator 3 view .LVU737
 3189              		.loc 1 1148 15 is_stmt 0 discriminator 3 view .LVU738
 3190 001a 1380     		strh	r3, [r2]
1149:Drivers/STM32F0xx_HAL_Driver/Src/stm32f0xx_hal_pcd.c ****     pbUsrBuf++;
 3191              		.loc 1 1149 5 is_stmt 1 discriminator 3 view .LVU739
 3192              		.loc 1 1149 13 is_stmt 0 discriminator 3 view .LVU740
 3193 001c 0231     		adds	r1, r1, #2
 3194              	.LVL238:
1143:Drivers/STM32F0xx_HAL_Driver/Src/stm32f0xx_hal_pcd.c ****   {
 3195              		.loc 1 1143 23 is_stmt 1 discriminator 3 view .LVU741
1143:Drivers/STM32F0xx_HAL_Driver/Src/stm32f0xx_hal_pcd.c ****   {
 3196              		.loc 1 1143 24 is_stmt 0 discriminator 3 view .LVU742
 3197 001e 013C     		subs	r4, r4, #1
 3198              	.LVL239:
1148:Drivers/STM32F0xx_HAL_Driver/Src/stm32f0xx_hal_pcd.c ****     *pdwVal++ = temp2;
 3199              		.loc 1 1148 12 discriminator 3 view .LVU743
 3200 0020 0232     		adds	r2, r2, #2
 3201              	.LVL240:
 3202              	.L146:
1143:Drivers/STM32F0xx_HAL_Driver/Src/stm32f0xx_hal_pcd.c ****   {
 3203              		.loc 1 1143 15 is_stmt 1 discriminator 1 view .LVU744
1143:Drivers/STM32F0xx_HAL_Driver/Src/stm32f0xx_hal_pcd.c ****   {
 3204              		.loc 1 1143 3 is_stmt 0 discriminator 1 view .LVU745
 3205 0022 002C     		cmp	r4, #0
 3206 0024 F5D1     		bne	.L147
1150:Drivers/STM32F0xx_HAL_Driver/Src/stm32f0xx_hal_pcd.c ****   }
1151:Drivers/STM32F0xx_HAL_Driver/Src/stm32f0xx_hal_pcd.c **** }
 3207              		.loc 1 1151 1 view .LVU746
 3208              		@ sp needed
 3209              	.LVL241:
 3210              		.loc 1 1151 1 view .LVU747
 3211 0026 10BD     		pop	{r4, pc}
 3212              		.cfi_endproc
 3213              	.LFE69:
 3215              		.section	.text.HAL_PCD_EP_Transmit,"ax",%progbits
 3216              		.align	1
 3217              		.global	HAL_PCD_EP_Transmit
 3218              		.syntax unified
 3219              		.code	16
 3220              		.thumb_func
 3221              		.fpu softvfp
 3223              	HAL_PCD_EP_Transmit:
 3224              	.LVL242:
 3225              	.LFB62:
 894:Drivers/STM32F0xx_HAL_Driver/Src/stm32f0xx_hal_pcd.c ****   PCD_EPTypeDef *ep;
 3226              		.loc 1 894 1 is_stmt 1 view -0
 3227              		.cfi_startproc
 3228              		@ args = 0, pretend = 0, frame = 0
 3229              		@ frame_needed = 0, uses_anonymous_args = 0
 894:Drivers/STM32F0xx_HAL_Driver/Src/stm32f0xx_hal_pcd.c ****   PCD_EPTypeDef *ep;
 3230              		.loc 1 894 1 is_stmt 0 view .LVU749
 3231 0000 F0B5     		push	{r4, r5, r6, r7, lr}
 3232              	.LCFI11:
 3233              		.cfi_def_cfa_offset 20
 3234              		.cfi_offset 4, -20
 3235              		.cfi_offset 5, -16
 3236              		.cfi_offset 6, -12
ARM GAS  /tmp/cc8iG1bp.s 			page 83


 3237              		.cfi_offset 7, -8
 3238              		.cfi_offset 14, -4
 3239 0002 C646     		mov	lr, r8
 3240 0004 00B5     		push	{lr}
 3241              	.LCFI12:
 3242              		.cfi_def_cfa_offset 24
 3243              		.cfi_offset 8, -24
 3244 0006 0500     		movs	r5, r0
 3245 0008 1600     		movs	r6, r2
 895:Drivers/STM32F0xx_HAL_Driver/Src/stm32f0xx_hal_pcd.c ****   uint16_t pmabuffer = 0U;
 3246              		.loc 1 895 3 is_stmt 1 view .LVU750
 896:Drivers/STM32F0xx_HAL_Driver/Src/stm32f0xx_hal_pcd.c ****     
 3247              		.loc 1 896 3 view .LVU751
 3248              	.LVL243:
 898:Drivers/STM32F0xx_HAL_Driver/Src/stm32f0xx_hal_pcd.c ****   
 3249              		.loc 1 898 3 view .LVU752
 3250 000a 7F24     		movs	r4, #127
 3251 000c 0C40     		ands	r4, r1
 3252              	.LVL244:
 901:Drivers/STM32F0xx_HAL_Driver/Src/stm32f0xx_hal_pcd.c ****   ep->xfer_len = len;
 3253              		.loc 1 901 3 view .LVU753
 901:Drivers/STM32F0xx_HAL_Driver/Src/stm32f0xx_hal_pcd.c ****   ep->xfer_len = len;
 3254              		.loc 1 901 17 is_stmt 0 view .LVU754
 3255 000e E000     		lsls	r0, r4, #3
 3256              	.LVL245:
 901:Drivers/STM32F0xx_HAL_Driver/Src/stm32f0xx_hal_pcd.c ****   ep->xfer_len = len;
 3257              		.loc 1 901 17 view .LVU755
 3258 0010 001B     		subs	r0, r0, r4
 3259 0012 8000     		lsls	r0, r0, #2
 3260 0014 2818     		adds	r0, r5, r0
 3261 0016 8263     		str	r2, [r0, #56]
 902:Drivers/STM32F0xx_HAL_Driver/Src/stm32f0xx_hal_pcd.c ****   ep->xfer_count = 0U;
 3262              		.loc 1 902 3 is_stmt 1 view .LVU756
 902:Drivers/STM32F0xx_HAL_Driver/Src/stm32f0xx_hal_pcd.c ****   ep->xfer_count = 0U;
 3263              		.loc 1 902 16 is_stmt 0 view .LVU757
 3264 0018 C363     		str	r3, [r0, #60]
 903:Drivers/STM32F0xx_HAL_Driver/Src/stm32f0xx_hal_pcd.c ****   ep->is_in = 1U;
 3265              		.loc 1 903 3 is_stmt 1 view .LVU758
 903:Drivers/STM32F0xx_HAL_Driver/Src/stm32f0xx_hal_pcd.c ****   ep->is_in = 1U;
 3266              		.loc 1 903 18 is_stmt 0 view .LVU759
 3267 001a 0022     		movs	r2, #0
 3268              	.LVL246:
 903:Drivers/STM32F0xx_HAL_Driver/Src/stm32f0xx_hal_pcd.c ****   ep->is_in = 1U;
 3269              		.loc 1 903 18 view .LVU760
 3270 001c 0264     		str	r2, [r0, #64]
 904:Drivers/STM32F0xx_HAL_Driver/Src/stm32f0xx_hal_pcd.c ****   ep->num = ep_addr & 0x7FU;
 3271              		.loc 1 904 3 is_stmt 1 view .LVU761
 904:Drivers/STM32F0xx_HAL_Driver/Src/stm32f0xx_hal_pcd.c ****   ep->num = ep_addr & 0x7FU;
 3272              		.loc 1 904 13 is_stmt 0 view .LVU762
 3273 001e 0200     		movs	r2, r0
 3274 0020 2932     		adds	r2, r2, #41
 3275 0022 0121     		movs	r1, #1
 3276              	.LVL247:
 904:Drivers/STM32F0xx_HAL_Driver/Src/stm32f0xx_hal_pcd.c ****   ep->num = ep_addr & 0x7FU;
 3277              		.loc 1 904 13 view .LVU763
 3278 0024 1170     		strb	r1, [r2]
 905:Drivers/STM32F0xx_HAL_Driver/Src/stm32f0xx_hal_pcd.c ****   
ARM GAS  /tmp/cc8iG1bp.s 			page 84


 3279              		.loc 1 905 3 is_stmt 1 view .LVU764
 905:Drivers/STM32F0xx_HAL_Driver/Src/stm32f0xx_hal_pcd.c ****   
 3280              		.loc 1 905 11 is_stmt 0 view .LVU765
 3281 0026 013A     		subs	r2, r2, #1
 3282 0028 1470     		strb	r4, [r2]
 908:Drivers/STM32F0xx_HAL_Driver/Src/stm32f0xx_hal_pcd.c ****   {
 3283              		.loc 1 908 3 is_stmt 1 view .LVU766
 908:Drivers/STM32F0xx_HAL_Driver/Src/stm32f0xx_hal_pcd.c ****   {
 3284              		.loc 1 908 24 is_stmt 0 view .LVU767
 3285 002a 416B     		ldr	r1, [r0, #52]
 908:Drivers/STM32F0xx_HAL_Driver/Src/stm32f0xx_hal_pcd.c ****   {
 3286              		.loc 1 908 6 view .LVU768
 3287 002c 9942     		cmp	r1, r3
 3288 002e 52D2     		bcs	.L149
 910:Drivers/STM32F0xx_HAL_Driver/Src/stm32f0xx_hal_pcd.c ****     ep->xfer_len-=len; 
 3289              		.loc 1 910 5 is_stmt 1 view .LVU769
 3290              	.LVL248:
 911:Drivers/STM32F0xx_HAL_Driver/Src/stm32f0xx_hal_pcd.c ****   }
 3291              		.loc 1 911 5 view .LVU770
 911:Drivers/STM32F0xx_HAL_Driver/Src/stm32f0xx_hal_pcd.c ****   }
 3292              		.loc 1 911 17 is_stmt 0 view .LVU771
 3293 0030 5B1A     		subs	r3, r3, r1
 3294 0032 C363     		str	r3, [r0, #60]
 3295              	.L150:
 920:Drivers/STM32F0xx_HAL_Driver/Src/stm32f0xx_hal_pcd.c ****   {
 3296              		.loc 1 920 3 is_stmt 1 view .LVU772
 920:Drivers/STM32F0xx_HAL_Driver/Src/stm32f0xx_hal_pcd.c ****   {
 3297              		.loc 1 920 9 is_stmt 0 view .LVU773
 3298 0034 E000     		lsls	r0, r4, #3
 3299 0036 001B     		subs	r0, r0, r4
 3300 0038 8000     		lsls	r0, r0, #2
 3301 003a 2818     		adds	r0, r5, r0
 3302 003c 3230     		adds	r0, r0, #50
 3303 003e 0378     		ldrb	r3, [r0]
 920:Drivers/STM32F0xx_HAL_Driver/Src/stm32f0xx_hal_pcd.c ****   {
 3304              		.loc 1 920 6 view .LVU774
 3305 0040 002B     		cmp	r3, #0
 3306 0042 50D0     		beq	.L156
 928:Drivers/STM32F0xx_HAL_Driver/Src/stm32f0xx_hal_pcd.c ****     {
 3307              		.loc 1 928 5 is_stmt 1 view .LVU775
 928:Drivers/STM32F0xx_HAL_Driver/Src/stm32f0xx_hal_pcd.c ****     {
 3308              		.loc 1 928 10 is_stmt 0 view .LVU776
 3309 0044 2868     		ldr	r0, [r5]
 3310 0046 A200     		lsls	r2, r4, #2
 3311 0048 8218     		adds	r2, r0, r2
 3312 004a 1388     		ldrh	r3, [r2]
 928:Drivers/STM32F0xx_HAL_Driver/Src/stm32f0xx_hal_pcd.c ****     {
 3313              		.loc 1 928 8 view .LVU777
 3314 004c 5B06     		lsls	r3, r3, #25
 3315 004e 63D5     		bpl	.L153
 931:Drivers/STM32F0xx_HAL_Driver/Src/stm32f0xx_hal_pcd.c ****       pmabuffer = ep->pmaaddr1;
 3316              		.loc 1 931 7 is_stmt 1 discriminator 11 view .LVU778
 931:Drivers/STM32F0xx_HAL_Driver/Src/stm32f0xx_hal_pcd.c ****       pmabuffer = ep->pmaaddr1;
 3317              		.loc 1 931 7 discriminator 11 view .LVU779
 931:Drivers/STM32F0xx_HAL_Driver/Src/stm32f0xx_hal_pcd.c ****       pmabuffer = ep->pmaaddr1;
 3318              		.loc 1 931 7 discriminator 11 view .LVU780
 3319 0050 5023     		movs	r3, #80
ARM GAS  /tmp/cc8iG1bp.s 			page 85


 3320 0052 C35A     		ldrh	r3, [r0, r3]
 3321 0054 E200     		lsls	r2, r4, #3
 3322 0056 9B18     		adds	r3, r3, r2
 3323 0058 1B18     		adds	r3, r3, r0
 3324 005a 414A     		ldr	r2, .L157
 3325 005c 9446     		mov	ip, r2
 3326 005e 6344     		add	r3, r3, ip
 3327 0060 1980     		strh	r1, [r3]
 932:Drivers/STM32F0xx_HAL_Driver/Src/stm32f0xx_hal_pcd.c ****     }
 3328              		.loc 1 932 7 discriminator 11 view .LVU781
 932:Drivers/STM32F0xx_HAL_Driver/Src/stm32f0xx_hal_pcd.c ****     }
 3329              		.loc 1 932 17 is_stmt 0 discriminator 11 view .LVU782
 3330 0062 E300     		lsls	r3, r4, #3
 3331 0064 1B1B     		subs	r3, r3, r4
 3332 0066 9B00     		lsls	r3, r3, #2
 3333 0068 EB18     		adds	r3, r5, r3
 3334 006a 1A8E     		ldrh	r2, [r3, #48]
 3335              	.LVL249:
 3336              	.L154:
 941:Drivers/STM32F0xx_HAL_Driver/Src/stm32f0xx_hal_pcd.c ****     PCD_FreeUserBuffer(hpcd->Instance, ep->num, ep->is_in)
 3337              		.loc 1 941 5 is_stmt 1 view .LVU783
 3338 006c 8BB2     		uxth	r3, r1
 3339 006e E600     		lsls	r6, r4, #3
 3340              	.LVL250:
 941:Drivers/STM32F0xx_HAL_Driver/Src/stm32f0xx_hal_pcd.c ****     PCD_FreeUserBuffer(hpcd->Instance, ep->num, ep->is_in)
 3341              		.loc 1 941 5 is_stmt 0 view .LVU784
 3342 0070 361B     		subs	r6, r6, r4
 3343 0072 B600     		lsls	r6, r6, #2
 3344 0074 AE19     		adds	r6, r5, r6
 3345 0076 B16B     		ldr	r1, [r6, #56]
 3346              	.LVL251:
 941:Drivers/STM32F0xx_HAL_Driver/Src/stm32f0xx_hal_pcd.c ****     PCD_FreeUserBuffer(hpcd->Instance, ep->num, ep->is_in)
 3347              		.loc 1 941 5 view .LVU785
 3348 0078 2868     		ldr	r0, [r5]
 3349 007a FFF7FEFF 		bl	PCD_WritePMA
 3350              	.LVL252:
 942:Drivers/STM32F0xx_HAL_Driver/Src/stm32f0xx_hal_pcd.c ****   }
 3351              		.loc 1 942 5 is_stmt 1 view .LVU786
 3352 007e 2936     		adds	r6, r6, #41
 3353 0080 3378     		ldrb	r3, [r6]
 3354 0082 002B     		cmp	r3, #0
 3355 0084 57D1     		bne	.L155
 942:Drivers/STM32F0xx_HAL_Driver/Src/stm32f0xx_hal_pcd.c ****   }
 3356              		.loc 1 942 5 discriminator 1 view .LVU787
 3357 0086 E300     		lsls	r3, r4, #3
 3358 0088 1B1B     		subs	r3, r3, r4
 3359 008a 9B00     		lsls	r3, r3, #2
 3360 008c EB18     		adds	r3, r5, r3
 3361 008e 2833     		adds	r3, r3, #40
 3362 0090 1A78     		ldrb	r2, [r3]
 3363 0092 9200     		lsls	r2, r2, #2
 3364 0094 2B68     		ldr	r3, [r5]
 3365 0096 9C46     		mov	ip, r3
 3366 0098 6244     		add	r2, r2, ip
 3367 009a 1388     		ldrh	r3, [r2]
 3368 009c 3149     		ldr	r1, .L157+4
 3369 009e 1940     		ands	r1, r3
ARM GAS  /tmp/cc8iG1bp.s 			page 86


 3370 00a0 314B     		ldr	r3, .L157+8
 3371 00a2 0B43     		orrs	r3, r1
 3372 00a4 9BB2     		uxth	r3, r3
 3373 00a6 1380     		strh	r3, [r2]
 3374              	.L152:
 3375              	.LBB36:
 945:Drivers/STM32F0xx_HAL_Driver/Src/stm32f0xx_hal_pcd.c ****      
 3376              		.loc 1 945 3 view .LVU788
 945:Drivers/STM32F0xx_HAL_Driver/Src/stm32f0xx_hal_pcd.c ****      
 3377              		.loc 1 945 3 view .LVU789
 3378 00a8 2B68     		ldr	r3, [r5]
 3379 00aa E100     		lsls	r1, r4, #3
 3380 00ac 0C1B     		subs	r4, r1, r4
 3381              	.LVL253:
 945:Drivers/STM32F0xx_HAL_Driver/Src/stm32f0xx_hal_pcd.c ****      
 3382              		.loc 1 945 3 is_stmt 0 view .LVU790
 3383 00ae A400     		lsls	r4, r4, #2
 3384 00b0 2D19     		adds	r5, r5, r4
 3385              	.LVL254:
 945:Drivers/STM32F0xx_HAL_Driver/Src/stm32f0xx_hal_pcd.c ****      
 3386              		.loc 1 945 3 view .LVU791
 3387 00b2 2835     		adds	r5, r5, #40
 3388 00b4 2978     		ldrb	r1, [r5]
 3389 00b6 8900     		lsls	r1, r1, #2
 3390 00b8 5918     		adds	r1, r3, r1
 3391 00ba 0B88     		ldrh	r3, [r1]
 3392 00bc 2B4A     		ldr	r2, .L157+12
 3393 00be 1340     		ands	r3, r2
 3394              	.LVL255:
 945:Drivers/STM32F0xx_HAL_Driver/Src/stm32f0xx_hal_pcd.c ****      
 3395              		.loc 1 945 3 is_stmt 1 view .LVU792
 945:Drivers/STM32F0xx_HAL_Driver/Src/stm32f0xx_hal_pcd.c ****      
 3396              		.loc 1 945 3 view .LVU793
 945:Drivers/STM32F0xx_HAL_Driver/Src/stm32f0xx_hal_pcd.c ****      
 3397              		.loc 1 945 3 view .LVU794
 945:Drivers/STM32F0xx_HAL_Driver/Src/stm32f0xx_hal_pcd.c ****      
 3398              		.loc 1 945 3 view .LVU795
 3399 00c0 3022     		movs	r2, #48
 3400 00c2 5340     		eors	r3, r2
 3401              	.LVL256:
 945:Drivers/STM32F0xx_HAL_Driver/Src/stm32f0xx_hal_pcd.c ****      
 3402              		.loc 1 945 3 is_stmt 0 view .LVU796
 3403 00c4 9BB2     		uxth	r3, r3
 3404              	.LVL257:
 945:Drivers/STM32F0xx_HAL_Driver/Src/stm32f0xx_hal_pcd.c ****      
 3405              		.loc 1 945 3 is_stmt 1 view .LVU797
 3406 00c6 2A4A     		ldr	r2, .L157+16
 3407 00c8 1343     		orrs	r3, r2
 3408              	.LVL258:
 945:Drivers/STM32F0xx_HAL_Driver/Src/stm32f0xx_hal_pcd.c ****      
 3409              		.loc 1 945 3 is_stmt 0 view .LVU798
 3410 00ca 9BB2     		uxth	r3, r3
 3411 00cc 0B80     		strh	r3, [r1]
 3412              	.LBE36:
 947:Drivers/STM32F0xx_HAL_Driver/Src/stm32f0xx_hal_pcd.c **** }
 3413              		.loc 1 947 3 is_stmt 1 view .LVU799
 948:Drivers/STM32F0xx_HAL_Driver/Src/stm32f0xx_hal_pcd.c **** 
ARM GAS  /tmp/cc8iG1bp.s 			page 87


 3414              		.loc 1 948 1 is_stmt 0 view .LVU800
 3415 00ce 0020     		movs	r0, #0
 3416              		@ sp needed
 3417 00d0 80BC     		pop	{r7}
 3418 00d2 B846     		mov	r8, r7
 3419 00d4 F0BD     		pop	{r4, r5, r6, r7, pc}
 3420              	.LVL259:
 3421              	.L149:
 915:Drivers/STM32F0xx_HAL_Driver/Src/stm32f0xx_hal_pcd.c ****     ep->xfer_len =0U;
 3422              		.loc 1 915 5 is_stmt 1 view .LVU801
 916:Drivers/STM32F0xx_HAL_Driver/Src/stm32f0xx_hal_pcd.c ****   }
 3423              		.loc 1 916 5 view .LVU802
 916:Drivers/STM32F0xx_HAL_Driver/Src/stm32f0xx_hal_pcd.c ****   }
 3424              		.loc 1 916 18 is_stmt 0 view .LVU803
 3425 00d6 E200     		lsls	r2, r4, #3
 3426 00d8 121B     		subs	r2, r2, r4
 3427 00da 9200     		lsls	r2, r2, #2
 3428 00dc AA18     		adds	r2, r5, r2
 3429 00de 0021     		movs	r1, #0
 3430 00e0 D163     		str	r1, [r2, #60]
 915:Drivers/STM32F0xx_HAL_Driver/Src/stm32f0xx_hal_pcd.c ****     ep->xfer_len =0U;
 3431              		.loc 1 915 8 view .LVU804
 3432 00e2 1900     		movs	r1, r3
 3433 00e4 A6E7     		b	.L150
 3434              	.LVL260:
 3435              	.L156:
 922:Drivers/STM32F0xx_HAL_Driver/Src/stm32f0xx_hal_pcd.c ****     PCD_SET_EP_TX_CNT(hpcd->Instance, ep->num, len);
 3436              		.loc 1 922 5 is_stmt 1 view .LVU805
 3437 00e6 8BB2     		uxth	r3, r1
 3438 00e8 9846     		mov	r8, r3
 3439 00ea E700     		lsls	r7, r4, #3
 3440 00ec 3F1B     		subs	r7, r7, r4
 3441 00ee BF00     		lsls	r7, r7, #2
 3442 00f0 EF19     		adds	r7, r5, r7
 3443 00f2 BA8D     		ldrh	r2, [r7, #44]
 3444 00f4 3100     		movs	r1, r6
 3445              	.LVL261:
 922:Drivers/STM32F0xx_HAL_Driver/Src/stm32f0xx_hal_pcd.c ****     PCD_SET_EP_TX_CNT(hpcd->Instance, ep->num, len);
 3446              		.loc 1 922 5 is_stmt 0 view .LVU806
 3447 00f6 2868     		ldr	r0, [r5]
 3448 00f8 FFF7FEFF 		bl	PCD_WritePMA
 3449              	.LVL262:
 923:Drivers/STM32F0xx_HAL_Driver/Src/stm32f0xx_hal_pcd.c ****   }
 3450              		.loc 1 923 5 is_stmt 1 view .LVU807
 3451 00fc 2A68     		ldr	r2, [r5]
 3452 00fe 5023     		movs	r3, #80
 3453 0100 D35A     		ldrh	r3, [r2, r3]
 3454 0102 2837     		adds	r7, r7, #40
 3455 0104 3978     		ldrb	r1, [r7]
 3456 0106 C900     		lsls	r1, r1, #3
 3457 0108 5B18     		adds	r3, r3, r1
 3458 010a 9B18     		adds	r3, r3, r2
 3459 010c 194A     		ldr	r2, .L157+20
 3460 010e 9446     		mov	ip, r2
 3461 0110 6344     		add	r3, r3, ip
 3462 0112 4246     		mov	r2, r8
 3463 0114 1A80     		strh	r2, [r3]
ARM GAS  /tmp/cc8iG1bp.s 			page 88


 3464 0116 C7E7     		b	.L152
 3465              	.LVL263:
 3466              	.L153:
 937:Drivers/STM32F0xx_HAL_Driver/Src/stm32f0xx_hal_pcd.c ****       pmabuffer = ep->pmaaddr0;
 3467              		.loc 1 937 7 discriminator 11 view .LVU808
 937:Drivers/STM32F0xx_HAL_Driver/Src/stm32f0xx_hal_pcd.c ****       pmabuffer = ep->pmaaddr0;
 3468              		.loc 1 937 7 discriminator 11 view .LVU809
 937:Drivers/STM32F0xx_HAL_Driver/Src/stm32f0xx_hal_pcd.c ****       pmabuffer = ep->pmaaddr0;
 3469              		.loc 1 937 7 discriminator 11 view .LVU810
 3470 0118 5023     		movs	r3, #80
 3471 011a C35A     		ldrh	r3, [r0, r3]
 3472 011c E200     		lsls	r2, r4, #3
 3473 011e 9B18     		adds	r3, r3, r2
 3474 0120 1B18     		adds	r3, r3, r0
 3475 0122 144A     		ldr	r2, .L157+20
 3476 0124 9446     		mov	ip, r2
 3477 0126 6344     		add	r3, r3, ip
 3478 0128 1980     		strh	r1, [r3]
 938:Drivers/STM32F0xx_HAL_Driver/Src/stm32f0xx_hal_pcd.c ****     }
 3479              		.loc 1 938 7 discriminator 11 view .LVU811
 938:Drivers/STM32F0xx_HAL_Driver/Src/stm32f0xx_hal_pcd.c ****     }
 3480              		.loc 1 938 17 is_stmt 0 discriminator 11 view .LVU812
 3481 012a E300     		lsls	r3, r4, #3
 3482 012c 1B1B     		subs	r3, r3, r4
 3483 012e 9B00     		lsls	r3, r3, #2
 3484 0130 EB18     		adds	r3, r5, r3
 3485 0132 DA8D     		ldrh	r2, [r3, #46]
 3486              	.LVL264:
 938:Drivers/STM32F0xx_HAL_Driver/Src/stm32f0xx_hal_pcd.c ****     }
 3487              		.loc 1 938 17 discriminator 11 view .LVU813
 3488 0134 9AE7     		b	.L154
 3489              	.LVL265:
 3490              	.L155:
 942:Drivers/STM32F0xx_HAL_Driver/Src/stm32f0xx_hal_pcd.c ****   }
 3491              		.loc 1 942 5 is_stmt 1 discriminator 2 view .LVU814
 3492 0136 012B     		cmp	r3, #1
 3493 0138 B6D1     		bne	.L152
 942:Drivers/STM32F0xx_HAL_Driver/Src/stm32f0xx_hal_pcd.c ****   }
 3494              		.loc 1 942 5 discriminator 3 view .LVU815
 3495 013a E300     		lsls	r3, r4, #3
 3496 013c 1B1B     		subs	r3, r3, r4
 3497 013e 9B00     		lsls	r3, r3, #2
 3498 0140 EB18     		adds	r3, r5, r3
 3499 0142 2833     		adds	r3, r3, #40
 3500 0144 1A78     		ldrb	r2, [r3]
 3501 0146 9200     		lsls	r2, r2, #2
 3502 0148 2B68     		ldr	r3, [r5]
 3503 014a 9C46     		mov	ip, r3
 3504 014c 6244     		add	r2, r2, ip
 3505 014e 1388     		ldrh	r3, [r2]
 3506 0150 0449     		ldr	r1, .L157+4
 3507 0152 1940     		ands	r1, r3
 3508 0154 084B     		ldr	r3, .L157+24
 3509 0156 0B43     		orrs	r3, r1
 3510 0158 9BB2     		uxth	r3, r3
 3511 015a 1380     		strh	r3, [r2]
 3512 015c A4E7     		b	.L152
ARM GAS  /tmp/cc8iG1bp.s 			page 89


 3513              	.L158:
 3514 015e C046     		.align	2
 3515              	.L157:
 3516 0160 06040000 		.word	1030
 3517 0164 0F0F0000 		.word	3855
 3518 0168 C080FFFF 		.word	-32576
 3519 016c BF8FFFFF 		.word	-28737
 3520 0170 8080FFFF 		.word	-32640
 3521 0174 02040000 		.word	1026
 3522 0178 80C0FFFF 		.word	-16256
 3523              		.cfi_endproc
 3524              	.LFE62:
 3526              		.section	.text.PCD_ReadPMA,"ax",%progbits
 3527              		.align	1
 3528              		.global	PCD_ReadPMA
 3529              		.syntax unified
 3530              		.code	16
 3531              		.thumb_func
 3532              		.fpu softvfp
 3534              	PCD_ReadPMA:
 3535              	.LVL266:
 3536              	.LFB70:
1152:Drivers/STM32F0xx_HAL_Driver/Src/stm32f0xx_hal_pcd.c **** 
1153:Drivers/STM32F0xx_HAL_Driver/Src/stm32f0xx_hal_pcd.c **** /**
1154:Drivers/STM32F0xx_HAL_Driver/Src/stm32f0xx_hal_pcd.c ****   * @brief Copy a buffer from user memory area to packet memory area (PMA)
1155:Drivers/STM32F0xx_HAL_Driver/Src/stm32f0xx_hal_pcd.c ****   * @param   USBx USB peripheral instance register address.
1156:Drivers/STM32F0xx_HAL_Driver/Src/stm32f0xx_hal_pcd.c ****   * @param   pbUsrBuf    = pointer to user memory area.
1157:Drivers/STM32F0xx_HAL_Driver/Src/stm32f0xx_hal_pcd.c ****   * @param   wPMABufAddr address into PMA.
1158:Drivers/STM32F0xx_HAL_Driver/Src/stm32f0xx_hal_pcd.c ****   * @param   wNBytes no. of bytes to be copied.
1159:Drivers/STM32F0xx_HAL_Driver/Src/stm32f0xx_hal_pcd.c ****   * @retval None
1160:Drivers/STM32F0xx_HAL_Driver/Src/stm32f0xx_hal_pcd.c ****   */
1161:Drivers/STM32F0xx_HAL_Driver/Src/stm32f0xx_hal_pcd.c **** void PCD_ReadPMA(USB_TypeDef  *USBx, uint8_t *pbUsrBuf, uint16_t wPMABufAddr, uint16_t wNBytes)
1162:Drivers/STM32F0xx_HAL_Driver/Src/stm32f0xx_hal_pcd.c **** {
 3537              		.loc 1 1162 1 view -0
 3538              		.cfi_startproc
 3539              		@ args = 0, pretend = 0, frame = 0
 3540              		@ frame_needed = 0, uses_anonymous_args = 0
 3541              		.loc 1 1162 1 is_stmt 0 view .LVU817
 3542 0000 10B5     		push	{r4, lr}
 3543              	.LCFI13:
 3544              		.cfi_def_cfa_offset 8
 3545              		.cfi_offset 4, -8
 3546              		.cfi_offset 14, -4
1163:Drivers/STM32F0xx_HAL_Driver/Src/stm32f0xx_hal_pcd.c ****   uint32_t n = (uint32_t)wNBytes >> 1U;
 3547              		.loc 1 1163 3 is_stmt 1 view .LVU818
 3548              		.loc 1 1163 34 is_stmt 0 view .LVU819
 3549 0002 5C08     		lsrs	r4, r3, #1
 3550              	.LVL267:
1164:Drivers/STM32F0xx_HAL_Driver/Src/stm32f0xx_hal_pcd.c ****   uint32_t i;
 3551              		.loc 1 1164 3 is_stmt 1 view .LVU820
1165:Drivers/STM32F0xx_HAL_Driver/Src/stm32f0xx_hal_pcd.c ****   uint16_t *pdwVal;
 3552              		.loc 1 1165 3 view .LVU821
1166:Drivers/STM32F0xx_HAL_Driver/Src/stm32f0xx_hal_pcd.c ****   uint32_t temp;
 3553              		.loc 1 1166 3 view .LVU822
1167:Drivers/STM32F0xx_HAL_Driver/Src/stm32f0xx_hal_pcd.c ****   pdwVal = (uint16_t *)((uint32_t)(wPMABufAddr + (uint32_t)USBx + 0x400U));
 3554              		.loc 1 1167 3 view .LVU823
 3555              		.loc 1 1167 48 is_stmt 0 view .LVU824
ARM GAS  /tmp/cc8iG1bp.s 			page 90


 3556 0004 1018     		adds	r0, r2, r0
 3557              	.LVL268:
 3558              		.loc 1 1167 25 view .LVU825
 3559 0006 8022     		movs	r2, #128
 3560              	.LVL269:
 3561              		.loc 1 1167 25 view .LVU826
 3562 0008 D200     		lsls	r2, r2, #3
 3563 000a 9446     		mov	ip, r2
 3564 000c 6044     		add	r0, r0, ip
 3565              	.LVL270:
1168:Drivers/STM32F0xx_HAL_Driver/Src/stm32f0xx_hal_pcd.c ****   
1169:Drivers/STM32F0xx_HAL_Driver/Src/stm32f0xx_hal_pcd.c ****   for (i = n; i != 0U; i--)
 3566              		.loc 1 1169 3 is_stmt 1 view .LVU827
 3567              		.loc 1 1169 3 is_stmt 0 view .LVU828
 3568 000e 06E0     		b	.L160
 3569              	.LVL271:
 3570              	.L161:
1170:Drivers/STM32F0xx_HAL_Driver/Src/stm32f0xx_hal_pcd.c ****   {
1171:Drivers/STM32F0xx_HAL_Driver/Src/stm32f0xx_hal_pcd.c ****     temp = *pdwVal++;
 3571              		.loc 1 1171 5 is_stmt 1 discriminator 3 view .LVU829
 3572              		.loc 1 1171 12 is_stmt 0 discriminator 3 view .LVU830
 3573 0010 0288     		ldrh	r2, [r0]
 3574              	.LVL272:
1172:Drivers/STM32F0xx_HAL_Driver/Src/stm32f0xx_hal_pcd.c ****     *pbUsrBuf++ = ((temp >> 0) & 0xFF);
 3575              		.loc 1 1172 5 is_stmt 1 discriminator 3 view .LVU831
 3576              		.loc 1 1172 17 is_stmt 0 discriminator 3 view .LVU832
 3577 0012 0A70     		strb	r2, [r1]
1173:Drivers/STM32F0xx_HAL_Driver/Src/stm32f0xx_hal_pcd.c ****     *pbUsrBuf++ = ((temp >> 8) & 0xFF);
 3578              		.loc 1 1173 5 is_stmt 1 discriminator 3 view .LVU833
 3579              		.loc 1 1173 26 is_stmt 0 discriminator 3 view .LVU834
 3580 0014 120A     		lsrs	r2, r2, #8
 3581              	.LVL273:
 3582              		.loc 1 1173 17 discriminator 3 view .LVU835
 3583 0016 4A70     		strb	r2, [r1, #1]
1169:Drivers/STM32F0xx_HAL_Driver/Src/stm32f0xx_hal_pcd.c ****   {
 3584              		.loc 1 1169 24 is_stmt 1 discriminator 3 view .LVU836
1169:Drivers/STM32F0xx_HAL_Driver/Src/stm32f0xx_hal_pcd.c ****   {
 3585              		.loc 1 1169 25 is_stmt 0 discriminator 3 view .LVU837
 3586 0018 013C     		subs	r4, r4, #1
 3587              	.LVL274:
1171:Drivers/STM32F0xx_HAL_Driver/Src/stm32f0xx_hal_pcd.c ****     *pbUsrBuf++ = ((temp >> 0) & 0xFF);
 3588              		.loc 1 1171 19 discriminator 3 view .LVU838
 3589 001a 0230     		adds	r0, r0, #2
 3590              	.LVL275:
 3591              		.loc 1 1173 14 discriminator 3 view .LVU839
 3592 001c 0231     		adds	r1, r1, #2
 3593              	.LVL276:
 3594              	.L160:
1169:Drivers/STM32F0xx_HAL_Driver/Src/stm32f0xx_hal_pcd.c ****   {
 3595              		.loc 1 1169 15 is_stmt 1 discriminator 1 view .LVU840
1169:Drivers/STM32F0xx_HAL_Driver/Src/stm32f0xx_hal_pcd.c ****   {
 3596              		.loc 1 1169 3 is_stmt 0 discriminator 1 view .LVU841
 3597 001e 002C     		cmp	r4, #0
 3598 0020 F6D1     		bne	.L161
1174:Drivers/STM32F0xx_HAL_Driver/Src/stm32f0xx_hal_pcd.c ****   }
1175:Drivers/STM32F0xx_HAL_Driver/Src/stm32f0xx_hal_pcd.c ****   
1176:Drivers/STM32F0xx_HAL_Driver/Src/stm32f0xx_hal_pcd.c ****   if (wNBytes % 2)
ARM GAS  /tmp/cc8iG1bp.s 			page 91


 3599              		.loc 1 1176 3 is_stmt 1 view .LVU842
 3600              		.loc 1 1176 6 is_stmt 0 view .LVU843
 3601 0022 DB07     		lsls	r3, r3, #31
 3602 0024 01D5     		bpl	.L159
 3603              	.LVL277:
1177:Drivers/STM32F0xx_HAL_Driver/Src/stm32f0xx_hal_pcd.c ****   {
1178:Drivers/STM32F0xx_HAL_Driver/Src/stm32f0xx_hal_pcd.c ****     temp = *pdwVal++;
 3604              		.loc 1 1178 5 is_stmt 1 view .LVU844
 3605              		.loc 1 1178 12 is_stmt 0 view .LVU845
 3606 0026 0388     		ldrh	r3, [r0]
 3607              	.LVL278:
1179:Drivers/STM32F0xx_HAL_Driver/Src/stm32f0xx_hal_pcd.c ****     *pbUsrBuf++ = ((temp >> 0) & 0xFF);
 3608              		.loc 1 1179 5 is_stmt 1 view .LVU846
 3609              		.loc 1 1179 17 is_stmt 0 view .LVU847
 3610 0028 0B70     		strb	r3, [r1]
 3611              	.LVL279:
 3612              	.L159:
1180:Drivers/STM32F0xx_HAL_Driver/Src/stm32f0xx_hal_pcd.c ****   }
1181:Drivers/STM32F0xx_HAL_Driver/Src/stm32f0xx_hal_pcd.c **** }
 3613              		.loc 1 1181 1 view .LVU848
 3614              		@ sp needed
 3615              	.LVL280:
 3616              		.loc 1 1181 1 view .LVU849
 3617 002a 10BD     		pop	{r4, pc}
 3618              		.cfi_endproc
 3619              	.LFE70:
 3621              		.section	.text.PCD_EP_ISR_Handler,"ax",%progbits
 3622              		.align	1
 3623              		.syntax unified
 3624              		.code	16
 3625              		.thumb_func
 3626              		.fpu softvfp
 3628              	PCD_EP_ISR_Handler:
 3629              	.LVL281:
 3630              	.LFB71:
1182:Drivers/STM32F0xx_HAL_Driver/Src/stm32f0xx_hal_pcd.c **** 
1183:Drivers/STM32F0xx_HAL_Driver/Src/stm32f0xx_hal_pcd.c **** /**
1184:Drivers/STM32F0xx_HAL_Driver/Src/stm32f0xx_hal_pcd.c ****   * @brief  This function handles PCD Endpoint interrupt request.
1185:Drivers/STM32F0xx_HAL_Driver/Src/stm32f0xx_hal_pcd.c ****   * @param  hpcd PCD handle
1186:Drivers/STM32F0xx_HAL_Driver/Src/stm32f0xx_hal_pcd.c ****   * @retval HAL status
1187:Drivers/STM32F0xx_HAL_Driver/Src/stm32f0xx_hal_pcd.c ****   */
1188:Drivers/STM32F0xx_HAL_Driver/Src/stm32f0xx_hal_pcd.c **** static HAL_StatusTypeDef PCD_EP_ISR_Handler(PCD_HandleTypeDef *hpcd)
1189:Drivers/STM32F0xx_HAL_Driver/Src/stm32f0xx_hal_pcd.c **** {
 3631              		.loc 1 1189 1 is_stmt 1 view -0
 3632              		.cfi_startproc
 3633              		@ args = 0, pretend = 0, frame = 8
 3634              		@ frame_needed = 0, uses_anonymous_args = 0
 3635              		.loc 1 1189 1 is_stmt 0 view .LVU851
 3636 0000 F0B5     		push	{r4, r5, r6, r7, lr}
 3637              	.LCFI14:
 3638              		.cfi_def_cfa_offset 20
 3639              		.cfi_offset 4, -20
 3640              		.cfi_offset 5, -16
 3641              		.cfi_offset 6, -12
 3642              		.cfi_offset 7, -8
 3643              		.cfi_offset 14, -4
 3644 0002 83B0     		sub	sp, sp, #12
ARM GAS  /tmp/cc8iG1bp.s 			page 92


 3645              	.LCFI15:
 3646              		.cfi_def_cfa_offset 32
 3647 0004 0400     		movs	r4, r0
1190:Drivers/STM32F0xx_HAL_Driver/Src/stm32f0xx_hal_pcd.c ****   PCD_EPTypeDef *ep;
 3648              		.loc 1 1190 3 is_stmt 1 view .LVU852
1191:Drivers/STM32F0xx_HAL_Driver/Src/stm32f0xx_hal_pcd.c ****   uint16_t count=0U;
 3649              		.loc 1 1191 3 view .LVU853
 3650              	.LVL282:
1192:Drivers/STM32F0xx_HAL_Driver/Src/stm32f0xx_hal_pcd.c ****   uint8_t EPindex;
 3651              		.loc 1 1192 3 view .LVU854
1193:Drivers/STM32F0xx_HAL_Driver/Src/stm32f0xx_hal_pcd.c ****   __IO uint16_t wIstr;  
 3652              		.loc 1 1193 3 view .LVU855
1194:Drivers/STM32F0xx_HAL_Driver/Src/stm32f0xx_hal_pcd.c ****   __IO uint16_t wEPVal = 0U;
 3653              		.loc 1 1194 3 view .LVU856
 3654              		.loc 1 1194 17 is_stmt 0 view .LVU857
 3655 0006 01AB     		add	r3, sp, #4
 3656 0008 0022     		movs	r2, #0
 3657 000a 1A80     		strh	r2, [r3]
1195:Drivers/STM32F0xx_HAL_Driver/Src/stm32f0xx_hal_pcd.c ****   
1196:Drivers/STM32F0xx_HAL_Driver/Src/stm32f0xx_hal_pcd.c ****   /* stay in loop while pending interrupts */
1197:Drivers/STM32F0xx_HAL_Driver/Src/stm32f0xx_hal_pcd.c ****   while (((wIstr = hpcd->Instance->ISTR) & USB_ISTR_CTR) != 0U)
 3658              		.loc 1 1197 3 is_stmt 1 view .LVU858
 3659              		.loc 1 1197 9 is_stmt 0 view .LVU859
 3660 000c BAE1     		b	.L164
 3661              	.LVL283:
 3662              	.L191:
1198:Drivers/STM32F0xx_HAL_Driver/Src/stm32f0xx_hal_pcd.c ****   {
1199:Drivers/STM32F0xx_HAL_Driver/Src/stm32f0xx_hal_pcd.c ****     /* extract highest priority endpoint number */
1200:Drivers/STM32F0xx_HAL_Driver/Src/stm32f0xx_hal_pcd.c ****     EPindex = (uint8_t)(wIstr & USB_ISTR_EP_ID);
1201:Drivers/STM32F0xx_HAL_Driver/Src/stm32f0xx_hal_pcd.c ****     
1202:Drivers/STM32F0xx_HAL_Driver/Src/stm32f0xx_hal_pcd.c ****     if (EPindex == 0U)
1203:Drivers/STM32F0xx_HAL_Driver/Src/stm32f0xx_hal_pcd.c ****     {
1204:Drivers/STM32F0xx_HAL_Driver/Src/stm32f0xx_hal_pcd.c ****       /* Decode and service control endpoint interrupt */
1205:Drivers/STM32F0xx_HAL_Driver/Src/stm32f0xx_hal_pcd.c ****       
1206:Drivers/STM32F0xx_HAL_Driver/Src/stm32f0xx_hal_pcd.c ****       /* DIR bit = origin of the interrupt */   
1207:Drivers/STM32F0xx_HAL_Driver/Src/stm32f0xx_hal_pcd.c ****       if ((wIstr & USB_ISTR_DIR) == 0U)
1208:Drivers/STM32F0xx_HAL_Driver/Src/stm32f0xx_hal_pcd.c ****       {
1209:Drivers/STM32F0xx_HAL_Driver/Src/stm32f0xx_hal_pcd.c ****         /* DIR = 0 */
1210:Drivers/STM32F0xx_HAL_Driver/Src/stm32f0xx_hal_pcd.c ****         
1211:Drivers/STM32F0xx_HAL_Driver/Src/stm32f0xx_hal_pcd.c ****         /* DIR = 0      => IN  int */
1212:Drivers/STM32F0xx_HAL_Driver/Src/stm32f0xx_hal_pcd.c ****         /* DIR = 0 implies that (EP_CTR_TX = 1) always  */
1213:Drivers/STM32F0xx_HAL_Driver/Src/stm32f0xx_hal_pcd.c ****         PCD_CLEAR_TX_EP_CTR(hpcd->Instance, PCD_ENDP0);
 3663              		.loc 1 1213 9 is_stmt 1 view .LVU860
 3664 000e 0388     		ldrh	r3, [r0]
 3665 0010 AE4A     		ldr	r2, .L194
 3666 0012 1340     		ands	r3, r2
 3667 0014 0380     		strh	r3, [r0]
1214:Drivers/STM32F0xx_HAL_Driver/Src/stm32f0xx_hal_pcd.c ****         ep = &hpcd->IN_ep[0];
 3668              		.loc 1 1214 9 view .LVU861
 3669              	.LVL284:
1215:Drivers/STM32F0xx_HAL_Driver/Src/stm32f0xx_hal_pcd.c ****         
1216:Drivers/STM32F0xx_HAL_Driver/Src/stm32f0xx_hal_pcd.c ****         ep->xfer_count = PCD_GET_EP_TX_CNT(hpcd->Instance, ep->num);
 3670              		.loc 1 1216 9 view .LVU862
 3671              		.loc 1 1216 26 is_stmt 0 view .LVU863
 3672 0016 2168     		ldr	r1, [r4]
 3673 0018 5023     		movs	r3, #80
 3674 001a CB5A     		ldrh	r3, [r1, r3]
ARM GAS  /tmp/cc8iG1bp.s 			page 93


 3675 001c 2822     		movs	r2, #40
 3676 001e A25C     		ldrb	r2, [r4, r2]
 3677 0020 D200     		lsls	r2, r2, #3
 3678 0022 9B18     		adds	r3, r3, r2
 3679 0024 5B18     		adds	r3, r3, r1
 3680 0026 AA4A     		ldr	r2, .L194+4
 3681 0028 9446     		mov	ip, r2
 3682 002a 6344     		add	r3, r3, ip
 3683 002c 1B88     		ldrh	r3, [r3]
 3684 002e 9B05     		lsls	r3, r3, #22
 3685 0030 9B0D     		lsrs	r3, r3, #22
 3686              		.loc 1 1216 24 view .LVU864
 3687 0032 2364     		str	r3, [r4, #64]
1217:Drivers/STM32F0xx_HAL_Driver/Src/stm32f0xx_hal_pcd.c ****         ep->xfer_buff += ep->xfer_count;
 3688              		.loc 1 1217 9 is_stmt 1 view .LVU865
 3689              		.loc 1 1217 23 is_stmt 0 view .LVU866
 3690 0034 A26B     		ldr	r2, [r4, #56]
 3691 0036 9446     		mov	ip, r2
 3692 0038 6344     		add	r3, r3, ip
 3693 003a A363     		str	r3, [r4, #56]
1218:Drivers/STM32F0xx_HAL_Driver/Src/stm32f0xx_hal_pcd.c ****  
1219:Drivers/STM32F0xx_HAL_Driver/Src/stm32f0xx_hal_pcd.c ****         /* TX COMPLETE */
1220:Drivers/STM32F0xx_HAL_Driver/Src/stm32f0xx_hal_pcd.c ****         HAL_PCD_DataInStageCallback(hpcd, 0U);
 3694              		.loc 1 1220 9 is_stmt 1 view .LVU867
 3695 003c 0021     		movs	r1, #0
 3696 003e 2000     		movs	r0, r4
 3697 0040 FFF7FEFF 		bl	HAL_PCD_DataInStageCallback
 3698              	.LVL285:
1221:Drivers/STM32F0xx_HAL_Driver/Src/stm32f0xx_hal_pcd.c ****         
1222:Drivers/STM32F0xx_HAL_Driver/Src/stm32f0xx_hal_pcd.c ****         
1223:Drivers/STM32F0xx_HAL_Driver/Src/stm32f0xx_hal_pcd.c ****         if((hpcd->USB_Address > 0U)&& ( ep->xfer_len == 0U))
 3699              		.loc 1 1223 9 view .LVU868
 3700              		.loc 1 1223 17 is_stmt 0 view .LVU869
 3701 0044 2423     		movs	r3, #36
 3702 0046 E35C     		ldrb	r3, [r4, r3]
 3703              		.loc 1 1223 11 view .LVU870
 3704 0048 002B     		cmp	r3, #0
 3705 004a 00D1     		bne	.LCB3774
 3706 004c 9AE1     		b	.L164	@long jump
 3707              	.LCB3774:
 3708              		.loc 1 1223 36 discriminator 1 view .LVU871
 3709 004e E36B     		ldr	r3, [r4, #60]
 3710 0050 002B     		cmp	r3, #0
 3711 0052 00D0     		beq	.LCB3778
 3712 0054 96E1     		b	.L164	@long jump
 3713              	.LCB3778:
1224:Drivers/STM32F0xx_HAL_Driver/Src/stm32f0xx_hal_pcd.c ****         {
1225:Drivers/STM32F0xx_HAL_Driver/Src/stm32f0xx_hal_pcd.c ****           hpcd->Instance->DADDR = (hpcd->USB_Address | USB_DADDR_EF);
 3714              		.loc 1 1225 11 is_stmt 1 view .LVU872
 3715              		.loc 1 1225 40 is_stmt 0 view .LVU873
 3716 0056 2422     		movs	r2, #36
 3717 0058 A35C     		ldrb	r3, [r4, r2]
 3718              		.loc 1 1225 33 view .LVU874
 3719 005a 8021     		movs	r1, #128
 3720 005c 4942     		rsbs	r1, r1, #0
 3721 005e 0B43     		orrs	r3, r1
 3722 0060 DBB2     		uxtb	r3, r3
ARM GAS  /tmp/cc8iG1bp.s 			page 94


 3723 0062 CC31     		adds	r1, r1, #204
 3724 0064 2068     		ldr	r0, [r4]
 3725 0066 4352     		strh	r3, [r0, r1]
1226:Drivers/STM32F0xx_HAL_Driver/Src/stm32f0xx_hal_pcd.c ****           hpcd->USB_Address = 0U;
 3726              		.loc 1 1226 11 is_stmt 1 view .LVU875
 3727              		.loc 1 1226 29 is_stmt 0 view .LVU876
 3728 0068 0023     		movs	r3, #0
 3729 006a A354     		strb	r3, [r4, r2]
 3730 006c 8AE1     		b	.L164
 3731              	.LVL286:
 3732              	.L192:
1227:Drivers/STM32F0xx_HAL_Driver/Src/stm32f0xx_hal_pcd.c ****         }
1228:Drivers/STM32F0xx_HAL_Driver/Src/stm32f0xx_hal_pcd.c ****         
1229:Drivers/STM32F0xx_HAL_Driver/Src/stm32f0xx_hal_pcd.c ****       }
1230:Drivers/STM32F0xx_HAL_Driver/Src/stm32f0xx_hal_pcd.c ****       else
1231:Drivers/STM32F0xx_HAL_Driver/Src/stm32f0xx_hal_pcd.c ****       {
1232:Drivers/STM32F0xx_HAL_Driver/Src/stm32f0xx_hal_pcd.c ****         /* DIR = 1 */
1233:Drivers/STM32F0xx_HAL_Driver/Src/stm32f0xx_hal_pcd.c ****         
1234:Drivers/STM32F0xx_HAL_Driver/Src/stm32f0xx_hal_pcd.c ****         /* DIR = 1 & CTR_RX       => SETUP or OUT int */
1235:Drivers/STM32F0xx_HAL_Driver/Src/stm32f0xx_hal_pcd.c ****         /* DIR = 1 & (CTR_TX | CTR_RX) => 2 int pending */
1236:Drivers/STM32F0xx_HAL_Driver/Src/stm32f0xx_hal_pcd.c ****         ep = &hpcd->OUT_ep[0];
1237:Drivers/STM32F0xx_HAL_Driver/Src/stm32f0xx_hal_pcd.c ****         wEPVal = PCD_GET_ENDPOINT(hpcd->Instance, PCD_ENDP0);
1238:Drivers/STM32F0xx_HAL_Driver/Src/stm32f0xx_hal_pcd.c ****         
1239:Drivers/STM32F0xx_HAL_Driver/Src/stm32f0xx_hal_pcd.c ****         if ((wEPVal & USB_EP_SETUP) != 0U)
1240:Drivers/STM32F0xx_HAL_Driver/Src/stm32f0xx_hal_pcd.c ****         {
1241:Drivers/STM32F0xx_HAL_Driver/Src/stm32f0xx_hal_pcd.c ****           /* Get SETUP Packet*/
1242:Drivers/STM32F0xx_HAL_Driver/Src/stm32f0xx_hal_pcd.c ****           ep->xfer_count = PCD_GET_EP_RX_CNT(hpcd->Instance, ep->num);
 3733              		.loc 1 1242 11 is_stmt 1 view .LVU877
 3734              		.loc 1 1242 28 is_stmt 0 view .LVU878
 3735 006e 5023     		movs	r3, #80
 3736 0070 C35A     		ldrh	r3, [r0, r3]
 3737 0072 8422     		movs	r2, #132
 3738 0074 5200     		lsls	r2, r2, #1
 3739 0076 A25C     		ldrb	r2, [r4, r2]
 3740 0078 D200     		lsls	r2, r2, #3
 3741 007a 9B18     		adds	r3, r3, r2
 3742 007c 1B18     		adds	r3, r3, r0
 3743 007e 954A     		ldr	r2, .L194+8
 3744 0080 9446     		mov	ip, r2
 3745 0082 6344     		add	r3, r3, ip
 3746 0084 1B88     		ldrh	r3, [r3]
 3747 0086 9B05     		lsls	r3, r3, #22
 3748 0088 9B0D     		lsrs	r3, r3, #22
 3749              		.loc 1 1242 26 view .LVU879
 3750 008a 2200     		movs	r2, r4
 3751 008c 0932     		adds	r2, r2, #9
 3752 008e FF32     		adds	r2, r2, #255
 3753 0090 9361     		str	r3, [r2, #24]
1243:Drivers/STM32F0xx_HAL_Driver/Src/stm32f0xx_hal_pcd.c ****           PCD_ReadPMA(hpcd->Instance, (uint8_t*)(void*)hpcd->Setup ,ep->pmaadress , ep->xfer_count)
 3754              		.loc 1 1243 11 is_stmt 1 view .LVU880
 3755              		.loc 1 1243 56 is_stmt 0 view .LVU881
 3756 0092 2100     		movs	r1, r4
 3757 0094 ED31     		adds	r1, r1, #237
 3758 0096 FF31     		adds	r1, r1, #255
 3759              		.loc 1 1243 11 view .LVU882
 3760 0098 9288     		ldrh	r2, [r2, #4]
 3761 009a FFF7FEFF 		bl	PCD_ReadPMA
ARM GAS  /tmp/cc8iG1bp.s 			page 95


 3762              	.LVL287:
1244:Drivers/STM32F0xx_HAL_Driver/Src/stm32f0xx_hal_pcd.c ****           /* SETUP bit kept frozen while CTR_RX = 1*/ 
1245:Drivers/STM32F0xx_HAL_Driver/Src/stm32f0xx_hal_pcd.c ****           PCD_CLEAR_RX_EP_CTR(hpcd->Instance, PCD_ENDP0); 
 3763              		.loc 1 1245 11 is_stmt 1 view .LVU883
 3764 009e 2268     		ldr	r2, [r4]
 3765 00a0 1388     		ldrh	r3, [r2]
 3766 00a2 8D49     		ldr	r1, .L194+12
 3767 00a4 0B40     		ands	r3, r1
 3768 00a6 1380     		strh	r3, [r2]
1246:Drivers/STM32F0xx_HAL_Driver/Src/stm32f0xx_hal_pcd.c ****           
1247:Drivers/STM32F0xx_HAL_Driver/Src/stm32f0xx_hal_pcd.c ****           /* Process SETUP Packet*/
1248:Drivers/STM32F0xx_HAL_Driver/Src/stm32f0xx_hal_pcd.c ****           HAL_PCD_SetupStageCallback(hpcd);
 3769              		.loc 1 1248 11 view .LVU884
 3770 00a8 2000     		movs	r0, r4
 3771 00aa FFF7FEFF 		bl	HAL_PCD_SetupStageCallback
 3772              	.LVL288:
 3773 00ae 69E1     		b	.L164
 3774              	.L193:
1249:Drivers/STM32F0xx_HAL_Driver/Src/stm32f0xx_hal_pcd.c ****         }
1250:Drivers/STM32F0xx_HAL_Driver/Src/stm32f0xx_hal_pcd.c ****         
1251:Drivers/STM32F0xx_HAL_Driver/Src/stm32f0xx_hal_pcd.c ****         else if ((wEPVal & USB_EP_CTR_RX) != 0U)
1252:Drivers/STM32F0xx_HAL_Driver/Src/stm32f0xx_hal_pcd.c ****         {
1253:Drivers/STM32F0xx_HAL_Driver/Src/stm32f0xx_hal_pcd.c ****           PCD_CLEAR_RX_EP_CTR(hpcd->Instance, PCD_ENDP0);
1254:Drivers/STM32F0xx_HAL_Driver/Src/stm32f0xx_hal_pcd.c ****           /* Get Control Data OUT Packet*/
1255:Drivers/STM32F0xx_HAL_Driver/Src/stm32f0xx_hal_pcd.c ****           ep->xfer_count = PCD_GET_EP_RX_CNT(hpcd->Instance, ep->num);
1256:Drivers/STM32F0xx_HAL_Driver/Src/stm32f0xx_hal_pcd.c ****           
1257:Drivers/STM32F0xx_HAL_Driver/Src/stm32f0xx_hal_pcd.c ****           if (ep->xfer_count != 0U)
1258:Drivers/STM32F0xx_HAL_Driver/Src/stm32f0xx_hal_pcd.c ****           {
1259:Drivers/STM32F0xx_HAL_Driver/Src/stm32f0xx_hal_pcd.c ****             PCD_ReadPMA(hpcd->Instance, ep->xfer_buff, ep->pmaadress, ep->xfer_count);
 3775              		.loc 1 1259 13 view .LVU885
 3776 00b0 1500     		movs	r5, r2
 3777              	.LVL289:
 3778              		.loc 1 1259 13 is_stmt 0 view .LVU886
 3779 00b2 9288     		ldrh	r2, [r2, #4]
 3780 00b4 2969     		ldr	r1, [r5, #16]
 3781 00b6 FFF7FEFF 		bl	PCD_ReadPMA
 3782              	.LVL290:
1260:Drivers/STM32F0xx_HAL_Driver/Src/stm32f0xx_hal_pcd.c ****             ep->xfer_buff+=ep->xfer_count;
 3783              		.loc 1 1260 13 is_stmt 1 view .LVU887
 3784              		.loc 1 1260 26 is_stmt 0 view .LVU888
 3785 00ba 2B69     		ldr	r3, [r5, #16]
 3786 00bc AA69     		ldr	r2, [r5, #24]
 3787 00be 9446     		mov	ip, r2
 3788 00c0 6344     		add	r3, r3, ip
 3789 00c2 2B61     		str	r3, [r5, #16]
 3790 00c4 9DE1     		b	.L169
 3791              	.LVL291:
 3792              	.L170:
 3793              	.LBB37:
 3794              	.LBB38:
1261:Drivers/STM32F0xx_HAL_Driver/Src/stm32f0xx_hal_pcd.c ****           }
1262:Drivers/STM32F0xx_HAL_Driver/Src/stm32f0xx_hal_pcd.c ****           
1263:Drivers/STM32F0xx_HAL_Driver/Src/stm32f0xx_hal_pcd.c ****           /* Process Control Data OUT Packet*/
1264:Drivers/STM32F0xx_HAL_Driver/Src/stm32f0xx_hal_pcd.c ****            HAL_PCD_DataOutStageCallback(hpcd, 0U);
1265:Drivers/STM32F0xx_HAL_Driver/Src/stm32f0xx_hal_pcd.c ****           
1266:Drivers/STM32F0xx_HAL_Driver/Src/stm32f0xx_hal_pcd.c ****           PCD_SET_EP_RX_CNT(hpcd->Instance, PCD_ENDP0, ep->maxpacket)
 3795              		.loc 1 1266 11 is_stmt 1 discriminator 2 view .LVU889
ARM GAS  /tmp/cc8iG1bp.s 			page 96


 3796 00c6 4B08     		lsrs	r3, r1, #1
 3797 00c8 9BB2     		uxth	r3, r3
 3798              	.LVL292:
 3799              		.loc 1 1266 11 discriminator 2 view .LVU890
 3800 00ca C907     		lsls	r1, r1, #31
 3801 00cc 01D5     		bpl	.L173
 3802              		.loc 1 1266 11 discriminator 6 view .LVU891
 3803 00ce 0133     		adds	r3, r3, #1
 3804              	.LVL293:
 3805              		.loc 1 1266 11 is_stmt 0 discriminator 6 view .LVU892
 3806 00d0 9BB2     		uxth	r3, r3
 3807              	.LVL294:
 3808              	.L173:
 3809              		.loc 1 1266 11 is_stmt 1 discriminator 8 view .LVU893
 3810 00d2 9B02     		lsls	r3, r3, #10
 3811              	.LVL295:
 3812              		.loc 1 1266 11 is_stmt 0 discriminator 8 view .LVU894
 3813 00d4 1380     		strh	r3, [r2]
 3814 00d6 B1E1     		b	.L172
 3815              	.LVL296:
 3816              	.L165:
 3817              		.loc 1 1266 11 discriminator 8 view .LVU895
 3818              	.LBE38:
 3819              	.LBE37:
1267:Drivers/STM32F0xx_HAL_Driver/Src/stm32f0xx_hal_pcd.c ****           PCD_SET_EP_RX_STATUS(hpcd->Instance, PCD_ENDP0, USB_EP_RX_VALID)
1268:Drivers/STM32F0xx_HAL_Driver/Src/stm32f0xx_hal_pcd.c ****         }
1269:Drivers/STM32F0xx_HAL_Driver/Src/stm32f0xx_hal_pcd.c ****       }
1270:Drivers/STM32F0xx_HAL_Driver/Src/stm32f0xx_hal_pcd.c ****     }
1271:Drivers/STM32F0xx_HAL_Driver/Src/stm32f0xx_hal_pcd.c ****     else
1272:Drivers/STM32F0xx_HAL_Driver/Src/stm32f0xx_hal_pcd.c ****     {
1273:Drivers/STM32F0xx_HAL_Driver/Src/stm32f0xx_hal_pcd.c ****       
1274:Drivers/STM32F0xx_HAL_Driver/Src/stm32f0xx_hal_pcd.c ****       /* Decode and service non control endpoints interrupt  */
1275:Drivers/STM32F0xx_HAL_Driver/Src/stm32f0xx_hal_pcd.c ****       
1276:Drivers/STM32F0xx_HAL_Driver/Src/stm32f0xx_hal_pcd.c ****       /* process related endpoint register */
1277:Drivers/STM32F0xx_HAL_Driver/Src/stm32f0xx_hal_pcd.c ****       wEPVal = PCD_GET_ENDPOINT(hpcd->Instance, EPindex);
 3820              		.loc 1 1277 7 is_stmt 1 view .LVU896
 3821              		.loc 1 1277 16 is_stmt 0 view .LVU897
 3822 00d8 AE00     		lsls	r6, r5, #2
 3823 00da 8019     		adds	r0, r0, r6
 3824 00dc 0388     		ldrh	r3, [r0]
 3825 00de 9BB2     		uxth	r3, r3
 3826              		.loc 1 1277 14 view .LVU898
 3827 00e0 01AA     		add	r2, sp, #4
 3828 00e2 1380     		strh	r3, [r2]
1278:Drivers/STM32F0xx_HAL_Driver/Src/stm32f0xx_hal_pcd.c ****       if ((wEPVal & USB_EP_CTR_RX) != 0U)
 3829              		.loc 1 1278 7 is_stmt 1 view .LVU899
 3830              		.loc 1 1278 36 is_stmt 0 view .LVU900
 3831 00e4 1388     		ldrh	r3, [r2]
 3832 00e6 1BB2     		sxth	r3, r3
 3833              		.loc 1 1278 10 view .LVU901
 3834 00e8 002B     		cmp	r3, #0
 3835 00ea 30DB     		blt	.L187
 3836              	.L174:
1279:Drivers/STM32F0xx_HAL_Driver/Src/stm32f0xx_hal_pcd.c ****       {  
1280:Drivers/STM32F0xx_HAL_Driver/Src/stm32f0xx_hal_pcd.c ****         /* clear int flag */
1281:Drivers/STM32F0xx_HAL_Driver/Src/stm32f0xx_hal_pcd.c ****         PCD_CLEAR_RX_EP_CTR(hpcd->Instance, EPindex);
1282:Drivers/STM32F0xx_HAL_Driver/Src/stm32f0xx_hal_pcd.c ****         ep = &hpcd->OUT_ep[EPindex];
ARM GAS  /tmp/cc8iG1bp.s 			page 97


1283:Drivers/STM32F0xx_HAL_Driver/Src/stm32f0xx_hal_pcd.c ****         
1284:Drivers/STM32F0xx_HAL_Driver/Src/stm32f0xx_hal_pcd.c ****         /* OUT double Buffering*/
1285:Drivers/STM32F0xx_HAL_Driver/Src/stm32f0xx_hal_pcd.c ****         if (ep->doublebuffer == 0U)
1286:Drivers/STM32F0xx_HAL_Driver/Src/stm32f0xx_hal_pcd.c ****         {
1287:Drivers/STM32F0xx_HAL_Driver/Src/stm32f0xx_hal_pcd.c ****           count = PCD_GET_EP_RX_CNT(hpcd->Instance, ep->num);
1288:Drivers/STM32F0xx_HAL_Driver/Src/stm32f0xx_hal_pcd.c ****           if (count != 0U)
1289:Drivers/STM32F0xx_HAL_Driver/Src/stm32f0xx_hal_pcd.c ****           {
1290:Drivers/STM32F0xx_HAL_Driver/Src/stm32f0xx_hal_pcd.c ****             PCD_ReadPMA(hpcd->Instance, ep->xfer_buff, ep->pmaadress, count);
1291:Drivers/STM32F0xx_HAL_Driver/Src/stm32f0xx_hal_pcd.c ****           }
1292:Drivers/STM32F0xx_HAL_Driver/Src/stm32f0xx_hal_pcd.c ****         }
1293:Drivers/STM32F0xx_HAL_Driver/Src/stm32f0xx_hal_pcd.c ****         else
1294:Drivers/STM32F0xx_HAL_Driver/Src/stm32f0xx_hal_pcd.c ****         {
1295:Drivers/STM32F0xx_HAL_Driver/Src/stm32f0xx_hal_pcd.c ****           
1296:Drivers/STM32F0xx_HAL_Driver/Src/stm32f0xx_hal_pcd.c ****           if ((PCD_GET_ENDPOINT(hpcd->Instance, ep->num)& USB_EP_DTOG_RX) == USB_EP_DTOG_RX)
1297:Drivers/STM32F0xx_HAL_Driver/Src/stm32f0xx_hal_pcd.c ****           {
1298:Drivers/STM32F0xx_HAL_Driver/Src/stm32f0xx_hal_pcd.c ****             /*read from endpoint BUF0Addr buffer*/
1299:Drivers/STM32F0xx_HAL_Driver/Src/stm32f0xx_hal_pcd.c ****             count = PCD_GET_EP_DBUF0_CNT(hpcd->Instance, ep->num);
1300:Drivers/STM32F0xx_HAL_Driver/Src/stm32f0xx_hal_pcd.c ****             if (count != 0U)
1301:Drivers/STM32F0xx_HAL_Driver/Src/stm32f0xx_hal_pcd.c ****             {
1302:Drivers/STM32F0xx_HAL_Driver/Src/stm32f0xx_hal_pcd.c ****               PCD_ReadPMA(hpcd->Instance, ep->xfer_buff, ep->pmaaddr0, count);
1303:Drivers/STM32F0xx_HAL_Driver/Src/stm32f0xx_hal_pcd.c ****             }
1304:Drivers/STM32F0xx_HAL_Driver/Src/stm32f0xx_hal_pcd.c ****           }
1305:Drivers/STM32F0xx_HAL_Driver/Src/stm32f0xx_hal_pcd.c ****           else
1306:Drivers/STM32F0xx_HAL_Driver/Src/stm32f0xx_hal_pcd.c ****           {
1307:Drivers/STM32F0xx_HAL_Driver/Src/stm32f0xx_hal_pcd.c ****             /*read from endpoint BUF1Addr buffer*/
1308:Drivers/STM32F0xx_HAL_Driver/Src/stm32f0xx_hal_pcd.c ****             count = PCD_GET_EP_DBUF1_CNT(hpcd->Instance, ep->num);
1309:Drivers/STM32F0xx_HAL_Driver/Src/stm32f0xx_hal_pcd.c ****             if (count != 0U)
1310:Drivers/STM32F0xx_HAL_Driver/Src/stm32f0xx_hal_pcd.c ****             {
1311:Drivers/STM32F0xx_HAL_Driver/Src/stm32f0xx_hal_pcd.c ****               PCD_ReadPMA(hpcd->Instance, ep->xfer_buff, ep->pmaaddr1, count);
1312:Drivers/STM32F0xx_HAL_Driver/Src/stm32f0xx_hal_pcd.c ****             }
1313:Drivers/STM32F0xx_HAL_Driver/Src/stm32f0xx_hal_pcd.c ****           }
1314:Drivers/STM32F0xx_HAL_Driver/Src/stm32f0xx_hal_pcd.c ****           PCD_FreeUserBuffer(hpcd->Instance, ep->num, PCD_EP_DBUF_OUT)  
1315:Drivers/STM32F0xx_HAL_Driver/Src/stm32f0xx_hal_pcd.c ****         }
1316:Drivers/STM32F0xx_HAL_Driver/Src/stm32f0xx_hal_pcd.c ****         /*multi-packet on the NON control OUT endpoint*/
1317:Drivers/STM32F0xx_HAL_Driver/Src/stm32f0xx_hal_pcd.c ****         ep->xfer_count+=count;
1318:Drivers/STM32F0xx_HAL_Driver/Src/stm32f0xx_hal_pcd.c ****         ep->xfer_buff+=count;
1319:Drivers/STM32F0xx_HAL_Driver/Src/stm32f0xx_hal_pcd.c ****        
1320:Drivers/STM32F0xx_HAL_Driver/Src/stm32f0xx_hal_pcd.c ****         if ((ep->xfer_len == 0U) || (count < ep->maxpacket))
1321:Drivers/STM32F0xx_HAL_Driver/Src/stm32f0xx_hal_pcd.c ****         {
1322:Drivers/STM32F0xx_HAL_Driver/Src/stm32f0xx_hal_pcd.c ****           /* RX COMPLETE */
1323:Drivers/STM32F0xx_HAL_Driver/Src/stm32f0xx_hal_pcd.c ****           HAL_PCD_DataOutStageCallback(hpcd, ep->num);
1324:Drivers/STM32F0xx_HAL_Driver/Src/stm32f0xx_hal_pcd.c ****         }
1325:Drivers/STM32F0xx_HAL_Driver/Src/stm32f0xx_hal_pcd.c ****         else
1326:Drivers/STM32F0xx_HAL_Driver/Src/stm32f0xx_hal_pcd.c ****         {
1327:Drivers/STM32F0xx_HAL_Driver/Src/stm32f0xx_hal_pcd.c ****           HAL_PCD_EP_Receive(hpcd, ep->num, ep->xfer_buff, ep->xfer_len);
1328:Drivers/STM32F0xx_HAL_Driver/Src/stm32f0xx_hal_pcd.c ****         }
1329:Drivers/STM32F0xx_HAL_Driver/Src/stm32f0xx_hal_pcd.c ****         
1330:Drivers/STM32F0xx_HAL_Driver/Src/stm32f0xx_hal_pcd.c ****       } /* if((wEPVal & EP_CTR_RX) */
1331:Drivers/STM32F0xx_HAL_Driver/Src/stm32f0xx_hal_pcd.c ****       
1332:Drivers/STM32F0xx_HAL_Driver/Src/stm32f0xx_hal_pcd.c ****       if ((wEPVal & USB_EP_CTR_TX) != 0U)
 3837              		.loc 1 1332 7 is_stmt 1 view .LVU902
 3838              		.loc 1 1332 19 is_stmt 0 view .LVU903
 3839 00ec 01AB     		add	r3, sp, #4
 3840 00ee 1B88     		ldrh	r3, [r3]
 3841              		.loc 1 1332 10 view .LVU904
 3842 00f0 1B06     		lsls	r3, r3, #24
 3843 00f2 00D4     		bmi	.LCB3926
ARM GAS  /tmp/cc8iG1bp.s 			page 98


 3844 00f4 46E1     		b	.L164	@long jump
 3845              	.LCB3926:
1333:Drivers/STM32F0xx_HAL_Driver/Src/stm32f0xx_hal_pcd.c ****       {
1334:Drivers/STM32F0xx_HAL_Driver/Src/stm32f0xx_hal_pcd.c ****         ep = &hpcd->IN_ep[EPindex];
 3846              		.loc 1 1334 9 is_stmt 1 view .LVU905
 3847              	.LVL297:
1335:Drivers/STM32F0xx_HAL_Driver/Src/stm32f0xx_hal_pcd.c ****         
1336:Drivers/STM32F0xx_HAL_Driver/Src/stm32f0xx_hal_pcd.c ****         /* clear int flag */
1337:Drivers/STM32F0xx_HAL_Driver/Src/stm32f0xx_hal_pcd.c ****         PCD_CLEAR_TX_EP_CTR(hpcd->Instance, EPindex);
 3848              		.loc 1 1337 9 view .LVU906
 3849 00f6 2368     		ldr	r3, [r4]
 3850 00f8 9C46     		mov	ip, r3
 3851 00fa 6644     		add	r6, r6, ip
 3852 00fc 3388     		ldrh	r3, [r6]
 3853 00fe 734A     		ldr	r2, .L194
 3854 0100 1340     		ands	r3, r2
 3855 0102 3380     		strh	r3, [r6]
1338:Drivers/STM32F0xx_HAL_Driver/Src/stm32f0xx_hal_pcd.c ****         
1339:Drivers/STM32F0xx_HAL_Driver/Src/stm32f0xx_hal_pcd.c ****         /* IN double Buffering*/
1340:Drivers/STM32F0xx_HAL_Driver/Src/stm32f0xx_hal_pcd.c ****         if (ep->doublebuffer == 0U)
 3856              		.loc 1 1340 9 view .LVU907
 3857              		.loc 1 1340 15 is_stmt 0 view .LVU908
 3858 0104 EB00     		lsls	r3, r5, #3
 3859 0106 5B1B     		subs	r3, r3, r5
 3860 0108 9B00     		lsls	r3, r3, #2
 3861 010a E318     		adds	r3, r4, r3
 3862 010c 3233     		adds	r3, r3, #50
 3863 010e 1B78     		ldrb	r3, [r3]
 3864              		.loc 1 1340 12 view .LVU909
 3865 0110 002B     		cmp	r3, #0
 3866 0112 00D0     		beq	.LCB3948
 3867 0114 E6E0     		b	.L181	@long jump
 3868              	.LCB3948:
1341:Drivers/STM32F0xx_HAL_Driver/Src/stm32f0xx_hal_pcd.c ****         {
1342:Drivers/STM32F0xx_HAL_Driver/Src/stm32f0xx_hal_pcd.c ****           ep->xfer_count = PCD_GET_EP_TX_CNT(hpcd->Instance, ep->num);
 3869              		.loc 1 1342 11 is_stmt 1 view .LVU910
 3870              		.loc 1 1342 28 is_stmt 0 view .LVU911
 3871 0116 2068     		ldr	r0, [r4]
 3872 0118 5033     		adds	r3, r3, #80
 3873 011a C35A     		ldrh	r3, [r0, r3]
 3874 011c EA00     		lsls	r2, r5, #3
 3875 011e 521B     		subs	r2, r2, r5
 3876 0120 9200     		lsls	r2, r2, #2
 3877 0122 A218     		adds	r2, r4, r2
 3878 0124 1100     		movs	r1, r2
 3879 0126 2831     		adds	r1, r1, #40
 3880 0128 0978     		ldrb	r1, [r1]
 3881 012a C900     		lsls	r1, r1, #3
 3882 012c 5B18     		adds	r3, r3, r1
 3883 012e 1B18     		adds	r3, r3, r0
 3884 0130 6749     		ldr	r1, .L194+4
 3885 0132 8C46     		mov	ip, r1
 3886 0134 6344     		add	r3, r3, ip
 3887 0136 1B88     		ldrh	r3, [r3]
 3888 0138 9B05     		lsls	r3, r3, #22
 3889 013a 9B0D     		lsrs	r3, r3, #22
 3890              		.loc 1 1342 26 view .LVU912
ARM GAS  /tmp/cc8iG1bp.s 			page 99


 3891 013c 1364     		str	r3, [r2, #64]
1343:Drivers/STM32F0xx_HAL_Driver/Src/stm32f0xx_hal_pcd.c ****           if (ep->xfer_count != 0)
 3892              		.loc 1 1343 11 is_stmt 1 view .LVU913
 3893              		.loc 1 1343 14 is_stmt 0 view .LVU914
 3894 013e 00D1     		bne	.LCB3974
 3895 0140 01E1     		b	.L182	@long jump
 3896              	.LCB3974:
1344:Drivers/STM32F0xx_HAL_Driver/Src/stm32f0xx_hal_pcd.c ****           {
1345:Drivers/STM32F0xx_HAL_Driver/Src/stm32f0xx_hal_pcd.c ****             PCD_WritePMA(hpcd->Instance, ep->xfer_buff, ep->pmaadress, ep->xfer_count);
 3897              		.loc 1 1345 13 is_stmt 1 view .LVU915
 3898 0142 1100     		movs	r1, r2
 3899 0144 928D     		ldrh	r2, [r2, #44]
 3900 0146 896B     		ldr	r1, [r1, #56]
 3901 0148 FFF7FEFF 		bl	PCD_WritePMA
 3902              	.LVL298:
 3903 014c FBE0     		b	.L182
 3904              	.LVL299:
 3905              	.L187:
1281:Drivers/STM32F0xx_HAL_Driver/Src/stm32f0xx_hal_pcd.c ****         ep = &hpcd->OUT_ep[EPindex];
 3906              		.loc 1 1281 9 view .LVU916
 3907 014e 0388     		ldrh	r3, [r0]
 3908 0150 614A     		ldr	r2, .L194+12
 3909 0152 1340     		ands	r3, r2
 3910 0154 0380     		strh	r3, [r0]
1282:Drivers/STM32F0xx_HAL_Driver/Src/stm32f0xx_hal_pcd.c ****         
 3911              		.loc 1 1282 9 view .LVU917
 3912              	.LVL300:
1285:Drivers/STM32F0xx_HAL_Driver/Src/stm32f0xx_hal_pcd.c ****         {
 3913              		.loc 1 1285 9 view .LVU918
1285:Drivers/STM32F0xx_HAL_Driver/Src/stm32f0xx_hal_pcd.c ****         {
 3914              		.loc 1 1285 15 is_stmt 0 view .LVU919
 3915 0156 EB00     		lsls	r3, r5, #3
 3916 0158 5B1B     		subs	r3, r3, r5
 3917 015a 9B00     		lsls	r3, r3, #2
 3918 015c E318     		adds	r3, r4, r3
 3919 015e 1333     		adds	r3, r3, #19
 3920 0160 FF33     		adds	r3, r3, #255
 3921 0162 1B78     		ldrb	r3, [r3]
1285:Drivers/STM32F0xx_HAL_Driver/Src/stm32f0xx_hal_pcd.c ****         {
 3922              		.loc 1 1285 12 view .LVU920
 3923 0164 002B     		cmp	r3, #0
 3924 0166 23D1     		bne	.L175
1287:Drivers/STM32F0xx_HAL_Driver/Src/stm32f0xx_hal_pcd.c ****           if (count != 0U)
 3925              		.loc 1 1287 11 is_stmt 1 view .LVU921
1287:Drivers/STM32F0xx_HAL_Driver/Src/stm32f0xx_hal_pcd.c ****           if (count != 0U)
 3926              		.loc 1 1287 19 is_stmt 0 view .LVU922
 3927 0168 2068     		ldr	r0, [r4]
 3928 016a 5033     		adds	r3, r3, #80
 3929 016c C25A     		ldrh	r2, [r0, r3]
 3930 016e EB00     		lsls	r3, r5, #3
 3931 0170 5B1B     		subs	r3, r3, r5
 3932 0172 9B00     		lsls	r3, r3, #2
 3933 0174 E318     		adds	r3, r4, r3
 3934 0176 0933     		adds	r3, r3, #9
 3935 0178 FF33     		adds	r3, r3, #255
 3936 017a 1B78     		ldrb	r3, [r3]
 3937 017c DB00     		lsls	r3, r3, #3
ARM GAS  /tmp/cc8iG1bp.s 			page 100


 3938 017e D318     		adds	r3, r2, r3
 3939 0180 1B18     		adds	r3, r3, r0
 3940 0182 544A     		ldr	r2, .L194+8
 3941 0184 9446     		mov	ip, r2
 3942 0186 6344     		add	r3, r3, ip
 3943 0188 1B88     		ldrh	r3, [r3]
1287:Drivers/STM32F0xx_HAL_Driver/Src/stm32f0xx_hal_pcd.c ****           if (count != 0U)
 3944              		.loc 1 1287 17 view .LVU923
 3945 018a 9B05     		lsls	r3, r3, #22
 3946 018c 9F0D     		lsrs	r7, r3, #22
 3947              	.LVL301:
1288:Drivers/STM32F0xx_HAL_Driver/Src/stm32f0xx_hal_pcd.c ****           {
 3948              		.loc 1 1288 11 is_stmt 1 view .LVU924
1288:Drivers/STM32F0xx_HAL_Driver/Src/stm32f0xx_hal_pcd.c ****           {
 3949              		.loc 1 1288 14 is_stmt 0 view .LVU925
 3950 018e 002B     		cmp	r3, #0
 3951 0190 3AD0     		beq	.L176
1290:Drivers/STM32F0xx_HAL_Driver/Src/stm32f0xx_hal_pcd.c ****           }
 3952              		.loc 1 1290 13 is_stmt 1 view .LVU926
 3953 0192 EB00     		lsls	r3, r5, #3
 3954 0194 5B1B     		subs	r3, r3, r5
 3955 0196 9B00     		lsls	r3, r3, #2
 3956 0198 E318     		adds	r3, r4, r3
 3957 019a 1A00     		movs	r2, r3
 3958 019c 0D32     		adds	r2, r2, #13
 3959 019e FF32     		adds	r2, r2, #255
 3960 01a0 1288     		ldrh	r2, [r2]
 3961 01a2 1933     		adds	r3, r3, #25
 3962 01a4 FF33     		adds	r3, r3, #255
 3963 01a6 1968     		ldr	r1, [r3]
 3964 01a8 3B00     		movs	r3, r7
 3965 01aa FFF7FEFF 		bl	PCD_ReadPMA
 3966              	.LVL302:
 3967 01ae 2BE0     		b	.L176
 3968              	.LVL303:
 3969              	.L175:
1296:Drivers/STM32F0xx_HAL_Driver/Src/stm32f0xx_hal_pcd.c ****           {
 3970              		.loc 1 1296 11 view .LVU927
1296:Drivers/STM32F0xx_HAL_Driver/Src/stm32f0xx_hal_pcd.c ****           {
 3971              		.loc 1 1296 16 is_stmt 0 view .LVU928
 3972 01b0 2068     		ldr	r0, [r4]
 3973 01b2 EB00     		lsls	r3, r5, #3
 3974 01b4 5B1B     		subs	r3, r3, r5
 3975 01b6 9B00     		lsls	r3, r3, #2
 3976 01b8 E318     		adds	r3, r4, r3
 3977 01ba 0933     		adds	r3, r3, #9
 3978 01bc FF33     		adds	r3, r3, #255
 3979 01be 1B78     		ldrb	r3, [r3]
 3980 01c0 9A00     		lsls	r2, r3, #2
 3981 01c2 8218     		adds	r2, r0, r2
 3982 01c4 1288     		ldrh	r2, [r2]
1296:Drivers/STM32F0xx_HAL_Driver/Src/stm32f0xx_hal_pcd.c ****           {
 3983              		.loc 1 1296 14 view .LVU929
 3984 01c6 5204     		lsls	r2, r2, #17
 3985 01c8 58D5     		bpl	.L177
1299:Drivers/STM32F0xx_HAL_Driver/Src/stm32f0xx_hal_pcd.c ****             if (count != 0U)
 3986              		.loc 1 1299 13 is_stmt 1 view .LVU930
ARM GAS  /tmp/cc8iG1bp.s 			page 101


1299:Drivers/STM32F0xx_HAL_Driver/Src/stm32f0xx_hal_pcd.c ****             if (count != 0U)
 3987              		.loc 1 1299 21 is_stmt 0 view .LVU931
 3988 01ca 5022     		movs	r2, #80
 3989 01cc 825A     		ldrh	r2, [r0, r2]
 3990 01ce DB00     		lsls	r3, r3, #3
 3991 01d0 D318     		adds	r3, r2, r3
 3992 01d2 1B18     		adds	r3, r3, r0
 3993 01d4 3E4A     		ldr	r2, .L194+4
 3994 01d6 9446     		mov	ip, r2
 3995 01d8 6344     		add	r3, r3, ip
 3996 01da 1B88     		ldrh	r3, [r3]
1299:Drivers/STM32F0xx_HAL_Driver/Src/stm32f0xx_hal_pcd.c ****             if (count != 0U)
 3997              		.loc 1 1299 19 view .LVU932
 3998 01dc 9B05     		lsls	r3, r3, #22
 3999 01de 9F0D     		lsrs	r7, r3, #22
 4000              	.LVL304:
1300:Drivers/STM32F0xx_HAL_Driver/Src/stm32f0xx_hal_pcd.c ****             {
 4001              		.loc 1 1300 13 is_stmt 1 view .LVU933
1300:Drivers/STM32F0xx_HAL_Driver/Src/stm32f0xx_hal_pcd.c ****             {
 4002              		.loc 1 1300 16 is_stmt 0 view .LVU934
 4003 01e0 002B     		cmp	r3, #0
 4004 01e2 3CD1     		bne	.L188
 4005              	.L178:
1314:Drivers/STM32F0xx_HAL_Driver/Src/stm32f0xx_hal_pcd.c ****         }
 4006              		.loc 1 1314 11 is_stmt 1 discriminator 1 view .LVU935
1314:Drivers/STM32F0xx_HAL_Driver/Src/stm32f0xx_hal_pcd.c ****         }
 4007              		.loc 1 1314 11 discriminator 1 view .LVU936
 4008 01e4 EB00     		lsls	r3, r5, #3
 4009 01e6 5B1B     		subs	r3, r3, r5
 4010 01e8 9B00     		lsls	r3, r3, #2
 4011 01ea E318     		adds	r3, r4, r3
 4012 01ec 0933     		adds	r3, r3, #9
 4013 01ee FF33     		adds	r3, r3, #255
 4014 01f0 1A78     		ldrb	r2, [r3]
 4015 01f2 9200     		lsls	r2, r2, #2
 4016 01f4 2368     		ldr	r3, [r4]
 4017 01f6 9C46     		mov	ip, r3
 4018 01f8 6244     		add	r2, r2, ip
 4019 01fa 1388     		ldrh	r3, [r2]
 4020 01fc 3749     		ldr	r1, .L194+16
 4021 01fe 1940     		ands	r1, r3
 4022 0200 374B     		ldr	r3, .L194+20
 4023 0202 0B43     		orrs	r3, r1
 4024 0204 9BB2     		uxth	r3, r3
 4025 0206 1380     		strh	r3, [r2]
 4026              	.L176:
1317:Drivers/STM32F0xx_HAL_Driver/Src/stm32f0xx_hal_pcd.c ****         ep->xfer_buff+=count;
 4027              		.loc 1 1317 9 view .LVU937
1317:Drivers/STM32F0xx_HAL_Driver/Src/stm32f0xx_hal_pcd.c ****         ep->xfer_buff+=count;
 4028              		.loc 1 1317 23 is_stmt 0 view .LVU938
 4029 0208 3800     		movs	r0, r7
 4030 020a E900     		lsls	r1, r5, #3
 4031 020c 491B     		subs	r1, r1, r5
 4032 020e 8900     		lsls	r1, r1, #2
 4033 0210 6118     		adds	r1, r4, r1
 4034 0212 0A00     		movs	r2, r1
 4035 0214 2132     		adds	r2, r2, #33
ARM GAS  /tmp/cc8iG1bp.s 			page 102


 4036 0216 FF32     		adds	r2, r2, #255
 4037 0218 1368     		ldr	r3, [r2]
 4038 021a DB19     		adds	r3, r3, r7
 4039 021c 1360     		str	r3, [r2]
1318:Drivers/STM32F0xx_HAL_Driver/Src/stm32f0xx_hal_pcd.c ****        
 4040              		.loc 1 1318 9 is_stmt 1 view .LVU939
1318:Drivers/STM32F0xx_HAL_Driver/Src/stm32f0xx_hal_pcd.c ****        
 4041              		.loc 1 1318 22 is_stmt 0 view .LVU940
 4042 021e 0B00     		movs	r3, r1
 4043 0220 1933     		adds	r3, r3, #25
 4044 0222 FF33     		adds	r3, r3, #255
 4045 0224 1A68     		ldr	r2, [r3]
 4046 0226 9446     		mov	ip, r2
 4047 0228 6744     		add	r7, r7, ip
 4048              	.LVL305:
1318:Drivers/STM32F0xx_HAL_Driver/Src/stm32f0xx_hal_pcd.c ****        
 4049              		.loc 1 1318 22 view .LVU941
 4050 022a 1F60     		str	r7, [r3]
1320:Drivers/STM32F0xx_HAL_Driver/Src/stm32f0xx_hal_pcd.c ****         {
 4051              		.loc 1 1320 9 is_stmt 1 view .LVU942
1320:Drivers/STM32F0xx_HAL_Driver/Src/stm32f0xx_hal_pcd.c ****         {
 4052              		.loc 1 1320 16 is_stmt 0 view .LVU943
 4053 022c 1D31     		adds	r1, r1, #29
 4054 022e FF31     		adds	r1, r1, #255
 4055 0230 0B68     		ldr	r3, [r1]
1320:Drivers/STM32F0xx_HAL_Driver/Src/stm32f0xx_hal_pcd.c ****         {
 4056              		.loc 1 1320 12 view .LVU944
 4057 0232 002B     		cmp	r3, #0
 4058 0234 08D0     		beq	.L179
1320:Drivers/STM32F0xx_HAL_Driver/Src/stm32f0xx_hal_pcd.c ****         {
 4059              		.loc 1 1320 48 discriminator 1 view .LVU945
 4060 0236 E900     		lsls	r1, r5, #3
 4061 0238 491B     		subs	r1, r1, r5
 4062 023a 8900     		lsls	r1, r1, #2
 4063 023c 6118     		adds	r1, r4, r1
 4064 023e 1531     		adds	r1, r1, #21
 4065 0240 FF31     		adds	r1, r1, #255
 4066 0242 0A68     		ldr	r2, [r1]
1320:Drivers/STM32F0xx_HAL_Driver/Src/stm32f0xx_hal_pcd.c ****         {
 4067              		.loc 1 1320 34 discriminator 1 view .LVU946
 4068 0244 9042     		cmp	r0, r2
 4069 0246 35D2     		bcs	.L180
 4070              	.L179:
1323:Drivers/STM32F0xx_HAL_Driver/Src/stm32f0xx_hal_pcd.c ****         }
 4071              		.loc 1 1323 11 is_stmt 1 view .LVU947
 4072 0248 EB00     		lsls	r3, r5, #3
 4073 024a 5B1B     		subs	r3, r3, r5
 4074 024c 9B00     		lsls	r3, r3, #2
 4075 024e E318     		adds	r3, r4, r3
 4076 0250 0933     		adds	r3, r3, #9
 4077 0252 FF33     		adds	r3, r3, #255
 4078 0254 1978     		ldrb	r1, [r3]
 4079 0256 2000     		movs	r0, r4
 4080 0258 FFF7FEFF 		bl	HAL_PCD_DataOutStageCallback
 4081              	.LVL306:
 4082 025c 46E7     		b	.L174
 4083              	.LVL307:
ARM GAS  /tmp/cc8iG1bp.s 			page 103


 4084              	.L188:
1302:Drivers/STM32F0xx_HAL_Driver/Src/stm32f0xx_hal_pcd.c ****             }
 4085              		.loc 1 1302 15 view .LVU948
 4086 025e EB00     		lsls	r3, r5, #3
 4087 0260 5B1B     		subs	r3, r3, r5
 4088 0262 9B00     		lsls	r3, r3, #2
 4089 0264 E318     		adds	r3, r4, r3
 4090 0266 1A00     		movs	r2, r3
 4091 0268 0F32     		adds	r2, r2, #15
 4092 026a FF32     		adds	r2, r2, #255
 4093 026c 1288     		ldrh	r2, [r2]
 4094 026e 1933     		adds	r3, r3, #25
 4095 0270 FF33     		adds	r3, r3, #255
 4096 0272 1968     		ldr	r1, [r3]
 4097 0274 3B00     		movs	r3, r7
 4098 0276 FFF7FEFF 		bl	PCD_ReadPMA
 4099              	.LVL308:
 4100 027a B3E7     		b	.L178
 4101              	.LVL309:
 4102              	.L177:
1308:Drivers/STM32F0xx_HAL_Driver/Src/stm32f0xx_hal_pcd.c ****             if (count != 0U)
 4103              		.loc 1 1308 13 view .LVU949
1308:Drivers/STM32F0xx_HAL_Driver/Src/stm32f0xx_hal_pcd.c ****             if (count != 0U)
 4104              		.loc 1 1308 21 is_stmt 0 view .LVU950
 4105 027c 5022     		movs	r2, #80
 4106 027e 825A     		ldrh	r2, [r0, r2]
 4107 0280 DB00     		lsls	r3, r3, #3
 4108 0282 D318     		adds	r3, r2, r3
 4109 0284 1B18     		adds	r3, r3, r0
 4110 0286 134A     		ldr	r2, .L194+8
 4111 0288 9446     		mov	ip, r2
 4112 028a 6344     		add	r3, r3, ip
 4113 028c 1B88     		ldrh	r3, [r3]
1308:Drivers/STM32F0xx_HAL_Driver/Src/stm32f0xx_hal_pcd.c ****             if (count != 0U)
 4114              		.loc 1 1308 19 view .LVU951
 4115 028e 9B05     		lsls	r3, r3, #22
 4116 0290 9F0D     		lsrs	r7, r3, #22
 4117              	.LVL310:
1309:Drivers/STM32F0xx_HAL_Driver/Src/stm32f0xx_hal_pcd.c ****             {
 4118              		.loc 1 1309 13 is_stmt 1 view .LVU952
1309:Drivers/STM32F0xx_HAL_Driver/Src/stm32f0xx_hal_pcd.c ****             {
 4119              		.loc 1 1309 16 is_stmt 0 view .LVU953
 4120 0292 002B     		cmp	r3, #0
 4121 0294 A6D0     		beq	.L178
1311:Drivers/STM32F0xx_HAL_Driver/Src/stm32f0xx_hal_pcd.c ****             }
 4122              		.loc 1 1311 15 is_stmt 1 view .LVU954
 4123 0296 EB00     		lsls	r3, r5, #3
 4124 0298 5B1B     		subs	r3, r3, r5
 4125 029a 9B00     		lsls	r3, r3, #2
 4126 029c E318     		adds	r3, r4, r3
 4127 029e 1A00     		movs	r2, r3
 4128 02a0 1132     		adds	r2, r2, #17
 4129 02a2 FF32     		adds	r2, r2, #255
 4130 02a4 1288     		ldrh	r2, [r2]
 4131 02a6 1933     		adds	r3, r3, #25
 4132 02a8 FF33     		adds	r3, r3, #255
 4133 02aa 1968     		ldr	r1, [r3]
ARM GAS  /tmp/cc8iG1bp.s 			page 104


 4134 02ac 3B00     		movs	r3, r7
 4135 02ae FFF7FEFF 		bl	PCD_ReadPMA
 4136              	.LVL311:
 4137 02b2 97E7     		b	.L178
 4138              	.LVL312:
 4139              	.L180:
1327:Drivers/STM32F0xx_HAL_Driver/Src/stm32f0xx_hal_pcd.c ****         }
 4140              		.loc 1 1327 11 view .LVU955
 4141 02b4 EA00     		lsls	r2, r5, #3
 4142 02b6 521B     		subs	r2, r2, r5
 4143 02b8 9200     		lsls	r2, r2, #2
 4144 02ba A218     		adds	r2, r4, r2
 4145 02bc 0932     		adds	r2, r2, #9
 4146 02be FF32     		adds	r2, r2, #255
 4147 02c0 1178     		ldrb	r1, [r2]
 4148 02c2 3A00     		movs	r2, r7
 4149 02c4 2000     		movs	r0, r4
 4150 02c6 FFF7FEFF 		bl	HAL_PCD_EP_Receive
 4151              	.LVL313:
 4152 02ca 0FE7     		b	.L174
 4153              	.L195:
 4154              		.align	2
 4155              	.L194:
 4156 02cc 0F8FFFFF 		.word	-28913
 4157 02d0 02040000 		.word	1026
 4158 02d4 06040000 		.word	1030
 4159 02d8 8F0F0000 		.word	3983
 4160 02dc 0F0F0000 		.word	3855
 4161 02e0 C080FFFF 		.word	-32576
 4162              	.LVL314:
 4163              	.L181:
1346:Drivers/STM32F0xx_HAL_Driver/Src/stm32f0xx_hal_pcd.c ****           }
1347:Drivers/STM32F0xx_HAL_Driver/Src/stm32f0xx_hal_pcd.c ****         }
1348:Drivers/STM32F0xx_HAL_Driver/Src/stm32f0xx_hal_pcd.c ****         else
1349:Drivers/STM32F0xx_HAL_Driver/Src/stm32f0xx_hal_pcd.c ****         {
1350:Drivers/STM32F0xx_HAL_Driver/Src/stm32f0xx_hal_pcd.c ****           if ((PCD_GET_ENDPOINT(hpcd->Instance, ep->num)& USB_EP_DTOG_TX) == USB_EP_DTOG_TX)
 4164              		.loc 1 1350 11 view .LVU956
 4165              		.loc 1 1350 16 is_stmt 0 view .LVU957
 4166 02e4 2068     		ldr	r0, [r4]
 4167 02e6 EB00     		lsls	r3, r5, #3
 4168 02e8 5B1B     		subs	r3, r3, r5
 4169 02ea 9B00     		lsls	r3, r3, #2
 4170 02ec E318     		adds	r3, r4, r3
 4171 02ee 2833     		adds	r3, r3, #40
 4172 02f0 1B78     		ldrb	r3, [r3]
 4173 02f2 9A00     		lsls	r2, r3, #2
 4174 02f4 8218     		adds	r2, r0, r2
 4175 02f6 1288     		ldrh	r2, [r2]
 4176              		.loc 1 1350 14 view .LVU958
 4177 02f8 5206     		lsls	r2, r2, #25
 4178 02fa 00D4     		bmi	.LCB4279
 4179 02fc B0E0     		b	.L183	@long jump
 4180              	.LCB4279:
1351:Drivers/STM32F0xx_HAL_Driver/Src/stm32f0xx_hal_pcd.c ****           {
1352:Drivers/STM32F0xx_HAL_Driver/Src/stm32f0xx_hal_pcd.c ****             /*read from endpoint BUF0Addr buffer*/
1353:Drivers/STM32F0xx_HAL_Driver/Src/stm32f0xx_hal_pcd.c ****             ep->xfer_count = PCD_GET_EP_DBUF0_CNT(hpcd->Instance, ep->num);
 4181              		.loc 1 1353 13 is_stmt 1 view .LVU959
ARM GAS  /tmp/cc8iG1bp.s 			page 105


 4182              		.loc 1 1353 30 is_stmt 0 view .LVU960
 4183 02fe 5022     		movs	r2, #80
 4184 0300 825A     		ldrh	r2, [r0, r2]
 4185 0302 DB00     		lsls	r3, r3, #3
 4186 0304 D318     		adds	r3, r2, r3
 4187 0306 1B18     		adds	r3, r3, r0
 4188 0308 654A     		ldr	r2, .L196
 4189 030a 9446     		mov	ip, r2
 4190 030c 6344     		add	r3, r3, ip
 4191 030e 1B88     		ldrh	r3, [r3]
 4192 0310 9B05     		lsls	r3, r3, #22
 4193 0312 9B0D     		lsrs	r3, r3, #22
 4194              		.loc 1 1353 28 view .LVU961
 4195 0314 EA00     		lsls	r2, r5, #3
 4196 0316 521B     		subs	r2, r2, r5
 4197 0318 9200     		lsls	r2, r2, #2
 4198 031a A218     		adds	r2, r4, r2
 4199 031c 1364     		str	r3, [r2, #64]
1354:Drivers/STM32F0xx_HAL_Driver/Src/stm32f0xx_hal_pcd.c ****             if (ep->xfer_count != 0U)
 4200              		.loc 1 1354 13 is_stmt 1 view .LVU962
 4201              		.loc 1 1354 16 is_stmt 0 view .LVU963
 4202 031e 002B     		cmp	r3, #0
 4203 0320 00D0     		beq	.LCB4301
 4204 0322 97E0     		b	.L189	@long jump
 4205              	.LCB4301:
 4206              	.L184:
1355:Drivers/STM32F0xx_HAL_Driver/Src/stm32f0xx_hal_pcd.c ****             {
1356:Drivers/STM32F0xx_HAL_Driver/Src/stm32f0xx_hal_pcd.c ****               PCD_WritePMA(hpcd->Instance, ep->xfer_buff, ep->pmaaddr0, ep->xfer_count);
1357:Drivers/STM32F0xx_HAL_Driver/Src/stm32f0xx_hal_pcd.c ****             }
1358:Drivers/STM32F0xx_HAL_Driver/Src/stm32f0xx_hal_pcd.c ****           }
1359:Drivers/STM32F0xx_HAL_Driver/Src/stm32f0xx_hal_pcd.c ****           else
1360:Drivers/STM32F0xx_HAL_Driver/Src/stm32f0xx_hal_pcd.c ****           {
1361:Drivers/STM32F0xx_HAL_Driver/Src/stm32f0xx_hal_pcd.c ****             /*read from endpoint BUF1Addr buffer*/
1362:Drivers/STM32F0xx_HAL_Driver/Src/stm32f0xx_hal_pcd.c ****             ep->xfer_count = PCD_GET_EP_DBUF1_CNT(hpcd->Instance, ep->num);
1363:Drivers/STM32F0xx_HAL_Driver/Src/stm32f0xx_hal_pcd.c ****             if (ep->xfer_count != 0U)
1364:Drivers/STM32F0xx_HAL_Driver/Src/stm32f0xx_hal_pcd.c ****             {
1365:Drivers/STM32F0xx_HAL_Driver/Src/stm32f0xx_hal_pcd.c ****               PCD_WritePMA(hpcd->Instance, ep->xfer_buff, ep->pmaaddr1, ep->xfer_count);
1366:Drivers/STM32F0xx_HAL_Driver/Src/stm32f0xx_hal_pcd.c ****             }
1367:Drivers/STM32F0xx_HAL_Driver/Src/stm32f0xx_hal_pcd.c ****           }
1368:Drivers/STM32F0xx_HAL_Driver/Src/stm32f0xx_hal_pcd.c ****           PCD_FreeUserBuffer(hpcd->Instance, ep->num, PCD_EP_DBUF_IN) 
 4207              		.loc 1 1368 11 is_stmt 1 discriminator 3 view .LVU964
 4208              		.loc 1 1368 11 discriminator 3 view .LVU965
 4209              		.loc 1 1368 11 discriminator 3 view .LVU966
 4210 0324 EB00     		lsls	r3, r5, #3
 4211 0326 5B1B     		subs	r3, r3, r5
 4212 0328 9B00     		lsls	r3, r3, #2
 4213 032a E318     		adds	r3, r4, r3
 4214 032c 2833     		adds	r3, r3, #40
 4215 032e 1A78     		ldrb	r2, [r3]
 4216 0330 9200     		lsls	r2, r2, #2
 4217 0332 2368     		ldr	r3, [r4]
 4218 0334 9C46     		mov	ip, r3
 4219 0336 6244     		add	r2, r2, ip
 4220 0338 1388     		ldrh	r3, [r2]
 4221 033a 5A49     		ldr	r1, .L196+4
 4222 033c 1940     		ands	r1, r3
 4223 033e 5A4B     		ldr	r3, .L196+8
ARM GAS  /tmp/cc8iG1bp.s 			page 106


 4224 0340 0B43     		orrs	r3, r1
 4225 0342 9BB2     		uxth	r3, r3
 4226 0344 1380     		strh	r3, [r2]
 4227              	.L182:
1369:Drivers/STM32F0xx_HAL_Driver/Src/stm32f0xx_hal_pcd.c ****         }
1370:Drivers/STM32F0xx_HAL_Driver/Src/stm32f0xx_hal_pcd.c ****         /*multi-packet on the NON control IN endpoint*/
1371:Drivers/STM32F0xx_HAL_Driver/Src/stm32f0xx_hal_pcd.c ****         ep->xfer_count = PCD_GET_EP_TX_CNT(hpcd->Instance, ep->num);
 4228              		.loc 1 1371 9 view .LVU967
 4229              		.loc 1 1371 26 is_stmt 0 view .LVU968
 4230 0346 2668     		ldr	r6, [r4]
 4231 0348 5023     		movs	r3, #80
 4232 034a F25A     		ldrh	r2, [r6, r3]
 4233 034c EB00     		lsls	r3, r5, #3
 4234 034e 581B     		subs	r0, r3, r5
 4235 0350 8000     		lsls	r0, r0, #2
 4236 0352 2018     		adds	r0, r4, r0
 4237 0354 0100     		movs	r1, r0
 4238 0356 2831     		adds	r1, r1, #40
 4239 0358 0978     		ldrb	r1, [r1]
 4240 035a CF00     		lsls	r7, r1, #3
 4241 035c D219     		adds	r2, r2, r7
 4242 035e 9219     		adds	r2, r2, r6
 4243 0360 4F4E     		ldr	r6, .L196
 4244 0362 B446     		mov	ip, r6
 4245 0364 6244     		add	r2, r2, ip
 4246 0366 1288     		ldrh	r2, [r2]
 4247 0368 9205     		lsls	r2, r2, #22
 4248 036a 920D     		lsrs	r2, r2, #22
 4249              		.loc 1 1371 24 view .LVU969
 4250 036c 0264     		str	r2, [r0, #64]
1372:Drivers/STM32F0xx_HAL_Driver/Src/stm32f0xx_hal_pcd.c ****         ep->xfer_buff+=ep->xfer_count;
 4251              		.loc 1 1372 9 is_stmt 1 view .LVU970
 4252              		.loc 1 1372 22 is_stmt 0 view .LVU971
 4253 036e 866B     		ldr	r6, [r0, #56]
 4254 0370 B446     		mov	ip, r6
 4255 0372 6244     		add	r2, r2, ip
 4256 0374 8263     		str	r2, [r0, #56]
1373:Drivers/STM32F0xx_HAL_Driver/Src/stm32f0xx_hal_pcd.c ****        
1374:Drivers/STM32F0xx_HAL_Driver/Src/stm32f0xx_hal_pcd.c ****         /* Zero Length Packet? */
1375:Drivers/STM32F0xx_HAL_Driver/Src/stm32f0xx_hal_pcd.c ****         if (ep->xfer_len == 0U)
 4257              		.loc 1 1375 9 is_stmt 1 view .LVU972
 4258              		.loc 1 1375 15 is_stmt 0 view .LVU973
 4259 0376 C36B     		ldr	r3, [r0, #60]
 4260              		.loc 1 1375 12 view .LVU974
 4261 0378 002B     		cmp	r3, #0
 4262 037a 00D0     		beq	.LCB4362
 4263 037c 89E0     		b	.L185	@long jump
 4264              	.LCB4362:
1376:Drivers/STM32F0xx_HAL_Driver/Src/stm32f0xx_hal_pcd.c ****         {
1377:Drivers/STM32F0xx_HAL_Driver/Src/stm32f0xx_hal_pcd.c ****           /* TX COMPLETE */
1378:Drivers/STM32F0xx_HAL_Driver/Src/stm32f0xx_hal_pcd.c ****           HAL_PCD_DataInStageCallback(hpcd, ep->num);
 4265              		.loc 1 1378 11 is_stmt 1 view .LVU975
 4266 037e 2000     		movs	r0, r4
 4267 0380 FFF7FEFF 		bl	HAL_PCD_DataInStageCallback
 4268              	.LVL315:
 4269              	.L164:
1197:Drivers/STM32F0xx_HAL_Driver/Src/stm32f0xx_hal_pcd.c ****   {
ARM GAS  /tmp/cc8iG1bp.s 			page 107


 4270              		.loc 1 1197 9 view .LVU976
1197:Drivers/STM32F0xx_HAL_Driver/Src/stm32f0xx_hal_pcd.c ****   {
 4271              		.loc 1 1197 24 is_stmt 0 view .LVU977
 4272 0384 2068     		ldr	r0, [r4]
1197:Drivers/STM32F0xx_HAL_Driver/Src/stm32f0xx_hal_pcd.c ****   {
 4273              		.loc 1 1197 34 view .LVU978
 4274 0386 4423     		movs	r3, #68
 4275 0388 C35A     		ldrh	r3, [r0, r3]
 4276 038a 9BB2     		uxth	r3, r3
1197:Drivers/STM32F0xx_HAL_Driver/Src/stm32f0xx_hal_pcd.c ****   {
 4277              		.loc 1 1197 18 view .LVU979
 4278 038c 6A46     		mov	r2, sp
 4279 038e D380     		strh	r3, [r2, #6]
1197:Drivers/STM32F0xx_HAL_Driver/Src/stm32f0xx_hal_pcd.c ****   {
 4280              		.loc 1 1197 58 view .LVU980
 4281 0390 1BB2     		sxth	r3, r3
1197:Drivers/STM32F0xx_HAL_Driver/Src/stm32f0xx_hal_pcd.c ****   {
 4282              		.loc 1 1197 9 view .LVU981
 4283 0392 002B     		cmp	r3, #0
 4284 0394 00DB     		blt	.LCB4380
 4285 0396 80E0     		b	.L190	@long jump
 4286              	.LCB4380:
1200:Drivers/STM32F0xx_HAL_Driver/Src/stm32f0xx_hal_pcd.c ****     
 4287              		.loc 1 1200 5 is_stmt 1 view .LVU982
1200:Drivers/STM32F0xx_HAL_Driver/Src/stm32f0xx_hal_pcd.c ****     
 4288              		.loc 1 1200 31 is_stmt 0 view .LVU983
 4289 0398 6B46     		mov	r3, sp
 4290 039a DA88     		ldrh	r2, [r3, #6]
1200:Drivers/STM32F0xx_HAL_Driver/Src/stm32f0xx_hal_pcd.c ****     
 4291              		.loc 1 1200 13 view .LVU984
 4292 039c 0F23     		movs	r3, #15
 4293 039e 1500     		movs	r5, r2
 4294 03a0 1D40     		ands	r5, r3
 4295              	.LVL316:
1202:Drivers/STM32F0xx_HAL_Driver/Src/stm32f0xx_hal_pcd.c ****     {
 4296              		.loc 1 1202 5 is_stmt 1 view .LVU985
1202:Drivers/STM32F0xx_HAL_Driver/Src/stm32f0xx_hal_pcd.c ****     {
 4297              		.loc 1 1202 8 is_stmt 0 view .LVU986
 4298 03a2 1A42     		tst	r2, r3
 4299 03a4 00D0     		beq	.LCB4393
 4300 03a6 97E6     		b	.L165	@long jump
 4301              	.LCB4393:
1207:Drivers/STM32F0xx_HAL_Driver/Src/stm32f0xx_hal_pcd.c ****       {
 4302              		.loc 1 1207 7 is_stmt 1 view .LVU987
1207:Drivers/STM32F0xx_HAL_Driver/Src/stm32f0xx_hal_pcd.c ****       {
 4303              		.loc 1 1207 18 is_stmt 0 view .LVU988
 4304 03a8 6B46     		mov	r3, sp
 4305 03aa 0633     		adds	r3, r3, #6
 4306 03ac 1B88     		ldrh	r3, [r3]
1207:Drivers/STM32F0xx_HAL_Driver/Src/stm32f0xx_hal_pcd.c ****       {
 4307              		.loc 1 1207 10 view .LVU989
 4308 03ae DB06     		lsls	r3, r3, #27
 4309 03b0 00D4     		bmi	.LCB4403
 4310 03b2 2CE6     		b	.L191	@long jump
 4311              	.LCB4403:
1236:Drivers/STM32F0xx_HAL_Driver/Src/stm32f0xx_hal_pcd.c ****         wEPVal = PCD_GET_ENDPOINT(hpcd->Instance, PCD_ENDP0);
 4312              		.loc 1 1236 9 is_stmt 1 view .LVU990
ARM GAS  /tmp/cc8iG1bp.s 			page 108


 4313              	.LVL317:
1237:Drivers/STM32F0xx_HAL_Driver/Src/stm32f0xx_hal_pcd.c ****         
 4314              		.loc 1 1237 9 view .LVU991
1237:Drivers/STM32F0xx_HAL_Driver/Src/stm32f0xx_hal_pcd.c ****         
 4315              		.loc 1 1237 18 is_stmt 0 view .LVU992
 4316 03b4 0388     		ldrh	r3, [r0]
 4317 03b6 9BB2     		uxth	r3, r3
1237:Drivers/STM32F0xx_HAL_Driver/Src/stm32f0xx_hal_pcd.c ****         
 4318              		.loc 1 1237 16 view .LVU993
 4319 03b8 01AA     		add	r2, sp, #4
 4320 03ba 1380     		strh	r3, [r2]
1239:Drivers/STM32F0xx_HAL_Driver/Src/stm32f0xx_hal_pcd.c ****         {
 4321              		.loc 1 1239 9 is_stmt 1 view .LVU994
1239:Drivers/STM32F0xx_HAL_Driver/Src/stm32f0xx_hal_pcd.c ****         {
 4322              		.loc 1 1239 21 is_stmt 0 view .LVU995
 4323 03bc 1388     		ldrh	r3, [r2]
1239:Drivers/STM32F0xx_HAL_Driver/Src/stm32f0xx_hal_pcd.c ****         {
 4324              		.loc 1 1239 12 view .LVU996
 4325 03be 1B05     		lsls	r3, r3, #20
 4326 03c0 00D5     		bpl	.LCB4418
 4327 03c2 54E6     		b	.L192	@long jump
 4328              	.LCB4418:
1251:Drivers/STM32F0xx_HAL_Driver/Src/stm32f0xx_hal_pcd.c ****         {
 4329              		.loc 1 1251 14 is_stmt 1 view .LVU997
1251:Drivers/STM32F0xx_HAL_Driver/Src/stm32f0xx_hal_pcd.c ****         {
 4330              		.loc 1 1251 43 is_stmt 0 view .LVU998
 4331 03c4 01AB     		add	r3, sp, #4
 4332 03c6 1B88     		ldrh	r3, [r3]
 4333 03c8 1BB2     		sxth	r3, r3
1251:Drivers/STM32F0xx_HAL_Driver/Src/stm32f0xx_hal_pcd.c ****         {
 4334              		.loc 1 1251 17 view .LVU999
 4335 03ca 002B     		cmp	r3, #0
 4336 03cc DADA     		bge	.L164
1253:Drivers/STM32F0xx_HAL_Driver/Src/stm32f0xx_hal_pcd.c ****           /* Get Control Data OUT Packet*/
 4337              		.loc 1 1253 11 is_stmt 1 view .LVU1000
 4338 03ce 0388     		ldrh	r3, [r0]
 4339 03d0 364A     		ldr	r2, .L196+12
 4340 03d2 1340     		ands	r3, r2
 4341 03d4 0380     		strh	r3, [r0]
1255:Drivers/STM32F0xx_HAL_Driver/Src/stm32f0xx_hal_pcd.c ****           
 4342              		.loc 1 1255 11 view .LVU1001
1255:Drivers/STM32F0xx_HAL_Driver/Src/stm32f0xx_hal_pcd.c ****           
 4343              		.loc 1 1255 28 is_stmt 0 view .LVU1002
 4344 03d6 2068     		ldr	r0, [r4]
 4345 03d8 5023     		movs	r3, #80
 4346 03da C35A     		ldrh	r3, [r0, r3]
 4347 03dc 8422     		movs	r2, #132
 4348 03de 5200     		lsls	r2, r2, #1
 4349 03e0 A25C     		ldrb	r2, [r4, r2]
 4350 03e2 D200     		lsls	r2, r2, #3
 4351 03e4 9B18     		adds	r3, r3, r2
 4352 03e6 1B18     		adds	r3, r3, r0
 4353 03e8 314A     		ldr	r2, .L196+16
 4354 03ea 9446     		mov	ip, r2
 4355 03ec 6344     		add	r3, r3, ip
 4356 03ee 1B88     		ldrh	r3, [r3]
 4357 03f0 9B05     		lsls	r3, r3, #22
ARM GAS  /tmp/cc8iG1bp.s 			page 109


 4358 03f2 9B0D     		lsrs	r3, r3, #22
1255:Drivers/STM32F0xx_HAL_Driver/Src/stm32f0xx_hal_pcd.c ****           
 4359              		.loc 1 1255 26 view .LVU1003
 4360 03f4 2200     		movs	r2, r4
 4361 03f6 0932     		adds	r2, r2, #9
 4362 03f8 FF32     		adds	r2, r2, #255
 4363 03fa 9361     		str	r3, [r2, #24]
1257:Drivers/STM32F0xx_HAL_Driver/Src/stm32f0xx_hal_pcd.c ****           {
 4364              		.loc 1 1257 11 is_stmt 1 view .LVU1004
1257:Drivers/STM32F0xx_HAL_Driver/Src/stm32f0xx_hal_pcd.c ****           {
 4365              		.loc 1 1257 14 is_stmt 0 view .LVU1005
 4366 03fc 002B     		cmp	r3, #0
 4367 03fe 00D0     		beq	.LCB4457
 4368 0400 56E6     		b	.L193	@long jump
 4369              	.LCB4457:
 4370              	.LVL318:
 4371              	.L169:
1264:Drivers/STM32F0xx_HAL_Driver/Src/stm32f0xx_hal_pcd.c ****           
 4372              		.loc 1 1264 12 is_stmt 1 view .LVU1006
 4373 0402 0021     		movs	r1, #0
 4374 0404 2000     		movs	r0, r4
 4375 0406 FFF7FEFF 		bl	HAL_PCD_DataOutStageCallback
 4376              	.LVL319:
 4377              	.LBB40:
1266:Drivers/STM32F0xx_HAL_Driver/Src/stm32f0xx_hal_pcd.c ****           PCD_SET_EP_RX_STATUS(hpcd->Instance, PCD_ENDP0, USB_EP_RX_VALID)
 4378              		.loc 1 1266 11 view .LVU1007
 4379 040a 2368     		ldr	r3, [r4]
 4380 040c 5022     		movs	r2, #80
 4381 040e 9A5A     		ldrh	r2, [r3, r2]
 4382 0410 9A18     		adds	r2, r3, r2
 4383 0412 274B     		ldr	r3, .L196+16
 4384 0414 9C46     		mov	ip, r3
 4385 0416 6244     		add	r2, r2, ip
 4386              	.LVL320:
 4387              	.LBB39:
1266:Drivers/STM32F0xx_HAL_Driver/Src/stm32f0xx_hal_pcd.c ****           PCD_SET_EP_RX_STATUS(hpcd->Instance, PCD_ENDP0, USB_EP_RX_VALID)
 4388              		.loc 1 1266 11 view .LVU1008
1266:Drivers/STM32F0xx_HAL_Driver/Src/stm32f0xx_hal_pcd.c ****           PCD_SET_EP_RX_STATUS(hpcd->Instance, PCD_ENDP0, USB_EP_RX_VALID)
 4389              		.loc 1 1266 11 view .LVU1009
 4390 0418 2300     		movs	r3, r4
 4391 041a 0933     		adds	r3, r3, #9
 4392 041c FF33     		adds	r3, r3, #255
 4393 041e D968     		ldr	r1, [r3, #12]
 4394 0420 3E29     		cmp	r1, #62
 4395 0422 00D8     		bhi	.LCB4483
 4396 0424 4FE6     		b	.L170	@long jump
 4397              	.LCB4483:
1266:Drivers/STM32F0xx_HAL_Driver/Src/stm32f0xx_hal_pcd.c ****           PCD_SET_EP_RX_STATUS(hpcd->Instance, PCD_ENDP0, USB_EP_RX_VALID)
 4398              		.loc 1 1266 11 discriminator 1 view .LVU1010
 4399 0426 4B09     		lsrs	r3, r1, #5
 4400 0428 9BB2     		uxth	r3, r3
 4401              	.LVL321:
1266:Drivers/STM32F0xx_HAL_Driver/Src/stm32f0xx_hal_pcd.c ****           PCD_SET_EP_RX_STATUS(hpcd->Instance, PCD_ENDP0, USB_EP_RX_VALID)
 4402              		.loc 1 1266 11 discriminator 1 view .LVU1011
 4403 042a C906     		lsls	r1, r1, #27
 4404 042c 01D1     		bne	.L171
1266:Drivers/STM32F0xx_HAL_Driver/Src/stm32f0xx_hal_pcd.c ****           PCD_SET_EP_RX_STATUS(hpcd->Instance, PCD_ENDP0, USB_EP_RX_VALID)
ARM GAS  /tmp/cc8iG1bp.s 			page 110


 4405              		.loc 1 1266 11 discriminator 3 view .LVU1012
 4406 042e 013B     		subs	r3, r3, #1
 4407              	.LVL322:
1266:Drivers/STM32F0xx_HAL_Driver/Src/stm32f0xx_hal_pcd.c ****           PCD_SET_EP_RX_STATUS(hpcd->Instance, PCD_ENDP0, USB_EP_RX_VALID)
 4408              		.loc 1 1266 11 is_stmt 0 discriminator 3 view .LVU1013
 4409 0430 9BB2     		uxth	r3, r3
 4410              	.LVL323:
 4411              	.L171:
1266:Drivers/STM32F0xx_HAL_Driver/Src/stm32f0xx_hal_pcd.c ****           PCD_SET_EP_RX_STATUS(hpcd->Instance, PCD_ENDP0, USB_EP_RX_VALID)
 4412              		.loc 1 1266 11 is_stmt 1 discriminator 5 view .LVU1014
 4413 0432 9B02     		lsls	r3, r3, #10
 4414              	.LVL324:
1266:Drivers/STM32F0xx_HAL_Driver/Src/stm32f0xx_hal_pcd.c ****           PCD_SET_EP_RX_STATUS(hpcd->Instance, PCD_ENDP0, USB_EP_RX_VALID)
 4415              		.loc 1 1266 11 is_stmt 0 discriminator 5 view .LVU1015
 4416 0434 9BB2     		uxth	r3, r3
 4417 0436 1F49     		ldr	r1, .L196+20
 4418 0438 0B43     		orrs	r3, r1
 4419 043a 1380     		strh	r3, [r2]
 4420              	.L172:
1266:Drivers/STM32F0xx_HAL_Driver/Src/stm32f0xx_hal_pcd.c ****           PCD_SET_EP_RX_STATUS(hpcd->Instance, PCD_ENDP0, USB_EP_RX_VALID)
 4421              		.loc 1 1266 11 discriminator 5 view .LVU1016
 4422              	.LBE39:
 4423              	.LBE40:
 4424              	.LBB41:
1267:Drivers/STM32F0xx_HAL_Driver/Src/stm32f0xx_hal_pcd.c ****         }
 4425              		.loc 1 1267 11 is_stmt 1 view .LVU1017
1267:Drivers/STM32F0xx_HAL_Driver/Src/stm32f0xx_hal_pcd.c ****         }
 4426              		.loc 1 1267 11 view .LVU1018
 4427 043c 2168     		ldr	r1, [r4]
 4428 043e 0A88     		ldrh	r2, [r1]
 4429              	.LVL325:
1267:Drivers/STM32F0xx_HAL_Driver/Src/stm32f0xx_hal_pcd.c ****         }
 4430              		.loc 1 1267 11 is_stmt 0 view .LVU1019
 4431 0440 1D4B     		ldr	r3, .L196+24
 4432 0442 1A40     		ands	r2, r3
 4433              	.LVL326:
1267:Drivers/STM32F0xx_HAL_Driver/Src/stm32f0xx_hal_pcd.c ****         }
 4434              		.loc 1 1267 11 is_stmt 1 view .LVU1020
1267:Drivers/STM32F0xx_HAL_Driver/Src/stm32f0xx_hal_pcd.c ****         }
 4435              		.loc 1 1267 11 view .LVU1021
1267:Drivers/STM32F0xx_HAL_Driver/Src/stm32f0xx_hal_pcd.c ****         }
 4436              		.loc 1 1267 11 view .LVU1022
1267:Drivers/STM32F0xx_HAL_Driver/Src/stm32f0xx_hal_pcd.c ****         }
 4437              		.loc 1 1267 11 view .LVU1023
 4438 0444 C023     		movs	r3, #192
 4439 0446 9B01     		lsls	r3, r3, #6
 4440 0448 5A40     		eors	r2, r3
 4441              	.LVL327:
1267:Drivers/STM32F0xx_HAL_Driver/Src/stm32f0xx_hal_pcd.c ****         }
 4442              		.loc 1 1267 11 view .LVU1024
 4443 044a 1C4B     		ldr	r3, .L196+28
 4444 044c 1343     		orrs	r3, r2
 4445 044e 9BB2     		uxth	r3, r3
 4446 0450 0B80     		strh	r3, [r1]
 4447 0452 97E7     		b	.L164
 4448              	.LVL328:
 4449              	.L189:
ARM GAS  /tmp/cc8iG1bp.s 			page 111


1267:Drivers/STM32F0xx_HAL_Driver/Src/stm32f0xx_hal_pcd.c ****         }
 4450              		.loc 1 1267 11 is_stmt 0 view .LVU1025
 4451              	.LBE41:
1356:Drivers/STM32F0xx_HAL_Driver/Src/stm32f0xx_hal_pcd.c ****             }
 4452              		.loc 1 1356 15 is_stmt 1 view .LVU1026
 4453 0454 1100     		movs	r1, r2
 4454 0456 D28D     		ldrh	r2, [r2, #46]
 4455 0458 896B     		ldr	r1, [r1, #56]
 4456 045a FFF7FEFF 		bl	PCD_WritePMA
 4457              	.LVL329:
 4458 045e 61E7     		b	.L184
 4459              	.L183:
1362:Drivers/STM32F0xx_HAL_Driver/Src/stm32f0xx_hal_pcd.c ****             if (ep->xfer_count != 0U)
 4460              		.loc 1 1362 13 view .LVU1027
1362:Drivers/STM32F0xx_HAL_Driver/Src/stm32f0xx_hal_pcd.c ****             if (ep->xfer_count != 0U)
 4461              		.loc 1 1362 30 is_stmt 0 view .LVU1028
 4462 0460 5022     		movs	r2, #80
 4463 0462 825A     		ldrh	r2, [r0, r2]
 4464 0464 DB00     		lsls	r3, r3, #3
 4465 0466 D318     		adds	r3, r2, r3
 4466 0468 1B18     		adds	r3, r3, r0
 4467 046a 114A     		ldr	r2, .L196+16
 4468 046c 9446     		mov	ip, r2
 4469 046e 6344     		add	r3, r3, ip
 4470 0470 1B88     		ldrh	r3, [r3]
 4471 0472 9B05     		lsls	r3, r3, #22
 4472 0474 9B0D     		lsrs	r3, r3, #22
1362:Drivers/STM32F0xx_HAL_Driver/Src/stm32f0xx_hal_pcd.c ****             if (ep->xfer_count != 0U)
 4473              		.loc 1 1362 28 view .LVU1029
 4474 0476 EA00     		lsls	r2, r5, #3
 4475 0478 521B     		subs	r2, r2, r5
 4476 047a 9200     		lsls	r2, r2, #2
 4477 047c A218     		adds	r2, r4, r2
 4478 047e 1364     		str	r3, [r2, #64]
1363:Drivers/STM32F0xx_HAL_Driver/Src/stm32f0xx_hal_pcd.c ****             {
 4479              		.loc 1 1363 13 is_stmt 1 view .LVU1030
1363:Drivers/STM32F0xx_HAL_Driver/Src/stm32f0xx_hal_pcd.c ****             {
 4480              		.loc 1 1363 16 is_stmt 0 view .LVU1031
 4481 0480 002B     		cmp	r3, #0
 4482 0482 00D1     		bne	.LCB4584
 4483 0484 4EE7     		b	.L184	@long jump
 4484              	.LCB4584:
1365:Drivers/STM32F0xx_HAL_Driver/Src/stm32f0xx_hal_pcd.c ****             }
 4485              		.loc 1 1365 15 is_stmt 1 view .LVU1032
 4486 0486 1100     		movs	r1, r2
 4487 0488 128E     		ldrh	r2, [r2, #48]
 4488 048a 896B     		ldr	r1, [r1, #56]
 4489 048c FFF7FEFF 		bl	PCD_WritePMA
 4490              	.LVL330:
 4491 0490 48E7     		b	.L184
 4492              	.L185:
1379:Drivers/STM32F0xx_HAL_Driver/Src/stm32f0xx_hal_pcd.c ****         }
1380:Drivers/STM32F0xx_HAL_Driver/Src/stm32f0xx_hal_pcd.c ****         else
1381:Drivers/STM32F0xx_HAL_Driver/Src/stm32f0xx_hal_pcd.c ****         {
1382:Drivers/STM32F0xx_HAL_Driver/Src/stm32f0xx_hal_pcd.c ****           HAL_PCD_EP_Transmit(hpcd, ep->num, ep->xfer_buff, ep->xfer_len);
 4493              		.loc 1 1382 11 view .LVU1033
 4494 0492 2000     		movs	r0, r4
ARM GAS  /tmp/cc8iG1bp.s 			page 112


 4495 0494 FFF7FEFF 		bl	HAL_PCD_EP_Transmit
 4496              	.LVL331:
 4497 0498 74E7     		b	.L164
 4498              	.LVL332:
 4499              	.L190:
1383:Drivers/STM32F0xx_HAL_Driver/Src/stm32f0xx_hal_pcd.c ****         }
1384:Drivers/STM32F0xx_HAL_Driver/Src/stm32f0xx_hal_pcd.c ****       } 
1385:Drivers/STM32F0xx_HAL_Driver/Src/stm32f0xx_hal_pcd.c ****     }
1386:Drivers/STM32F0xx_HAL_Driver/Src/stm32f0xx_hal_pcd.c ****   }
1387:Drivers/STM32F0xx_HAL_Driver/Src/stm32f0xx_hal_pcd.c ****   return HAL_OK;
 4500              		.loc 1 1387 3 view .LVU1034
1388:Drivers/STM32F0xx_HAL_Driver/Src/stm32f0xx_hal_pcd.c **** }
 4501              		.loc 1 1388 1 is_stmt 0 view .LVU1035
 4502 049a 0020     		movs	r0, #0
 4503 049c 03B0     		add	sp, sp, #12
 4504              		@ sp needed
 4505              	.LVL333:
 4506              		.loc 1 1388 1 view .LVU1036
 4507 049e F0BD     		pop	{r4, r5, r6, r7, pc}
 4508              	.L197:
 4509              		.align	2
 4510              	.L196:
 4511 04a0 02040000 		.word	1026
 4512 04a4 0F0F0000 		.word	3855
 4513 04a8 80C0FFFF 		.word	-16256
 4514 04ac 8F0F0000 		.word	3983
 4515 04b0 06040000 		.word	1030
 4516 04b4 0080FFFF 		.word	-32768
 4517 04b8 8FBFFFFF 		.word	-16497
 4518 04bc 8080FFFF 		.word	-32640
 4519              		.cfi_endproc
 4520              	.LFE71:
 4522              		.section	.text.HAL_PCD_IRQHandler,"ax",%progbits
 4523              		.align	1
 4524              		.global	HAL_PCD_IRQHandler
 4525              		.syntax unified
 4526              		.code	16
 4527              		.thumb_func
 4528              		.fpu softvfp
 4530              	HAL_PCD_IRQHandler:
 4531              	.LVL334:
 4532              	.LFB43:
 328:Drivers/STM32F0xx_HAL_Driver/Src/stm32f0xx_hal_pcd.c ****   uint32_t wInterrupt_Mask = 0U;
 4533              		.loc 1 328 1 is_stmt 1 view -0
 4534              		.cfi_startproc
 4535              		@ args = 0, pretend = 0, frame = 0
 4536              		@ frame_needed = 0, uses_anonymous_args = 0
 328:Drivers/STM32F0xx_HAL_Driver/Src/stm32f0xx_hal_pcd.c ****   uint32_t wInterrupt_Mask = 0U;
 4537              		.loc 1 328 1 is_stmt 0 view .LVU1038
 4538 0000 70B5     		push	{r4, r5, r6, lr}
 4539              	.LCFI16:
 4540              		.cfi_def_cfa_offset 16
 4541              		.cfi_offset 4, -16
 4542              		.cfi_offset 5, -12
 4543              		.cfi_offset 6, -8
 4544              		.cfi_offset 14, -4
 4545 0002 0400     		movs	r4, r0
ARM GAS  /tmp/cc8iG1bp.s 			page 113


 329:Drivers/STM32F0xx_HAL_Driver/Src/stm32f0xx_hal_pcd.c ****   
 4546              		.loc 1 329 3 is_stmt 1 view .LVU1039
 4547              	.LVL335:
 331:Drivers/STM32F0xx_HAL_Driver/Src/stm32f0xx_hal_pcd.c ****   {
 4548              		.loc 1 331 3 view .LVU1040
 331:Drivers/STM32F0xx_HAL_Driver/Src/stm32f0xx_hal_pcd.c ****   {
 4549              		.loc 1 331 7 is_stmt 0 view .LVU1041
 4550 0004 4423     		movs	r3, #68
 4551 0006 0268     		ldr	r2, [r0]
 4552 0008 D35A     		ldrh	r3, [r2, r3]
 331:Drivers/STM32F0xx_HAL_Driver/Src/stm32f0xx_hal_pcd.c ****   {
 4553              		.loc 1 331 6 view .LVU1042
 4554 000a 1BB2     		sxth	r3, r3
 4555 000c 002B     		cmp	r3, #0
 4556 000e 48DB     		blt	.L207
 4557              	.LVL336:
 4558              	.L199:
 338:Drivers/STM32F0xx_HAL_Driver/Src/stm32f0xx_hal_pcd.c ****   {
 4559              		.loc 1 338 3 is_stmt 1 view .LVU1043
 338:Drivers/STM32F0xx_HAL_Driver/Src/stm32f0xx_hal_pcd.c ****   {
 4560              		.loc 1 338 7 is_stmt 0 view .LVU1044
 4561 0010 2368     		ldr	r3, [r4]
 4562 0012 4422     		movs	r2, #68
 4563 0014 9A5A     		ldrh	r2, [r3, r2]
 338:Drivers/STM32F0xx_HAL_Driver/Src/stm32f0xx_hal_pcd.c ****   {
 4564              		.loc 1 338 6 view .LVU1045
 4565 0016 5205     		lsls	r2, r2, #21
 4566 0018 46D4     		bmi	.L208
 4567              	.L200:
 345:Drivers/STM32F0xx_HAL_Driver/Src/stm32f0xx_hal_pcd.c ****   {
 4568              		.loc 1 345 3 is_stmt 1 view .LVU1046
 345:Drivers/STM32F0xx_HAL_Driver/Src/stm32f0xx_hal_pcd.c ****   {
 4569              		.loc 1 345 7 is_stmt 0 view .LVU1047
 4570 001a 2368     		ldr	r3, [r4]
 4571 001c 4422     		movs	r2, #68
 4572 001e 9A5A     		ldrh	r2, [r3, r2]
 345:Drivers/STM32F0xx_HAL_Driver/Src/stm32f0xx_hal_pcd.c ****   {
 4573              		.loc 1 345 6 view .LVU1048
 4574 0020 5204     		lsls	r2, r2, #17
 4575 0022 04D5     		bpl	.L201
 347:Drivers/STM32F0xx_HAL_Driver/Src/stm32f0xx_hal_pcd.c ****   }
 4576              		.loc 1 347 5 is_stmt 1 view .LVU1049
 4577 0024 4421     		movs	r1, #68
 4578 0026 5A5A     		ldrh	r2, [r3, r1]
 4579 0028 3548     		ldr	r0, .L212
 4580 002a 0240     		ands	r2, r0
 4581 002c 5A52     		strh	r2, [r3, r1]
 4582              	.L201:
 350:Drivers/STM32F0xx_HAL_Driver/Src/stm32f0xx_hal_pcd.c ****   {
 4583              		.loc 1 350 3 view .LVU1050
 350:Drivers/STM32F0xx_HAL_Driver/Src/stm32f0xx_hal_pcd.c ****   {
 4584              		.loc 1 350 7 is_stmt 0 view .LVU1051
 4585 002e 2368     		ldr	r3, [r4]
 4586 0030 4422     		movs	r2, #68
 4587 0032 9A5A     		ldrh	r2, [r3, r2]
 350:Drivers/STM32F0xx_HAL_Driver/Src/stm32f0xx_hal_pcd.c ****   {
 4588              		.loc 1 350 6 view .LVU1052
ARM GAS  /tmp/cc8iG1bp.s 			page 114


 4589 0034 9204     		lsls	r2, r2, #18
 4590 0036 04D5     		bpl	.L202
 352:Drivers/STM32F0xx_HAL_Driver/Src/stm32f0xx_hal_pcd.c ****   }
 4591              		.loc 1 352 5 is_stmt 1 view .LVU1053
 4592 0038 4421     		movs	r1, #68
 4593 003a 5A5A     		ldrh	r2, [r3, r1]
 4594 003c 3148     		ldr	r0, .L212+4
 4595 003e 0240     		ands	r2, r0
 4596 0040 5A52     		strh	r2, [r3, r1]
 4597              	.L202:
 355:Drivers/STM32F0xx_HAL_Driver/Src/stm32f0xx_hal_pcd.c ****   {
 4598              		.loc 1 355 3 view .LVU1054
 355:Drivers/STM32F0xx_HAL_Driver/Src/stm32f0xx_hal_pcd.c ****   {
 4599              		.loc 1 355 7 is_stmt 0 view .LVU1055
 4600 0042 2368     		ldr	r3, [r4]
 4601 0044 4422     		movs	r2, #68
 4602 0046 9A5A     		ldrh	r2, [r3, r2]
 355:Drivers/STM32F0xx_HAL_Driver/Src/stm32f0xx_hal_pcd.c ****   {
 4603              		.loc 1 355 6 view .LVU1056
 4604 0048 D204     		lsls	r2, r2, #19
 4605 004a 3AD4     		bmi	.L209
 4606              	.LVL337:
 4607              	.L203:
 372:Drivers/STM32F0xx_HAL_Driver/Src/stm32f0xx_hal_pcd.c ****   {    
 4608              		.loc 1 372 3 is_stmt 1 view .LVU1057
 372:Drivers/STM32F0xx_HAL_Driver/Src/stm32f0xx_hal_pcd.c ****   {    
 4609              		.loc 1 372 7 is_stmt 0 view .LVU1058
 4610 004c 2368     		ldr	r3, [r4]
 4611 004e 4422     		movs	r2, #68
 4612 0050 9A5A     		ldrh	r2, [r3, r2]
 372:Drivers/STM32F0xx_HAL_Driver/Src/stm32f0xx_hal_pcd.c ****   {    
 4613              		.loc 1 372 6 view .LVU1059
 4614 0052 1205     		lsls	r2, r2, #20
 4615 0054 15D5     		bpl	.L204
 375:Drivers/STM32F0xx_HAL_Driver/Src/stm32f0xx_hal_pcd.c ****     
 4616              		.loc 1 375 5 is_stmt 1 view .LVU1060
 4617 0056 4421     		movs	r1, #68
 4618 0058 5A5A     		ldrh	r2, [r3, r1]
 4619 005a 2B48     		ldr	r0, .L212+8
 4620 005c 0240     		ands	r2, r0
 4621 005e 5A52     		strh	r2, [r3, r1]
 378:Drivers/STM32F0xx_HAL_Driver/Src/stm32f0xx_hal_pcd.c ****     hpcd->Instance->CNTR |= USB_CNTR_LPMODE;
 4622              		.loc 1 378 5 view .LVU1061
 378:Drivers/STM32F0xx_HAL_Driver/Src/stm32f0xx_hal_pcd.c ****     hpcd->Instance->CNTR |= USB_CNTR_LPMODE;
 4623              		.loc 1 378 9 is_stmt 0 view .LVU1062
 4624 0060 2068     		ldr	r0, [r4]
 378:Drivers/STM32F0xx_HAL_Driver/Src/stm32f0xx_hal_pcd.c ****     hpcd->Instance->CNTR |= USB_CNTR_LPMODE;
 4625              		.loc 1 378 26 view .LVU1063
 4626 0062 4022     		movs	r2, #64
 4627 0064 835A     		ldrh	r3, [r0, r2]
 4628 0066 0825     		movs	r5, #8
 4629 0068 2B43     		orrs	r3, r5
 4630 006a 9BB2     		uxth	r3, r3
 4631 006c 8352     		strh	r3, [r0, r2]
 379:Drivers/STM32F0xx_HAL_Driver/Src/stm32f0xx_hal_pcd.c **** 
 4632              		.loc 1 379 5 is_stmt 1 view .LVU1064
 379:Drivers/STM32F0xx_HAL_Driver/Src/stm32f0xx_hal_pcd.c **** 
ARM GAS  /tmp/cc8iG1bp.s 			page 115


 4633              		.loc 1 379 9 is_stmt 0 view .LVU1065
 4634 006e 2068     		ldr	r0, [r4]
 379:Drivers/STM32F0xx_HAL_Driver/Src/stm32f0xx_hal_pcd.c **** 
 4635              		.loc 1 379 26 view .LVU1066
 4636 0070 835A     		ldrh	r3, [r0, r2]
 4637 0072 0425     		movs	r5, #4
 4638 0074 2B43     		orrs	r3, r5
 4639 0076 9BB2     		uxth	r3, r3
 4640 0078 8352     		strh	r3, [r0, r2]
 381:Drivers/STM32F0xx_HAL_Driver/Src/stm32f0xx_hal_pcd.c ****     {
 4641              		.loc 1 381 5 is_stmt 1 view .LVU1067
 381:Drivers/STM32F0xx_HAL_Driver/Src/stm32f0xx_hal_pcd.c ****     {
 4642              		.loc 1 381 9 is_stmt 0 view .LVU1068
 4643 007a 2368     		ldr	r3, [r4]
 4644 007c 5B5A     		ldrh	r3, [r3, r1]
 381:Drivers/STM32F0xx_HAL_Driver/Src/stm32f0xx_hal_pcd.c ****     {
 4645              		.loc 1 381 8 view .LVU1069
 4646 007e DB04     		lsls	r3, r3, #19
 4647 0080 31D5     		bpl	.L210
 4648              	.L204:
 387:Drivers/STM32F0xx_HAL_Driver/Src/stm32f0xx_hal_pcd.c ****   {
 4649              		.loc 1 387 3 is_stmt 1 view .LVU1070
 387:Drivers/STM32F0xx_HAL_Driver/Src/stm32f0xx_hal_pcd.c ****   {
 4650              		.loc 1 387 7 is_stmt 0 view .LVU1071
 4651 0082 2368     		ldr	r3, [r4]
 4652 0084 4422     		movs	r2, #68
 4653 0086 9A5A     		ldrh	r2, [r3, r2]
 387:Drivers/STM32F0xx_HAL_Driver/Src/stm32f0xx_hal_pcd.c ****   {
 4654              		.loc 1 387 6 view .LVU1072
 4655 0088 9205     		lsls	r2, r2, #22
 4656 008a 30D4     		bmi	.L211
 4657              	.L205:
 393:Drivers/STM32F0xx_HAL_Driver/Src/stm32f0xx_hal_pcd.c ****   {
 4658              		.loc 1 393 3 is_stmt 1 view .LVU1073
 393:Drivers/STM32F0xx_HAL_Driver/Src/stm32f0xx_hal_pcd.c ****   {
 4659              		.loc 1 393 7 is_stmt 0 view .LVU1074
 4660 008c 2368     		ldr	r3, [r4]
 4661 008e 4422     		movs	r2, #68
 4662 0090 9A5A     		ldrh	r2, [r3, r2]
 393:Drivers/STM32F0xx_HAL_Driver/Src/stm32f0xx_hal_pcd.c ****   {
 4663              		.loc 1 393 6 view .LVU1075
 4664 0092 D205     		lsls	r2, r2, #23
 4665 0094 04D5     		bpl	.L198
 396:Drivers/STM32F0xx_HAL_Driver/Src/stm32f0xx_hal_pcd.c ****   }
 4666              		.loc 1 396 5 is_stmt 1 view .LVU1076
 4667 0096 4421     		movs	r1, #68
 4668 0098 5A5A     		ldrh	r2, [r3, r1]
 4669 009a 1C48     		ldr	r0, .L212+12
 4670 009c 0240     		ands	r2, r0
 4671 009e 5A52     		strh	r2, [r3, r1]
 4672              	.L198:
 398:Drivers/STM32F0xx_HAL_Driver/Src/stm32f0xx_hal_pcd.c **** 
 4673              		.loc 1 398 1 is_stmt 0 view .LVU1077
 4674              		@ sp needed
 4675              	.LVL338:
 398:Drivers/STM32F0xx_HAL_Driver/Src/stm32f0xx_hal_pcd.c **** 
 4676              		.loc 1 398 1 view .LVU1078
ARM GAS  /tmp/cc8iG1bp.s 			page 116


 4677 00a0 70BD     		pop	{r4, r5, r6, pc}
 4678              	.LVL339:
 4679              	.L207:
 335:Drivers/STM32F0xx_HAL_Driver/Src/stm32f0xx_hal_pcd.c ****   }
 4680              		.loc 1 335 5 is_stmt 1 view .LVU1079
 4681 00a2 FFF7FEFF 		bl	PCD_EP_ISR_Handler
 4682              	.LVL340:
 335:Drivers/STM32F0xx_HAL_Driver/Src/stm32f0xx_hal_pcd.c ****   }
 4683              		.loc 1 335 5 is_stmt 0 view .LVU1080
 4684 00a6 B3E7     		b	.L199
 4685              	.L208:
 340:Drivers/STM32F0xx_HAL_Driver/Src/stm32f0xx_hal_pcd.c ****     HAL_PCD_ResetCallback(hpcd);
 4686              		.loc 1 340 5 is_stmt 1 view .LVU1081
 4687 00a8 4421     		movs	r1, #68
 4688 00aa 5A5A     		ldrh	r2, [r3, r1]
 4689 00ac 1848     		ldr	r0, .L212+16
 4690 00ae 0240     		ands	r2, r0
 4691 00b0 5A52     		strh	r2, [r3, r1]
 341:Drivers/STM32F0xx_HAL_Driver/Src/stm32f0xx_hal_pcd.c ****     HAL_PCD_SetAddress(hpcd, 0U);
 4692              		.loc 1 341 5 view .LVU1082
 4693 00b2 2000     		movs	r0, r4
 4694 00b4 FFF7FEFF 		bl	HAL_PCD_ResetCallback
 4695              	.LVL341:
 342:Drivers/STM32F0xx_HAL_Driver/Src/stm32f0xx_hal_pcd.c ****   }
 4696              		.loc 1 342 5 view .LVU1083
 4697 00b8 0021     		movs	r1, #0
 4698 00ba 2000     		movs	r0, r4
 4699 00bc FFF7FEFF 		bl	HAL_PCD_SetAddress
 4700              	.LVL342:
 4701 00c0 ABE7     		b	.L200
 4702              	.L209:
 358:Drivers/STM32F0xx_HAL_Driver/Src/stm32f0xx_hal_pcd.c **** 
 4703              		.loc 1 358 5 view .LVU1084
 358:Drivers/STM32F0xx_HAL_Driver/Src/stm32f0xx_hal_pcd.c **** 
 4704              		.loc 1 358 26 is_stmt 0 view .LVU1085
 4705 00c2 4022     		movs	r2, #64
 4706 00c4 995A     		ldrh	r1, [r3, r2]
 4707 00c6 0420     		movs	r0, #4
 4708 00c8 8143     		bics	r1, r0
 4709 00ca 9952     		strh	r1, [r3, r2]
 361:Drivers/STM32F0xx_HAL_Driver/Src/stm32f0xx_hal_pcd.c ****       | USB_CNTR_ESOFM | USB_CNTR_RESETM;
 4710              		.loc 1 361 5 is_stmt 1 view .LVU1086
 4711              	.LVL343:
 365:Drivers/STM32F0xx_HAL_Driver/Src/stm32f0xx_hal_pcd.c ****     
 4712              		.loc 1 365 5 view .LVU1087
 365:Drivers/STM32F0xx_HAL_Driver/Src/stm32f0xx_hal_pcd.c ****     
 4713              		.loc 1 365 26 is_stmt 0 view .LVU1088
 4714 00cc 114B     		ldr	r3, .L212+20
 4715 00ce 2168     		ldr	r1, [r4]
 4716 00d0 8B52     		strh	r3, [r1, r2]
 367:Drivers/STM32F0xx_HAL_Driver/Src/stm32f0xx_hal_pcd.c ****     
 4717              		.loc 1 367 5 is_stmt 1 view .LVU1089
 4718 00d2 2000     		movs	r0, r4
 4719 00d4 FFF7FEFF 		bl	HAL_PCD_ResumeCallback
 4720              	.LVL344:
 369:Drivers/STM32F0xx_HAL_Driver/Src/stm32f0xx_hal_pcd.c ****   }
 4721              		.loc 1 369 5 view .LVU1090
ARM GAS  /tmp/cc8iG1bp.s 			page 117


 4722 00d8 2168     		ldr	r1, [r4]
 4723 00da 4422     		movs	r2, #68
 4724 00dc 8B5A     		ldrh	r3, [r1, r2]
 4725 00de 0E48     		ldr	r0, .L212+24
 4726 00e0 0340     		ands	r3, r0
 4727 00e2 8B52     		strh	r3, [r1, r2]
 4728 00e4 B2E7     		b	.L203
 4729              	.LVL345:
 4730              	.L210:
 383:Drivers/STM32F0xx_HAL_Driver/Src/stm32f0xx_hal_pcd.c ****     }
 4731              		.loc 1 383 7 view .LVU1091
 4732 00e6 2000     		movs	r0, r4
 4733 00e8 FFF7FEFF 		bl	HAL_PCD_SuspendCallback
 4734              	.LVL346:
 4735 00ec C9E7     		b	.L204
 4736              	.L211:
 389:Drivers/STM32F0xx_HAL_Driver/Src/stm32f0xx_hal_pcd.c ****     HAL_PCD_SOFCallback(hpcd);
 4737              		.loc 1 389 5 view .LVU1092
 4738 00ee 4421     		movs	r1, #68
 4739 00f0 5A5A     		ldrh	r2, [r3, r1]
 4740 00f2 0A48     		ldr	r0, .L212+28
 4741 00f4 0240     		ands	r2, r0
 4742 00f6 5A52     		strh	r2, [r3, r1]
 390:Drivers/STM32F0xx_HAL_Driver/Src/stm32f0xx_hal_pcd.c ****   }
 4743              		.loc 1 390 5 view .LVU1093
 4744 00f8 2000     		movs	r0, r4
 4745 00fa FFF7FEFF 		bl	HAL_PCD_SOFCallback
 4746              	.LVL347:
 4747 00fe C5E7     		b	.L205
 4748              	.L213:
 4749              		.align	2
 4750              	.L212:
 4751 0100 FFBFFFFF 		.word	-16385
 4752 0104 FFDFFFFF 		.word	-8193
 4753 0108 FFF7FFFF 		.word	-2049
 4754 010c FFFEFFFF 		.word	-257
 4755 0110 FFFBFFFF 		.word	-1025
 4756 0114 00BDFFFF 		.word	-17152
 4757 0118 FFEFFFFF 		.word	-4097
 4758 011c FFFDFFFF 		.word	-513
 4759              		.cfi_endproc
 4760              	.LFE43:
 4762              		.text
 4763              	.Letext0:
 4764              		.file 2 "/usr/arm-none-eabi/include/machine/_default_types.h"
 4765              		.file 3 "/usr/arm-none-eabi/include/sys/_stdint.h"
 4766              		.file 4 "Drivers/CMSIS/Device/ST/STM32F0xx/Include/stm32f072xb.h"
 4767              		.file 5 "Drivers/STM32F0xx_HAL_Driver/Inc/stm32f0xx_hal_def.h"
 4768              		.file 6 "Drivers/STM32F0xx_HAL_Driver/Inc/stm32f0xx_hal_pcd.h"
ARM GAS  /tmp/cc8iG1bp.s 			page 118


DEFINED SYMBOLS
                            *ABS*:0000000000000000 stm32f0xx_hal_pcd.c
     /tmp/cc8iG1bp.s:16     .text.HAL_PCD_MspInit:0000000000000000 $t
     /tmp/cc8iG1bp.s:24     .text.HAL_PCD_MspInit:0000000000000000 HAL_PCD_MspInit
     /tmp/cc8iG1bp.s:41     .text.HAL_PCD_Init:0000000000000000 $t
     /tmp/cc8iG1bp.s:48     .text.HAL_PCD_Init:0000000000000000 HAL_PCD_Init
     /tmp/cc8iG1bp.s:256    .text.HAL_PCD_Init:00000000000000bc $d
     /tmp/cc8iG1bp.s:261    .text.HAL_PCD_MspDeInit:0000000000000000 $t
     /tmp/cc8iG1bp.s:268    .text.HAL_PCD_MspDeInit:0000000000000000 HAL_PCD_MspDeInit
     /tmp/cc8iG1bp.s:284    .text.HAL_PCD_Start:0000000000000000 $t
     /tmp/cc8iG1bp.s:291    .text.HAL_PCD_Start:0000000000000000 HAL_PCD_Start
     /tmp/cc8iG1bp.s:319    .text.HAL_PCD_Start:0000000000000014 $d
     /tmp/cc8iG1bp.s:324    .text.HAL_PCD_Stop:0000000000000000 $t
     /tmp/cc8iG1bp.s:331    .text.HAL_PCD_Stop:0000000000000000 HAL_PCD_Stop
     /tmp/cc8iG1bp.s:398    .text.HAL_PCD_DeInit:0000000000000000 $t
     /tmp/cc8iG1bp.s:405    .text.HAL_PCD_DeInit:0000000000000000 HAL_PCD_DeInit
     /tmp/cc8iG1bp.s:461    .text.HAL_PCD_DataOutStageCallback:0000000000000000 $t
     /tmp/cc8iG1bp.s:468    .text.HAL_PCD_DataOutStageCallback:0000000000000000 HAL_PCD_DataOutStageCallback
     /tmp/cc8iG1bp.s:485    .text.HAL_PCD_DataInStageCallback:0000000000000000 $t
     /tmp/cc8iG1bp.s:492    .text.HAL_PCD_DataInStageCallback:0000000000000000 HAL_PCD_DataInStageCallback
     /tmp/cc8iG1bp.s:509    .text.HAL_PCD_SetupStageCallback:0000000000000000 $t
     /tmp/cc8iG1bp.s:516    .text.HAL_PCD_SetupStageCallback:0000000000000000 HAL_PCD_SetupStageCallback
     /tmp/cc8iG1bp.s:532    .text.HAL_PCD_SOFCallback:0000000000000000 $t
     /tmp/cc8iG1bp.s:539    .text.HAL_PCD_SOFCallback:0000000000000000 HAL_PCD_SOFCallback
     /tmp/cc8iG1bp.s:555    .text.HAL_PCD_ResetCallback:0000000000000000 $t
     /tmp/cc8iG1bp.s:562    .text.HAL_PCD_ResetCallback:0000000000000000 HAL_PCD_ResetCallback
     /tmp/cc8iG1bp.s:578    .text.HAL_PCD_SuspendCallback:0000000000000000 $t
     /tmp/cc8iG1bp.s:585    .text.HAL_PCD_SuspendCallback:0000000000000000 HAL_PCD_SuspendCallback
     /tmp/cc8iG1bp.s:601    .text.HAL_PCD_ResumeCallback:0000000000000000 $t
     /tmp/cc8iG1bp.s:608    .text.HAL_PCD_ResumeCallback:0000000000000000 HAL_PCD_ResumeCallback
     /tmp/cc8iG1bp.s:624    .text.HAL_PCD_ISOOUTIncompleteCallback:0000000000000000 $t
     /tmp/cc8iG1bp.s:631    .text.HAL_PCD_ISOOUTIncompleteCallback:0000000000000000 HAL_PCD_ISOOUTIncompleteCallback
     /tmp/cc8iG1bp.s:648    .text.HAL_PCD_ISOINIncompleteCallback:0000000000000000 $t
     /tmp/cc8iG1bp.s:655    .text.HAL_PCD_ISOINIncompleteCallback:0000000000000000 HAL_PCD_ISOINIncompleteCallback
     /tmp/cc8iG1bp.s:672    .text.HAL_PCD_ConnectCallback:0000000000000000 $t
     /tmp/cc8iG1bp.s:679    .text.HAL_PCD_ConnectCallback:0000000000000000 HAL_PCD_ConnectCallback
     /tmp/cc8iG1bp.s:695    .text.HAL_PCD_DisconnectCallback:0000000000000000 $t
     /tmp/cc8iG1bp.s:702    .text.HAL_PCD_DisconnectCallback:0000000000000000 HAL_PCD_DisconnectCallback
     /tmp/cc8iG1bp.s:718    .text.HAL_PCD_DevConnect:0000000000000000 $t
     /tmp/cc8iG1bp.s:725    .text.HAL_PCD_DevConnect:0000000000000000 HAL_PCD_DevConnect
     /tmp/cc8iG1bp.s:784    .text.HAL_PCD_DevConnect:0000000000000030 $d
     /tmp/cc8iG1bp.s:789    .text.HAL_PCD_DevDisconnect:0000000000000000 $t
     /tmp/cc8iG1bp.s:796    .text.HAL_PCD_DevDisconnect:0000000000000000 HAL_PCD_DevDisconnect
     /tmp/cc8iG1bp.s:855    .text.HAL_PCD_SetAddress:0000000000000000 $t
     /tmp/cc8iG1bp.s:862    .text.HAL_PCD_SetAddress:0000000000000000 HAL_PCD_SetAddress
     /tmp/cc8iG1bp.s:929    .text.HAL_PCD_EP_Open:0000000000000000 $t
     /tmp/cc8iG1bp.s:936    .text.HAL_PCD_EP_Open:0000000000000000 HAL_PCD_EP_Open
     /tmp/cc8iG1bp.s:1609   .text.HAL_PCD_EP_Open:0000000000000354 $d
     /tmp/cc8iG1bp.s:1628   .text.HAL_PCD_EP_Close:0000000000000000 $t
     /tmp/cc8iG1bp.s:1635   .text.HAL_PCD_EP_Close:0000000000000000 HAL_PCD_EP_Close
     /tmp/cc8iG1bp.s:2036   .text.HAL_PCD_EP_Close:00000000000001e0 $d
     /tmp/cc8iG1bp.s:2046   .text.HAL_PCD_EP_Receive:0000000000000000 $t
     /tmp/cc8iG1bp.s:2053   .text.HAL_PCD_EP_Receive:0000000000000000 HAL_PCD_EP_Receive
     /tmp/cc8iG1bp.s:2466   .text.HAL_PCD_EP_Receive:00000000000001a4 $d
     /tmp/cc8iG1bp.s:2475   .text.HAL_PCD_EP_GetRxCount:0000000000000000 $t
     /tmp/cc8iG1bp.s:2482   .text.HAL_PCD_EP_GetRxCount:0000000000000000 HAL_PCD_EP_GetRxCount
     /tmp/cc8iG1bp.s:2515   .text.HAL_PCD_EP_SetStall:0000000000000000 $t
ARM GAS  /tmp/cc8iG1bp.s 			page 119


     /tmp/cc8iG1bp.s:2522   .text.HAL_PCD_EP_SetStall:0000000000000000 HAL_PCD_EP_SetStall
     /tmp/cc8iG1bp.s:2726   .text.HAL_PCD_EP_SetStall:00000000000000b4 $d
     /tmp/cc8iG1bp.s:2735   .text.HAL_PCD_EP_ClrStall:0000000000000000 $t
     /tmp/cc8iG1bp.s:2742   .text.HAL_PCD_EP_ClrStall:0000000000000000 HAL_PCD_EP_ClrStall
     /tmp/cc8iG1bp.s:2952   .text.HAL_PCD_EP_ClrStall:00000000000000d8 $d
     /tmp/cc8iG1bp.s:2962   .text.HAL_PCD_EP_Flush:0000000000000000 $t
     /tmp/cc8iG1bp.s:2969   .text.HAL_PCD_EP_Flush:0000000000000000 HAL_PCD_EP_Flush
     /tmp/cc8iG1bp.s:2988   .text.HAL_PCD_ActivateRemoteWakeup:0000000000000000 $t
     /tmp/cc8iG1bp.s:2995   .text.HAL_PCD_ActivateRemoteWakeup:0000000000000000 HAL_PCD_ActivateRemoteWakeup
     /tmp/cc8iG1bp.s:3045   .text.HAL_PCD_DeActivateRemoteWakeup:0000000000000000 $t
     /tmp/cc8iG1bp.s:3052   .text.HAL_PCD_DeActivateRemoteWakeup:0000000000000000 HAL_PCD_DeActivateRemoteWakeup
     /tmp/cc8iG1bp.s:3100   .text.HAL_PCD_GetState:0000000000000000 $t
     /tmp/cc8iG1bp.s:3107   .text.HAL_PCD_GetState:0000000000000000 HAL_PCD_GetState
     /tmp/cc8iG1bp.s:3130   .text.PCD_WritePMA:0000000000000000 $t
     /tmp/cc8iG1bp.s:3137   .text.PCD_WritePMA:0000000000000000 PCD_WritePMA
     /tmp/cc8iG1bp.s:3216   .text.HAL_PCD_EP_Transmit:0000000000000000 $t
     /tmp/cc8iG1bp.s:3223   .text.HAL_PCD_EP_Transmit:0000000000000000 HAL_PCD_EP_Transmit
     /tmp/cc8iG1bp.s:3516   .text.HAL_PCD_EP_Transmit:0000000000000160 $d
     /tmp/cc8iG1bp.s:3527   .text.PCD_ReadPMA:0000000000000000 $t
     /tmp/cc8iG1bp.s:3534   .text.PCD_ReadPMA:0000000000000000 PCD_ReadPMA
     /tmp/cc8iG1bp.s:3622   .text.PCD_EP_ISR_Handler:0000000000000000 $t
     /tmp/cc8iG1bp.s:3628   .text.PCD_EP_ISR_Handler:0000000000000000 PCD_EP_ISR_Handler
     /tmp/cc8iG1bp.s:4156   .text.PCD_EP_ISR_Handler:00000000000002cc $d
     /tmp/cc8iG1bp.s:4166   .text.PCD_EP_ISR_Handler:00000000000002e4 $t
     /tmp/cc8iG1bp.s:4511   .text.PCD_EP_ISR_Handler:00000000000004a0 $d
     /tmp/cc8iG1bp.s:4523   .text.HAL_PCD_IRQHandler:0000000000000000 $t
     /tmp/cc8iG1bp.s:4530   .text.HAL_PCD_IRQHandler:0000000000000000 HAL_PCD_IRQHandler
     /tmp/cc8iG1bp.s:4751   .text.HAL_PCD_IRQHandler:0000000000000100 $d

NO UNDEFINED SYMBOLS
