ARM GAS  /tmp/ccdEu1UC.s 			page 1


   1              		.cpu cortex-m0
   2              		.eabi_attribute 20, 1
   3              		.eabi_attribute 21, 1
   4              		.eabi_attribute 23, 3
   5              		.eabi_attribute 24, 1
   6              		.eabi_attribute 25, 1
   7              		.eabi_attribute 26, 1
   8              		.eabi_attribute 30, 4
   9              		.eabi_attribute 34, 0
  10              		.eabi_attribute 18, 4
  11              		.file	"stm32f0xx_hal_rcc.c"
  12              		.text
  13              		.section	.text.HAL_RCC_DeInit,"ax",%progbits
  14              		.align	1
  15              		.global	HAL_RCC_DeInit
  16              		.arch armv6s-m
  17              		.syntax unified
  18              		.code	16
  19              		.thumb_func
  20              		.fpu softvfp
  22              	HAL_RCC_DeInit:
  23              		@ args = 0, pretend = 0, frame = 0
  24              		@ frame_needed = 0, uses_anonymous_args = 0
  25              		@ link register save eliminated.
  26 0000 8122     		movs	r2, #129
  27              		@ sp needed
  28 0002 0C4B     		ldr	r3, .L2
  29 0004 1968     		ldr	r1, [r3]
  30 0006 0A43     		orrs	r2, r1
  31 0008 1A60     		str	r2, [r3]
  32 000a 5A68     		ldr	r2, [r3, #4]
  33 000c 0A49     		ldr	r1, .L2+4
  34 000e 0A40     		ands	r2, r1
  35 0010 5A60     		str	r2, [r3, #4]
  36 0012 1A68     		ldr	r2, [r3]
  37 0014 0949     		ldr	r1, .L2+8
  38 0016 0A40     		ands	r2, r1
  39 0018 1A60     		str	r2, [r3]
  40 001a 1A68     		ldr	r2, [r3]
  41 001c 0849     		ldr	r1, .L2+12
  42 001e 0A40     		ands	r2, r1
  43 0020 1A60     		str	r2, [r3]
  44 0022 0022     		movs	r2, #0
  45 0024 5A60     		str	r2, [r3, #4]
  46 0026 DA62     		str	r2, [r3, #44]
  47 0028 1A63     		str	r2, [r3, #48]
  48 002a 9A60     		str	r2, [r3, #8]
  49 002c 054B     		ldr	r3, .L2+16
  50 002e 064A     		ldr	r2, .L2+20
  51 0030 1A60     		str	r2, [r3]
  52 0032 7047     		bx	lr
  53              	.L3:
  54              		.align	2
  55              	.L2:
  56 0034 00100240 		.word	1073876992
  57 0038 0CF8FFF0 		.word	-251660276
  58 003c FFFFF6FE 		.word	-17367041
ARM GAS  /tmp/ccdEu1UC.s 			page 2


  59 0040 FFFFFBFF 		.word	-262145
  60 0044 00000000 		.word	SystemCoreClock
  61 0048 00127A00 		.word	8000000
  63              		.section	.text.HAL_RCC_OscConfig,"ax",%progbits
  64              		.align	1
  65              		.global	HAL_RCC_OscConfig
  66              		.syntax unified
  67              		.code	16
  68              		.thumb_func
  69              		.fpu softvfp
  71              	HAL_RCC_OscConfig:
  72              		@ args = 0, pretend = 0, frame = 16
  73              		@ frame_needed = 0, uses_anonymous_args = 0
  74 0000 F0B5     		push	{r4, r5, r6, r7, lr}
  75 0002 0368     		ldr	r3, [r0]
  76 0004 0400     		movs	r4, r0
  77 0006 85B0     		sub	sp, sp, #20
  78 0008 DB07     		lsls	r3, r3, #31
  79 000a 33D4     		bmi	.L5
  80              	.L10:
  81 000c 2368     		ldr	r3, [r4]
  82 000e 9B07     		lsls	r3, r3, #30
  83 0010 00D5     		bpl	.LCB65
  84 0012 8AE0     		b	.L6	@long jump
  85              	.LCB65:
  86              	.L22:
  87 0014 2368     		ldr	r3, [r4]
  88 0016 1B07     		lsls	r3, r3, #28
  89 0018 00D5     		bpl	.LCB72
  90 001a CAE0     		b	.L32	@long jump
  91              	.LCB72:
  92              	.L38:
  93 001c 2368     		ldr	r3, [r4]
  94 001e 5B07     		lsls	r3, r3, #29
  95 0020 00D5     		bpl	.LCB79
  96 0022 EDE0     		b	.L33	@long jump
  97              	.LCB79:
  98              	.L41:
  99 0024 2368     		ldr	r3, [r4]
 100 0026 DB06     		lsls	r3, r3, #27
 101 0028 1AD5     		bpl	.L60
 102 002a 6269     		ldr	r2, [r4, #20]
 103 002c 0423     		movs	r3, #4
 104 002e BC4D     		ldr	r5, .L115
 105 0030 012A     		cmp	r2, #1
 106 0032 00D0     		beq	.LCB91
 107 0034 58E1     		b	.L61	@long jump
 108              	.LCB91:
 109 0036 696B     		ldr	r1, [r5, #52]
 110 0038 0227     		movs	r7, #2
 111 003a 0B43     		orrs	r3, r1
 112 003c 6B63     		str	r3, [r5, #52]
 113 003e 6B6B     		ldr	r3, [r5, #52]
 114 0040 1A43     		orrs	r2, r3
 115 0042 6A63     		str	r2, [r5, #52]
 116 0044 FFF7FEFF 		bl	HAL_GetTick
 117 0048 0600     		movs	r6, r0
ARM GAS  /tmp/ccdEu1UC.s 			page 3


 118              	.L62:
 119 004a 6B6B     		ldr	r3, [r5, #52]
 120 004c 3B42     		tst	r3, r7
 121 004e 00D1     		bne	.LCB106
 122 0050 43E1     		b	.L63	@long jump
 123              	.LCB106:
 124              	.L113:
 125 0052 F821     		movs	r1, #248
 126 0054 6A6B     		ldr	r2, [r5, #52]
 127 0056 A369     		ldr	r3, [r4, #24]
 128 0058 8A43     		bics	r2, r1
 129 005a DB00     		lsls	r3, r3, #3
 130 005c 1343     		orrs	r3, r2
 131 005e 6B63     		str	r3, [r5, #52]
 132              	.L60:
 133 0060 2368     		ldr	r3, [r4]
 134 0062 9B06     		lsls	r3, r3, #26
 135 0064 00D5     		bpl	.LCB123
 136 0066 67E1     		b	.L68	@long jump
 137              	.LCB123:
 138              	.L73:
 139 0068 616A     		ldr	r1, [r4, #36]
 140 006a 0029     		cmp	r1, #0
 141 006c 00D0     		beq	.LCB127
 142 006e A4E1     		b	.L69	@long jump
 143              	.LCB127:
 144              	.L70:
 145 0070 0020     		movs	r0, #0
 146 0072 18E0     		b	.L11
 147              	.L5:
 148 0074 0C21     		movs	r1, #12
 149 0076 AA4D     		ldr	r5, .L115
 150 0078 6A68     		ldr	r2, [r5, #4]
 151 007a 0A40     		ands	r2, r1
 152 007c 042A     		cmp	r2, #4
 153 007e 0BD0     		beq	.L8
 154 0080 6B68     		ldr	r3, [r5, #4]
 155 0082 0B40     		ands	r3, r1
 156 0084 082B     		cmp	r3, #8
 157 0086 10D1     		bne	.L9
 158 0088 C022     		movs	r2, #192
 159 008a 6B68     		ldr	r3, [r5, #4]
 160 008c 5202     		lsls	r2, r2, #9
 161 008e 1340     		ands	r3, r2
 162 0090 8022     		movs	r2, #128
 163 0092 5202     		lsls	r2, r2, #9
 164 0094 9342     		cmp	r3, r2
 165 0096 08D1     		bne	.L9
 166              	.L8:
 167 0098 2B68     		ldr	r3, [r5]
 168 009a 9B03     		lsls	r3, r3, #14
 169 009c B6D5     		bpl	.L10
 170 009e 6368     		ldr	r3, [r4, #4]
 171 00a0 002B     		cmp	r3, #0
 172 00a2 B3D1     		bne	.L10
 173              	.L26:
 174 00a4 0120     		movs	r0, #1
ARM GAS  /tmp/ccdEu1UC.s 			page 4


 175              	.L11:
 176 00a6 05B0     		add	sp, sp, #20
 177              		@ sp needed
 178 00a8 F0BD     		pop	{r4, r5, r6, r7, pc}
 179              	.L9:
 180 00aa 6368     		ldr	r3, [r4, #4]
 181 00ac 012B     		cmp	r3, #1
 182 00ae 13D1     		bne	.L12
 183              	.L114:
 184 00b0 8023     		movs	r3, #128
 185 00b2 2A68     		ldr	r2, [r5]
 186 00b4 5B02     		lsls	r3, r3, #9
 187 00b6 1343     		orrs	r3, r2
 188              	.L110:
 189 00b8 2B60     		str	r3, [r5]
 190 00ba FFF7FEFF 		bl	HAL_GetTick
 191 00be 8027     		movs	r7, #128
 192 00c0 0600     		movs	r6, r0
 193 00c2 BF02     		lsls	r7, r7, #10
 194              	.L18:
 195 00c4 2B68     		ldr	r3, [r5]
 196 00c6 3B42     		tst	r3, r7
 197 00c8 A0D1     		bne	.L10
 198 00ca FFF7FEFF 		bl	HAL_GetTick
 199 00ce 801B     		subs	r0, r0, r6
 200 00d0 6428     		cmp	r0, #100
 201 00d2 F7D9     		bls	.L18
 202              	.L20:
 203 00d4 0320     		movs	r0, #3
 204 00d6 E6E7     		b	.L11
 205              	.L12:
 206 00d8 002B     		cmp	r3, #0
 207 00da 16D1     		bne	.L14
 208 00dc 2B68     		ldr	r3, [r5]
 209 00de 914A     		ldr	r2, .L115+4
 210 00e0 8027     		movs	r7, #128
 211 00e2 1340     		ands	r3, r2
 212 00e4 2B60     		str	r3, [r5]
 213 00e6 2B68     		ldr	r3, [r5]
 214 00e8 8F4A     		ldr	r2, .L115+8
 215 00ea BF02     		lsls	r7, r7, #10
 216 00ec 1340     		ands	r3, r2
 217 00ee 2B60     		str	r3, [r5]
 218 00f0 FFF7FEFF 		bl	HAL_GetTick
 219 00f4 0600     		movs	r6, r0
 220              	.L15:
 221 00f6 2B68     		ldr	r3, [r5]
 222 00f8 3B42     		tst	r3, r7
 223 00fa 00D1     		bne	.LCB230
 224 00fc 86E7     		b	.L10	@long jump
 225              	.LCB230:
 226 00fe FFF7FEFF 		bl	HAL_GetTick
 227 0102 801B     		subs	r0, r0, r6
 228 0104 6428     		cmp	r0, #100
 229 0106 F6D9     		bls	.L15
 230 0108 E4E7     		b	.L20
 231              	.L14:
ARM GAS  /tmp/ccdEu1UC.s 			page 5


 232 010a 052B     		cmp	r3, #5
 233 010c 05D1     		bne	.L16
 234 010e 8023     		movs	r3, #128
 235 0110 2A68     		ldr	r2, [r5]
 236 0112 DB02     		lsls	r3, r3, #11
 237 0114 1343     		orrs	r3, r2
 238 0116 2B60     		str	r3, [r5]
 239 0118 CAE7     		b	.L114
 240              	.L16:
 241 011a 2B68     		ldr	r3, [r5]
 242 011c 814A     		ldr	r2, .L115+4
 243 011e 1340     		ands	r3, r2
 244 0120 2B60     		str	r3, [r5]
 245 0122 2B68     		ldr	r3, [r5]
 246 0124 804A     		ldr	r2, .L115+8
 247 0126 1340     		ands	r3, r2
 248 0128 C6E7     		b	.L110
 249              	.L6:
 250 012a 0C22     		movs	r2, #12
 251 012c 7C4D     		ldr	r5, .L115
 252 012e 6B68     		ldr	r3, [r5, #4]
 253 0130 1342     		tst	r3, r2
 254 0132 0BD0     		beq	.L23
 255 0134 6B68     		ldr	r3, [r5, #4]
 256 0136 1340     		ands	r3, r2
 257 0138 082B     		cmp	r3, #8
 258 013a 15D1     		bne	.L24
 259 013c C022     		movs	r2, #192
 260 013e 6B68     		ldr	r3, [r5, #4]
 261 0140 5202     		lsls	r2, r2, #9
 262 0142 1340     		ands	r3, r2
 263 0144 8022     		movs	r2, #128
 264 0146 1202     		lsls	r2, r2, #8
 265 0148 9342     		cmp	r3, r2
 266 014a 0DD1     		bne	.L24
 267              	.L23:
 268 014c 2B68     		ldr	r3, [r5]
 269 014e 9B07     		lsls	r3, r3, #30
 270 0150 02D5     		bpl	.L111
 271 0152 E368     		ldr	r3, [r4, #12]
 272 0154 012B     		cmp	r3, #1
 273 0156 A5D1     		bne	.L26
 274              	.L111:
 275 0158 F821     		movs	r1, #248
 276 015a 2A68     		ldr	r2, [r5]
 277 015c 2369     		ldr	r3, [r4, #16]
 278 015e 8A43     		bics	r2, r1
 279 0160 DB00     		lsls	r3, r3, #3
 280 0162 1343     		orrs	r3, r2
 281 0164 2B60     		str	r3, [r5]
 282 0166 55E7     		b	.L22
 283              	.L24:
 284 0168 E268     		ldr	r2, [r4, #12]
 285 016a 0123     		movs	r3, #1
 286 016c 002A     		cmp	r2, #0
 287 016e 0FD0     		beq	.L27
 288 0170 2A68     		ldr	r2, [r5]
ARM GAS  /tmp/ccdEu1UC.s 			page 6


 289 0172 0227     		movs	r7, #2
 290 0174 1343     		orrs	r3, r2
 291 0176 2B60     		str	r3, [r5]
 292 0178 FFF7FEFF 		bl	HAL_GetTick
 293 017c 0600     		movs	r6, r0
 294              	.L28:
 295 017e 2B68     		ldr	r3, [r5]
 296 0180 3B42     		tst	r3, r7
 297 0182 E9D1     		bne	.L111
 298 0184 FFF7FEFF 		bl	HAL_GetTick
 299 0188 801B     		subs	r0, r0, r6
 300 018a 0228     		cmp	r0, #2
 301 018c F7D9     		bls	.L28
 302 018e A1E7     		b	.L20
 303              	.L27:
 304 0190 2A68     		ldr	r2, [r5]
 305 0192 0227     		movs	r7, #2
 306 0194 9A43     		bics	r2, r3
 307 0196 2A60     		str	r2, [r5]
 308 0198 FFF7FEFF 		bl	HAL_GetTick
 309 019c 0600     		movs	r6, r0
 310              	.L30:
 311 019e 2B68     		ldr	r3, [r5]
 312 01a0 3B42     		tst	r3, r7
 313 01a2 00D1     		bne	.LCB340
 314 01a4 36E7     		b	.L22	@long jump
 315              	.LCB340:
 316 01a6 FFF7FEFF 		bl	HAL_GetTick
 317 01aa 801B     		subs	r0, r0, r6
 318 01ac 0228     		cmp	r0, #2
 319 01ae F6D9     		bls	.L30
 320 01b0 90E7     		b	.L20
 321              	.L32:
 322 01b2 E269     		ldr	r2, [r4, #28]
 323 01b4 0123     		movs	r3, #1
 324 01b6 5A4D     		ldr	r5, .L115
 325 01b8 002A     		cmp	r2, #0
 326 01ba 10D0     		beq	.L35
 327 01bc 6A6A     		ldr	r2, [r5, #36]
 328 01be 0227     		movs	r7, #2
 329 01c0 1343     		orrs	r3, r2
 330 01c2 6B62     		str	r3, [r5, #36]
 331 01c4 FFF7FEFF 		bl	HAL_GetTick
 332 01c8 0600     		movs	r6, r0
 333              	.L36:
 334 01ca 6B6A     		ldr	r3, [r5, #36]
 335 01cc 3B42     		tst	r3, r7
 336 01ce 00D0     		beq	.LCB367
 337 01d0 24E7     		b	.L38	@long jump
 338              	.LCB367:
 339 01d2 FFF7FEFF 		bl	HAL_GetTick
 340 01d6 801B     		subs	r0, r0, r6
 341 01d8 0228     		cmp	r0, #2
 342 01da F6D9     		bls	.L36
 343 01dc 7AE7     		b	.L20
 344              	.L35:
 345 01de 6A6A     		ldr	r2, [r5, #36]
ARM GAS  /tmp/ccdEu1UC.s 			page 7


 346 01e0 0227     		movs	r7, #2
 347 01e2 9A43     		bics	r2, r3
 348 01e4 6A62     		str	r2, [r5, #36]
 349 01e6 FFF7FEFF 		bl	HAL_GetTick
 350 01ea 0600     		movs	r6, r0
 351              	.L39:
 352 01ec 6B6A     		ldr	r3, [r5, #36]
 353 01ee 3B42     		tst	r3, r7
 354 01f0 00D1     		bne	.LCB388
 355 01f2 13E7     		b	.L38	@long jump
 356              	.LCB388:
 357 01f4 FFF7FEFF 		bl	HAL_GetTick
 358 01f8 801B     		subs	r0, r0, r6
 359 01fa 0228     		cmp	r0, #2
 360 01fc F6D9     		bls	.L39
 361 01fe 69E7     		b	.L20
 362              	.L33:
 363 0200 8022     		movs	r2, #128
 364 0202 0021     		movs	r1, #0
 365 0204 464D     		ldr	r5, .L115
 366 0206 5205     		lsls	r2, r2, #21
 367 0208 EB69     		ldr	r3, [r5, #28]
 368 020a 0091     		str	r1, [sp]
 369 020c 1342     		tst	r3, r2
 370 020e 08D1     		bne	.L42
 371 0210 EB69     		ldr	r3, [r5, #28]
 372 0212 1343     		orrs	r3, r2
 373 0214 EB61     		str	r3, [r5, #28]
 374 0216 EB69     		ldr	r3, [r5, #28]
 375 0218 1340     		ands	r3, r2
 376 021a 0393     		str	r3, [sp, #12]
 377 021c 039B     		ldr	r3, [sp, #12]
 378 021e 0123     		movs	r3, #1
 379 0220 0093     		str	r3, [sp]
 380              	.L42:
 381 0222 8027     		movs	r7, #128
 382 0224 414E     		ldr	r6, .L115+12
 383 0226 7F00     		lsls	r7, r7, #1
 384 0228 3368     		ldr	r3, [r6]
 385 022a 3B42     		tst	r3, r7
 386 022c 06D0     		beq	.L43
 387              	.L48:
 388 022e A368     		ldr	r3, [r4, #8]
 389 0230 012B     		cmp	r3, #1
 390 0232 13D1     		bne	.L109
 391 0234 2A6A     		ldr	r2, [r5, #32]
 392 0236 1343     		orrs	r3, r2
 393              	.L112:
 394 0238 2B62     		str	r3, [r5, #32]
 395 023a 30E0     		b	.L49
 396              	.L43:
 397 023c 3368     		ldr	r3, [r6]
 398 023e 3B43     		orrs	r3, r7
 399 0240 3360     		str	r3, [r6]
 400 0242 FFF7FEFF 		bl	HAL_GetTick
 401 0246 0190     		str	r0, [sp, #4]
 402              	.L46:
ARM GAS  /tmp/ccdEu1UC.s 			page 8


 403 0248 3368     		ldr	r3, [r6]
 404 024a 3B42     		tst	r3, r7
 405 024c EFD1     		bne	.L48
 406 024e FFF7FEFF 		bl	HAL_GetTick
 407 0252 019B     		ldr	r3, [sp, #4]
 408 0254 C01A     		subs	r0, r0, r3
 409 0256 6428     		cmp	r0, #100
 410 0258 F6D9     		bls	.L46
 411 025a 3BE7     		b	.L20
 412              	.L109:
 413 025c 0122     		movs	r2, #1
 414 025e 002B     		cmp	r3, #0
 415 0260 14D1     		bne	.L50
 416 0262 2B6A     		ldr	r3, [r5, #32]
 417 0264 0227     		movs	r7, #2
 418 0266 9343     		bics	r3, r2
 419 0268 2B62     		str	r3, [r5, #32]
 420 026a 2B6A     		ldr	r3, [r5, #32]
 421 026c 0332     		adds	r2, r2, #3
 422 026e 9343     		bics	r3, r2
 423 0270 2B62     		str	r3, [r5, #32]
 424 0272 FFF7FEFF 		bl	HAL_GetTick
 425 0276 0600     		movs	r6, r0
 426              	.L51:
 427 0278 2B6A     		ldr	r3, [r5, #32]
 428 027a 3B42     		tst	r3, r7
 429 027c 16D0     		beq	.L58
 430 027e FFF7FEFF 		bl	HAL_GetTick
 431 0282 2B4B     		ldr	r3, .L115+16
 432 0284 801B     		subs	r0, r0, r6
 433 0286 9842     		cmp	r0, r3
 434 0288 F6D9     		bls	.L51
 435 028a 23E7     		b	.L20
 436              	.L50:
 437 028c 052B     		cmp	r3, #5
 438 028e 16D1     		bne	.L52
 439 0290 296A     		ldr	r1, [r5, #32]
 440 0292 013B     		subs	r3, r3, #1
 441 0294 0B43     		orrs	r3, r1
 442 0296 2B62     		str	r3, [r5, #32]
 443 0298 2B6A     		ldr	r3, [r5, #32]
 444 029a 1A43     		orrs	r2, r3
 445 029c 2A62     		str	r2, [r5, #32]
 446              	.L49:
 447 029e FFF7FEFF 		bl	HAL_GetTick
 448 02a2 0227     		movs	r7, #2
 449 02a4 0600     		movs	r6, r0
 450              	.L54:
 451 02a6 2B6A     		ldr	r3, [r5, #32]
 452 02a8 3B42     		tst	r3, r7
 453 02aa 0FD0     		beq	.L55
 454              	.L58:
 455 02ac 009B     		ldr	r3, [sp]
 456 02ae 012B     		cmp	r3, #1
 457 02b0 00D0     		beq	.LCB511
 458 02b2 B7E6     		b	.L41	@long jump
 459              	.LCB511:
ARM GAS  /tmp/ccdEu1UC.s 			page 9


 460 02b4 EB69     		ldr	r3, [r5, #28]
 461 02b6 1F4A     		ldr	r2, .L115+20
 462 02b8 1340     		ands	r3, r2
 463 02ba EB61     		str	r3, [r5, #28]
 464 02bc B2E6     		b	.L41
 465              	.L52:
 466 02be 2B6A     		ldr	r3, [r5, #32]
 467 02c0 9343     		bics	r3, r2
 468 02c2 0422     		movs	r2, #4
 469 02c4 2B62     		str	r3, [r5, #32]
 470 02c6 2B6A     		ldr	r3, [r5, #32]
 471 02c8 9343     		bics	r3, r2
 472 02ca B5E7     		b	.L112
 473              	.L55:
 474 02cc FFF7FEFF 		bl	HAL_GetTick
 475 02d0 174B     		ldr	r3, .L115+16
 476 02d2 801B     		subs	r0, r0, r6
 477 02d4 9842     		cmp	r0, r3
 478 02d6 E6D9     		bls	.L54
 479 02d8 FCE6     		b	.L20
 480              	.L63:
 481 02da FFF7FEFF 		bl	HAL_GetTick
 482 02de 801B     		subs	r0, r0, r6
 483 02e0 0228     		cmp	r0, #2
 484 02e2 00D8     		bhi	.LCB544
 485 02e4 B1E6     		b	.L62	@long jump
 486              	.LCB544:
 487 02e6 F5E6     		b	.L20
 488              	.L61:
 489 02e8 0532     		adds	r2, r2, #5
 490 02ea 03D1     		bne	.L64
 491 02ec 6A6B     		ldr	r2, [r5, #52]
 492 02ee 9A43     		bics	r2, r3
 493 02f0 6A63     		str	r2, [r5, #52]
 494 02f2 AEE6     		b	.L113
 495              	.L64:
 496 02f4 6A6B     		ldr	r2, [r5, #52]
 497 02f6 0227     		movs	r7, #2
 498 02f8 1343     		orrs	r3, r2
 499 02fa 0122     		movs	r2, #1
 500 02fc 6B63     		str	r3, [r5, #52]
 501 02fe 6B6B     		ldr	r3, [r5, #52]
 502 0300 9343     		bics	r3, r2
 503 0302 6B63     		str	r3, [r5, #52]
 504 0304 FFF7FEFF 		bl	HAL_GetTick
 505 0308 0600     		movs	r6, r0
 506              	.L65:
 507 030a 6B6B     		ldr	r3, [r5, #52]
 508 030c 3B42     		tst	r3, r7
 509 030e 00D1     		bne	.LCB573
 510 0310 A6E6     		b	.L60	@long jump
 511              	.LCB573:
 512 0312 FFF7FEFF 		bl	HAL_GetTick
 513 0316 801B     		subs	r0, r0, r6
 514 0318 0228     		cmp	r0, #2
 515 031a F6D9     		bls	.L65
 516 031c DAE6     		b	.L20
ARM GAS  /tmp/ccdEu1UC.s 			page 10


 517              	.L116:
 518 031e C046     		.align	2
 519              	.L115:
 520 0320 00100240 		.word	1073876992
 521 0324 FFFFFEFF 		.word	-65537
 522 0328 FFFFFBFF 		.word	-262145
 523 032c 00700040 		.word	1073770496
 524 0330 88130000 		.word	5000
 525 0334 FFFFFFEF 		.word	-268435457
 526              	.L68:
 527 0338 0C21     		movs	r1, #12
 528 033a 464D     		ldr	r5, .L117
 529 033c 6A68     		ldr	r2, [r5, #4]
 530 033e 0A40     		ands	r2, r1
 531 0340 8A42     		cmp	r2, r1
 532 0342 09D0     		beq	.L71
 533 0344 6B68     		ldr	r3, [r5, #4]
 534 0346 0B40     		ands	r3, r1
 535 0348 082B     		cmp	r3, #8
 536 034a 0ED1     		bne	.L72
 537 034c C022     		movs	r2, #192
 538 034e 6B68     		ldr	r3, [r5, #4]
 539 0350 5202     		lsls	r2, r2, #9
 540 0352 1340     		ands	r3, r2
 541 0354 9342     		cmp	r3, r2
 542 0356 08D1     		bne	.L72
 543              	.L71:
 544 0358 6B6B     		ldr	r3, [r5, #52]
 545 035a DB03     		lsls	r3, r3, #15
 546 035c 00D4     		bmi	.LCB615
 547 035e 83E6     		b	.L73	@long jump
 548              	.LCB615:
 549 0360 236A     		ldr	r3, [r4, #32]
 550 0362 012B     		cmp	r3, #1
 551 0364 00D0     		beq	.LCB619
 552 0366 9DE6     		b	.L26	@long jump
 553              	.LCB619:
 554 0368 7EE6     		b	.L73
 555              	.L72:
 556 036a 236A     		ldr	r3, [r4, #32]
 557 036c 002B     		cmp	r3, #0
 558 036e 11D0     		beq	.L74
 559 0370 8027     		movs	r7, #128
 560 0372 6B6B     		ldr	r3, [r5, #52]
 561 0374 7F02     		lsls	r7, r7, #9
 562 0376 3B43     		orrs	r3, r7
 563 0378 6B63     		str	r3, [r5, #52]
 564 037a FFF7FEFF 		bl	HAL_GetTick
 565 037e 0600     		movs	r6, r0
 566              	.L75:
 567 0380 6B6B     		ldr	r3, [r5, #52]
 568 0382 3B42     		tst	r3, r7
 569 0384 00D0     		beq	.LCB640
 570 0386 6FE6     		b	.L73	@long jump
 571              	.LCB640:
 572 0388 FFF7FEFF 		bl	HAL_GetTick
 573 038c 801B     		subs	r0, r0, r6
ARM GAS  /tmp/ccdEu1UC.s 			page 11


 574 038e 0228     		cmp	r0, #2
 575 0390 F6D9     		bls	.L75
 576 0392 9FE6     		b	.L20
 577              	.L74:
 578 0394 6B6B     		ldr	r3, [r5, #52]
 579 0396 304A     		ldr	r2, .L117+4
 580 0398 8027     		movs	r7, #128
 581 039a 1340     		ands	r3, r2
 582 039c 6B63     		str	r3, [r5, #52]
 583 039e FFF7FEFF 		bl	HAL_GetTick
 584 03a2 0600     		movs	r6, r0
 585 03a4 7F02     		lsls	r7, r7, #9
 586              	.L77:
 587 03a6 6B6B     		ldr	r3, [r5, #52]
 588 03a8 3B42     		tst	r3, r7
 589 03aa 00D1     		bne	.LCB663
 590 03ac 5CE6     		b	.L73	@long jump
 591              	.LCB663:
 592 03ae FFF7FEFF 		bl	HAL_GetTick
 593 03b2 801B     		subs	r0, r0, r6
 594 03b4 0228     		cmp	r0, #2
 595 03b6 F6D9     		bls	.L77
 596 03b8 8CE6     		b	.L20
 597              	.L69:
 598 03ba 0C22     		movs	r2, #12
 599 03bc 254D     		ldr	r5, .L117
 600 03be 6B68     		ldr	r3, [r5, #4]
 601 03c0 1340     		ands	r3, r2
 602 03c2 082B     		cmp	r3, #8
 603 03c4 00D1     		bne	.LCB678
 604 03c6 6DE6     		b	.L26	@long jump
 605              	.LCB678:
 606 03c8 2B68     		ldr	r3, [r5]
 607 03ca 244A     		ldr	r2, .L117+8
 608 03cc 1340     		ands	r3, r2
 609 03ce 2B60     		str	r3, [r5]
 610 03d0 0229     		cmp	r1, #2
 611 03d2 2FD1     		bne	.L79
 612 03d4 FFF7FEFF 		bl	HAL_GetTick
 613 03d8 8027     		movs	r7, #128
 614 03da 0600     		movs	r6, r0
 615 03dc BF04     		lsls	r7, r7, #18
 616              	.L80:
 617 03de 2B68     		ldr	r3, [r5]
 618 03e0 3B42     		tst	r3, r7
 619 03e2 21D1     		bne	.L81
 620 03e4 0F22     		movs	r2, #15
 621 03e6 EB6A     		ldr	r3, [r5, #44]
 622 03e8 8026     		movs	r6, #128
 623 03ea 9343     		bics	r3, r2
 624 03ec 226B     		ldr	r2, [r4, #48]
 625 03ee B604     		lsls	r6, r6, #18
 626 03f0 1343     		orrs	r3, r2
 627 03f2 EB62     		str	r3, [r5, #44]
 628 03f4 A16A     		ldr	r1, [r4, #40]
 629 03f6 E36A     		ldr	r3, [r4, #44]
 630 03f8 6A68     		ldr	r2, [r5, #4]
ARM GAS  /tmp/ccdEu1UC.s 			page 12


 631 03fa 0B43     		orrs	r3, r1
 632 03fc 1849     		ldr	r1, .L117+12
 633 03fe 0A40     		ands	r2, r1
 634 0400 1343     		orrs	r3, r2
 635 0402 6B60     		str	r3, [r5, #4]
 636 0404 8023     		movs	r3, #128
 637 0406 2A68     		ldr	r2, [r5]
 638 0408 5B04     		lsls	r3, r3, #17
 639 040a 1343     		orrs	r3, r2
 640 040c 2B60     		str	r3, [r5]
 641 040e FFF7FEFF 		bl	HAL_GetTick
 642 0412 0400     		movs	r4, r0
 643              	.L82:
 644 0414 2B68     		ldr	r3, [r5]
 645 0416 3342     		tst	r3, r6
 646 0418 00D0     		beq	.LCB724
 647 041a 29E6     		b	.L70	@long jump
 648              	.LCB724:
 649 041c FFF7FEFF 		bl	HAL_GetTick
 650 0420 001B     		subs	r0, r0, r4
 651 0422 0228     		cmp	r0, #2
 652 0424 F6D9     		bls	.L82
 653 0426 55E6     		b	.L20
 654              	.L81:
 655 0428 FFF7FEFF 		bl	HAL_GetTick
 656 042c 801B     		subs	r0, r0, r6
 657 042e 0228     		cmp	r0, #2
 658 0430 D5D9     		bls	.L80
 659 0432 4FE6     		b	.L20
 660              	.L79:
 661 0434 FFF7FEFF 		bl	HAL_GetTick
 662 0438 8026     		movs	r6, #128
 663 043a 0400     		movs	r4, r0
 664 043c B604     		lsls	r6, r6, #18
 665              	.L84:
 666 043e 2B68     		ldr	r3, [r5]
 667 0440 3342     		tst	r3, r6
 668 0442 00D1     		bne	.LCB752
 669 0444 14E6     		b	.L70	@long jump
 670              	.LCB752:
 671 0446 FFF7FEFF 		bl	HAL_GetTick
 672 044a 001B     		subs	r0, r0, r4
 673 044c 0228     		cmp	r0, #2
 674 044e F6D9     		bls	.L84
 675 0450 40E6     		b	.L20
 676              	.L118:
 677 0452 C046     		.align	2
 678              	.L117:
 679 0454 00100240 		.word	1073876992
 680 0458 FFFFFEFF 		.word	-65537
 681 045c FFFFFFFE 		.word	-16777217
 682 0460 FF7FC2FF 		.word	-4030465
 684              		.section	.text.HAL_RCC_MCOConfig,"ax",%progbits
 685              		.align	1
 686              		.global	HAL_RCC_MCOConfig
 687              		.syntax unified
 688              		.code	16
ARM GAS  /tmp/ccdEu1UC.s 			page 13


 689              		.thumb_func
 690              		.fpu softvfp
 692              	HAL_RCC_MCOConfig:
 693              		@ args = 0, pretend = 0, frame = 24
 694              		@ frame_needed = 0, uses_anonymous_args = 0
 695 0000 0223     		movs	r3, #2
 696 0002 70B5     		push	{r4, r5, r6, lr}
 697 0004 86B0     		sub	sp, sp, #24
 698 0006 0293     		str	r3, [sp, #8]
 699 0008 1600     		movs	r6, r2
 700 000a 0133     		adds	r3, r3, #1
 701 000c 8022     		movs	r2, #128
 702 000e 0493     		str	r3, [sp, #16]
 703 0010 0023     		movs	r3, #0
 704 0012 0D00     		movs	r5, r1
 705 0014 8021     		movs	r1, #128
 706 0016 9020     		movs	r0, #144
 707 0018 0C4C     		ldr	r4, .L120
 708 001a 5200     		lsls	r2, r2, #1
 709 001c 0393     		str	r3, [sp, #12]
 710 001e 0192     		str	r2, [sp, #4]
 711 0020 0593     		str	r3, [sp, #20]
 712 0022 6269     		ldr	r2, [r4, #20]
 713 0024 8902     		lsls	r1, r1, #10
 714 0026 0A43     		orrs	r2, r1
 715 0028 6261     		str	r2, [r4, #20]
 716 002a 6369     		ldr	r3, [r4, #20]
 717 002c C005     		lsls	r0, r0, #23
 718 002e 0B40     		ands	r3, r1
 719 0030 0093     		str	r3, [sp]
 720 0032 01A9     		add	r1, sp, #4
 721 0034 009B     		ldr	r3, [sp]
 722 0036 FFF7FEFF 		bl	HAL_GPIO_Init
 723 003a 6168     		ldr	r1, [r4, #4]
 724 003c 044A     		ldr	r2, .L120+4
 725 003e 1140     		ands	r1, r2
 726 0040 3143     		orrs	r1, r6
 727 0042 2943     		orrs	r1, r5
 728 0044 6160     		str	r1, [r4, #4]
 729 0046 06B0     		add	sp, sp, #24
 730              		@ sp needed
 731 0048 70BD     		pop	{r4, r5, r6, pc}
 732              	.L121:
 733 004a C046     		.align	2
 734              	.L120:
 735 004c 00100240 		.word	1073876992
 736 0050 FFFFFF80 		.word	-2130706433
 738              		.section	.text.HAL_RCC_EnableCSS,"ax",%progbits
 739              		.align	1
 740              		.global	HAL_RCC_EnableCSS
 741              		.syntax unified
 742              		.code	16
 743              		.thumb_func
 744              		.fpu softvfp
 746              	HAL_RCC_EnableCSS:
 747              		@ args = 0, pretend = 0, frame = 0
 748              		@ frame_needed = 0, uses_anonymous_args = 0
ARM GAS  /tmp/ccdEu1UC.s 			page 14


 749              		@ link register save eliminated.
 750 0000 8023     		movs	r3, #128
 751              		@ sp needed
 752 0002 034A     		ldr	r2, .L123
 753 0004 1B03     		lsls	r3, r3, #12
 754 0006 1168     		ldr	r1, [r2]
 755 0008 0B43     		orrs	r3, r1
 756 000a 1360     		str	r3, [r2]
 757 000c 7047     		bx	lr
 758              	.L124:
 759 000e C046     		.align	2
 760              	.L123:
 761 0010 00100240 		.word	1073876992
 763              		.section	.text.HAL_RCC_DisableCSS,"ax",%progbits
 764              		.align	1
 765              		.global	HAL_RCC_DisableCSS
 766              		.syntax unified
 767              		.code	16
 768              		.thumb_func
 769              		.fpu softvfp
 771              	HAL_RCC_DisableCSS:
 772              		@ args = 0, pretend = 0, frame = 0
 773              		@ frame_needed = 0, uses_anonymous_args = 0
 774              		@ link register save eliminated.
 775 0000 024A     		ldr	r2, .L126
 776 0002 0349     		ldr	r1, .L126+4
 777 0004 1368     		ldr	r3, [r2]
 778              		@ sp needed
 779 0006 0B40     		ands	r3, r1
 780 0008 1360     		str	r3, [r2]
 781 000a 7047     		bx	lr
 782              	.L127:
 783              		.align	2
 784              	.L126:
 785 000c 00100240 		.word	1073876992
 786 0010 FFFFF7FF 		.word	-524289
 788              		.global	__aeabi_uidiv
 789              		.global	__aeabi_idiv
 790              		.section	.rodata.HAL_RCC_GetSysClockFreq.str1.1,"aMS",%progbits,1
 791              	.LC1:
 792 0000 02030405 		.ascii	"\002\003\004\005\006\007\010\011\012\013\014\015\016"
 792      06070809 
 792      0A0B0C0D 
 792      0E
 793 000d 0F101000 		.ascii	"\017\020\020\000"
 794              	.LC3:
 795 0011 01020304 		.ascii	"\001\002\003\004\005\006\007\010\011\012\013\014\015"
 795      05060708 
 795      090A0B0C 
 795      0D
 796 001e 0E0F1000 		.ascii	"\016\017\020\000"
 797              		.section	.text.HAL_RCC_GetSysClockFreq,"ax",%progbits
 798              		.align	1
 799              		.global	HAL_RCC_GetSysClockFreq
 800              		.syntax unified
 801              		.code	16
 802              		.thumb_func
ARM GAS  /tmp/ccdEu1UC.s 			page 15


 803              		.fpu softvfp
 805              	HAL_RCC_GetSysClockFreq:
 806              		@ args = 0, pretend = 0, frame = 32
 807              		@ frame_needed = 0, uses_anonymous_args = 0
 808 0000 30B5     		push	{r4, r5, lr}
 809 0002 89B0     		sub	sp, sp, #36
 810 0004 1022     		movs	r2, #16
 811 0006 1949     		ldr	r1, .L135
 812 0008 6846     		mov	r0, sp
 813 000a 04AD     		add	r5, sp, #16
 814 000c FFF7FEFF 		bl	memcpy
 815 0010 1022     		movs	r2, #16
 816 0012 2800     		movs	r0, r5
 817 0014 1649     		ldr	r1, .L135+4
 818 0016 FFF7FEFF 		bl	memcpy
 819 001a 0C20     		movs	r0, #12
 820 001c 154A     		ldr	r2, .L135+8
 821 001e 5368     		ldr	r3, [r2, #4]
 822 0020 1840     		ands	r0, r3
 823 0022 0828     		cmp	r0, #8
 824 0024 09D0     		beq	.L129
 825 0026 0C38     		subs	r0, r0, #12
 826 0028 431E     		subs	r3, r0, #1
 827 002a 9841     		sbcs	r0, r0, r3
 828 002c 124B     		ldr	r3, .L135+12
 829 002e 4042     		rsbs	r0, r0, #0
 830 0030 1840     		ands	r0, r3
 831 0032 124B     		ldr	r3, .L135+16
 832 0034 C018     		adds	r0, r0, r3
 833              	.L128:
 834 0036 09B0     		add	sp, sp, #36
 835              		@ sp needed
 836 0038 30BD     		pop	{r4, r5, pc}
 837              	.L129:
 838 003a 0F20     		movs	r0, #15
 839 003c 6C46     		mov	r4, sp
 840 003e D26A     		ldr	r2, [r2, #44]
 841 0040 990C     		lsrs	r1, r3, #18
 842 0042 0140     		ands	r1, r0
 843 0044 0240     		ands	r2, r0
 844 0046 645C     		ldrb	r4, [r4, r1]
 845 0048 A95C     		ldrb	r1, [r5, r2]
 846 004a C022     		movs	r2, #192
 847 004c 8020     		movs	r0, #128
 848 004e 5202     		lsls	r2, r2, #9
 849 0050 1340     		ands	r3, r2
 850 0052 4002     		lsls	r0, r0, #9
 851 0054 8342     		cmp	r3, r0
 852 0056 01D1     		bne	.L131
 853              	.L132:
 854 0058 0948     		ldr	r0, .L135+20
 855 005a 02E0     		b	.L134
 856              	.L131:
 857 005c 9342     		cmp	r3, r2
 858 005e FBD1     		bne	.L132
 859 0060 0648     		ldr	r0, .L135+16
 860              	.L134:
ARM GAS  /tmp/ccdEu1UC.s 			page 16


 861 0062 FFF7FEFF 		bl	__aeabi_uidiv
 862 0066 6043     		muls	r0, r4
 863 0068 E5E7     		b	.L128
 864              	.L136:
 865 006a C046     		.align	2
 866              	.L135:
 867 006c 00000000 		.word	.LC1
 868 0070 11000000 		.word	.LC3
 869 0074 00100240 		.word	1073876992
 870 0078 00A69DFD 		.word	-40000000
 871 007c 006CDC02 		.word	48000000
 872 0080 00127A00 		.word	8000000
 874              		.section	.text.HAL_RCC_ClockConfig,"ax",%progbits
 875              		.align	1
 876              		.global	HAL_RCC_ClockConfig
 877              		.syntax unified
 878              		.code	16
 879              		.thumb_func
 880              		.fpu softvfp
 882              	HAL_RCC_ClockConfig:
 883              		@ args = 0, pretend = 0, frame = 8
 884              		@ frame_needed = 0, uses_anonymous_args = 0
 885 0000 F7B5     		push	{r0, r1, r2, r4, r5, r6, r7, lr}
 886 0002 0122     		movs	r2, #1
 887 0004 504E     		ldr	r6, .L184
 888 0006 0500     		movs	r5, r0
 889 0008 3368     		ldr	r3, [r6]
 890 000a 0191     		str	r1, [sp, #4]
 891 000c 1340     		ands	r3, r2
 892 000e 8B42     		cmp	r3, r1
 893 0010 1FD3     		bcc	.L138
 894              	.L141:
 895 0012 2A68     		ldr	r2, [r5]
 896 0014 9307     		lsls	r3, r2, #30
 897 0016 28D4     		bmi	.L139
 898              	.L140:
 899 0018 D307     		lsls	r3, r2, #31
 900 001a 2ED4     		bmi	.L143
 901              	.L154:
 902 001c 0123     		movs	r3, #1
 903 001e 3268     		ldr	r2, [r6]
 904 0020 0199     		ldr	r1, [sp, #4]
 905 0022 1A40     		ands	r2, r3
 906 0024 8A42     		cmp	r2, r1
 907 0026 00D9     		bls	.LCB985
 908 0028 7EE0     		b	.L144	@long jump
 909              	.LCB985:
 910              	.L145:
 911 002a 2B68     		ldr	r3, [r5]
 912 002c 474C     		ldr	r4, .L184+4
 913 002e 5B07     		lsls	r3, r3, #29
 914 0030 00D5     		bpl	.LCB993
 915 0032 81E0     		b	.L163	@long jump
 916              	.LCB993:
 917              	.L164:
 918 0034 FFF7FEFF 		bl	HAL_RCC_GetSysClockFreq
 919 0038 6368     		ldr	r3, [r4, #4]
ARM GAS  /tmp/ccdEu1UC.s 			page 17


 920 003a 454A     		ldr	r2, .L184+8
 921 003c 1B06     		lsls	r3, r3, #24
 922 003e 1B0F     		lsrs	r3, r3, #28
 923 0040 D35C     		ldrb	r3, [r2, r3]
 924 0042 D840     		lsrs	r0, r0, r3
 925 0044 434B     		ldr	r3, .L184+12
 926 0046 1860     		str	r0, [r3]
 927 0048 0020     		movs	r0, #0
 928 004a FFF7FEFF 		bl	HAL_InitTick
 929 004e 0020     		movs	r0, #0
 930 0050 0AE0     		b	.L142
 931              	.L138:
 932 0052 3368     		ldr	r3, [r6]
 933 0054 0199     		ldr	r1, [sp, #4]
 934 0056 9343     		bics	r3, r2
 935 0058 0B43     		orrs	r3, r1
 936 005a 3360     		str	r3, [r6]
 937 005c 3368     		ldr	r3, [r6]
 938 005e 1340     		ands	r3, r2
 939 0060 019A     		ldr	r2, [sp, #4]
 940 0062 9342     		cmp	r3, r2
 941 0064 D5D0     		beq	.L141
 942              	.L147:
 943 0066 0120     		movs	r0, #1
 944              	.L142:
 945              		@ sp needed
 946 0068 FEBD     		pop	{r1, r2, r3, r4, r5, r6, r7, pc}
 947              	.L139:
 948 006a F020     		movs	r0, #240
 949 006c 3749     		ldr	r1, .L184+4
 950 006e 4B68     		ldr	r3, [r1, #4]
 951 0070 8343     		bics	r3, r0
 952 0072 A868     		ldr	r0, [r5, #8]
 953 0074 0343     		orrs	r3, r0
 954 0076 4B60     		str	r3, [r1, #4]
 955 0078 CEE7     		b	.L140
 956              	.L143:
 957 007a 6A68     		ldr	r2, [r5, #4]
 958 007c 334C     		ldr	r4, .L184+4
 959 007e 012A     		cmp	r2, #1
 960 0080 1AD1     		bne	.L146
 961 0082 2368     		ldr	r3, [r4]
 962 0084 9B03     		lsls	r3, r3, #14
 963 0086 EED5     		bpl	.L147
 964              	.L148:
 965 0088 0321     		movs	r1, #3
 966 008a 6368     		ldr	r3, [r4, #4]
 967 008c 8B43     		bics	r3, r1
 968 008e 1343     		orrs	r3, r2
 969 0090 6360     		str	r3, [r4, #4]
 970 0092 FFF7FEFF 		bl	HAL_GetTick
 971 0096 6B68     		ldr	r3, [r5, #4]
 972 0098 0700     		movs	r7, r0
 973 009a 012B     		cmp	r3, #1
 974 009c 1CD1     		bne	.L181
 975              	.L151:
 976 009e 0C22     		movs	r2, #12
ARM GAS  /tmp/ccdEu1UC.s 			page 18


 977 00a0 6368     		ldr	r3, [r4, #4]
 978 00a2 1340     		ands	r3, r2
 979 00a4 042B     		cmp	r3, #4
 980 00a6 B9D0     		beq	.L154
 981 00a8 FFF7FEFF 		bl	HAL_GetTick
 982 00ac 2A4B     		ldr	r3, .L184+16
 983 00ae C01B     		subs	r0, r0, r7
 984 00b0 9842     		cmp	r0, r3
 985 00b2 F4D9     		bls	.L151
 986              	.L157:
 987 00b4 0320     		movs	r0, #3
 988 00b6 D7E7     		b	.L142
 989              	.L146:
 990 00b8 022A     		cmp	r2, #2
 991 00ba 03D1     		bne	.L149
 992 00bc 2368     		ldr	r3, [r4]
 993 00be 9B01     		lsls	r3, r3, #6
 994 00c0 E2D4     		bmi	.L148
 995 00c2 D0E7     		b	.L147
 996              	.L149:
 997 00c4 032A     		cmp	r2, #3
 998 00c6 03D1     		bne	.L150
 999 00c8 636B     		ldr	r3, [r4, #52]
 1000 00ca DB03     		lsls	r3, r3, #15
 1001 00cc DCD4     		bmi	.L148
 1002 00ce CAE7     		b	.L147
 1003              	.L150:
 1004 00d0 2368     		ldr	r3, [r4]
 1005 00d2 9B07     		lsls	r3, r3, #30
 1006 00d4 D8D4     		bmi	.L148
 1007 00d6 C6E7     		b	.L147
 1008              	.L181:
 1009 00d8 022B     		cmp	r3, #2
 1010 00da 0BD1     		bne	.L182
 1011              	.L155:
 1012 00dc 0C22     		movs	r2, #12
 1013 00de 6368     		ldr	r3, [r4, #4]
 1014 00e0 1340     		ands	r3, r2
 1015 00e2 082B     		cmp	r3, #8
 1016 00e4 9AD0     		beq	.L154
 1017 00e6 FFF7FEFF 		bl	HAL_GetTick
 1018 00ea 1B4B     		ldr	r3, .L184+16
 1019 00ec C01B     		subs	r0, r0, r7
 1020 00ee 9842     		cmp	r0, r3
 1021 00f0 F4D9     		bls	.L155
 1022 00f2 DFE7     		b	.L157
 1023              	.L182:
 1024 00f4 032B     		cmp	r3, #3
 1025 00f6 11D0     		beq	.L159
 1026              	.L160:
 1027 00f8 0C22     		movs	r2, #12
 1028 00fa 6368     		ldr	r3, [r4, #4]
 1029 00fc 1342     		tst	r3, r2
 1030 00fe 00D1     		bne	.LCB1144
 1031 0100 8CE7     		b	.L154	@long jump
 1032              	.LCB1144:
 1033 0102 FFF7FEFF 		bl	HAL_GetTick
ARM GAS  /tmp/ccdEu1UC.s 			page 19


 1034 0106 144B     		ldr	r3, .L184+16
 1035 0108 C01B     		subs	r0, r0, r7
 1036 010a 9842     		cmp	r0, r3
 1037 010c F4D9     		bls	.L160
 1038 010e D1E7     		b	.L157
 1039              	.L161:
 1040 0110 FFF7FEFF 		bl	HAL_GetTick
 1041 0114 104B     		ldr	r3, .L184+16
 1042 0116 C01B     		subs	r0, r0, r7
 1043 0118 9842     		cmp	r0, r3
 1044 011a CBD8     		bhi	.L157
 1045              	.L159:
 1046 011c 0C22     		movs	r2, #12
 1047 011e 6368     		ldr	r3, [r4, #4]
 1048 0120 1340     		ands	r3, r2
 1049 0122 9342     		cmp	r3, r2
 1050 0124 F4D1     		bne	.L161
 1051 0126 79E7     		b	.L154
 1052              	.L144:
 1053 0128 3268     		ldr	r2, [r6]
 1054 012a 9A43     		bics	r2, r3
 1055 012c 3260     		str	r2, [r6]
 1056 012e 3268     		ldr	r2, [r6]
 1057 0130 1A42     		tst	r2, r3
 1058 0132 00D1     		bne	.LCB1177
 1059 0134 79E7     		b	.L145	@long jump
 1060              	.LCB1177:
 1061 0136 96E7     		b	.L147
 1062              	.L163:
 1063 0138 6368     		ldr	r3, [r4, #4]
 1064 013a 084A     		ldr	r2, .L184+20
 1065 013c 1340     		ands	r3, r2
 1066 013e EA68     		ldr	r2, [r5, #12]
 1067 0140 1343     		orrs	r3, r2
 1068 0142 6360     		str	r3, [r4, #4]
 1069 0144 76E7     		b	.L164
 1070              	.L185:
 1071 0146 C046     		.align	2
 1072              	.L184:
 1073 0148 00200240 		.word	1073881088
 1074 014c 00100240 		.word	1073876992
 1075 0150 00000000 		.word	AHBPrescTable
 1076 0154 00000000 		.word	SystemCoreClock
 1077 0158 88130000 		.word	5000
 1078 015c FFF8FFFF 		.word	-1793
 1080              		.section	.text.HAL_RCC_GetHCLKFreq,"ax",%progbits
 1081              		.align	1
 1082              		.global	HAL_RCC_GetHCLKFreq
 1083              		.syntax unified
 1084              		.code	16
 1085              		.thumb_func
 1086              		.fpu softvfp
 1088              	HAL_RCC_GetHCLKFreq:
 1089              		@ args = 0, pretend = 0, frame = 0
 1090              		@ frame_needed = 0, uses_anonymous_args = 0
 1091              		@ link register save eliminated.
 1092 0000 014B     		ldr	r3, .L187
ARM GAS  /tmp/ccdEu1UC.s 			page 20


 1093              		@ sp needed
 1094 0002 1868     		ldr	r0, [r3]
 1095 0004 7047     		bx	lr
 1096              	.L188:
 1097 0006 C046     		.align	2
 1098              	.L187:
 1099 0008 00000000 		.word	SystemCoreClock
 1101              		.section	.text.HAL_RCC_GetPCLK1Freq,"ax",%progbits
 1102              		.align	1
 1103              		.global	HAL_RCC_GetPCLK1Freq
 1104              		.syntax unified
 1105              		.code	16
 1106              		.thumb_func
 1107              		.fpu softvfp
 1109              	HAL_RCC_GetPCLK1Freq:
 1110              		@ args = 0, pretend = 0, frame = 0
 1111              		@ frame_needed = 0, uses_anonymous_args = 0
 1112              		@ link register save eliminated.
 1113 0000 044B     		ldr	r3, .L190
 1114 0002 054A     		ldr	r2, .L190+4
 1115 0004 5B68     		ldr	r3, [r3, #4]
 1116              		@ sp needed
 1117 0006 5B05     		lsls	r3, r3, #21
 1118 0008 5B0F     		lsrs	r3, r3, #29
 1119 000a D35C     		ldrb	r3, [r2, r3]
 1120 000c 034A     		ldr	r2, .L190+8
 1121 000e 1068     		ldr	r0, [r2]
 1122 0010 D840     		lsrs	r0, r0, r3
 1123 0012 7047     		bx	lr
 1124              	.L191:
 1125              		.align	2
 1126              	.L190:
 1127 0014 00100240 		.word	1073876992
 1128 0018 00000000 		.word	APBPrescTable
 1129 001c 00000000 		.word	SystemCoreClock
 1131              		.section	.text.HAL_RCC_GetOscConfig,"ax",%progbits
 1132              		.align	1
 1133              		.global	HAL_RCC_GetOscConfig
 1134              		.syntax unified
 1135              		.code	16
 1136              		.thumb_func
 1137              		.fpu softvfp
 1139              	HAL_RCC_GetOscConfig:
 1140              		@ args = 0, pretend = 0, frame = 0
 1141              		@ frame_needed = 0, uses_anonymous_args = 0
 1142 0000 3F23     		movs	r3, #63
 1143 0002 0360     		str	r3, [r0]
 1144 0004 254B     		ldr	r3, .L202
 1145 0006 10B5     		push	{r4, lr}
 1146 0008 1A68     		ldr	r2, [r3]
 1147 000a 5203     		lsls	r2, r2, #13
 1148 000c 31D5     		bpl	.L193
 1149 000e 0522     		movs	r2, #5
 1150              	.L201:
 1151 0010 4260     		str	r2, [r0, #4]
 1152              	.L194:
 1153 0012 0121     		movs	r1, #1
ARM GAS  /tmp/ccdEu1UC.s 			page 21


 1154 0014 1A68     		ldr	r2, [r3]
 1155 0016 0A40     		ands	r2, r1
 1156 0018 C260     		str	r2, [r0, #12]
 1157 001a 1A68     		ldr	r2, [r3]
 1158 001c 1206     		lsls	r2, r2, #24
 1159 001e D20E     		lsrs	r2, r2, #27
 1160 0020 0261     		str	r2, [r0, #16]
 1161 0022 1A6A     		ldr	r2, [r3, #32]
 1162 0024 5207     		lsls	r2, r2, #29
 1163 0026 2FD5     		bpl	.L196
 1164 0028 0522     		movs	r2, #5
 1165 002a 8260     		str	r2, [r0, #8]
 1166              	.L197:
 1167 002c 0124     		movs	r4, #1
 1168              		@ sp needed
 1169 002e 5A6A     		ldr	r2, [r3, #36]
 1170 0030 2240     		ands	r2, r4
 1171 0032 C261     		str	r2, [r0, #28]
 1172 0034 5A6B     		ldr	r2, [r3, #52]
 1173 0036 2240     		ands	r2, r4
 1174 0038 4261     		str	r2, [r0, #20]
 1175 003a 596B     		ldr	r1, [r3, #52]
 1176 003c 0906     		lsls	r1, r1, #24
 1177 003e C90E     		lsrs	r1, r1, #27
 1178 0040 8161     		str	r1, [r0, #24]
 1179 0042 C021     		movs	r1, #192
 1180 0044 5A6B     		ldr	r2, [r3, #52]
 1181 0046 4902     		lsls	r1, r1, #9
 1182 0048 120C     		lsrs	r2, r2, #16
 1183 004a 2240     		ands	r2, r4
 1184 004c 0262     		str	r2, [r0, #32]
 1185 004e 1A68     		ldr	r2, [r3]
 1186 0050 D201     		lsls	r2, r2, #7
 1187 0052 D20F     		lsrs	r2, r2, #31
 1188 0054 1219     		adds	r2, r2, r4
 1189 0056 4262     		str	r2, [r0, #36]
 1190 0058 5A68     		ldr	r2, [r3, #4]
 1191 005a 0A40     		ands	r2, r1
 1192 005c F021     		movs	r1, #240
 1193 005e 8262     		str	r2, [r0, #40]
 1194 0060 5A68     		ldr	r2, [r3, #4]
 1195 0062 8903     		lsls	r1, r1, #14
 1196 0064 0A40     		ands	r2, r1
 1197 0066 C262     		str	r2, [r0, #44]
 1198 0068 0F22     		movs	r2, #15
 1199 006a DB6A     		ldr	r3, [r3, #44]
 1200 006c 1340     		ands	r3, r2
 1201 006e 0363     		str	r3, [r0, #48]
 1202 0070 10BD     		pop	{r4, pc}
 1203              	.L193:
 1204 0072 1968     		ldr	r1, [r3]
 1205 0074 8022     		movs	r2, #128
 1206 0076 0C00     		movs	r4, r1
 1207 0078 5202     		lsls	r2, r2, #9
 1208 007a 1440     		ands	r4, r2
 1209 007c 1142     		tst	r1, r2
 1210 007e 01D0     		beq	.L195
ARM GAS  /tmp/ccdEu1UC.s 			page 22


 1211 0080 0122     		movs	r2, #1
 1212 0082 C5E7     		b	.L201
 1213              	.L195:
 1214 0084 4460     		str	r4, [r0, #4]
 1215 0086 C4E7     		b	.L194
 1216              	.L196:
 1217 0088 1A6A     		ldr	r2, [r3, #32]
 1218 008a 1400     		movs	r4, r2
 1219 008c 0C40     		ands	r4, r1
 1220 008e 0A42     		tst	r2, r1
 1221 0090 01D0     		beq	.L198
 1222 0092 8160     		str	r1, [r0, #8]
 1223 0094 CAE7     		b	.L197
 1224              	.L198:
 1225 0096 8460     		str	r4, [r0, #8]
 1226 0098 C8E7     		b	.L197
 1227              	.L203:
 1228 009a C046     		.align	2
 1229              	.L202:
 1230 009c 00100240 		.word	1073876992
 1232              		.section	.text.HAL_RCC_GetClockConfig,"ax",%progbits
 1233              		.align	1
 1234              		.global	HAL_RCC_GetClockConfig
 1235              		.syntax unified
 1236              		.code	16
 1237              		.thumb_func
 1238              		.fpu softvfp
 1240              	HAL_RCC_GetClockConfig:
 1241              		@ args = 0, pretend = 0, frame = 0
 1242              		@ frame_needed = 0, uses_anonymous_args = 0
 1243 0000 0723     		movs	r3, #7
 1244 0002 10B5     		push	{r4, lr}
 1245 0004 0324     		movs	r4, #3
 1246              		@ sp needed
 1247 0006 0360     		str	r3, [r0]
 1248 0008 094B     		ldr	r3, .L205
 1249 000a 5A68     		ldr	r2, [r3, #4]
 1250 000c 2240     		ands	r2, r4
 1251 000e 4260     		str	r2, [r0, #4]
 1252 0010 5A68     		ldr	r2, [r3, #4]
 1253 0012 ED34     		adds	r4, r4, #237
 1254 0014 2240     		ands	r2, r4
 1255 0016 8260     		str	r2, [r0, #8]
 1256 0018 E022     		movs	r2, #224
 1257 001a 5B68     		ldr	r3, [r3, #4]
 1258 001c D200     		lsls	r2, r2, #3
 1259 001e 1340     		ands	r3, r2
 1260 0020 0122     		movs	r2, #1
 1261 0022 C360     		str	r3, [r0, #12]
 1262 0024 034B     		ldr	r3, .L205+4
 1263 0026 1B68     		ldr	r3, [r3]
 1264 0028 1340     		ands	r3, r2
 1265 002a 0B60     		str	r3, [r1]
 1266 002c 10BD     		pop	{r4, pc}
 1267              	.L206:
 1268 002e C046     		.align	2
 1269              	.L205:
ARM GAS  /tmp/ccdEu1UC.s 			page 23


 1270 0030 00100240 		.word	1073876992
 1271 0034 00200240 		.word	1073881088
 1273              		.section	.text.HAL_RCC_CSSCallback,"ax",%progbits
 1274              		.align	1
 1275              		.weak	HAL_RCC_CSSCallback
 1276              		.syntax unified
 1277              		.code	16
 1278              		.thumb_func
 1279              		.fpu softvfp
 1281              	HAL_RCC_CSSCallback:
 1282              		@ args = 0, pretend = 0, frame = 0
 1283              		@ frame_needed = 0, uses_anonymous_args = 0
 1284              		@ link register save eliminated.
 1285              		@ sp needed
 1286 0000 7047     		bx	lr
 1288              		.section	.text.HAL_RCC_NMI_IRQHandler,"ax",%progbits
 1289              		.align	1
 1290              		.global	HAL_RCC_NMI_IRQHandler
 1291              		.syntax unified
 1292              		.code	16
 1293              		.thumb_func
 1294              		.fpu softvfp
 1296              	HAL_RCC_NMI_IRQHandler:
 1297              		@ args = 0, pretend = 0, frame = 0
 1298              		@ frame_needed = 0, uses_anonymous_args = 0
 1299 0000 10B5     		push	{r4, lr}
 1300 0002 8024     		movs	r4, #128
 1301 0004 044B     		ldr	r3, .L213
 1302 0006 9B68     		ldr	r3, [r3, #8]
 1303 0008 2342     		tst	r3, r4
 1304 000a 03D0     		beq	.L208
 1305 000c FFF7FEFF 		bl	HAL_RCC_CSSCallback
 1306 0010 024B     		ldr	r3, .L213+4
 1307 0012 1C70     		strb	r4, [r3]
 1308              	.L208:
 1309              		@ sp needed
 1310 0014 10BD     		pop	{r4, pc}
 1311              	.L214:
 1312 0016 C046     		.align	2
 1313              	.L213:
 1314 0018 00100240 		.word	1073876992
 1315 001c 0A100240 		.word	1073877002
 1317              		.ident	"GCC: (Arch Repository) 10.1.0"
ARM GAS  /tmp/ccdEu1UC.s 			page 24


DEFINED SYMBOLS
                            *ABS*:0000000000000000 stm32f0xx_hal_rcc.c
     /tmp/ccdEu1UC.s:14     .text.HAL_RCC_DeInit:0000000000000000 $t
     /tmp/ccdEu1UC.s:22     .text.HAL_RCC_DeInit:0000000000000000 HAL_RCC_DeInit
     /tmp/ccdEu1UC.s:56     .text.HAL_RCC_DeInit:0000000000000034 $d
     /tmp/ccdEu1UC.s:64     .text.HAL_RCC_OscConfig:0000000000000000 $t
     /tmp/ccdEu1UC.s:71     .text.HAL_RCC_OscConfig:0000000000000000 HAL_RCC_OscConfig
     /tmp/ccdEu1UC.s:520    .text.HAL_RCC_OscConfig:0000000000000320 $d
     /tmp/ccdEu1UC.s:527    .text.HAL_RCC_OscConfig:0000000000000338 $t
     /tmp/ccdEu1UC.s:679    .text.HAL_RCC_OscConfig:0000000000000454 $d
     /tmp/ccdEu1UC.s:685    .text.HAL_RCC_MCOConfig:0000000000000000 $t
     /tmp/ccdEu1UC.s:692    .text.HAL_RCC_MCOConfig:0000000000000000 HAL_RCC_MCOConfig
     /tmp/ccdEu1UC.s:735    .text.HAL_RCC_MCOConfig:000000000000004c $d
     /tmp/ccdEu1UC.s:739    .text.HAL_RCC_EnableCSS:0000000000000000 $t
     /tmp/ccdEu1UC.s:746    .text.HAL_RCC_EnableCSS:0000000000000000 HAL_RCC_EnableCSS
     /tmp/ccdEu1UC.s:761    .text.HAL_RCC_EnableCSS:0000000000000010 $d
     /tmp/ccdEu1UC.s:764    .text.HAL_RCC_DisableCSS:0000000000000000 $t
     /tmp/ccdEu1UC.s:771    .text.HAL_RCC_DisableCSS:0000000000000000 HAL_RCC_DisableCSS
     /tmp/ccdEu1UC.s:785    .text.HAL_RCC_DisableCSS:000000000000000c $d
     /tmp/ccdEu1UC.s:798    .text.HAL_RCC_GetSysClockFreq:0000000000000000 $t
     /tmp/ccdEu1UC.s:805    .text.HAL_RCC_GetSysClockFreq:0000000000000000 HAL_RCC_GetSysClockFreq
     /tmp/ccdEu1UC.s:867    .text.HAL_RCC_GetSysClockFreq:000000000000006c $d
     /tmp/ccdEu1UC.s:875    .text.HAL_RCC_ClockConfig:0000000000000000 $t
     /tmp/ccdEu1UC.s:882    .text.HAL_RCC_ClockConfig:0000000000000000 HAL_RCC_ClockConfig
     /tmp/ccdEu1UC.s:1073   .text.HAL_RCC_ClockConfig:0000000000000148 $d
     /tmp/ccdEu1UC.s:1081   .text.HAL_RCC_GetHCLKFreq:0000000000000000 $t
     /tmp/ccdEu1UC.s:1088   .text.HAL_RCC_GetHCLKFreq:0000000000000000 HAL_RCC_GetHCLKFreq
     /tmp/ccdEu1UC.s:1099   .text.HAL_RCC_GetHCLKFreq:0000000000000008 $d
     /tmp/ccdEu1UC.s:1102   .text.HAL_RCC_GetPCLK1Freq:0000000000000000 $t
     /tmp/ccdEu1UC.s:1109   .text.HAL_RCC_GetPCLK1Freq:0000000000000000 HAL_RCC_GetPCLK1Freq
     /tmp/ccdEu1UC.s:1127   .text.HAL_RCC_GetPCLK1Freq:0000000000000014 $d
     /tmp/ccdEu1UC.s:1132   .text.HAL_RCC_GetOscConfig:0000000000000000 $t
     /tmp/ccdEu1UC.s:1139   .text.HAL_RCC_GetOscConfig:0000000000000000 HAL_RCC_GetOscConfig
     /tmp/ccdEu1UC.s:1230   .text.HAL_RCC_GetOscConfig:000000000000009c $d
     /tmp/ccdEu1UC.s:1233   .text.HAL_RCC_GetClockConfig:0000000000000000 $t
     /tmp/ccdEu1UC.s:1240   .text.HAL_RCC_GetClockConfig:0000000000000000 HAL_RCC_GetClockConfig
     /tmp/ccdEu1UC.s:1270   .text.HAL_RCC_GetClockConfig:0000000000000030 $d
     /tmp/ccdEu1UC.s:1274   .text.HAL_RCC_CSSCallback:0000000000000000 $t
     /tmp/ccdEu1UC.s:1281   .text.HAL_RCC_CSSCallback:0000000000000000 HAL_RCC_CSSCallback
     /tmp/ccdEu1UC.s:1289   .text.HAL_RCC_NMI_IRQHandler:0000000000000000 $t
     /tmp/ccdEu1UC.s:1296   .text.HAL_RCC_NMI_IRQHandler:0000000000000000 HAL_RCC_NMI_IRQHandler
     /tmp/ccdEu1UC.s:1314   .text.HAL_RCC_NMI_IRQHandler:0000000000000018 $d

UNDEFINED SYMBOLS
SystemCoreClock
HAL_GetTick
HAL_GPIO_Init
__aeabi_uidiv
__aeabi_idiv
memcpy
HAL_InitTick
AHBPrescTable
APBPrescTable
