ARM GAS  /tmp/ccT9Bo1z.s 			page 1


   1              		.cpu cortex-m0
   2              		.eabi_attribute 20, 1
   3              		.eabi_attribute 21, 1
   4              		.eabi_attribute 23, 3
   5              		.eabi_attribute 24, 1
   6              		.eabi_attribute 25, 1
   7              		.eabi_attribute 26, 1
   8              		.eabi_attribute 30, 4
   9              		.eabi_attribute 34, 0
  10              		.eabi_attribute 18, 4
  11              		.file	"stm32f0xx_hal_adc.c"
  12              		.text
  13              		.section	.text.ADC_Disable,"ax",%progbits
  14              		.align	1
  15              		.arch armv6s-m
  16              		.syntax unified
  17              		.code	16
  18              		.thumb_func
  19              		.fpu softvfp
  21              	ADC_Disable:
  22              		@ args = 0, pretend = 0, frame = 0
  23              		@ frame_needed = 0, uses_anonymous_args = 0
  24 0000 0321     		movs	r1, #3
  25 0002 0368     		ldr	r3, [r0]
  26 0004 70B5     		push	{r4, r5, r6, lr}
  27 0006 9A68     		ldr	r2, [r3, #8]
  28 0008 0400     		movs	r4, r0
  29 000a 0A40     		ands	r2, r1
  30 000c 012A     		cmp	r2, #1
  31 000e 01D0     		beq	.L2
  32              	.L5:
  33 0010 0020     		movs	r0, #0
  34              	.L3:
  35              		@ sp needed
  36 0012 70BD     		pop	{r4, r5, r6, pc}
  37              	.L2:
  38 0014 1968     		ldr	r1, [r3]
  39 0016 1142     		tst	r1, r2
  40 0018 02D1     		bne	.L4
  41 001a DA68     		ldr	r2, [r3, #12]
  42 001c 1204     		lsls	r2, r2, #16
  43 001e F7D5     		bpl	.L5
  44              	.L4:
  45 0020 0522     		movs	r2, #5
  46 0022 9D68     		ldr	r5, [r3, #8]
  47 0024 1540     		ands	r5, r2
  48 0026 012D     		cmp	r5, #1
  49 0028 1AD1     		bne	.L6
  50 002a 9968     		ldr	r1, [r3, #8]
  51 002c 033A     		subs	r2, r2, #3
  52 002e 0A43     		orrs	r2, r1
  53 0030 9A60     		str	r2, [r3, #8]
  54 0032 0322     		movs	r2, #3
  55 0034 1A60     		str	r2, [r3]
  56 0036 FFF7FEFF 		bl	HAL_GetTick
  57 003a 0600     		movs	r6, r0
  58              	.L7:
ARM GAS  /tmp/ccT9Bo1z.s 			page 2


  59 003c 2368     		ldr	r3, [r4]
  60 003e 9B68     		ldr	r3, [r3, #8]
  61 0040 2B42     		tst	r3, r5
  62 0042 E5D0     		beq	.L5
  63 0044 FFF7FEFF 		bl	HAL_GetTick
  64 0048 801B     		subs	r0, r0, r6
  65 004a 0228     		cmp	r0, #2
  66 004c F6D9     		bls	.L7
  67 004e 1023     		movs	r3, #16
  68 0050 626C     		ldr	r2, [r4, #68]
  69 0052 0120     		movs	r0, #1
  70 0054 1343     		orrs	r3, r2
  71 0056 6364     		str	r3, [r4, #68]
  72 0058 A36C     		ldr	r3, [r4, #72]
  73 005a 1D43     		orrs	r5, r3
  74 005c A564     		str	r5, [r4, #72]
  75 005e D8E7     		b	.L3
  76              	.L6:
  77 0060 1023     		movs	r3, #16
  78 0062 0120     		movs	r0, #1
  79 0064 626C     		ldr	r2, [r4, #68]
  80 0066 1343     		orrs	r3, r2
  81 0068 6364     		str	r3, [r4, #68]
  82 006a A36C     		ldr	r3, [r4, #72]
  83 006c 0343     		orrs	r3, r0
  84 006e A364     		str	r3, [r4, #72]
  85 0070 CFE7     		b	.L3
  87              		.global	__aeabi_uidiv
  88              		.section	.text.ADC_Enable,"ax",%progbits
  89              		.align	1
  90              		.syntax unified
  91              		.code	16
  92              		.thumb_func
  93              		.fpu softvfp
  95              	ADC_Enable:
  96              		@ args = 0, pretend = 0, frame = 8
  97              		@ frame_needed = 0, uses_anonymous_args = 0
  98 0000 0023     		movs	r3, #0
  99 0002 73B5     		push	{r0, r1, r4, r5, r6, lr}
 100 0004 0321     		movs	r1, #3
 101 0006 0193     		str	r3, [sp, #4]
 102 0008 0368     		ldr	r3, [r0]
 103 000a 0400     		movs	r4, r0
 104 000c 9A68     		ldr	r2, [r3, #8]
 105 000e 0A40     		ands	r2, r1
 106 0010 012A     		cmp	r2, #1
 107 0012 07D1     		bne	.L14
 108 0014 1968     		ldr	r1, [r3]
 109 0016 1142     		tst	r1, r2
 110 0018 01D0     		beq	.L15
 111              	.L17:
 112 001a 0020     		movs	r0, #0
 113              	.L16:
 114              		@ sp needed
 115 001c 76BD     		pop	{r1, r2, r4, r5, r6, pc}
 116              	.L15:
 117 001e DA68     		ldr	r2, [r3, #12]
ARM GAS  /tmp/ccT9Bo1z.s 			page 3


 118 0020 1204     		lsls	r2, r2, #16
 119 0022 FAD4     		bmi	.L17
 120              	.L14:
 121 0024 9968     		ldr	r1, [r3, #8]
 122 0026 194A     		ldr	r2, .L24
 123 0028 1142     		tst	r1, r2
 124 002a 08D0     		beq	.L18
 125 002c 1023     		movs	r3, #16
 126 002e 0120     		movs	r0, #1
 127 0030 626C     		ldr	r2, [r4, #68]
 128 0032 1343     		orrs	r3, r2
 129 0034 6364     		str	r3, [r4, #68]
 130 0036 A36C     		ldr	r3, [r4, #72]
 131 0038 0343     		orrs	r3, r0
 132 003a A364     		str	r3, [r4, #72]
 133 003c EEE7     		b	.L16
 134              	.L18:
 135 003e 0122     		movs	r2, #1
 136 0040 9968     		ldr	r1, [r3, #8]
 137 0042 0A43     		orrs	r2, r1
 138 0044 9A60     		str	r2, [r3, #8]
 139 0046 124B     		ldr	r3, .L24+4
 140 0048 1249     		ldr	r1, .L24+8
 141 004a 1868     		ldr	r0, [r3]
 142 004c FFF7FEFF 		bl	__aeabi_uidiv
 143 0050 0190     		str	r0, [sp, #4]
 144              	.L19:
 145 0052 019B     		ldr	r3, [sp, #4]
 146 0054 002B     		cmp	r3, #0
 147 0056 15D1     		bne	.L20
 148 0058 FFF7FEFF 		bl	HAL_GetTick
 149 005c 0126     		movs	r6, #1
 150 005e 0500     		movs	r5, r0
 151              	.L21:
 152 0060 2368     		ldr	r3, [r4]
 153 0062 1B68     		ldr	r3, [r3]
 154 0064 3342     		tst	r3, r6
 155 0066 D8D1     		bne	.L17
 156 0068 FFF7FEFF 		bl	HAL_GetTick
 157 006c 401B     		subs	r0, r0, r5
 158 006e 0228     		cmp	r0, #2
 159 0070 F6D9     		bls	.L21
 160 0072 1023     		movs	r3, #16
 161 0074 626C     		ldr	r2, [r4, #68]
 162 0076 0120     		movs	r0, #1
 163 0078 1343     		orrs	r3, r2
 164 007a 6364     		str	r3, [r4, #68]
 165 007c A36C     		ldr	r3, [r4, #72]
 166 007e 3343     		orrs	r3, r6
 167 0080 A364     		str	r3, [r4, #72]
 168 0082 CBE7     		b	.L16
 169              	.L20:
 170 0084 019B     		ldr	r3, [sp, #4]
 171 0086 013B     		subs	r3, r3, #1
 172 0088 0193     		str	r3, [sp, #4]
 173 008a E2E7     		b	.L19
 174              	.L25:
ARM GAS  /tmp/ccT9Bo1z.s 			page 4


 175              		.align	2
 176              	.L24:
 177 008c 17000080 		.word	-2147483625
 178 0090 00000000 		.word	SystemCoreClock
 179 0094 40420F00 		.word	1000000
 181              		.section	.text.ADC_ConversionStop,"ax",%progbits
 182              		.align	1
 183              		.syntax unified
 184              		.code	16
 185              		.thumb_func
 186              		.fpu softvfp
 188              	ADC_ConversionStop:
 189              		@ args = 0, pretend = 0, frame = 0
 190              		@ frame_needed = 0, uses_anonymous_args = 0
 191 0000 0422     		movs	r2, #4
 192 0002 0368     		ldr	r3, [r0]
 193 0004 70B5     		push	{r4, r5, r6, lr}
 194 0006 9968     		ldr	r1, [r3, #8]
 195 0008 0400     		movs	r4, r0
 196 000a 1142     		tst	r1, r2
 197 000c 01D1     		bne	.L27
 198              	.L32:
 199 000e 0020     		movs	r0, #0
 200              	.L28:
 201              		@ sp needed
 202 0010 70BD     		pop	{r4, r5, r6, pc}
 203              	.L27:
 204 0012 9968     		ldr	r1, [r3, #8]
 205 0014 1142     		tst	r1, r2
 206 0016 06D0     		beq	.L29
 207 0018 9A68     		ldr	r2, [r3, #8]
 208 001a 9207     		lsls	r2, r2, #30
 209 001c 03D4     		bmi	.L29
 210 001e 1022     		movs	r2, #16
 211 0020 9968     		ldr	r1, [r3, #8]
 212 0022 0A43     		orrs	r2, r1
 213 0024 9A60     		str	r2, [r3, #8]
 214              	.L29:
 215 0026 FFF7FEFF 		bl	HAL_GetTick
 216 002a 0426     		movs	r6, #4
 217 002c 0500     		movs	r5, r0
 218              	.L30:
 219 002e 2368     		ldr	r3, [r4]
 220 0030 9B68     		ldr	r3, [r3, #8]
 221 0032 3342     		tst	r3, r6
 222 0034 EBD0     		beq	.L32
 223 0036 FFF7FEFF 		bl	HAL_GetTick
 224 003a 401B     		subs	r0, r0, r5
 225 003c 0228     		cmp	r0, #2
 226 003e F6D9     		bls	.L30
 227 0040 1023     		movs	r3, #16
 228 0042 0120     		movs	r0, #1
 229 0044 626C     		ldr	r2, [r4, #68]
 230 0046 1343     		orrs	r3, r2
 231 0048 6364     		str	r3, [r4, #68]
 232 004a A36C     		ldr	r3, [r4, #72]
 233 004c 0343     		orrs	r3, r0
ARM GAS  /tmp/ccT9Bo1z.s 			page 5


 234 004e A364     		str	r3, [r4, #72]
 235 0050 DEE7     		b	.L28
 237              		.section	.text.HAL_ADC_MspInit,"ax",%progbits
 238              		.align	1
 239              		.weak	HAL_ADC_MspInit
 240              		.syntax unified
 241              		.code	16
 242              		.thumb_func
 243              		.fpu softvfp
 245              	HAL_ADC_MspInit:
 246              		@ args = 0, pretend = 0, frame = 0
 247              		@ frame_needed = 0, uses_anonymous_args = 0
 248              		@ link register save eliminated.
 249              		@ sp needed
 250 0000 7047     		bx	lr
 252              		.section	.text.HAL_ADC_Init,"ax",%progbits
 253              		.align	1
 254              		.global	HAL_ADC_Init
 255              		.syntax unified
 256              		.code	16
 257              		.thumb_func
 258              		.fpu softvfp
 260              	HAL_ADC_Init:
 261              		@ args = 0, pretend = 0, frame = 0
 262              		@ frame_needed = 0, uses_anonymous_args = 0
 263 0000 F8B5     		push	{r3, r4, r5, r6, r7, lr}
 264 0002 0400     		movs	r4, r0
 265 0004 0120     		movs	r0, #1
 266 0006 002C     		cmp	r4, #0
 267 0008 7FD0     		beq	.L39
 268 000a 636C     		ldr	r3, [r4, #68]
 269 000c 002B     		cmp	r3, #0
 270 000e 06D1     		bne	.L40
 271 0010 2200     		movs	r2, r4
 272 0012 4032     		adds	r2, r2, #64
 273 0014 A364     		str	r3, [r4, #72]
 274 0016 2000     		movs	r0, r4
 275 0018 1370     		strb	r3, [r2]
 276 001a FFF7FEFF 		bl	HAL_ADC_MspInit
 277              	.L40:
 278 001e 636C     		ldr	r3, [r4, #68]
 279 0020 DB06     		lsls	r3, r3, #27
 280 0022 00D5     		bpl	.LCB295
 281 0024 86E0     		b	.L41	@long jump
 282              	.LCB295:
 283 0026 2368     		ldr	r3, [r4]
 284 0028 0422     		movs	r2, #4
 285 002a 9968     		ldr	r1, [r3, #8]
 286 002c 0800     		movs	r0, r1
 287 002e 1040     		ands	r0, r2
 288 0030 1142     		tst	r1, r2
 289 0032 00D0     		beq	.LCB302
 290 0034 7EE0     		b	.L41	@long jump
 291              	.LCB302:
 292 0036 626C     		ldr	r2, [r4, #68]
 293 0038 4149     		ldr	r1, .L55
 294 003a 1140     		ands	r1, r2
ARM GAS  /tmp/ccT9Bo1z.s 			page 6


 295 003c 0222     		movs	r2, #2
 296 003e 0A43     		orrs	r2, r1
 297 0040 0321     		movs	r1, #3
 298 0042 6264     		str	r2, [r4, #68]
 299 0044 9A68     		ldr	r2, [r3, #8]
 300 0046 0A40     		ands	r2, r1
 301 0048 012A     		cmp	r2, #1
 302 004a 05D1     		bne	.L42
 303 004c 1968     		ldr	r1, [r3]
 304 004e 1142     		tst	r1, r2
 305 0050 0ED1     		bne	.L43
 306 0052 DA68     		ldr	r2, [r3, #12]
 307 0054 1204     		lsls	r2, r2, #16
 308 0056 0BD4     		bmi	.L43
 309              	.L42:
 310 0058 1821     		movs	r1, #24
 311 005a DA68     		ldr	r2, [r3, #12]
 312 005c 8A43     		bics	r2, r1
 313 005e A168     		ldr	r1, [r4, #8]
 314 0060 0A43     		orrs	r2, r1
 315 0062 DA60     		str	r2, [r3, #12]
 316 0064 1969     		ldr	r1, [r3, #16]
 317 0066 6268     		ldr	r2, [r4, #4]
 318 0068 8900     		lsls	r1, r1, #2
 319 006a 8908     		lsrs	r1, r1, #2
 320 006c 1143     		orrs	r1, r2
 321 006e 1961     		str	r1, [r3, #16]
 322              	.L43:
 323 0070 DA68     		ldr	r2, [r3, #12]
 324 0072 3449     		ldr	r1, .L55+4
 325 0074 256A     		ldr	r5, [r4, #32]
 326 0076 0A40     		ands	r2, r1
 327 0078 DA60     		str	r2, [r3, #12]
 328 007a A269     		ldr	r2, [r4, #24]
 329 007c 6F03     		lsls	r7, r5, #13
 330 007e 9103     		lsls	r1, r2, #14
 331 0080 E269     		ldr	r2, [r4, #28]
 332 0082 D203     		lsls	r2, r2, #15
 333 0084 1143     		orrs	r1, r2
 334 0086 626B     		ldr	r2, [r4, #52]
 335 0088 561E     		subs	r6, r2, #1
 336 008a 721E     		subs	r2, r6, #1
 337 008c 9641     		sbcs	r6, r6, r2
 338 008e E268     		ldr	r2, [r4, #12]
 339 0090 3603     		lsls	r6, r6, #12
 340 0092 1143     		orrs	r1, r2
 341 0094 2269     		ldr	r2, [r4, #16]
 342 0096 0F43     		orrs	r7, r1
 343 0098 022A     		cmp	r2, #2
 344 009a 00D1     		bne	.L45
 345 009c 0420     		movs	r0, #4
 346              	.L45:
 347 009e 226B     		ldr	r2, [r4, #48]
 348 00a0 616A     		ldr	r1, [r4, #36]
 349 00a2 5200     		lsls	r2, r2, #1
 350 00a4 3A43     		orrs	r2, r7
 351 00a6 3243     		orrs	r2, r6
ARM GAS  /tmp/ccT9Bo1z.s 			page 7


 352 00a8 0243     		orrs	r2, r0
 353 00aa 0129     		cmp	r1, #1
 354 00ac 04D1     		bne	.L46
 355 00ae 002D     		cmp	r5, #0
 356 00b0 2CD1     		bne	.L47
 357 00b2 8021     		movs	r1, #128
 358 00b4 4902     		lsls	r1, r1, #9
 359 00b6 0A43     		orrs	r2, r1
 360              	.L46:
 361 00b8 C220     		movs	r0, #194
 362 00ba A16A     		ldr	r1, [r4, #40]
 363 00bc FF30     		adds	r0, r0, #255
 364 00be 8142     		cmp	r1, r0
 365 00c0 02D0     		beq	.L48
 366 00c2 E06A     		ldr	r0, [r4, #44]
 367 00c4 0143     		orrs	r1, r0
 368 00c6 0A43     		orrs	r2, r1
 369              	.L48:
 370 00c8 8020     		movs	r0, #128
 371 00ca D968     		ldr	r1, [r3, #12]
 372 00cc 4005     		lsls	r0, r0, #21
 373 00ce 1143     		orrs	r1, r2
 374 00d0 D960     		str	r1, [r3, #12]
 375 00d2 A16B     		ldr	r1, [r4, #56]
 376 00d4 8142     		cmp	r1, r0
 377 00d6 02D0     		beq	.L49
 378 00d8 481E     		subs	r0, r1, #1
 379 00da 0628     		cmp	r0, #6
 380 00dc 07D8     		bhi	.L50
 381              	.L49:
 382 00de 0725     		movs	r5, #7
 383 00e0 5869     		ldr	r0, [r3, #20]
 384 00e2 2940     		ands	r1, r5
 385 00e4 A843     		bics	r0, r5
 386 00e6 5861     		str	r0, [r3, #20]
 387 00e8 5869     		ldr	r0, [r3, #20]
 388 00ea 0143     		orrs	r1, r0
 389 00ec 5961     		str	r1, [r3, #20]
 390              	.L50:
 391 00ee DB68     		ldr	r3, [r3, #12]
 392 00f0 1549     		ldr	r1, .L55+8
 393 00f2 0B40     		ands	r3, r1
 394 00f4 9342     		cmp	r3, r2
 395 00f6 11D1     		bne	.L51
 396 00f8 0020     		movs	r0, #0
 397 00fa 0322     		movs	r2, #3
 398 00fc A064     		str	r0, [r4, #72]
 399 00fe 636C     		ldr	r3, [r4, #68]
 400 0100 9343     		bics	r3, r2
 401 0102 1A00     		movs	r2, r3
 402 0104 0123     		movs	r3, #1
 403 0106 1343     		orrs	r3, r2
 404 0108 6364     		str	r3, [r4, #68]
 405              	.L39:
 406              		@ sp needed
 407 010a F8BD     		pop	{r3, r4, r5, r6, r7, pc}
 408              	.L47:
ARM GAS  /tmp/ccT9Bo1z.s 			page 8


 409 010c 2020     		movs	r0, #32
 410 010e 656C     		ldr	r5, [r4, #68]
 411 0110 2843     		orrs	r0, r5
 412 0112 6064     		str	r0, [r4, #68]
 413 0114 A06C     		ldr	r0, [r4, #72]
 414 0116 0143     		orrs	r1, r0
 415 0118 A164     		str	r1, [r4, #72]
 416 011a CDE7     		b	.L46
 417              	.L51:
 418 011c 1222     		movs	r2, #18
 419 011e 636C     		ldr	r3, [r4, #68]
 420 0120 0120     		movs	r0, #1
 421 0122 9343     		bics	r3, r2
 422 0124 1A00     		movs	r2, r3
 423 0126 1023     		movs	r3, #16
 424 0128 1343     		orrs	r3, r2
 425 012a 6364     		str	r3, [r4, #68]
 426 012c A36C     		ldr	r3, [r4, #72]
 427 012e 0343     		orrs	r3, r0
 428 0130 A364     		str	r3, [r4, #72]
 429 0132 EAE7     		b	.L39
 430              	.L41:
 431 0134 1023     		movs	r3, #16
 432 0136 626C     		ldr	r2, [r4, #68]
 433 0138 0120     		movs	r0, #1
 434 013a 1343     		orrs	r3, r2
 435 013c 6364     		str	r3, [r4, #68]
 436 013e E4E7     		b	.L39
 437              	.L56:
 438              		.align	2
 439              	.L55:
 440 0140 FDFEFFFF 		.word	-259
 441 0144 1902FEFF 		.word	-130535
 442 0148 E7FF3F83 		.word	-2092957721
 444              		.section	.text.HAL_ADC_MspDeInit,"ax",%progbits
 445              		.align	1
 446              		.weak	HAL_ADC_MspDeInit
 447              		.syntax unified
 448              		.code	16
 449              		.thumb_func
 450              		.fpu softvfp
 452              	HAL_ADC_MspDeInit:
 453              		@ args = 0, pretend = 0, frame = 0
 454              		@ frame_needed = 0, uses_anonymous_args = 0
 455              		@ link register save eliminated.
 456              		@ sp needed
 457 0000 7047     		bx	lr
 459              		.section	.text.HAL_ADC_DeInit,"ax",%progbits
 460              		.align	1
 461              		.global	HAL_ADC_DeInit
 462              		.syntax unified
 463              		.code	16
 464              		.thumb_func
 465              		.fpu softvfp
 467              	HAL_ADC_DeInit:
 468              		@ args = 0, pretend = 0, frame = 0
 469              		@ frame_needed = 0, uses_anonymous_args = 0
ARM GAS  /tmp/ccT9Bo1z.s 			page 9


 470 0000 70B5     		push	{r4, r5, r6, lr}
 471 0002 0400     		movs	r4, r0
 472 0004 0125     		movs	r5, #1
 473 0006 0028     		cmp	r0, #0
 474 0008 11D0     		beq	.L59
 475 000a 0223     		movs	r3, #2
 476 000c 426C     		ldr	r2, [r0, #68]
 477 000e 1343     		orrs	r3, r2
 478 0010 4364     		str	r3, [r0, #68]
 479 0012 FFF7FEFF 		bl	ADC_ConversionStop
 480 0016 051E     		subs	r5, r0, #0
 481 0018 33D1     		bne	.L60
 482 001a 2000     		movs	r0, r4
 483 001c FFF7FEFF 		bl	ADC_Disable
 484 0020 0500     		movs	r5, r0
 485 0022 0128     		cmp	r0, #1
 486 0024 05D1     		bne	.L61
 487              	.L64:
 488 0026 0125     		movs	r5, #1
 489              	.L62:
 490 0028 0023     		movs	r3, #0
 491 002a 4034     		adds	r4, r4, #64
 492 002c 2370     		strb	r3, [r4]
 493              	.L59:
 494 002e 2800     		movs	r0, r5
 495              		@ sp needed
 496 0030 70BD     		pop	{r4, r5, r6, pc}
 497              	.L61:
 498 0032 0123     		movs	r3, #1
 499 0034 6364     		str	r3, [r4, #68]
 500              	.L63:
 501 0036 9F21     		movs	r1, #159
 502 0038 2368     		ldr	r3, [r4]
 503 003a 2000     		movs	r0, r4
 504 003c 5A68     		ldr	r2, [r3, #4]
 505 003e 8A43     		bics	r2, r1
 506 0040 5A60     		str	r2, [r3, #4]
 507 0042 1960     		str	r1, [r3]
 508 0044 DA68     		ldr	r2, [r3, #12]
 509 0046 1049     		ldr	r1, .L69
 510 0048 0A40     		ands	r2, r1
 511 004a 0721     		movs	r1, #7
 512 004c DA60     		str	r2, [r3, #12]
 513 004e 1A69     		ldr	r2, [r3, #16]
 514 0050 9200     		lsls	r2, r2, #2
 515 0052 9208     		lsrs	r2, r2, #2
 516 0054 1A61     		str	r2, [r3, #16]
 517 0056 5A69     		ldr	r2, [r3, #20]
 518 0058 8A43     		bics	r2, r1
 519 005a 5A61     		str	r2, [r3, #20]
 520 005c 1A6A     		ldr	r2, [r3, #32]
 521 005e 0B49     		ldr	r1, .L69+4
 522 0060 0A40     		ands	r2, r1
 523 0062 1A62     		str	r2, [r3, #32]
 524 0064 9A6A     		ldr	r2, [r3, #40]
 525 0066 0A49     		ldr	r1, .L69+8
 526 0068 D20C     		lsrs	r2, r2, #19
ARM GAS  /tmp/ccT9Bo1z.s 			page 10


 527 006a D204     		lsls	r2, r2, #19
 528 006c 9A62     		str	r2, [r3, #40]
 529 006e 094A     		ldr	r2, .L69+12
 530 0070 1368     		ldr	r3, [r2]
 531 0072 0B40     		ands	r3, r1
 532 0074 1360     		str	r3, [r2]
 533 0076 FFF7FEFF 		bl	HAL_ADC_MspDeInit
 534 007a 0023     		movs	r3, #0
 535 007c A364     		str	r3, [r4, #72]
 536 007e 6364     		str	r3, [r4, #68]
 537 0080 D2E7     		b	.L62
 538              	.L60:
 539 0082 0128     		cmp	r0, #1
 540 0084 CFD0     		beq	.L64
 541 0086 D6E7     		b	.L63
 542              	.L70:
 543              		.align	2
 544              	.L69:
 545 0088 00023E83 		.word	-2093088256
 546 008c 00F000F0 		.word	-268374016
 547 0090 FFFF3FFE 		.word	-29360129
 548 0094 08270140 		.word	1073817352
 550              		.section	.text.HAL_ADC_Start,"ax",%progbits
 551              		.align	1
 552              		.global	HAL_ADC_Start
 553              		.syntax unified
 554              		.code	16
 555              		.thumb_func
 556              		.fpu softvfp
 558              	HAL_ADC_Start:
 559              		@ args = 0, pretend = 0, frame = 0
 560              		@ frame_needed = 0, uses_anonymous_args = 0
 561 0000 0368     		ldr	r3, [r0]
 562 0002 70B5     		push	{r4, r5, r6, lr}
 563 0004 9B68     		ldr	r3, [r3, #8]
 564 0006 0400     		movs	r4, r0
 565 0008 0220     		movs	r0, #2
 566 000a 5B07     		lsls	r3, r3, #29
 567 000c 1AD4     		bmi	.L72
 568 000e 2500     		movs	r5, r4
 569 0010 4035     		adds	r5, r5, #64
 570 0012 2B78     		ldrb	r3, [r5]
 571 0014 012B     		cmp	r3, #1
 572 0016 15D0     		beq	.L72
 573 0018 0123     		movs	r3, #1
 574 001a 2B70     		strb	r3, [r5]
 575 001c E369     		ldr	r3, [r4, #28]
 576 001e 012B     		cmp	r3, #1
 577 0020 11D1     		bne	.L73
 578              	.L74:
 579 0022 636C     		ldr	r3, [r4, #68]
 580 0024 0B4A     		ldr	r2, .L80
 581 0026 0020     		movs	r0, #0
 582 0028 1A40     		ands	r2, r3
 583 002a 8023     		movs	r3, #128
 584 002c 5B00     		lsls	r3, r3, #1
 585 002e 1343     		orrs	r3, r2
ARM GAS  /tmp/ccT9Bo1z.s 			page 11


 586 0030 1C22     		movs	r2, #28
 587 0032 6364     		str	r3, [r4, #68]
 588 0034 A064     		str	r0, [r4, #72]
 589 0036 2870     		strb	r0, [r5]
 590 0038 2368     		ldr	r3, [r4]
 591 003a 1A60     		str	r2, [r3]
 592 003c 9968     		ldr	r1, [r3, #8]
 593 003e 183A     		subs	r2, r2, #24
 594 0040 0A43     		orrs	r2, r1
 595 0042 9A60     		str	r2, [r3, #8]
 596              	.L72:
 597              		@ sp needed
 598 0044 70BD     		pop	{r4, r5, r6, pc}
 599              	.L73:
 600 0046 2000     		movs	r0, r4
 601 0048 FFF7FEFF 		bl	ADC_Enable
 602 004c 0028     		cmp	r0, #0
 603 004e E8D0     		beq	.L74
 604 0050 F8E7     		b	.L72
 605              	.L81:
 606 0052 C046     		.align	2
 607              	.L80:
 608 0054 FEF0FFFF 		.word	-3842
 610              		.section	.text.HAL_ADC_Stop,"ax",%progbits
 611              		.align	1
 612              		.global	HAL_ADC_Stop
 613              		.syntax unified
 614              		.code	16
 615              		.thumb_func
 616              		.fpu softvfp
 618              	HAL_ADC_Stop:
 619              		@ args = 0, pretend = 0, frame = 0
 620              		@ frame_needed = 0, uses_anonymous_args = 0
 621 0000 70B5     		push	{r4, r5, r6, lr}
 622 0002 0600     		movs	r6, r0
 623 0004 4036     		adds	r6, r6, #64
 624 0006 3378     		ldrb	r3, [r6]
 625 0008 0400     		movs	r4, r0
 626 000a 0220     		movs	r0, #2
 627 000c 012B     		cmp	r3, #1
 628 000e 12D0     		beq	.L83
 629 0010 0125     		movs	r5, #1
 630 0012 2000     		movs	r0, r4
 631 0014 3570     		strb	r5, [r6]
 632 0016 FFF7FEFF 		bl	ADC_ConversionStop
 633 001a 0028     		cmp	r0, #0
 634 001c 09D1     		bne	.L84
 635 001e 2000     		movs	r0, r4
 636 0020 FFF7FEFF 		bl	ADC_Disable
 637 0024 0028     		cmp	r0, #0
 638 0026 04D1     		bne	.L84
 639 0028 636C     		ldr	r3, [r4, #68]
 640 002a 034A     		ldr	r2, .L86
 641 002c 1340     		ands	r3, r2
 642 002e 1D43     		orrs	r5, r3
 643 0030 6564     		str	r5, [r4, #68]
 644              	.L84:
ARM GAS  /tmp/ccT9Bo1z.s 			page 12


 645 0032 0023     		movs	r3, #0
 646 0034 3370     		strb	r3, [r6]
 647              	.L83:
 648              		@ sp needed
 649 0036 70BD     		pop	{r4, r5, r6, pc}
 650              	.L87:
 651              		.align	2
 652              	.L86:
 653 0038 FEFEFFFF 		.word	-258
 655              		.section	.text.HAL_ADC_PollForConversion,"ax",%progbits
 656              		.align	1
 657              		.global	HAL_ADC_PollForConversion
 658              		.syntax unified
 659              		.code	16
 660              		.thumb_func
 661              		.fpu softvfp
 663              	HAL_ADC_PollForConversion:
 664              		@ args = 0, pretend = 0, frame = 0
 665              		@ frame_needed = 0, uses_anonymous_args = 0
 666 0000 F8B5     		push	{r3, r4, r5, r6, r7, lr}
 667 0002 4669     		ldr	r6, [r0, #20]
 668 0004 0400     		movs	r4, r0
 669 0006 0D00     		movs	r5, r1
 670 0008 082E     		cmp	r6, #8
 671 000a 0DD0     		beq	.L89
 672 000c 0368     		ldr	r3, [r0]
 673 000e 0120     		movs	r0, #1
 674 0010 DB68     		ldr	r3, [r3, #12]
 675 0012 0C26     		movs	r6, #12
 676 0014 0342     		tst	r3, r0
 677 0016 07D0     		beq	.L89
 678 0018 2023     		movs	r3, #32
 679 001a 626C     		ldr	r2, [r4, #68]
 680 001c 4034     		adds	r4, r4, #64
 681 001e 1343     		orrs	r3, r2
 682 0020 6360     		str	r3, [r4, #4]
 683 0022 0023     		movs	r3, #0
 684 0024 2370     		strb	r3, [r4]
 685              	.L90:
 686              		@ sp needed
 687 0026 F8BD     		pop	{r3, r4, r5, r6, r7, pc}
 688              	.L89:
 689 0028 FFF7FEFF 		bl	HAL_GetTick
 690 002c 0700     		movs	r7, r0
 691              	.L91:
 692 002e 2368     		ldr	r3, [r4]
 693              	.L92:
 694 0030 1A68     		ldr	r2, [r3]
 695 0032 1642     		tst	r6, r2
 696 0034 23D0     		beq	.L95
 697 0036 8022     		movs	r2, #128
 698 0038 616C     		ldr	r1, [r4, #68]
 699 003a 9200     		lsls	r2, r2, #2
 700 003c 0A43     		orrs	r2, r1
 701 003e 6264     		str	r2, [r4, #68]
 702 0040 C022     		movs	r2, #192
 703 0042 D968     		ldr	r1, [r3, #12]
ARM GAS  /tmp/ccT9Bo1z.s 			page 13


 704 0044 1201     		lsls	r2, r2, #4
 705 0046 1142     		tst	r1, r2
 706 0048 12D1     		bne	.L96
 707 004a 226A     		ldr	r2, [r4, #32]
 708 004c 002A     		cmp	r2, #0
 709 004e 0FD1     		bne	.L96
 710 0050 1A68     		ldr	r2, [r3]
 711 0052 1207     		lsls	r2, r2, #28
 712 0054 0CD5     		bpl	.L96
 713 0056 9A68     		ldr	r2, [r3, #8]
 714 0058 5207     		lsls	r2, r2, #29
 715 005a 23D4     		bmi	.L97
 716 005c 0C21     		movs	r1, #12
 717 005e 5A68     		ldr	r2, [r3, #4]
 718 0060 8A43     		bics	r2, r1
 719 0062 5A60     		str	r2, [r3, #4]
 720 0064 626C     		ldr	r2, [r4, #68]
 721 0066 1449     		ldr	r1, .L109
 722 0068 1140     		ands	r1, r2
 723 006a 0122     		movs	r2, #1
 724 006c 0A43     		orrs	r2, r1
 725 006e 6264     		str	r2, [r4, #68]
 726              	.L96:
 727 0070 0020     		movs	r0, #0
 728 0072 A269     		ldr	r2, [r4, #24]
 729 0074 8242     		cmp	r2, r0
 730 0076 D6D1     		bne	.L90
 731 0078 0C22     		movs	r2, #12
 732 007a 1A60     		str	r2, [r3]
 733 007c D3E7     		b	.L90
 734              	.L95:
 735 007e 6A1C     		adds	r2, r5, #1
 736 0080 D6D0     		beq	.L92
 737 0082 002D     		cmp	r5, #0
 738 0084 08D1     		bne	.L93
 739              	.L94:
 740 0086 0423     		movs	r3, #4
 741 0088 626C     		ldr	r2, [r4, #68]
 742 008a 4034     		adds	r4, r4, #64
 743 008c 1343     		orrs	r3, r2
 744 008e 6360     		str	r3, [r4, #4]
 745 0090 0023     		movs	r3, #0
 746 0092 0320     		movs	r0, #3
 747 0094 2370     		strb	r3, [r4]
 748 0096 C6E7     		b	.L90
 749              	.L93:
 750 0098 FFF7FEFF 		bl	HAL_GetTick
 751 009c C01B     		subs	r0, r0, r7
 752 009e A842     		cmp	r0, r5
 753 00a0 C5D9     		bls	.L91
 754 00a2 F0E7     		b	.L94
 755              	.L97:
 756 00a4 2022     		movs	r2, #32
 757 00a6 616C     		ldr	r1, [r4, #68]
 758 00a8 0A43     		orrs	r2, r1
 759 00aa 6264     		str	r2, [r4, #68]
 760 00ac 0122     		movs	r2, #1
ARM GAS  /tmp/ccT9Bo1z.s 			page 14


 761 00ae A16C     		ldr	r1, [r4, #72]
 762 00b0 0A43     		orrs	r2, r1
 763 00b2 A264     		str	r2, [r4, #72]
 764 00b4 DCE7     		b	.L96
 765              	.L110:
 766 00b6 C046     		.align	2
 767              	.L109:
 768 00b8 FEFEFFFF 		.word	-258
 770              		.section	.text.HAL_ADC_PollForEvent,"ax",%progbits
 771              		.align	1
 772              		.global	HAL_ADC_PollForEvent
 773              		.syntax unified
 774              		.code	16
 775              		.thumb_func
 776              		.fpu softvfp
 778              	HAL_ADC_PollForEvent:
 779              		@ args = 0, pretend = 0, frame = 0
 780              		@ frame_needed = 0, uses_anonymous_args = 0
 781 0000 F8B5     		push	{r3, r4, r5, r6, r7, lr}
 782 0002 0400     		movs	r4, r0
 783 0004 0D00     		movs	r5, r1
 784 0006 1600     		movs	r6, r2
 785 0008 FFF7FEFF 		bl	HAL_GetTick
 786 000c 0700     		movs	r7, r0
 787              	.L112:
 788 000e 2368     		ldr	r3, [r4]
 789              	.L113:
 790 0010 1A68     		ldr	r2, [r3]
 791 0012 2A40     		ands	r2, r5
 792 0014 AA42     		cmp	r2, r5
 793 0016 09D1     		bne	.L117
 794 0018 802D     		cmp	r5, #128
 795 001a 1AD1     		bne	.L118
 796 001c 8022     		movs	r2, #128
 797 001e 616C     		ldr	r1, [r4, #68]
 798 0020 5202     		lsls	r2, r2, #9
 799 0022 0A43     		orrs	r2, r1
 800 0024 6264     		str	r2, [r4, #68]
 801 0026 1D60     		str	r5, [r3]
 802              	.L122:
 803 0028 0020     		movs	r0, #0
 804 002a 0BE0     		b	.L115
 805              	.L117:
 806 002c 721C     		adds	r2, r6, #1
 807 002e EFD0     		beq	.L113
 808 0030 002E     		cmp	r6, #0
 809 0032 08D1     		bne	.L114
 810              	.L116:
 811 0034 0423     		movs	r3, #4
 812 0036 626C     		ldr	r2, [r4, #68]
 813 0038 0320     		movs	r0, #3
 814 003a 1343     		orrs	r3, r2
 815 003c 6364     		str	r3, [r4, #68]
 816 003e 0023     		movs	r3, #0
 817 0040 4034     		adds	r4, r4, #64
 818 0042 2370     		strb	r3, [r4]
 819              	.L115:
ARM GAS  /tmp/ccT9Bo1z.s 			page 15


 820              		@ sp needed
 821 0044 F8BD     		pop	{r3, r4, r5, r6, r7, pc}
 822              	.L114:
 823 0046 FFF7FEFF 		bl	HAL_GetTick
 824 004a C01B     		subs	r0, r0, r7
 825 004c B042     		cmp	r0, r6
 826 004e DED9     		bls	.L112
 827 0050 F0E7     		b	.L116
 828              	.L118:
 829 0052 626B     		ldr	r2, [r4, #52]
 830 0054 012A     		cmp	r2, #1
 831 0056 08D1     		bne	.L119
 832 0058 8022     		movs	r2, #128
 833 005a 616C     		ldr	r1, [r4, #68]
 834 005c D200     		lsls	r2, r2, #3
 835 005e 0A43     		orrs	r2, r1
 836 0060 6264     		str	r2, [r4, #68]
 837 0062 0222     		movs	r2, #2
 838 0064 A16C     		ldr	r1, [r4, #72]
 839 0066 0A43     		orrs	r2, r1
 840 0068 A264     		str	r2, [r4, #72]
 841              	.L119:
 842 006a 1022     		movs	r2, #16
 843 006c 1A60     		str	r2, [r3]
 844 006e DBE7     		b	.L122
 846              		.section	.text.HAL_ADC_Start_IT,"ax",%progbits
 847              		.align	1
 848              		.global	HAL_ADC_Start_IT
 849              		.syntax unified
 850              		.code	16
 851              		.thumb_func
 852              		.fpu softvfp
 854              	HAL_ADC_Start_IT:
 855              		@ args = 0, pretend = 0, frame = 0
 856              		@ frame_needed = 0, uses_anonymous_args = 0
 857 0000 0368     		ldr	r3, [r0]
 858 0002 70B5     		push	{r4, r5, r6, lr}
 859 0004 9B68     		ldr	r3, [r3, #8]
 860 0006 0400     		movs	r4, r0
 861 0008 0220     		movs	r0, #2
 862 000a 5B07     		lsls	r3, r3, #29
 863 000c 2CD4     		bmi	.L124
 864 000e 2500     		movs	r5, r4
 865 0010 4035     		adds	r5, r5, #64
 866 0012 2B78     		ldrb	r3, [r5]
 867 0014 012B     		cmp	r3, #1
 868 0016 27D0     		beq	.L124
 869 0018 0123     		movs	r3, #1
 870 001a 2B70     		strb	r3, [r5]
 871 001c E369     		ldr	r3, [r4, #28]
 872 001e 012B     		cmp	r3, #1
 873 0020 1DD1     		bne	.L125
 874              	.L128:
 875 0022 636C     		ldr	r3, [r4, #68]
 876 0024 124A     		ldr	r2, .L137
 877 0026 1A40     		ands	r2, r3
 878 0028 8023     		movs	r3, #128
ARM GAS  /tmp/ccT9Bo1z.s 			page 16


 879 002a 5B00     		lsls	r3, r3, #1
 880 002c 1343     		orrs	r3, r2
 881 002e 6364     		str	r3, [r4, #68]
 882 0030 0023     		movs	r3, #0
 883 0032 1C22     		movs	r2, #28
 884 0034 A364     		str	r3, [r4, #72]
 885 0036 2B70     		strb	r3, [r5]
 886 0038 2368     		ldr	r3, [r4]
 887 003a 6169     		ldr	r1, [r4, #20]
 888 003c 1A60     		str	r2, [r3]
 889 003e 0829     		cmp	r1, #8
 890 0040 13D1     		bne	.L135
 891 0042 0421     		movs	r1, #4
 892 0044 5A68     		ldr	r2, [r3, #4]
 893 0046 8A43     		bics	r2, r1
 894 0048 5A60     		str	r2, [r3, #4]
 895 004a 1822     		movs	r2, #24
 896 004c 5968     		ldr	r1, [r3, #4]
 897              	.L136:
 898 004e 0A43     		orrs	r2, r1
 899 0050 5A60     		str	r2, [r3, #4]
 900 0052 0422     		movs	r2, #4
 901 0054 9968     		ldr	r1, [r3, #8]
 902 0056 0020     		movs	r0, #0
 903 0058 0A43     		orrs	r2, r1
 904 005a 9A60     		str	r2, [r3, #8]
 905 005c 04E0     		b	.L124
 906              	.L125:
 907 005e 2000     		movs	r0, r4
 908 0060 FFF7FEFF 		bl	ADC_Enable
 909 0064 0028     		cmp	r0, #0
 910 0066 DCD0     		beq	.L128
 911              	.L124:
 912              		@ sp needed
 913 0068 70BD     		pop	{r4, r5, r6, pc}
 914              	.L135:
 915 006a 5968     		ldr	r1, [r3, #4]
 916 006c EFE7     		b	.L136
 917              	.L138:
 918 006e C046     		.align	2
 919              	.L137:
 920 0070 FEF0FFFF 		.word	-3842
 922              		.section	.text.HAL_ADC_Stop_IT,"ax",%progbits
 923              		.align	1
 924              		.global	HAL_ADC_Stop_IT
 925              		.syntax unified
 926              		.code	16
 927              		.thumb_func
 928              		.fpu softvfp
 930              	HAL_ADC_Stop_IT:
 931              		@ args = 0, pretend = 0, frame = 0
 932              		@ frame_needed = 0, uses_anonymous_args = 0
 933 0000 70B5     		push	{r4, r5, r6, lr}
 934 0002 0600     		movs	r6, r0
 935 0004 4036     		adds	r6, r6, #64
 936 0006 3378     		ldrb	r3, [r6]
 937 0008 0400     		movs	r4, r0
ARM GAS  /tmp/ccT9Bo1z.s 			page 17


 938 000a 0220     		movs	r0, #2
 939 000c 012B     		cmp	r3, #1
 940 000e 17D0     		beq	.L140
 941 0010 0125     		movs	r5, #1
 942 0012 2000     		movs	r0, r4
 943 0014 3570     		strb	r5, [r6]
 944 0016 FFF7FEFF 		bl	ADC_ConversionStop
 945 001a 0028     		cmp	r0, #0
 946 001c 0ED1     		bne	.L141
 947 001e 1C21     		movs	r1, #28
 948 0020 2268     		ldr	r2, [r4]
 949 0022 2000     		movs	r0, r4
 950 0024 5368     		ldr	r3, [r2, #4]
 951 0026 8B43     		bics	r3, r1
 952 0028 5360     		str	r3, [r2, #4]
 953 002a FFF7FEFF 		bl	ADC_Disable
 954 002e 0028     		cmp	r0, #0
 955 0030 04D1     		bne	.L141
 956 0032 636C     		ldr	r3, [r4, #68]
 957 0034 034A     		ldr	r2, .L143
 958 0036 1340     		ands	r3, r2
 959 0038 1D43     		orrs	r5, r3
 960 003a 6564     		str	r5, [r4, #68]
 961              	.L141:
 962 003c 0023     		movs	r3, #0
 963 003e 3370     		strb	r3, [r6]
 964              	.L140:
 965              		@ sp needed
 966 0040 70BD     		pop	{r4, r5, r6, pc}
 967              	.L144:
 968 0042 C046     		.align	2
 969              	.L143:
 970 0044 FEFEFFFF 		.word	-258
 972              		.section	.text.HAL_ADC_Start_DMA,"ax",%progbits
 973              		.align	1
 974              		.global	HAL_ADC_Start_DMA
 975              		.syntax unified
 976              		.code	16
 977              		.thumb_func
 978              		.fpu softvfp
 980              	HAL_ADC_Start_DMA:
 981              		@ args = 0, pretend = 0, frame = 8
 982              		@ frame_needed = 0, uses_anonymous_args = 0
 983 0000 F7B5     		push	{r0, r1, r2, r4, r5, r6, r7, lr}
 984 0002 0368     		ldr	r3, [r0]
 985 0004 0400     		movs	r4, r0
 986 0006 9B68     		ldr	r3, [r3, #8]
 987 0008 0E00     		movs	r6, r1
 988 000a 0220     		movs	r0, #2
 989 000c 0192     		str	r2, [sp, #4]
 990 000e 5B07     		lsls	r3, r3, #29
 991 0010 30D4     		bmi	.L146
 992 0012 2700     		movs	r7, r4
 993 0014 4037     		adds	r7, r7, #64
 994 0016 3B78     		ldrb	r3, [r7]
 995 0018 012B     		cmp	r3, #1
 996 001a 2BD0     		beq	.L146
ARM GAS  /tmp/ccT9Bo1z.s 			page 18


 997 001c 0123     		movs	r3, #1
 998 001e 3B70     		strb	r3, [r7]
 999 0020 E369     		ldr	r3, [r4, #28]
 1000 0022 012B     		cmp	r3, #1
 1001 0024 27D1     		bne	.L147
 1002              	.L148:
 1003 0026 636C     		ldr	r3, [r4, #68]
 1004 0028 164A     		ldr	r2, .L154
 1005 002a 0025     		movs	r5, #0
 1006 002c 1A40     		ands	r2, r3
 1007 002e 8023     		movs	r3, #128
 1008 0030 5B00     		lsls	r3, r3, #1
 1009 0032 1343     		orrs	r3, r2
 1010 0034 6364     		str	r3, [r4, #68]
 1011 0036 A564     		str	r5, [r4, #72]
 1012 0038 3D70     		strb	r5, [r7]
 1013 003a E06B     		ldr	r0, [r4, #60]
 1014 003c 124B     		ldr	r3, .L154+4
 1015 003e 2168     		ldr	r1, [r4]
 1016 0040 8362     		str	r3, [r0, #40]
 1017 0042 124B     		ldr	r3, .L154+8
 1018 0044 C362     		str	r3, [r0, #44]
 1019 0046 124B     		ldr	r3, .L154+12
 1020 0048 0363     		str	r3, [r0, #48]
 1021 004a 1C23     		movs	r3, #28
 1022 004c 0B60     		str	r3, [r1]
 1023 004e 4A68     		ldr	r2, [r1, #4]
 1024 0050 0C3B     		subs	r3, r3, #12
 1025 0052 1343     		orrs	r3, r2
 1026 0054 4B60     		str	r3, [r1, #4]
 1027 0056 0123     		movs	r3, #1
 1028 0058 CA68     		ldr	r2, [r1, #12]
 1029 005a 1343     		orrs	r3, r2
 1030 005c CB60     		str	r3, [r1, #12]
 1031 005e 3200     		movs	r2, r6
 1032 0060 019B     		ldr	r3, [sp, #4]
 1033 0062 4031     		adds	r1, r1, #64
 1034 0064 FFF7FEFF 		bl	HAL_DMA_Start_IT
 1035 0068 0423     		movs	r3, #4
 1036 006a 2800     		movs	r0, r5
 1037 006c 2268     		ldr	r2, [r4]
 1038 006e 9168     		ldr	r1, [r2, #8]
 1039 0070 0B43     		orrs	r3, r1
 1040 0072 9360     		str	r3, [r2, #8]
 1041              	.L146:
 1042              		@ sp needed
 1043 0074 FEBD     		pop	{r1, r2, r3, r4, r5, r6, r7, pc}
 1044              	.L147:
 1045 0076 2000     		movs	r0, r4
 1046 0078 FFF7FEFF 		bl	ADC_Enable
 1047 007c 0028     		cmp	r0, #0
 1048 007e D2D0     		beq	.L148
 1049 0080 F8E7     		b	.L146
 1050              	.L155:
 1051 0082 C046     		.align	2
 1052              	.L154:
 1053 0084 FEF0FFFF 		.word	-3842
ARM GAS  /tmp/ccT9Bo1z.s 			page 19


 1054 0088 00000000 		.word	ADC_DMAConvCplt
 1055 008c 00000000 		.word	ADC_DMAHalfConvCplt
 1056 0090 00000000 		.word	ADC_DMAError
 1058              		.section	.text.HAL_ADC_Stop_DMA,"ax",%progbits
 1059              		.align	1
 1060              		.global	HAL_ADC_Stop_DMA
 1061              		.syntax unified
 1062              		.code	16
 1063              		.thumb_func
 1064              		.fpu softvfp
 1066              	HAL_ADC_Stop_DMA:
 1067              		@ args = 0, pretend = 0, frame = 0
 1068              		@ frame_needed = 0, uses_anonymous_args = 0
 1069 0000 F8B5     		push	{r3, r4, r5, r6, r7, lr}
 1070 0002 0600     		movs	r6, r0
 1071 0004 4036     		adds	r6, r6, #64
 1072 0006 3378     		ldrb	r3, [r6]
 1073 0008 0400     		movs	r4, r0
 1074 000a 0225     		movs	r5, #2
 1075 000c 012B     		cmp	r3, #1
 1076 000e 20D0     		beq	.L157
 1077 0010 0127     		movs	r7, #1
 1078 0012 3770     		strb	r7, [r6]
 1079 0014 FFF7FEFF 		bl	ADC_ConversionStop
 1080 0018 051E     		subs	r5, r0, #0
 1081 001a 18D1     		bne	.L158
 1082 001c 2268     		ldr	r2, [r4]
 1083 001e E06B     		ldr	r0, [r4, #60]
 1084 0020 D368     		ldr	r3, [r2, #12]
 1085 0022 BB43     		bics	r3, r7
 1086 0024 D360     		str	r3, [r2, #12]
 1087 0026 FFF7FEFF 		bl	HAL_DMA_Abort
 1088 002a 051E     		subs	r5, r0, #0
 1089 002c 03D0     		beq	.L159
 1090 002e 4023     		movs	r3, #64
 1091 0030 626C     		ldr	r2, [r4, #68]
 1092 0032 1343     		orrs	r3, r2
 1093 0034 6364     		str	r3, [r4, #68]
 1094              	.L159:
 1095 0036 1021     		movs	r1, #16
 1096 0038 2268     		ldr	r2, [r4]
 1097 003a 5368     		ldr	r3, [r2, #4]
 1098 003c 8B43     		bics	r3, r1
 1099 003e 5360     		str	r3, [r2, #4]
 1100 0040 0028     		cmp	r0, #0
 1101 0042 08D1     		bne	.L160
 1102 0044 2000     		movs	r0, r4
 1103 0046 FFF7FEFF 		bl	ADC_Disable
 1104 004a 051E     		subs	r5, r0, #0
 1105 004c 07D0     		beq	.L161
 1106              	.L158:
 1107 004e 0023     		movs	r3, #0
 1108 0050 3370     		strb	r3, [r6]
 1109              	.L157:
 1110 0052 2800     		movs	r0, r5
 1111              		@ sp needed
 1112 0054 F8BD     		pop	{r3, r4, r5, r6, r7, pc}
ARM GAS  /tmp/ccT9Bo1z.s 			page 20


 1113              	.L160:
 1114 0056 2000     		movs	r0, r4
 1115 0058 FFF7FEFF 		bl	ADC_Disable
 1116 005c F7E7     		b	.L158
 1117              	.L161:
 1118 005e 636C     		ldr	r3, [r4, #68]
 1119 0060 024A     		ldr	r2, .L166
 1120 0062 1A40     		ands	r2, r3
 1121 0064 0123     		movs	r3, #1
 1122 0066 1343     		orrs	r3, r2
 1123 0068 6364     		str	r3, [r4, #68]
 1124 006a F0E7     		b	.L158
 1125              	.L167:
 1126              		.align	2
 1127              	.L166:
 1128 006c FEFEFFFF 		.word	-258
 1130              		.section	.text.HAL_ADC_GetValue,"ax",%progbits
 1131              		.align	1
 1132              		.global	HAL_ADC_GetValue
 1133              		.syntax unified
 1134              		.code	16
 1135              		.thumb_func
 1136              		.fpu softvfp
 1138              	HAL_ADC_GetValue:
 1139              		@ args = 0, pretend = 0, frame = 0
 1140              		@ frame_needed = 0, uses_anonymous_args = 0
 1141              		@ link register save eliminated.
 1142 0000 0368     		ldr	r3, [r0]
 1143              		@ sp needed
 1144 0002 186C     		ldr	r0, [r3, #64]
 1145 0004 7047     		bx	lr
 1147              		.section	.text.HAL_ADC_ConvCpltCallback,"ax",%progbits
 1148              		.align	1
 1149              		.weak	HAL_ADC_ConvCpltCallback
 1150              		.syntax unified
 1151              		.code	16
 1152              		.thumb_func
 1153              		.fpu softvfp
 1155              	HAL_ADC_ConvCpltCallback:
 1156              		@ args = 0, pretend = 0, frame = 0
 1157              		@ frame_needed = 0, uses_anonymous_args = 0
 1158              		@ link register save eliminated.
 1159              		@ sp needed
 1160 0000 7047     		bx	lr
 1162              		.section	.text.ADC_DMAConvCplt,"ax",%progbits
 1163              		.align	1
 1164              		.syntax unified
 1165              		.code	16
 1166              		.thumb_func
 1167              		.fpu softvfp
 1169              	ADC_DMAConvCplt:
 1170              		@ args = 0, pretend = 0, frame = 0
 1171              		@ frame_needed = 0, uses_anonymous_args = 0
 1172 0000 5022     		movs	r2, #80
 1173 0002 436A     		ldr	r3, [r0, #36]
 1174 0004 10B5     		push	{r4, lr}
 1175 0006 596C     		ldr	r1, [r3, #68]
ARM GAS  /tmp/ccT9Bo1z.s 			page 21


 1176 0008 1142     		tst	r1, r2
 1177 000a 2AD1     		bne	.L171
 1178 000c 596C     		ldr	r1, [r3, #68]
 1179 000e B132     		adds	r2, r2, #177
 1180 0010 FF32     		adds	r2, r2, #255
 1181 0012 0A43     		orrs	r2, r1
 1182 0014 C021     		movs	r1, #192
 1183 0016 5A64     		str	r2, [r3, #68]
 1184 0018 1A68     		ldr	r2, [r3]
 1185 001a 0901     		lsls	r1, r1, #4
 1186 001c D068     		ldr	r0, [r2, #12]
 1187 001e 0842     		tst	r0, r1
 1188 0020 12D1     		bne	.L172
 1189 0022 196A     		ldr	r1, [r3, #32]
 1190 0024 0029     		cmp	r1, #0
 1191 0026 0FD1     		bne	.L172
 1192 0028 1168     		ldr	r1, [r2]
 1193 002a 0907     		lsls	r1, r1, #28
 1194 002c 0CD5     		bpl	.L172
 1195 002e 9168     		ldr	r1, [r2, #8]
 1196 0030 4907     		lsls	r1, r1, #29
 1197 0032 0DD4     		bmi	.L173
 1198 0034 0C20     		movs	r0, #12
 1199 0036 5168     		ldr	r1, [r2, #4]
 1200 0038 8143     		bics	r1, r0
 1201 003a 5160     		str	r1, [r2, #4]
 1202 003c 5A6C     		ldr	r2, [r3, #68]
 1203 003e 0B49     		ldr	r1, .L178
 1204 0040 1140     		ands	r1, r2
 1205 0042 0122     		movs	r2, #1
 1206 0044 0A43     		orrs	r2, r1
 1207 0046 5A64     		str	r2, [r3, #68]
 1208              	.L172:
 1209 0048 1800     		movs	r0, r3
 1210 004a FFF7FEFF 		bl	HAL_ADC_ConvCpltCallback
 1211              	.L170:
 1212              		@ sp needed
 1213 004e 10BD     		pop	{r4, pc}
 1214              	.L173:
 1215 0050 2022     		movs	r2, #32
 1216 0052 596C     		ldr	r1, [r3, #68]
 1217 0054 0A43     		orrs	r2, r1
 1218 0056 5A64     		str	r2, [r3, #68]
 1219 0058 0122     		movs	r2, #1
 1220 005a 996C     		ldr	r1, [r3, #72]
 1221 005c 0A43     		orrs	r2, r1
 1222 005e 9A64     		str	r2, [r3, #72]
 1223 0060 F2E7     		b	.L172
 1224              	.L171:
 1225 0062 DB6B     		ldr	r3, [r3, #60]
 1226 0064 1B6B     		ldr	r3, [r3, #48]
 1227 0066 9847     		blx	r3
 1228 0068 F1E7     		b	.L170
 1229              	.L179:
 1230 006a C046     		.align	2
 1231              	.L178:
 1232 006c FEFEFFFF 		.word	-258
ARM GAS  /tmp/ccT9Bo1z.s 			page 22


 1234              		.section	.text.HAL_ADC_ConvHalfCpltCallback,"ax",%progbits
 1235              		.align	1
 1236              		.weak	HAL_ADC_ConvHalfCpltCallback
 1237              		.syntax unified
 1238              		.code	16
 1239              		.thumb_func
 1240              		.fpu softvfp
 1242              	HAL_ADC_ConvHalfCpltCallback:
 1243              		@ args = 0, pretend = 0, frame = 0
 1244              		@ frame_needed = 0, uses_anonymous_args = 0
 1245              		@ link register save eliminated.
 1246              		@ sp needed
 1247 0000 7047     		bx	lr
 1249              		.section	.text.ADC_DMAHalfConvCplt,"ax",%progbits
 1250              		.align	1
 1251              		.syntax unified
 1252              		.code	16
 1253              		.thumb_func
 1254              		.fpu softvfp
 1256              	ADC_DMAHalfConvCplt:
 1257              		@ args = 0, pretend = 0, frame = 0
 1258              		@ frame_needed = 0, uses_anonymous_args = 0
 1259 0000 10B5     		push	{r4, lr}
 1260 0002 406A     		ldr	r0, [r0, #36]
 1261 0004 FFF7FEFF 		bl	HAL_ADC_ConvHalfCpltCallback
 1262              		@ sp needed
 1263 0008 10BD     		pop	{r4, pc}
 1265              		.section	.text.HAL_ADC_LevelOutOfWindowCallback,"ax",%progbits
 1266              		.align	1
 1267              		.weak	HAL_ADC_LevelOutOfWindowCallback
 1268              		.syntax unified
 1269              		.code	16
 1270              		.thumb_func
 1271              		.fpu softvfp
 1273              	HAL_ADC_LevelOutOfWindowCallback:
 1274              		@ args = 0, pretend = 0, frame = 0
 1275              		@ frame_needed = 0, uses_anonymous_args = 0
 1276              		@ link register save eliminated.
 1277              		@ sp needed
 1278 0000 7047     		bx	lr
 1280              		.section	.text.HAL_ADC_ErrorCallback,"ax",%progbits
 1281              		.align	1
 1282              		.weak	HAL_ADC_ErrorCallback
 1283              		.syntax unified
 1284              		.code	16
 1285              		.thumb_func
 1286              		.fpu softvfp
 1288              	HAL_ADC_ErrorCallback:
 1289              		@ args = 0, pretend = 0, frame = 0
 1290              		@ frame_needed = 0, uses_anonymous_args = 0
 1291              		@ link register save eliminated.
 1292              		@ sp needed
 1293 0000 7047     		bx	lr
 1295              		.section	.text.ADC_DMAError,"ax",%progbits
 1296              		.align	1
 1297              		.syntax unified
 1298              		.code	16
ARM GAS  /tmp/ccT9Bo1z.s 			page 23


 1299              		.thumb_func
 1300              		.fpu softvfp
 1302              	ADC_DMAError:
 1303              		@ args = 0, pretend = 0, frame = 0
 1304              		@ frame_needed = 0, uses_anonymous_args = 0
 1305 0000 4023     		movs	r3, #64
 1306 0002 406A     		ldr	r0, [r0, #36]
 1307 0004 10B5     		push	{r4, lr}
 1308 0006 426C     		ldr	r2, [r0, #68]
 1309              		@ sp needed
 1310 0008 1343     		orrs	r3, r2
 1311 000a 4364     		str	r3, [r0, #68]
 1312 000c 0423     		movs	r3, #4
 1313 000e 826C     		ldr	r2, [r0, #72]
 1314 0010 1343     		orrs	r3, r2
 1315 0012 8364     		str	r3, [r0, #72]
 1316 0014 FFF7FEFF 		bl	HAL_ADC_ErrorCallback
 1317 0018 10BD     		pop	{r4, pc}
 1319              		.section	.text.HAL_ADC_IRQHandler,"ax",%progbits
 1320              		.align	1
 1321              		.global	HAL_ADC_IRQHandler
 1322              		.syntax unified
 1323              		.code	16
 1324              		.thumb_func
 1325              		.fpu softvfp
 1327              	HAL_ADC_IRQHandler:
 1328              		@ args = 0, pretend = 0, frame = 0
 1329              		@ frame_needed = 0, uses_anonymous_args = 0
 1330 0000 0422     		movs	r2, #4
 1331 0002 0368     		ldr	r3, [r0]
 1332 0004 70B5     		push	{r4, r5, r6, lr}
 1333 0006 1968     		ldr	r1, [r3]
 1334 0008 0400     		movs	r4, r0
 1335 000a 1142     		tst	r1, r2
 1336 000c 02D0     		beq	.L186
 1337 000e 5968     		ldr	r1, [r3, #4]
 1338 0010 1142     		tst	r1, r2
 1339 0012 06D1     		bne	.L187
 1340              	.L186:
 1341 0014 0822     		movs	r2, #8
 1342 0016 1968     		ldr	r1, [r3]
 1343 0018 1142     		tst	r1, r2
 1344 001a 28D0     		beq	.L188
 1345 001c 5968     		ldr	r1, [r3, #4]
 1346 001e 1142     		tst	r1, r2
 1347 0020 25D0     		beq	.L188
 1348              	.L187:
 1349 0022 626C     		ldr	r2, [r4, #68]
 1350 0024 D206     		lsls	r2, r2, #27
 1351 0026 04D4     		bmi	.L189
 1352 0028 8022     		movs	r2, #128
 1353 002a 616C     		ldr	r1, [r4, #68]
 1354 002c 9200     		lsls	r2, r2, #2
 1355 002e 0A43     		orrs	r2, r1
 1356 0030 6264     		str	r2, [r4, #68]
 1357              	.L189:
 1358 0032 C022     		movs	r2, #192
ARM GAS  /tmp/ccT9Bo1z.s 			page 24


 1359 0034 D968     		ldr	r1, [r3, #12]
 1360 0036 1201     		lsls	r2, r2, #4
 1361 0038 1142     		tst	r1, r2
 1362 003a 12D1     		bne	.L190
 1363 003c 226A     		ldr	r2, [r4, #32]
 1364 003e 002A     		cmp	r2, #0
 1365 0040 0FD1     		bne	.L190
 1366 0042 1A68     		ldr	r2, [r3]
 1367 0044 1207     		lsls	r2, r2, #28
 1368 0046 0CD5     		bpl	.L190
 1369 0048 9A68     		ldr	r2, [r3, #8]
 1370 004a 5207     		lsls	r2, r2, #29
 1371 004c 3CD4     		bmi	.L191
 1372 004e 0C21     		movs	r1, #12
 1373 0050 5A68     		ldr	r2, [r3, #4]
 1374 0052 8A43     		bics	r2, r1
 1375 0054 5A60     		str	r2, [r3, #4]
 1376 0056 636C     		ldr	r3, [r4, #68]
 1377 0058 204A     		ldr	r2, .L226
 1378 005a 1A40     		ands	r2, r3
 1379 005c 0123     		movs	r3, #1
 1380 005e 1343     		orrs	r3, r2
 1381 0060 6364     		str	r3, [r4, #68]
 1382              	.L190:
 1383 0062 2000     		movs	r0, r4
 1384 0064 FFF7FEFF 		bl	HAL_ADC_ConvCpltCallback
 1385 0068 0C22     		movs	r2, #12
 1386 006a 2368     		ldr	r3, [r4]
 1387 006c 1A60     		str	r2, [r3]
 1388              	.L188:
 1389 006e 8025     		movs	r5, #128
 1390 0070 2368     		ldr	r3, [r4]
 1391 0072 1A68     		ldr	r2, [r3]
 1392 0074 2A42     		tst	r2, r5
 1393 0076 0CD0     		beq	.L192
 1394 0078 5B68     		ldr	r3, [r3, #4]
 1395 007a 2B42     		tst	r3, r5
 1396 007c 09D0     		beq	.L192
 1397 007e 8023     		movs	r3, #128
 1398 0080 626C     		ldr	r2, [r4, #68]
 1399 0082 5B02     		lsls	r3, r3, #9
 1400 0084 1343     		orrs	r3, r2
 1401 0086 6364     		str	r3, [r4, #68]
 1402 0088 2000     		movs	r0, r4
 1403 008a FFF7FEFF 		bl	HAL_ADC_LevelOutOfWindowCallback
 1404 008e 2368     		ldr	r3, [r4]
 1405 0090 1D60     		str	r5, [r3]
 1406              	.L192:
 1407 0092 1022     		movs	r2, #16
 1408 0094 2368     		ldr	r3, [r4]
 1409 0096 1968     		ldr	r1, [r3]
 1410 0098 1142     		tst	r1, r2
 1411 009a 14D0     		beq	.L185
 1412 009c 5968     		ldr	r1, [r3, #4]
 1413 009e 1142     		tst	r1, r2
 1414 00a0 11D0     		beq	.L185
 1415 00a2 626B     		ldr	r2, [r4, #52]
ARM GAS  /tmp/ccT9Bo1z.s 			page 25


 1416 00a4 012A     		cmp	r2, #1
 1417 00a6 02D0     		beq	.L194
 1418 00a8 DA68     		ldr	r2, [r3, #12]
 1419 00aa D207     		lsls	r2, r2, #31
 1420 00ac 08D5     		bpl	.L195
 1421              	.L194:
 1422 00ae 0222     		movs	r2, #2
 1423 00b0 A16C     		ldr	r1, [r4, #72]
 1424 00b2 2000     		movs	r0, r4
 1425 00b4 0A43     		orrs	r2, r1
 1426 00b6 A264     		str	r2, [r4, #72]
 1427 00b8 1022     		movs	r2, #16
 1428 00ba 1A60     		str	r2, [r3]
 1429 00bc FFF7FEFF 		bl	HAL_ADC_ErrorCallback
 1430              	.L195:
 1431 00c0 1022     		movs	r2, #16
 1432 00c2 2368     		ldr	r3, [r4]
 1433 00c4 1A60     		str	r2, [r3]
 1434              	.L185:
 1435              		@ sp needed
 1436 00c6 70BD     		pop	{r4, r5, r6, pc}
 1437              	.L191:
 1438 00c8 2023     		movs	r3, #32
 1439 00ca 626C     		ldr	r2, [r4, #68]
 1440 00cc 1343     		orrs	r3, r2
 1441 00ce 6364     		str	r3, [r4, #68]
 1442 00d0 0123     		movs	r3, #1
 1443 00d2 A26C     		ldr	r2, [r4, #72]
 1444 00d4 1343     		orrs	r3, r2
 1445 00d6 A364     		str	r3, [r4, #72]
 1446 00d8 C3E7     		b	.L190
 1447              	.L227:
 1448 00da C046     		.align	2
 1449              	.L226:
 1450 00dc FEFEFFFF 		.word	-258
 1452              		.section	.text.HAL_ADC_ConfigChannel,"ax",%progbits
 1453              		.align	1
 1454              		.global	HAL_ADC_ConfigChannel
 1455              		.syntax unified
 1456              		.code	16
 1457              		.thumb_func
 1458              		.fpu softvfp
 1460              	HAL_ADC_ConfigChannel:
 1461              		@ args = 0, pretend = 0, frame = 8
 1462              		@ frame_needed = 0, uses_anonymous_args = 0
 1463 0000 F7B5     		push	{r0, r1, r2, r4, r5, r6, r7, lr}
 1464 0002 0022     		movs	r2, #0
 1465 0004 0400     		movs	r4, r0
 1466 0006 0192     		str	r2, [sp, #4]
 1467 0008 4034     		adds	r4, r4, #64
 1468 000a 2278     		ldrb	r2, [r4]
 1469 000c 0300     		movs	r3, r0
 1470 000e 856B     		ldr	r5, [r0, #56]
 1471 0010 0220     		movs	r0, #2
 1472 0012 012A     		cmp	r2, #1
 1473 0014 2AD0     		beq	.L229
 1474 0016 0138     		subs	r0, r0, #1
ARM GAS  /tmp/ccT9Bo1z.s 			page 26


 1475 0018 2070     		strb	r0, [r4]
 1476 001a 1A68     		ldr	r2, [r3]
 1477 001c 9668     		ldr	r6, [r2, #8]
 1478 001e 7607     		lsls	r6, r6, #29
 1479 0020 5FD4     		bmi	.L230
 1480 0022 0B68     		ldr	r3, [r1]
 1481 0024 314F     		ldr	r7, .L247
 1482 0026 1E00     		movs	r6, r3
 1483 0028 BC46     		mov	ip, r7
 1484 002a 4F68     		ldr	r7, [r1, #4]
 1485 002c 9840     		lsls	r0, r0, r3
 1486 002e 103E     		subs	r6, r6, #16
 1487 0030 6745     		cmp	r7, ip
 1488 0032 3FD0     		beq	.L231
 1489 0034 976A     		ldr	r7, [r2, #40]
 1490 0036 3843     		orrs	r0, r7
 1491 0038 9062     		str	r0, [r2, #40]
 1492 003a 8020     		movs	r0, #128
 1493 003c 4005     		lsls	r0, r0, #21
 1494 003e 8542     		cmp	r5, r0
 1495 0040 0FD0     		beq	.L232
 1496 0042 013D     		subs	r5, r5, #1
 1497 0044 062D     		cmp	r5, #6
 1498 0046 0CD9     		bls	.L232
 1499 0048 0720     		movs	r0, #7
 1500 004a 5569     		ldr	r5, [r2, #20]
 1501 004c 8968     		ldr	r1, [r1, #8]
 1502 004e 0540     		ands	r5, r0
 1503 0050 A942     		cmp	r1, r5
 1504 0052 06D0     		beq	.L232
 1505 0054 5569     		ldr	r5, [r2, #20]
 1506 0056 0140     		ands	r1, r0
 1507 0058 8543     		bics	r5, r0
 1508 005a 5561     		str	r5, [r2, #20]
 1509 005c 5569     		ldr	r5, [r2, #20]
 1510 005e 2943     		orrs	r1, r5
 1511 0060 5161     		str	r1, [r2, #20]
 1512              	.L232:
 1513 0062 022E     		cmp	r6, #2
 1514 0064 03D9     		bls	.L233
 1515              	.L246:
 1516 0066 0020     		movs	r0, #0
 1517              	.L234:
 1518 0068 0023     		movs	r3, #0
 1519 006a 2370     		strb	r3, [r4]
 1520              	.L229:
 1521              		@ sp needed
 1522 006c FEBD     		pop	{r1, r2, r3, r4, r5, r6, r7, pc}
 1523              	.L233:
 1524 006e 2048     		ldr	r0, .L247+4
 1525 0070 0168     		ldr	r1, [r0]
 1526 0072 102B     		cmp	r3, #16
 1527 0074 1BD0     		beq	.L241
 1528 0076 1A00     		movs	r2, r3
 1529 0078 113A     		subs	r2, r2, #17
 1530 007a 5542     		rsbs	r5, r2, #0
 1531 007c 6A41     		adcs	r2, r2, r5
ARM GAS  /tmp/ccT9Bo1z.s 			page 27


 1532 007e 1D4D     		ldr	r5, .L247+8
 1533 0080 5242     		rsbs	r2, r2, #0
 1534 0082 2A40     		ands	r2, r5
 1535 0084 8025     		movs	r5, #128
 1536 0086 6D04     		lsls	r5, r5, #17
 1537 0088 5219     		adds	r2, r2, r5
 1538              	.L235:
 1539 008a 0A43     		orrs	r2, r1
 1540 008c 0260     		str	r2, [r0]
 1541 008e 102B     		cmp	r3, #16
 1542 0090 E9D1     		bne	.L246
 1543 0092 194B     		ldr	r3, .L247+12
 1544 0094 1949     		ldr	r1, .L247+16
 1545 0096 1868     		ldr	r0, [r3]
 1546 0098 FFF7FEFF 		bl	__aeabi_uidiv
 1547 009c 0A23     		movs	r3, #10
 1548 009e 4343     		muls	r3, r0
 1549              	.L245:
 1550 00a0 0193     		str	r3, [sp, #4]
 1551 00a2 019B     		ldr	r3, [sp, #4]
 1552 00a4 002B     		cmp	r3, #0
 1553 00a6 DED0     		beq	.L246
 1554 00a8 019B     		ldr	r3, [sp, #4]
 1555 00aa 013B     		subs	r3, r3, #1
 1556 00ac F8E7     		b	.L245
 1557              	.L241:
 1558 00ae 8022     		movs	r2, #128
 1559 00b0 1204     		lsls	r2, r2, #16
 1560 00b2 EAE7     		b	.L235
 1561              	.L231:
 1562 00b4 916A     		ldr	r1, [r2, #40]
 1563 00b6 8143     		bics	r1, r0
 1564 00b8 9162     		str	r1, [r2, #40]
 1565 00ba 022E     		cmp	r6, #2
 1566 00bc D3D8     		bhi	.L246
 1567 00be 0C4A     		ldr	r2, .L247+4
 1568 00c0 1168     		ldr	r1, [r2]
 1569 00c2 102B     		cmp	r3, #16
 1570 00c4 0BD0     		beq	.L243
 1571 00c6 113B     		subs	r3, r3, #17
 1572 00c8 5842     		rsbs	r0, r3, #0
 1573 00ca 4341     		adcs	r3, r3, r0
 1574 00cc C020     		movs	r0, #192
 1575 00ce 5B42     		rsbs	r3, r3, #0
 1576 00d0 0004     		lsls	r0, r0, #16
 1577 00d2 0340     		ands	r3, r0
 1578 00d4 0A48     		ldr	r0, .L247+20
 1579 00d6 1B18     		adds	r3, r3, r0
 1580              	.L239:
 1581 00d8 0B40     		ands	r3, r1
 1582 00da 1360     		str	r3, [r2]
 1583 00dc C3E7     		b	.L246
 1584              	.L243:
 1585 00de 094B     		ldr	r3, .L247+24
 1586 00e0 FAE7     		b	.L239
 1587              	.L230:
 1588 00e2 2022     		movs	r2, #32
ARM GAS  /tmp/ccT9Bo1z.s 			page 28


 1589 00e4 596C     		ldr	r1, [r3, #68]
 1590 00e6 0A43     		orrs	r2, r1
 1591 00e8 5A64     		str	r2, [r3, #68]
 1592 00ea BDE7     		b	.L234
 1593              	.L248:
 1594              		.align	2
 1595              	.L247:
 1596 00ec 01100000 		.word	4097
 1597 00f0 08270140 		.word	1073817352
 1598 00f4 000040FF 		.word	-12582912
 1599 00f8 00000000 		.word	SystemCoreClock
 1600 00fc 40420F00 		.word	1000000
 1601 0100 FFFFFFFE 		.word	-16777217
 1602 0104 FFFF7FFF 		.word	-8388609
 1604              		.section	.text.HAL_ADC_AnalogWDGConfig,"ax",%progbits
 1605              		.align	1
 1606              		.global	HAL_ADC_AnalogWDGConfig
 1607              		.syntax unified
 1608              		.code	16
 1609              		.thumb_func
 1610              		.fpu softvfp
 1612              	HAL_ADC_AnalogWDGConfig:
 1613              		@ args = 0, pretend = 0, frame = 0
 1614              		@ frame_needed = 0, uses_anonymous_args = 0
 1615 0000 F0B5     		push	{r4, r5, r6, r7, lr}
 1616 0002 0500     		movs	r5, r0
 1617 0004 4035     		adds	r5, r5, #64
 1618 0006 2B78     		ldrb	r3, [r5]
 1619 0008 0200     		movs	r2, r0
 1620 000a 0C68     		ldr	r4, [r1]
 1621 000c 0220     		movs	r0, #2
 1622 000e 012B     		cmp	r3, #1
 1623 0010 36D0     		beq	.L250
 1624 0012 0123     		movs	r3, #1
 1625 0014 2B70     		strb	r3, [r5]
 1626 0016 1368     		ldr	r3, [r2]
 1627 0018 0427     		movs	r7, #4
 1628 001a 9E68     		ldr	r6, [r3, #8]
 1629 001c B446     		mov	ip, r6
 1630 001e 6046     		mov	r0, ip
 1631 0020 3E40     		ands	r6, r7
 1632 0022 3842     		tst	r0, r7
 1633 0024 31D1     		bne	.L251
 1634 0026 DA68     		ldr	r2, [r3, #12]
 1635 0028 1B48     		ldr	r0, .L256
 1636 002a 013F     		subs	r7, r7, #1
 1637 002c 0240     		ands	r2, r0
 1638 002e DA60     		str	r2, [r3, #12]
 1639 0030 D868     		ldr	r0, [r3, #12]
 1640 0032 4A68     		ldr	r2, [r1, #4]
 1641 0034 0443     		orrs	r4, r0
 1642 0036 9206     		lsls	r2, r2, #26
 1643 0038 2243     		orrs	r2, r4
 1644 003a DA60     		str	r2, [r3, #12]
 1645 003c DA68     		ldr	r2, [r3, #12]
 1646 003e C868     		ldr	r0, [r1, #12]
 1647 0040 D208     		lsrs	r2, r2, #3
ARM GAS  /tmp/ccT9Bo1z.s 			page 29


 1648 0042 DC68     		ldr	r4, [r3, #12]
 1649 0044 3A40     		ands	r2, r7
 1650 0046 5200     		lsls	r2, r2, #1
 1651 0048 9040     		lsls	r0, r0, r2
 1652 004a FC40     		lsrs	r4, r4, r7
 1653 004c 0200     		movs	r2, r0
 1654 004e 3C40     		ands	r4, r7
 1655 0050 0869     		ldr	r0, [r1, #16]
 1656 0052 6400     		lsls	r4, r4, #1
 1657 0054 A040     		lsls	r0, r0, r4
 1658 0056 0400     		movs	r4, r0
 1659 0058 104F     		ldr	r7, .L256+4
 1660 005a 186A     		ldr	r0, [r3, #32]
 1661 005c 1204     		lsls	r2, r2, #16
 1662 005e 3840     		ands	r0, r7
 1663 0060 1862     		str	r0, [r3, #32]
 1664 0062 186A     		ldr	r0, [r3, #32]
 1665 0064 8968     		ldr	r1, [r1, #8]
 1666 0066 2043     		orrs	r0, r4
 1667 0068 0243     		orrs	r2, r0
 1668 006a 1A62     		str	r2, [r3, #32]
 1669 006c 8022     		movs	r2, #128
 1670 006e 1A60     		str	r2, [r3]
 1671 0070 0129     		cmp	r1, #1
 1672 0072 06D1     		bne	.L252
 1673 0074 5968     		ldr	r1, [r3, #4]
 1674 0076 0A43     		orrs	r2, r1
 1675 0078 5A60     		str	r2, [r3, #4]
 1676              	.L255:
 1677 007a 3000     		movs	r0, r6
 1678              	.L253:
 1679 007c 0023     		movs	r3, #0
 1680 007e 2B70     		strb	r3, [r5]
 1681              	.L250:
 1682              		@ sp needed
 1683 0080 F0BD     		pop	{r4, r5, r6, r7, pc}
 1684              	.L252:
 1685 0082 5968     		ldr	r1, [r3, #4]
 1686 0084 9143     		bics	r1, r2
 1687 0086 5960     		str	r1, [r3, #4]
 1688 0088 F7E7     		b	.L255
 1689              	.L251:
 1690 008a 2023     		movs	r3, #32
 1691 008c 516C     		ldr	r1, [r2, #68]
 1692 008e 0120     		movs	r0, #1
 1693 0090 0B43     		orrs	r3, r1
 1694 0092 5364     		str	r3, [r2, #68]
 1695 0094 F2E7     		b	.L253
 1696              	.L257:
 1697 0096 C046     		.align	2
 1698              	.L256:
 1699 0098 FFFF3F83 		.word	-2092957697
 1700 009c 00F000F0 		.word	-268374016
 1702              		.section	.text.HAL_ADC_GetState,"ax",%progbits
 1703              		.align	1
 1704              		.global	HAL_ADC_GetState
 1705              		.syntax unified
ARM GAS  /tmp/ccT9Bo1z.s 			page 30


 1706              		.code	16
 1707              		.thumb_func
 1708              		.fpu softvfp
 1710              	HAL_ADC_GetState:
 1711              		@ args = 0, pretend = 0, frame = 0
 1712              		@ frame_needed = 0, uses_anonymous_args = 0
 1713              		@ link register save eliminated.
 1714 0000 406C     		ldr	r0, [r0, #68]
 1715              		@ sp needed
 1716 0002 7047     		bx	lr
 1718              		.section	.text.HAL_ADC_GetError,"ax",%progbits
 1719              		.align	1
 1720              		.global	HAL_ADC_GetError
 1721              		.syntax unified
 1722              		.code	16
 1723              		.thumb_func
 1724              		.fpu softvfp
 1726              	HAL_ADC_GetError:
 1727              		@ args = 0, pretend = 0, frame = 0
 1728              		@ frame_needed = 0, uses_anonymous_args = 0
 1729              		@ link register save eliminated.
 1730 0000 806C     		ldr	r0, [r0, #72]
 1731              		@ sp needed
 1732 0002 7047     		bx	lr
 1734              		.ident	"GCC: (Arch Repository) 10.1.0"
ARM GAS  /tmp/ccT9Bo1z.s 			page 31

