ARM GAS  /tmp/cci7LnvY.s 			page 1


   1              		.cpu cortex-m0
   2              		.eabi_attribute 20, 1
   3              		.eabi_attribute 21, 1
   4              		.eabi_attribute 23, 3
   5              		.eabi_attribute 24, 1
   6              		.eabi_attribute 25, 1
   7              		.eabi_attribute 26, 1
   8              		.eabi_attribute 30, 4
   9              		.eabi_attribute 34, 0
  10              		.eabi_attribute 18, 4
  11              		.file	"stm32f0xx_hal_dma.c"
  12              		.text
  13              		.global	__aeabi_uidiv
  14              		.section	.text.HAL_DMA_Init,"ax",%progbits
  15              		.align	1
  16              		.global	HAL_DMA_Init
  17              		.arch armv6s-m
  18              		.syntax unified
  19              		.code	16
  20              		.thumb_func
  21              		.fpu softvfp
  23              	HAL_DMA_Init:
  24              		@ args = 0, pretend = 0, frame = 0
  25              		@ frame_needed = 0, uses_anonymous_args = 0
  26 0000 70B5     		push	{r4, r5, r6, lr}
  27 0002 0400     		movs	r4, r0
  28 0004 0120     		movs	r0, #1
  29 0006 002C     		cmp	r4, #0
  30 0008 28D0     		beq	.L2
  31 000a 0223     		movs	r3, #2
  32 000c A51C     		adds	r5, r4, #2
  33 000e EB77     		strb	r3, [r5, #31]
  34 0010 2068     		ldr	r0, [r4]
  35 0012 134B     		ldr	r3, .L4
  36 0014 0268     		ldr	r2, [r0]
  37 0016 A168     		ldr	r1, [r4, #8]
  38 0018 1A40     		ands	r2, r3
  39 001a 6368     		ldr	r3, [r4, #4]
  40 001c 0B43     		orrs	r3, r1
  41 001e E168     		ldr	r1, [r4, #12]
  42 0020 0B43     		orrs	r3, r1
  43 0022 2169     		ldr	r1, [r4, #16]
  44 0024 0B43     		orrs	r3, r1
  45 0026 6169     		ldr	r1, [r4, #20]
  46 0028 0B43     		orrs	r3, r1
  47 002a A169     		ldr	r1, [r4, #24]
  48 002c 0B43     		orrs	r3, r1
  49 002e E169     		ldr	r1, [r4, #28]
  50 0030 0B43     		orrs	r3, r1
  51 0032 1343     		orrs	r3, r2
  52 0034 0360     		str	r3, [r0]
  53 0036 0B4B     		ldr	r3, .L4+4
  54 0038 1421     		movs	r1, #20
  55 003a C018     		adds	r0, r0, r3
  56 003c FFF7FEFF 		bl	__aeabi_uidiv
  57 0040 094B     		ldr	r3, .L4+8
  58 0042 8000     		lsls	r0, r0, #2
ARM GAS  /tmp/cci7LnvY.s 			page 2


  59 0044 2064     		str	r0, [r4, #64]
  60 0046 E363     		str	r3, [r4, #60]
  61 0048 0020     		movs	r0, #0
  62 004a 0123     		movs	r3, #1
  63 004c A062     		str	r0, [r4, #40]
  64 004e E062     		str	r0, [r4, #44]
  65 0050 2063     		str	r0, [r4, #48]
  66 0052 6063     		str	r0, [r4, #52]
  67 0054 A063     		str	r0, [r4, #56]
  68 0056 E418     		adds	r4, r4, r3
  69 0058 EB77     		strb	r3, [r5, #31]
  70 005a E077     		strb	r0, [r4, #31]
  71              	.L2:
  72              		@ sp needed
  73 005c 70BD     		pop	{r4, r5, r6, pc}
  74              	.L5:
  75 005e C046     		.align	2
  76              	.L4:
  77 0060 0FC0FFFF 		.word	-16369
  78 0064 F8FFFDBF 		.word	-1073872904
  79 0068 00000240 		.word	1073872896
  81              		.section	.text.HAL_DMA_DeInit,"ax",%progbits
  82              		.align	1
  83              		.global	HAL_DMA_DeInit
  84              		.syntax unified
  85              		.code	16
  86              		.thumb_func
  87              		.fpu softvfp
  89              	HAL_DMA_DeInit:
  90              		@ args = 0, pretend = 0, frame = 0
  91              		@ frame_needed = 0, uses_anonymous_args = 0
  92 0000 70B5     		push	{r4, r5, r6, lr}
  93 0002 0126     		movs	r6, #1
  94 0004 0500     		movs	r5, r0
  95 0006 3000     		movs	r0, r6
  96 0008 002D     		cmp	r5, #0
  97 000a 19D0     		beq	.L7
  98 000c 0024     		movs	r4, #0
  99 000e 2868     		ldr	r0, [r5]
 100 0010 1421     		movs	r1, #20
 101 0012 0368     		ldr	r3, [r0]
 102 0014 B343     		bics	r3, r6
 103 0016 0360     		str	r3, [r0]
 104 0018 0A4B     		ldr	r3, .L9
 105 001a 0460     		str	r4, [r0]
 106 001c 4460     		str	r4, [r0, #4]
 107 001e 8460     		str	r4, [r0, #8]
 108 0020 C460     		str	r4, [r0, #12]
 109 0022 C018     		adds	r0, r0, r3
 110 0024 FFF7FEFF 		bl	__aeabi_uidiv
 111 0028 8000     		lsls	r0, r0, #2
 112 002a 8640     		lsls	r6, r6, r0
 113 002c 2864     		str	r0, [r5, #64]
 114 002e 2000     		movs	r0, r4
 115 0030 054B     		ldr	r3, .L9+4
 116 0032 EB63     		str	r3, [r5, #60]
 117 0034 5E60     		str	r6, [r3, #4]
ARM GAS  /tmp/cci7LnvY.s 			page 3


 118 0036 AC63     		str	r4, [r5, #56]
 119 0038 AB1C     		adds	r3, r5, #2
 120 003a 0135     		adds	r5, r5, #1
 121 003c DC77     		strb	r4, [r3, #31]
 122 003e EC77     		strb	r4, [r5, #31]
 123              	.L7:
 124              		@ sp needed
 125 0040 70BD     		pop	{r4, r5, r6, pc}
 126              	.L10:
 127 0042 C046     		.align	2
 128              	.L9:
 129 0044 F8FFFDBF 		.word	-1073872904
 130 0048 00000240 		.word	1073872896
 132              		.section	.text.HAL_DMA_Start,"ax",%progbits
 133              		.align	1
 134              		.global	HAL_DMA_Start
 135              		.syntax unified
 136              		.code	16
 137              		.thumb_func
 138              		.fpu softvfp
 140              	HAL_DMA_Start:
 141              		@ args = 0, pretend = 0, frame = 8
 142              		@ frame_needed = 0, uses_anonymous_args = 0
 143 0000 F7B5     		push	{r0, r1, r2, r4, r5, r6, r7, lr}
 144 0002 451C     		adds	r5, r0, #1
 145 0004 0193     		str	r3, [sp, #4]
 146 0006 EB7F     		ldrb	r3, [r5, #31]
 147 0008 0400     		movs	r4, r0
 148 000a 0220     		movs	r0, #2
 149 000c 012B     		cmp	r3, #1
 150 000e 20D0     		beq	.L12
 151 0010 0123     		movs	r3, #1
 152 0012 2718     		adds	r7, r4, r0
 153 0014 EB77     		strb	r3, [r5, #31]
 154 0016 FB7F     		ldrb	r3, [r7, #31]
 155 0018 0026     		movs	r6, #0
 156 001a 9C46     		mov	ip, r3
 157 001c 6046     		mov	r0, ip
 158 001e DBB2     		uxtb	r3, r3
 159 0020 0128     		cmp	r0, #1
 160 0022 1AD1     		bne	.L13
 161 0024 0130     		adds	r0, r0, #1
 162 0026 F877     		strb	r0, [r7, #31]
 163 0028 2068     		ldr	r0, [r4]
 164 002a A663     		str	r6, [r4, #56]
 165 002c 0568     		ldr	r5, [r0]
 166 002e 266C     		ldr	r6, [r4, #64]
 167 0030 9D43     		bics	r5, r3
 168 0032 B340     		lsls	r3, r3, r6
 169 0034 0560     		str	r5, [r0]
 170 0036 E56B     		ldr	r5, [r4, #60]
 171 0038 6B60     		str	r3, [r5, #4]
 172 003a 019B     		ldr	r3, [sp, #4]
 173 003c 4360     		str	r3, [r0, #4]
 174 003e 6368     		ldr	r3, [r4, #4]
 175 0040 102B     		cmp	r3, #16
 176 0042 07D1     		bne	.L14
ARM GAS  /tmp/cci7LnvY.s 			page 4


 177 0044 8260     		str	r2, [r0, #8]
 178 0046 C160     		str	r1, [r0, #12]
 179              	.L15:
 180 0048 0123     		movs	r3, #1
 181 004a 0268     		ldr	r2, [r0]
 182 004c 1343     		orrs	r3, r2
 183 004e 0360     		str	r3, [r0]
 184 0050 0020     		movs	r0, #0
 185              	.L12:
 186              		@ sp needed
 187 0052 FEBD     		pop	{r1, r2, r3, r4, r5, r6, r7, pc}
 188              	.L14:
 189 0054 8160     		str	r1, [r0, #8]
 190 0056 C260     		str	r2, [r0, #12]
 191 0058 F6E7     		b	.L15
 192              	.L13:
 193 005a 0220     		movs	r0, #2
 194 005c EE77     		strb	r6, [r5, #31]
 195 005e F8E7     		b	.L12
 197              		.section	.text.HAL_DMA_Start_IT,"ax",%progbits
 198              		.align	1
 199              		.global	HAL_DMA_Start_IT
 200              		.syntax unified
 201              		.code	16
 202              		.thumb_func
 203              		.fpu softvfp
 205              	HAL_DMA_Start_IT:
 206              		@ args = 0, pretend = 0, frame = 8
 207              		@ frame_needed = 0, uses_anonymous_args = 0
 208 0000 F7B5     		push	{r0, r1, r2, r4, r5, r6, r7, lr}
 209 0002 451C     		adds	r5, r0, #1
 210 0004 0193     		str	r3, [sp, #4]
 211 0006 EB7F     		ldrb	r3, [r5, #31]
 212 0008 0400     		movs	r4, r0
 213 000a 0220     		movs	r0, #2
 214 000c 012B     		cmp	r3, #1
 215 000e 27D0     		beq	.L18
 216 0010 0123     		movs	r3, #1
 217 0012 2718     		adds	r7, r4, r0
 218 0014 EB77     		strb	r3, [r5, #31]
 219 0016 FB7F     		ldrb	r3, [r7, #31]
 220 0018 0026     		movs	r6, #0
 221 001a 9C46     		mov	ip, r3
 222 001c 6046     		mov	r0, ip
 223 001e DBB2     		uxtb	r3, r3
 224 0020 0128     		cmp	r0, #1
 225 0022 28D1     		bne	.L19
 226 0024 0130     		adds	r0, r0, #1
 227 0026 F877     		strb	r0, [r7, #31]
 228 0028 2068     		ldr	r0, [r4]
 229 002a A663     		str	r6, [r4, #56]
 230 002c 0568     		ldr	r5, [r0]
 231 002e 266C     		ldr	r6, [r4, #64]
 232 0030 9D43     		bics	r5, r3
 233 0032 B340     		lsls	r3, r3, r6
 234 0034 0560     		str	r5, [r0]
 235 0036 E56B     		ldr	r5, [r4, #60]
ARM GAS  /tmp/cci7LnvY.s 			page 5


 236 0038 6B60     		str	r3, [r5, #4]
 237 003a 019B     		ldr	r3, [sp, #4]
 238 003c 4360     		str	r3, [r0, #4]
 239 003e 6368     		ldr	r3, [r4, #4]
 240 0040 102B     		cmp	r3, #16
 241 0042 0ED1     		bne	.L20
 242 0044 8260     		str	r2, [r0, #8]
 243 0046 C160     		str	r1, [r0, #12]
 244              	.L21:
 245 0048 E36A     		ldr	r3, [r4, #44]
 246 004a 0268     		ldr	r2, [r0]
 247 004c 002B     		cmp	r3, #0
 248 004e 0BD0     		beq	.L22
 249 0050 0E23     		movs	r3, #14
 250 0052 1343     		orrs	r3, r2
 251              	.L25:
 252 0054 0360     		str	r3, [r0]
 253 0056 0123     		movs	r3, #1
 254 0058 0268     		ldr	r2, [r0]
 255 005a 1343     		orrs	r3, r2
 256 005c 0360     		str	r3, [r0]
 257 005e 0020     		movs	r0, #0
 258              	.L18:
 259              		@ sp needed
 260 0060 FEBD     		pop	{r1, r2, r3, r4, r5, r6, r7, pc}
 261              	.L20:
 262 0062 8160     		str	r1, [r0, #8]
 263 0064 C260     		str	r2, [r0, #12]
 264 0066 EFE7     		b	.L21
 265              	.L22:
 266 0068 0A23     		movs	r3, #10
 267 006a 1343     		orrs	r3, r2
 268 006c 0422     		movs	r2, #4
 269 006e 0360     		str	r3, [r0]
 270 0070 0368     		ldr	r3, [r0]
 271 0072 9343     		bics	r3, r2
 272 0074 EEE7     		b	.L25
 273              	.L19:
 274 0076 0220     		movs	r0, #2
 275 0078 EE77     		strb	r6, [r5, #31]
 276 007a F1E7     		b	.L18
 278              		.section	.text.HAL_DMA_Abort,"ax",%progbits
 279              		.align	1
 280              		.global	HAL_DMA_Abort
 281              		.syntax unified
 282              		.code	16
 283              		.thumb_func
 284              		.fpu softvfp
 286              	HAL_DMA_Abort:
 287              		@ args = 0, pretend = 0, frame = 0
 288              		@ frame_needed = 0, uses_anonymous_args = 0
 289 0000 0E21     		movs	r1, #14
 290 0002 0368     		ldr	r3, [r0]
 291 0004 10B5     		push	{r4, lr}
 292 0006 1A68     		ldr	r2, [r3]
 293 0008 046C     		ldr	r4, [r0, #64]
 294 000a 8A43     		bics	r2, r1
ARM GAS  /tmp/cci7LnvY.s 			page 6


 295 000c 1A60     		str	r2, [r3]
 296 000e 0122     		movs	r2, #1
 297              		@ sp needed
 298 0010 1968     		ldr	r1, [r3]
 299 0012 9143     		bics	r1, r2
 300 0014 1960     		str	r1, [r3]
 301 0016 1100     		movs	r1, r2
 302 0018 A140     		lsls	r1, r1, r4
 303 001a C36B     		ldr	r3, [r0, #60]
 304 001c 5960     		str	r1, [r3, #4]
 305 001e 831C     		adds	r3, r0, #2
 306 0020 DA77     		strb	r2, [r3, #31]
 307 0022 8318     		adds	r3, r0, r2
 308 0024 0020     		movs	r0, #0
 309 0026 D877     		strb	r0, [r3, #31]
 310 0028 10BD     		pop	{r4, pc}
 312              		.section	.text.HAL_DMA_Abort_IT,"ax",%progbits
 313              		.align	1
 314              		.global	HAL_DMA_Abort_IT
 315              		.syntax unified
 316              		.code	16
 317              		.thumb_func
 318              		.fpu softvfp
 320              	HAL_DMA_Abort_IT:
 321              		@ args = 0, pretend = 0, frame = 0
 322              		@ frame_needed = 0, uses_anonymous_args = 0
 323 0000 70B5     		push	{r4, r5, r6, lr}
 324 0002 841C     		adds	r4, r0, #2
 325 0004 E37F     		ldrb	r3, [r4, #31]
 326 0006 022B     		cmp	r3, #2
 327 0008 04D0     		beq	.L28
 328 000a 0423     		movs	r3, #4
 329 000c 8363     		str	r3, [r0, #56]
 330 000e 033B     		subs	r3, r3, #3
 331              	.L29:
 332 0010 1800     		movs	r0, r3
 333              		@ sp needed
 334 0012 70BD     		pop	{r4, r5, r6, pc}
 335              	.L28:
 336 0014 0E21     		movs	r1, #14
 337 0016 0368     		ldr	r3, [r0]
 338 0018 056C     		ldr	r5, [r0, #64]
 339 001a 1A68     		ldr	r2, [r3]
 340 001c 8A43     		bics	r2, r1
 341 001e 1A60     		str	r2, [r3]
 342 0020 0122     		movs	r2, #1
 343 0022 1968     		ldr	r1, [r3]
 344 0024 9143     		bics	r1, r2
 345 0026 1960     		str	r1, [r3]
 346 0028 1100     		movs	r1, r2
 347 002a A940     		lsls	r1, r1, r5
 348 002c C36B     		ldr	r3, [r0, #60]
 349 002e 5960     		str	r1, [r3, #4]
 350 0030 E277     		strb	r2, [r4, #31]
 351 0032 0024     		movs	r4, #0
 352 0034 8318     		adds	r3, r0, r2
 353 0036 DC77     		strb	r4, [r3, #31]
ARM GAS  /tmp/cci7LnvY.s 			page 7


 354 0038 426B     		ldr	r2, [r0, #52]
 355 003a 1300     		movs	r3, r2
 356 003c A242     		cmp	r2, r4
 357 003e E7D0     		beq	.L29
 358 0040 9047     		blx	r2
 359 0042 2300     		movs	r3, r4
 360 0044 E4E7     		b	.L29
 362              		.section	.text.HAL_DMA_PollForTransfer,"ax",%progbits
 363              		.align	1
 364              		.global	HAL_DMA_PollForTransfer
 365              		.syntax unified
 366              		.code	16
 367              		.thumb_func
 368              		.fpu softvfp
 370              	HAL_DMA_PollForTransfer:
 371              		@ args = 0, pretend = 0, frame = 16
 372              		@ frame_needed = 0, uses_anonymous_args = 0
 373 0000 F0B5     		push	{r4, r5, r6, r7, lr}
 374 0002 85B0     		sub	sp, sp, #20
 375 0004 0191     		str	r1, [sp, #4]
 376 0006 871C     		adds	r7, r0, #2
 377 0008 FB7F     		ldrb	r3, [r7, #31]
 378 000a 0400     		movs	r4, r0
 379 000c 1600     		movs	r6, r2
 380 000e DDB2     		uxtb	r5, r3
 381 0010 022B     		cmp	r3, #2
 382 0012 07D0     		beq	.L32
 383 0014 0423     		movs	r3, #4
 384 0016 8363     		str	r3, [r0, #56]
 385 0018 0023     		movs	r3, #0
 386 001a 0134     		adds	r4, r4, #1
 387 001c E377     		strb	r3, [r4, #31]
 388              	.L48:
 389 001e 0120     		movs	r0, #1
 390              	.L33:
 391 0020 05B0     		add	sp, sp, #20
 392              		@ sp needed
 393 0022 F0BD     		pop	{r4, r5, r6, r7, pc}
 394              	.L32:
 395 0024 0368     		ldr	r3, [r0]
 396 0026 1B68     		ldr	r3, [r3]
 397 0028 9B06     		lsls	r3, r3, #26
 398 002a 03D5     		bpl	.L34
 399 002c 8023     		movs	r3, #128
 400 002e 5B00     		lsls	r3, r3, #1
 401 0030 8363     		str	r3, [r0, #56]
 402 0032 F4E7     		b	.L48
 403              	.L34:
 404 0034 019A     		ldr	r2, [sp, #4]
 405 0036 036C     		ldr	r3, [r0, #64]
 406 0038 002A     		cmp	r2, #0
 407 003a 1AD1     		bne	.L35
 408              	.L47:
 409 003c 9D40     		lsls	r5, r5, r3
 410 003e FFF7FEFF 		bl	HAL_GetTick
 411 0042 0390     		str	r0, [sp, #12]
 412              	.L37:
ARM GAS  /tmp/cci7LnvY.s 			page 8


 413 0044 0820     		movs	r0, #8
 414 0046 226C     		ldr	r2, [r4, #64]
 415 0048 E36B     		ldr	r3, [r4, #60]
 416 004a 9040     		lsls	r0, r0, r2
 417 004c 0290     		str	r0, [sp, #8]
 418              	.L39:
 419 004e 2800     		movs	r0, r5
 420 0050 1968     		ldr	r1, [r3]
 421 0052 0840     		ands	r0, r1
 422 0054 8446     		mov	ip, r0
 423 0056 0D42     		tst	r5, r1
 424 0058 0DD0     		beq	.L42
 425 005a 0199     		ldr	r1, [sp, #4]
 426 005c 0029     		cmp	r1, #0
 427 005e 2AD1     		bne	.L43
 428 0060 0231     		adds	r1, r1, #2
 429 0062 9140     		lsls	r1, r1, r2
 430 0064 5960     		str	r1, [r3, #4]
 431 0066 0123     		movs	r3, #1
 432 0068 FB77     		strb	r3, [r7, #31]
 433              	.L44:
 434 006a 0020     		movs	r0, #0
 435 006c 0134     		adds	r4, r4, #1
 436 006e E077     		strb	r0, [r4, #31]
 437 0070 D6E7     		b	.L33
 438              	.L35:
 439 0072 0425     		movs	r5, #4
 440 0074 E2E7     		b	.L47
 441              	.L42:
 442 0076 1968     		ldr	r1, [r3]
 443 0078 0298     		ldr	r0, [sp, #8]
 444 007a 0842     		tst	r0, r1
 445 007c 09D0     		beq	.L38
 446 007e 0120     		movs	r0, #1
 447 0080 0100     		movs	r1, r0
 448 0082 9140     		lsls	r1, r1, r2
 449 0084 5960     		str	r1, [r3, #4]
 450 0086 6346     		mov	r3, ip
 451 0088 A063     		str	r0, [r4, #56]
 452 008a F877     		strb	r0, [r7, #31]
 453 008c 2418     		adds	r4, r4, r0
 454              	.L49:
 455 008e E377     		strb	r3, [r4, #31]
 456 0090 C6E7     		b	.L33
 457              	.L38:
 458 0092 711C     		adds	r1, r6, #1
 459 0094 DBD0     		beq	.L39
 460 0096 002E     		cmp	r6, #0
 461 0098 06D1     		bne	.L40
 462              	.L41:
 463 009a 2023     		movs	r3, #32
 464 009c 0120     		movs	r0, #1
 465 009e A363     		str	r3, [r4, #56]
 466 00a0 0023     		movs	r3, #0
 467 00a2 F877     		strb	r0, [r7, #31]
 468 00a4 2418     		adds	r4, r4, r0
 469 00a6 F2E7     		b	.L49
ARM GAS  /tmp/cci7LnvY.s 			page 9


 470              	.L40:
 471 00a8 FFF7FEFF 		bl	HAL_GetTick
 472 00ac 039B     		ldr	r3, [sp, #12]
 473 00ae C01A     		subs	r0, r0, r3
 474 00b0 B042     		cmp	r0, r6
 475 00b2 C7D9     		bls	.L37
 476 00b4 F1E7     		b	.L41
 477              	.L43:
 478 00b6 0421     		movs	r1, #4
 479 00b8 9140     		lsls	r1, r1, r2
 480 00ba 5960     		str	r1, [r3, #4]
 481 00bc D5E7     		b	.L44
 483              		.section	.text.HAL_DMA_IRQHandler,"ax",%progbits
 484              		.align	1
 485              		.global	HAL_DMA_IRQHandler
 486              		.syntax unified
 487              		.code	16
 488              		.thumb_func
 489              		.fpu softvfp
 491              	HAL_DMA_IRQHandler:
 492              		@ args = 0, pretend = 0, frame = 0
 493              		@ frame_needed = 0, uses_anonymous_args = 0
 494 0000 F8B5     		push	{r3, r4, r5, r6, r7, lr}
 495 0002 0427     		movs	r7, #4
 496 0004 3E00     		movs	r6, r7
 497 0006 016C     		ldr	r1, [r0, #64]
 498 0008 C26B     		ldr	r2, [r0, #60]
 499 000a 8E40     		lsls	r6, r6, r1
 500 000c 1568     		ldr	r5, [r2]
 501 000e 0368     		ldr	r3, [r0]
 502 0010 1C68     		ldr	r4, [r3]
 503 0012 3542     		tst	r5, r6
 504 0014 0DD0     		beq	.L51
 505 0016 3C42     		tst	r4, r7
 506 0018 0BD0     		beq	.L51
 507 001a 1968     		ldr	r1, [r3]
 508 001c 8906     		lsls	r1, r1, #26
 509 001e 02D4     		bmi	.L52
 510 0020 1968     		ldr	r1, [r3]
 511 0022 B943     		bics	r1, r7
 512 0024 1960     		str	r1, [r3]
 513              	.L52:
 514 0026 C36A     		ldr	r3, [r0, #44]
 515 0028 5660     		str	r6, [r2, #4]
 516 002a 002B     		cmp	r3, #0
 517 002c 19D0     		beq	.L50
 518              	.L82:
 519 002e 9847     		blx	r3
 520 0030 17E0     		b	.L50
 521              	.L51:
 522 0032 0227     		movs	r7, #2
 523 0034 3E00     		movs	r6, r7
 524 0036 8E40     		lsls	r6, r6, r1
 525 0038 3542     		tst	r5, r6
 526 003a 13D0     		beq	.L55
 527 003c 3C42     		tst	r4, r7
 528 003e 11D0     		beq	.L55
ARM GAS  /tmp/cci7LnvY.s 			page 10


 529 0040 1968     		ldr	r1, [r3]
 530 0042 8906     		lsls	r1, r1, #26
 531 0044 06D4     		bmi	.L56
 532 0046 0A24     		movs	r4, #10
 533 0048 1968     		ldr	r1, [r3]
 534 004a A143     		bics	r1, r4
 535 004c 1960     		str	r1, [r3]
 536 004e 0121     		movs	r1, #1
 537 0050 C319     		adds	r3, r0, r7
 538 0052 D977     		strb	r1, [r3, #31]
 539              	.L56:
 540 0054 5660     		str	r6, [r2, #4]
 541 0056 0022     		movs	r2, #0
 542 0058 431C     		adds	r3, r0, #1
 543 005a DA77     		strb	r2, [r3, #31]
 544 005c 836A     		ldr	r3, [r0, #40]
 545              	.L84:
 546 005e 9342     		cmp	r3, r2
 547 0060 E5D1     		bne	.L82
 548              	.L50:
 549              		@ sp needed
 550 0062 F8BD     		pop	{r3, r4, r5, r6, r7, pc}
 551              	.L55:
 552 0064 0826     		movs	r6, #8
 553 0066 3700     		movs	r7, r6
 554 0068 8F40     		lsls	r7, r7, r1
 555 006a 3D42     		tst	r5, r7
 556 006c F9D0     		beq	.L50
 557 006e 3442     		tst	r4, r6
 558 0070 F7D0     		beq	.L50
 559 0072 0E25     		movs	r5, #14
 560 0074 1C68     		ldr	r4, [r3]
 561 0076 AC43     		bics	r4, r5
 562 0078 1C60     		str	r4, [r3]
 563 007a 0123     		movs	r3, #1
 564 007c 1C00     		movs	r4, r3
 565 007e 8C40     		lsls	r4, r4, r1
 566 0080 5460     		str	r4, [r2, #4]
 567 0082 821C     		adds	r2, r0, #2
 568 0084 8363     		str	r3, [r0, #56]
 569 0086 D377     		strb	r3, [r2, #31]
 570 0088 0022     		movs	r2, #0
 571 008a C318     		adds	r3, r0, r3
 572 008c DA77     		strb	r2, [r3, #31]
 573 008e 036B     		ldr	r3, [r0, #48]
 574 0090 E5E7     		b	.L84
 576              		.section	.text.HAL_DMA_RegisterCallback,"ax",%progbits
 577              		.align	1
 578              		.global	HAL_DMA_RegisterCallback
 579              		.syntax unified
 580              		.code	16
 581              		.thumb_func
 582              		.fpu softvfp
 584              	HAL_DMA_RegisterCallback:
 585              		@ args = 0, pretend = 0, frame = 0
 586              		@ frame_needed = 0, uses_anonymous_args = 0
 587 0000 30B5     		push	{r4, r5, lr}
ARM GAS  /tmp/cci7LnvY.s 			page 11


 588 0002 441C     		adds	r4, r0, #1
 589 0004 E57F     		ldrb	r5, [r4, #31]
 590 0006 0300     		movs	r3, r0
 591 0008 0220     		movs	r0, #2
 592 000a 012D     		cmp	r5, #1
 593 000c 0ED0     		beq	.L86
 594 000e 1818     		adds	r0, r3, r0
 595 0010 C57F     		ldrb	r5, [r0, #31]
 596 0012 E8B2     		uxtb	r0, r5
 597 0014 012D     		cmp	r5, #1
 598 0016 11D1     		bne	.L94
 599 0018 0329     		cmp	r1, #3
 600 001a 05D8     		bhi	.L87
 601 001c 0800     		movs	r0, r1
 602 001e FFF7FEFF 		bl	__gnu_thumb1_case_uqi
 603              	.L89:
 604 0022 02       		.byte	(.L92-.L89)/2
 605 0023 06       		.byte	(.L91-.L89)/2
 606 0024 09       		.byte	(.L90-.L89)/2
 607 0025 0B       		.byte	(.L88-.L89)/2
 608              		.p2align 1
 609              	.L92:
 610 0026 9A62     		str	r2, [r3, #40]
 611              	.L87:
 612 0028 0023     		movs	r3, #0
 613 002a E377     		strb	r3, [r4, #31]
 614              	.L86:
 615              		@ sp needed
 616 002c 30BD     		pop	{r4, r5, pc}
 617              	.L91:
 618 002e DA62     		str	r2, [r3, #44]
 619              	.L95:
 620 0030 0020     		movs	r0, #0
 621 0032 F9E7     		b	.L87
 622              	.L90:
 623 0034 1A63     		str	r2, [r3, #48]
 624 0036 FBE7     		b	.L95
 625              	.L88:
 626 0038 5A63     		str	r2, [r3, #52]
 627 003a F9E7     		b	.L95
 628              	.L94:
 629 003c 0120     		movs	r0, #1
 630 003e F3E7     		b	.L87
 632              		.section	.text.HAL_DMA_UnRegisterCallback,"ax",%progbits
 633              		.align	1
 634              		.global	HAL_DMA_UnRegisterCallback
 635              		.syntax unified
 636              		.code	16
 637              		.thumb_func
 638              		.fpu softvfp
 640              	HAL_DMA_UnRegisterCallback:
 641              		@ args = 0, pretend = 0, frame = 0
 642              		@ frame_needed = 0, uses_anonymous_args = 0
 643 0000 30B5     		push	{r4, r5, lr}
 644 0002 441C     		adds	r4, r0, #1
 645 0004 E27F     		ldrb	r2, [r4, #31]
 646 0006 0300     		movs	r3, r0
ARM GAS  /tmp/cci7LnvY.s 			page 12


 647 0008 0220     		movs	r0, #2
 648 000a 012A     		cmp	r2, #1
 649 000c 12D0     		beq	.L97
 650 000e 0122     		movs	r2, #1
 651 0010 1818     		adds	r0, r3, r0
 652 0012 E277     		strb	r2, [r4, #31]
 653 0014 C57F     		ldrb	r5, [r0, #31]
 654 0016 E8B2     		uxtb	r0, r5
 655 0018 9542     		cmp	r5, r2
 656 001a 16D1     		bne	.L106
 657 001c 0429     		cmp	r1, #4
 658 001e 07D8     		bhi	.L98
 659 0020 0800     		movs	r0, r1
 660 0022 0022     		movs	r2, #0
 661 0024 FFF7FEFF 		bl	__gnu_thumb1_case_uqi
 662              	.L100:
 663 0028 03       		.byte	(.L104-.L100)/2
 664 0029 07       		.byte	(.L103-.L100)/2
 665 002a 0A       		.byte	(.L102-.L100)/2
 666 002b 0F       		.byte	(.L101-.L100)/2
 667 002c 0C       		.byte	(.L99-.L100)/2
 668 002d 00       		.p2align 1
 669              	.L104:
 670 002e 9A62     		str	r2, [r3, #40]
 671              	.L98:
 672 0030 0023     		movs	r3, #0
 673 0032 E377     		strb	r3, [r4, #31]
 674              	.L97:
 675              		@ sp needed
 676 0034 30BD     		pop	{r4, r5, pc}
 677              	.L103:
 678 0036 DA62     		str	r2, [r3, #44]
 679              	.L107:
 680 0038 0020     		movs	r0, #0
 681 003a F9E7     		b	.L98
 682              	.L102:
 683 003c 1A63     		str	r2, [r3, #48]
 684 003e FBE7     		b	.L107
 685              	.L99:
 686 0040 9A62     		str	r2, [r3, #40]
 687 0042 DA62     		str	r2, [r3, #44]
 688 0044 1A63     		str	r2, [r3, #48]
 689              	.L101:
 690 0046 5A63     		str	r2, [r3, #52]
 691 0048 F6E7     		b	.L107
 692              	.L106:
 693 004a 1000     		movs	r0, r2
 694 004c F0E7     		b	.L98
 696              		.section	.text.HAL_DMA_GetState,"ax",%progbits
 697              		.align	1
 698              		.global	HAL_DMA_GetState
 699              		.syntax unified
 700              		.code	16
 701              		.thumb_func
 702              		.fpu softvfp
 704              	HAL_DMA_GetState:
 705              		@ args = 0, pretend = 0, frame = 0
ARM GAS  /tmp/cci7LnvY.s 			page 13


 706              		@ frame_needed = 0, uses_anonymous_args = 0
 707              		@ link register save eliminated.
 708 0000 0230     		adds	r0, r0, #2
 709 0002 C07F     		ldrb	r0, [r0, #31]
 710              		@ sp needed
 711 0004 C0B2     		uxtb	r0, r0
 712 0006 7047     		bx	lr
 714              		.section	.text.HAL_DMA_GetError,"ax",%progbits
 715              		.align	1
 716              		.global	HAL_DMA_GetError
 717              		.syntax unified
 718              		.code	16
 719              		.thumb_func
 720              		.fpu softvfp
 722              	HAL_DMA_GetError:
 723              		@ args = 0, pretend = 0, frame = 0
 724              		@ frame_needed = 0, uses_anonymous_args = 0
 725              		@ link register save eliminated.
 726 0000 806B     		ldr	r0, [r0, #56]
 727              		@ sp needed
 728 0002 7047     		bx	lr
 730              		.ident	"GCC: (Arch Repository) 10.1.0"
ARM GAS  /tmp/cci7LnvY.s 			page 14

