ARM GAS  /tmp/cc7GQVg5.s 			page 1


   1              		.cpu cortex-m0
   2              		.eabi_attribute 20, 1
   3              		.eabi_attribute 21, 1
   4              		.eabi_attribute 23, 3
   5              		.eabi_attribute 24, 1
   6              		.eabi_attribute 25, 1
   7              		.eabi_attribute 26, 1
   8              		.eabi_attribute 30, 4
   9              		.eabi_attribute 34, 0
  10              		.eabi_attribute 18, 4
  11              		.file	"stm32f0xx_hal_flash_ex.c"
  12              		.text
  13              		.section	.text.FLASH_MassErase,"ax",%progbits
  14              		.align	1
  15              		.arch armv6s-m
  16              		.syntax unified
  17              		.code	16
  18              		.thumb_func
  19              		.fpu softvfp
  21              	FLASH_MassErase:
  22              		@ args = 0, pretend = 0, frame = 0
  23              		@ frame_needed = 0, uses_anonymous_args = 0
  24              		@ link register save eliminated.
  25 0000 0022     		movs	r2, #0
  26              		@ sp needed
  27 0002 064B     		ldr	r3, .L2
  28 0004 DA61     		str	r2, [r3, #28]
  29 0006 064B     		ldr	r3, .L2+4
  30 0008 0432     		adds	r2, r2, #4
  31 000a 1969     		ldr	r1, [r3, #16]
  32 000c 0A43     		orrs	r2, r1
  33 000e 1A61     		str	r2, [r3, #16]
  34 0010 4022     		movs	r2, #64
  35 0012 1969     		ldr	r1, [r3, #16]
  36 0014 0A43     		orrs	r2, r1
  37 0016 1A61     		str	r2, [r3, #16]
  38 0018 7047     		bx	lr
  39              	.L3:
  40 001a C046     		.align	2
  41              	.L2:
  42 001c 00000000 		.word	pFlash
  43 0020 00200240 		.word	1073881088
  45              		.section	.text.FLASH_OB_RDP_LevelConfig,"ax",%progbits
  46              		.align	1
  47              		.syntax unified
  48              		.code	16
  49              		.thumb_func
  50              		.fpu softvfp
  52              	FLASH_OB_RDP_LevelConfig:
  53              		@ args = 0, pretend = 0, frame = 0
  54              		@ frame_needed = 0, uses_anonymous_args = 0
  55 0000 70B5     		push	{r4, r5, r6, lr}
  56 0002 0500     		movs	r5, r0
  57 0004 1248     		ldr	r0, .L6
  58 0006 FFF7FEFF 		bl	FLASH_WaitForLastOperation
  59 000a 0028     		cmp	r0, #0
  60 000c 1FD1     		bne	.L5
ARM GAS  /tmp/cc7GQVg5.s 			page 2


  61 000e 2026     		movs	r6, #32
  62 0010 104B     		ldr	r3, .L6+4
  63 0012 114C     		ldr	r4, .L6+8
  64 0014 D861     		str	r0, [r3, #28]
  65 0016 2369     		ldr	r3, [r4, #16]
  66 0018 0D48     		ldr	r0, .L6
  67 001a 3343     		orrs	r3, r6
  68 001c 2361     		str	r3, [r4, #16]
  69 001e 4023     		movs	r3, #64
  70 0020 2269     		ldr	r2, [r4, #16]
  71 0022 1343     		orrs	r3, r2
  72 0024 2361     		str	r3, [r4, #16]
  73 0026 FFF7FEFF 		bl	FLASH_WaitForLastOperation
  74 002a 2369     		ldr	r3, [r4, #16]
  75 002c B343     		bics	r3, r6
  76 002e 2361     		str	r3, [r4, #16]
  77 0030 0028     		cmp	r0, #0
  78 0032 0CD1     		bne	.L5
  79 0034 2369     		ldr	r3, [r4, #16]
  80 0036 103E     		subs	r6, r6, #16
  81 0038 3343     		orrs	r3, r6
  82 003a 2361     		str	r3, [r4, #16]
  83 003c 074B     		ldr	r3, .L6+12
  84 003e ADB2     		uxth	r5, r5
  85 0040 1D80     		strh	r5, [r3]
  86 0042 0348     		ldr	r0, .L6
  87 0044 FFF7FEFF 		bl	FLASH_WaitForLastOperation
  88 0048 2369     		ldr	r3, [r4, #16]
  89 004a B343     		bics	r3, r6
  90 004c 2361     		str	r3, [r4, #16]
  91              	.L5:
  92              		@ sp needed
  93 004e 70BD     		pop	{r4, r5, r6, pc}
  94              	.L7:
  95              		.align	2
  96              	.L6:
  97 0050 50C30000 		.word	50000
  98 0054 00000000 		.word	pFlash
  99 0058 00200240 		.word	1073881088
 100 005c 00F8FF1F 		.word	536868864
 102              		.section	.text.HAL_FLASHEx_OBErase,"ax",%progbits
 103              		.align	1
 104              		.global	HAL_FLASHEx_OBErase
 105              		.syntax unified
 106              		.code	16
 107              		.thumb_func
 108              		.fpu softvfp
 110              	HAL_FLASHEx_OBErase:
 111              		@ args = 0, pretend = 0, frame = 0
 112              		@ frame_needed = 0, uses_anonymous_args = 0
 113 0000 0622     		movs	r2, #6
 114 0002 70B5     		push	{r4, r5, r6, lr}
 115 0004 114C     		ldr	r4, .L13
 116 0006 AA25     		movs	r5, #170
 117 0008 E369     		ldr	r3, [r4, #28]
 118 000a 1342     		tst	r3, r2
 119 000c 03D0     		beq	.L9
ARM GAS  /tmp/cc7GQVg5.s 			page 3


 120 000e 2235     		adds	r5, r5, #34
 121 0010 5B07     		lsls	r3, r3, #29
 122 0012 00D4     		bmi	.L9
 123 0014 113D     		subs	r5, r5, #17
 124              	.L9:
 125 0016 0E48     		ldr	r0, .L13+4
 126 0018 FFF7FEFF 		bl	FLASH_WaitForLastOperation
 127 001c 0028     		cmp	r0, #0
 128 001e 14D1     		bne	.L10
 129 0020 2026     		movs	r6, #32
 130 0022 0C4B     		ldr	r3, .L13+8
 131 0024 D861     		str	r0, [r3, #28]
 132 0026 2369     		ldr	r3, [r4, #16]
 133 0028 0948     		ldr	r0, .L13+4
 134 002a 3343     		orrs	r3, r6
 135 002c 2361     		str	r3, [r4, #16]
 136 002e 4023     		movs	r3, #64
 137 0030 2269     		ldr	r2, [r4, #16]
 138 0032 1343     		orrs	r3, r2
 139 0034 2361     		str	r3, [r4, #16]
 140 0036 FFF7FEFF 		bl	FLASH_WaitForLastOperation
 141 003a 2369     		ldr	r3, [r4, #16]
 142 003c B343     		bics	r3, r6
 143 003e 2361     		str	r3, [r4, #16]
 144 0040 0028     		cmp	r0, #0
 145 0042 02D1     		bne	.L10
 146 0044 E8B2     		uxtb	r0, r5
 147 0046 FFF7FEFF 		bl	FLASH_OB_RDP_LevelConfig
 148              	.L10:
 149              		@ sp needed
 150 004a 70BD     		pop	{r4, r5, r6, pc}
 151              	.L14:
 152              		.align	2
 153              	.L13:
 154 004c 00200240 		.word	1073881088
 155 0050 50C30000 		.word	50000
 156 0054 00000000 		.word	pFlash
 158              		.section	.text.HAL_FLASHEx_OBProgram,"ax",%progbits
 159              		.align	1
 160              		.global	HAL_FLASHEx_OBProgram
 161              		.syntax unified
 162              		.code	16
 163              		.thumb_func
 164              		.fpu softvfp
 166              	HAL_FLASHEx_OBProgram:
 167              		@ args = 0, pretend = 0, frame = 8
 168              		@ frame_needed = 0, uses_anonymous_args = 0
 169 0000 F7B5     		push	{r0, r1, r2, r4, r5, r6, r7, lr}
 170 0002 734D     		ldr	r5, .L85
 171 0004 0400     		movs	r4, r0
 172 0006 2B7E     		ldrb	r3, [r5, #24]
 173 0008 0220     		movs	r0, #2
 174 000a 012B     		cmp	r3, #1
 175 000c 50D0     		beq	.L16
 176 000e 0138     		subs	r0, r0, #1
 177 0010 2876     		strb	r0, [r5, #24]
 178 0012 2368     		ldr	r3, [r4]
ARM GAS  /tmp/cc7GQVg5.s 			page 4


 179 0014 0342     		tst	r3, r0
 180 0016 00D1     		bne	.LCB168
 181 0018 95E0     		b	.L17	@long jump
 182              	.LCB168:
 183 001a 6368     		ldr	r3, [r4, #4]
 184 001c A768     		ldr	r7, [r4, #8]
 185 001e 6D4E     		ldr	r6, .L85+4
 186 0020 8342     		cmp	r3, r0
 187 0022 4ED1     		bne	.L18
 188 0024 336A     		ldr	r3, [r6, #32]
 189 0026 6C48     		ldr	r0, .L85+8
 190 0028 0193     		str	r3, [sp, #4]
 191 002a FFF7FEFF 		bl	FLASH_WaitForLastOperation
 192 002e 0028     		cmp	r0, #0
 193 0030 3CD1     		bne	.L40
 194 0032 E861     		str	r0, [r5, #28]
 195 0034 FFF7FEFF 		bl	HAL_FLASHEx_OBErase
 196 0038 0028     		cmp	r0, #0
 197 003a 37D1     		bne	.L40
 198 003c 1022     		movs	r2, #16
 199 003e 019B     		ldr	r3, [sp, #4]
 200 0040 BB43     		bics	r3, r7
 201 0042 1F00     		movs	r7, r3
 202 0044 D9B2     		uxtb	r1, r3
 203 0046 3369     		ldr	r3, [r6, #16]
 204 0048 1A43     		orrs	r2, r3
 205 004a 3261     		str	r2, [r6, #16]
 206 004c FF29     		cmp	r1, #255
 207 004e 1ED1     		bne	.L20
 208              	.L23:
 209 0050 3B0A     		lsrs	r3, r7, #8
 210 0052 DBB2     		uxtb	r3, r3
 211 0054 FF2B     		cmp	r3, #255
 212 0056 08D0     		beq	.L22
 213 0058 6049     		ldr	r1, .L85+12
 214 005a 5F48     		ldr	r0, .L85+8
 215 005c 4A89     		ldrh	r2, [r1, #10]
 216 005e 1340     		ands	r3, r2
 217 0060 4B81     		strh	r3, [r1, #10]
 218 0062 FFF7FEFF 		bl	FLASH_WaitForLastOperation
 219 0066 0028     		cmp	r0, #0
 220 0068 1AD1     		bne	.L33
 221              	.L22:
 222 006a 3B0C     		lsrs	r3, r7, #16
 223 006c DBB2     		uxtb	r3, r3
 224 006e FF2B     		cmp	r3, #255
 225 0070 08D0     		beq	.L26
 226 0072 5A49     		ldr	r1, .L85+12
 227 0074 5848     		ldr	r0, .L85+8
 228 0076 8A89     		ldrh	r2, [r1, #12]
 229 0078 1340     		ands	r3, r2
 230 007a 8B81     		strh	r3, [r1, #12]
 231 007c FFF7FEFF 		bl	FLASH_WaitForLastOperation
 232 0080 0028     		cmp	r0, #0
 233 0082 0DD1     		bne	.L33
 234              	.L26:
 235 0084 3F0E     		lsrs	r7, r7, #24
ARM GAS  /tmp/cc7GQVg5.s 			page 5


 236 0086 FF2F     		cmp	r7, #255
 237 0088 13D1     		bne	.L27
 238              	.L84:
 239 008a 0020     		movs	r0, #0
 240 008c 08E0     		b	.L33
 241              	.L20:
 242 008e 534A     		ldr	r2, .L85+12
 243 0090 5148     		ldr	r0, .L85+8
 244 0092 1389     		ldrh	r3, [r2, #8]
 245 0094 0B40     		ands	r3, r1
 246 0096 1381     		strh	r3, [r2, #8]
 247 0098 FFF7FEFF 		bl	FLASH_WaitForLastOperation
 248 009c 0028     		cmp	r0, #0
 249 009e D7D0     		beq	.L23
 250              	.L33:
 251 00a0 1022     		movs	r2, #16
 252 00a2 3369     		ldr	r3, [r6, #16]
 253 00a4 9343     		bics	r3, r2
 254 00a6 3361     		str	r3, [r6, #16]
 255 00a8 0028     		cmp	r0, #0
 256 00aa 4CD0     		beq	.L17
 257              	.L40:
 258 00ac 0023     		movs	r3, #0
 259 00ae 2B76     		strb	r3, [r5, #24]
 260              	.L16:
 261              		@ sp needed
 262 00b0 FEBD     		pop	{r1, r2, r3, r4, r5, r6, r7, pc}
 263              	.L27:
 264 00b2 4A4B     		ldr	r3, .L85+12
 265 00b4 DA89     		ldrh	r2, [r3, #14]
 266 00b6 1740     		ands	r7, r2
 267 00b8 DF81     		strh	r7, [r3, #14]
 268              	.L83:
 269 00ba 4748     		ldr	r0, .L85+8
 270 00bc FFF7FEFF 		bl	FLASH_WaitForLastOperation
 271 00c0 EEE7     		b	.L33
 272              	.L18:
 273 00c2 336A     		ldr	r3, [r6, #32]
 274 00c4 4448     		ldr	r0, .L85+8
 275 00c6 0193     		str	r3, [sp, #4]
 276 00c8 FFF7FEFF 		bl	FLASH_WaitForLastOperation
 277 00cc 0028     		cmp	r0, #0
 278 00ce EDD1     		bne	.L40
 279 00d0 E861     		str	r0, [r5, #28]
 280 00d2 FFF7FEFF 		bl	HAL_FLASHEx_OBErase
 281 00d6 0028     		cmp	r0, #0
 282 00d8 E8D1     		bne	.L40
 283 00da 1022     		movs	r2, #16
 284 00dc 019B     		ldr	r3, [sp, #4]
 285 00de 3169     		ldr	r1, [r6, #16]
 286 00e0 3B43     		orrs	r3, r7
 287 00e2 1F00     		movs	r7, r3
 288 00e4 0A43     		orrs	r2, r1
 289 00e6 DBB2     		uxtb	r3, r3
 290 00e8 3261     		str	r2, [r6, #16]
 291 00ea FF2B     		cmp	r3, #255
 292 00ec 21D1     		bne	.L29
ARM GAS  /tmp/cc7GQVg5.s 			page 6


 293              	.L32:
 294 00ee 3B0A     		lsrs	r3, r7, #8
 295 00f0 DBB2     		uxtb	r3, r3
 296 00f2 FF2B     		cmp	r3, #255
 297 00f4 08D0     		beq	.L31
 298 00f6 394A     		ldr	r2, .L85+12
 299 00f8 3748     		ldr	r0, .L85+8
 300 00fa 5189     		ldrh	r1, [r2, #10]
 301 00fc 0B43     		orrs	r3, r1
 302 00fe 5381     		strh	r3, [r2, #10]
 303 0100 FFF7FEFF 		bl	FLASH_WaitForLastOperation
 304 0104 0028     		cmp	r0, #0
 305 0106 CBD1     		bne	.L33
 306              	.L31:
 307 0108 3B0C     		lsrs	r3, r7, #16
 308 010a DBB2     		uxtb	r3, r3
 309 010c FF2B     		cmp	r3, #255
 310 010e 08D0     		beq	.L35
 311 0110 324A     		ldr	r2, .L85+12
 312 0112 3148     		ldr	r0, .L85+8
 313 0114 9189     		ldrh	r1, [r2, #12]
 314 0116 0B43     		orrs	r3, r1
 315 0118 9381     		strh	r3, [r2, #12]
 316 011a FFF7FEFF 		bl	FLASH_WaitForLastOperation
 317 011e 0028     		cmp	r0, #0
 318 0120 BED1     		bne	.L33
 319              	.L35:
 320 0122 3F0E     		lsrs	r7, r7, #24
 321 0124 FF2F     		cmp	r7, #255
 322 0126 B0D0     		beq	.L84
 323 0128 2C4A     		ldr	r2, .L85+12
 324 012a D389     		ldrh	r3, [r2, #14]
 325 012c 1F43     		orrs	r7, r3
 326 012e D781     		strh	r7, [r2, #14]
 327 0130 C3E7     		b	.L83
 328              	.L29:
 329 0132 2A4A     		ldr	r2, .L85+12
 330 0134 2848     		ldr	r0, .L85+8
 331 0136 1189     		ldrh	r1, [r2, #8]
 332 0138 0B43     		orrs	r3, r1
 333 013a 1381     		strh	r3, [r2, #8]
 334 013c FFF7FEFF 		bl	FLASH_WaitForLastOperation
 335 0140 0028     		cmp	r0, #0
 336 0142 ADD1     		bne	.L33
 337 0144 D3E7     		b	.L32
 338              	.L17:
 339 0146 2368     		ldr	r3, [r4]
 340 0148 9B07     		lsls	r3, r3, #30
 341 014a 04D5     		bpl	.L37
 342 014c 207B     		ldrb	r0, [r4, #12]
 343 014e FFF7FEFF 		bl	FLASH_OB_RDP_LevelConfig
 344 0152 0028     		cmp	r0, #0
 345 0154 AAD1     		bne	.L40
 346              	.L37:
 347 0156 2368     		ldr	r3, [r4]
 348 0158 5B07     		lsls	r3, r3, #29
 349 015a 1BD5     		bpl	.L38
ARM GAS  /tmp/cc7GQVg5.s 			page 7


 350 015c 637B     		ldrb	r3, [r4, #13]
 351 015e 1E48     		ldr	r0, .L85+8
 352 0160 0193     		str	r3, [sp, #4]
 353 0162 FFF7FEFF 		bl	FLASH_WaitForLastOperation
 354 0166 0028     		cmp	r0, #0
 355 0168 A0D1     		bne	.L40
 356 016a 1027     		movs	r7, #16
 357 016c 194E     		ldr	r6, .L85+4
 358 016e E861     		str	r0, [r5, #28]
 359 0170 3369     		ldr	r3, [r6, #16]
 360 0172 019A     		ldr	r2, [sp, #4]
 361 0174 3B43     		orrs	r3, r7
 362 0176 3361     		str	r3, [r6, #16]
 363 0178 8823     		movs	r3, #136
 364 017a 1A43     		orrs	r2, r3
 365 017c 1300     		movs	r3, r2
 366 017e 174A     		ldr	r2, .L85+12
 367 0180 1548     		ldr	r0, .L85+8
 368 0182 5380     		strh	r3, [r2, #2]
 369 0184 FFF7FEFF 		bl	FLASH_WaitForLastOperation
 370 0188 3369     		ldr	r3, [r6, #16]
 371 018a BB43     		bics	r3, r7
 372 018c 3361     		str	r3, [r6, #16]
 373 018e 0028     		cmp	r0, #0
 374 0190 00D0     		beq	.LCB416
 375 0192 8BE7     		b	.L40	@long jump
 376              	.LCB416:
 377              	.L38:
 378 0194 2368     		ldr	r3, [r4]
 379 0196 1B07     		lsls	r3, r3, #28
 380 0198 00D4     		bmi	.LCB423
 381 019a 87E7     		b	.L40	@long jump
 382              	.LCB423:
 383 019c 2369     		ldr	r3, [r4, #16]
 384 019e 0E48     		ldr	r0, .L85+8
 385 01a0 0193     		str	r3, [sp, #4]
 386 01a2 267D     		ldrb	r6, [r4, #20]
 387 01a4 FFF7FEFF 		bl	FLASH_WaitForLastOperation
 388 01a8 0028     		cmp	r0, #0
 389 01aa 00D0     		beq	.LCB430
 390 01ac 7EE7     		b	.L40	@long jump
 391              	.LCB430:
 392 01ae 1027     		movs	r7, #16
 393 01b0 084C     		ldr	r4, .L85+4
 394 01b2 E861     		str	r0, [r5, #28]
 395 01b4 2369     		ldr	r3, [r4, #16]
 396 01b6 B6B2     		uxth	r6, r6
 397 01b8 3B43     		orrs	r3, r7
 398 01ba 2361     		str	r3, [r4, #16]
 399 01bc 019B     		ldr	r3, [sp, #4]
 400 01be 0648     		ldr	r0, .L85+8
 401 01c0 1E80     		strh	r6, [r3]
 402 01c2 FFF7FEFF 		bl	FLASH_WaitForLastOperation
 403 01c6 2369     		ldr	r3, [r4, #16]
 404 01c8 BB43     		bics	r3, r7
 405 01ca 2361     		str	r3, [r4, #16]
 406 01cc 6EE7     		b	.L40
ARM GAS  /tmp/cc7GQVg5.s 			page 8


 407              	.L86:
 408 01ce C046     		.align	2
 409              	.L85:
 410 01d0 00000000 		.word	pFlash
 411 01d4 00200240 		.word	1073881088
 412 01d8 50C30000 		.word	50000
 413 01dc 00F8FF1F 		.word	536868864
 415              		.section	.text.HAL_FLASHEx_OBGetConfig,"ax",%progbits
 416              		.align	1
 417              		.global	HAL_FLASHEx_OBGetConfig
 418              		.syntax unified
 419              		.code	16
 420              		.thumb_func
 421              		.fpu softvfp
 423              	HAL_FLASHEx_OBGetConfig:
 424              		@ args = 0, pretend = 0, frame = 0
 425              		@ frame_needed = 0, uses_anonymous_args = 0
 426 0000 0723     		movs	r3, #7
 427 0002 10B5     		push	{r4, lr}
 428 0004 0624     		movs	r4, #6
 429 0006 0360     		str	r3, [r0]
 430 0008 084B     		ldr	r3, .L91
 431 000a 1A6A     		ldr	r2, [r3, #32]
 432 000c 8260     		str	r2, [r0, #8]
 433 000e D969     		ldr	r1, [r3, #28]
 434 0010 AA22     		movs	r2, #170
 435 0012 2142     		tst	r1, r4
 436 0014 03D0     		beq	.L88
 437 0016 2232     		adds	r2, r2, #34
 438 0018 4907     		lsls	r1, r1, #29
 439 001a 00D4     		bmi	.L88
 440 001c 113A     		subs	r2, r2, #17
 441              	.L88:
 442 001e 0273     		strb	r2, [r0, #12]
 443 0020 7722     		movs	r2, #119
 444              		@ sp needed
 445 0022 DB69     		ldr	r3, [r3, #28]
 446 0024 1B0A     		lsrs	r3, r3, #8
 447 0026 1340     		ands	r3, r2
 448 0028 4373     		strb	r3, [r0, #13]
 449 002a 10BD     		pop	{r4, pc}
 450              	.L92:
 451              		.align	2
 452              	.L91:
 453 002c 00200240 		.word	1073881088
 455              		.section	.text.HAL_FLASHEx_OBGetUserData,"ax",%progbits
 456              		.align	1
 457              		.global	HAL_FLASHEx_OBGetUserData
 458              		.syntax unified
 459              		.code	16
 460              		.thumb_func
 461              		.fpu softvfp
 463              	HAL_FLASHEx_OBGetUserData:
 464              		@ args = 0, pretend = 0, frame = 0
 465              		@ frame_needed = 0, uses_anonymous_args = 0
 466              		@ link register save eliminated.
 467 0000 054A     		ldr	r2, .L96
ARM GAS  /tmp/cc7GQVg5.s 			page 9


 468 0002 064B     		ldr	r3, .L96+4
 469 0004 9042     		cmp	r0, r2
 470 0006 03D1     		bne	.L94
 471 0008 D869     		ldr	r0, [r3, #28]
 472 000a 000C     		lsrs	r0, r0, #16
 473 000c C0B2     		uxtb	r0, r0
 474              	.L93:
 475              		@ sp needed
 476 000e 7047     		bx	lr
 477              	.L94:
 478 0010 D869     		ldr	r0, [r3, #28]
 479 0012 000E     		lsrs	r0, r0, #24
 480 0014 FBE7     		b	.L93
 481              	.L97:
 482 0016 C046     		.align	2
 483              	.L96:
 484 0018 04F8FF1F 		.word	536868868
 485 001c 00200240 		.word	1073881088
 487              		.section	.text.FLASH_PageErase,"ax",%progbits
 488              		.align	1
 489              		.global	FLASH_PageErase
 490              		.syntax unified
 491              		.code	16
 492              		.thumb_func
 493              		.fpu softvfp
 495              	FLASH_PageErase:
 496              		@ args = 0, pretend = 0, frame = 0
 497              		@ frame_needed = 0, uses_anonymous_args = 0
 498              		@ link register save eliminated.
 499 0000 0022     		movs	r2, #0
 500              		@ sp needed
 501 0002 064B     		ldr	r3, .L99
 502 0004 DA61     		str	r2, [r3, #28]
 503 0006 064B     		ldr	r3, .L99+4
 504 0008 0232     		adds	r2, r2, #2
 505 000a 1969     		ldr	r1, [r3, #16]
 506 000c 0A43     		orrs	r2, r1
 507 000e 1A61     		str	r2, [r3, #16]
 508 0010 4022     		movs	r2, #64
 509 0012 5861     		str	r0, [r3, #20]
 510 0014 1969     		ldr	r1, [r3, #16]
 511 0016 0A43     		orrs	r2, r1
 512 0018 1A61     		str	r2, [r3, #16]
 513 001a 7047     		bx	lr
 514              	.L100:
 515              		.align	2
 516              	.L99:
 517 001c 00000000 		.word	pFlash
 518 0020 00200240 		.word	1073881088
 520              		.section	.text.HAL_FLASHEx_Erase,"ax",%progbits
 521              		.align	1
 522              		.global	HAL_FLASHEx_Erase
 523              		.syntax unified
 524              		.code	16
 525              		.thumb_func
 526              		.fpu softvfp
 528              	HAL_FLASHEx_Erase:
ARM GAS  /tmp/cc7GQVg5.s 			page 10


 529              		@ args = 0, pretend = 0, frame = 0
 530              		@ frame_needed = 0, uses_anonymous_args = 0
 531 0000 F8B5     		push	{r3, r4, r5, r6, r7, lr}
 532 0002 214F     		ldr	r7, .L111
 533 0004 0400     		movs	r4, r0
 534 0006 3B7E     		ldrb	r3, [r7, #24]
 535 0008 0E00     		movs	r6, r1
 536 000a 0220     		movs	r0, #2
 537 000c 012B     		cmp	r3, #1
 538 000e 0CD0     		beq	.L102
 539 0010 0123     		movs	r3, #1
 540 0012 3B76     		strb	r3, [r7, #24]
 541 0014 2368     		ldr	r3, [r4]
 542 0016 1D48     		ldr	r0, .L111+4
 543 0018 012B     		cmp	r3, #1
 544 001a 12D1     		bne	.L103
 545 001c FFF7FEFF 		bl	FLASH_WaitForLastOperation
 546 0020 0028     		cmp	r0, #0
 547 0022 03D0     		beq	.L104
 548              	.L106:
 549 0024 0120     		movs	r0, #1
 550              	.L105:
 551 0026 0023     		movs	r3, #0
 552 0028 3B76     		strb	r3, [r7, #24]
 553              	.L102:
 554              		@ sp needed
 555 002a F8BD     		pop	{r3, r4, r5, r6, r7, pc}
 556              	.L104:
 557 002c FFF7FEFF 		bl	FLASH_MassErase
 558 0030 1648     		ldr	r0, .L111+4
 559 0032 FFF7FEFF 		bl	FLASH_WaitForLastOperation
 560 0036 0421     		movs	r1, #4
 561 0038 154A     		ldr	r2, .L111+8
 562 003a 1369     		ldr	r3, [r2, #16]
 563 003c 8B43     		bics	r3, r1
 564 003e 1361     		str	r3, [r2, #16]
 565 0040 F1E7     		b	.L105
 566              	.L103:
 567 0042 FFF7FEFF 		bl	FLASH_WaitForLastOperation
 568 0046 0028     		cmp	r0, #0
 569 0048 ECD1     		bne	.L106
 570 004a 0123     		movs	r3, #1
 571 004c 5B42     		rsbs	r3, r3, #0
 572 004e 3360     		str	r3, [r6]
 573 0050 6568     		ldr	r5, [r4, #4]
 574 0052 0130     		adds	r0, r0, #1
 575              	.L107:
 576 0054 A368     		ldr	r3, [r4, #8]
 577 0056 6268     		ldr	r2, [r4, #4]
 578 0058 DB02     		lsls	r3, r3, #11
 579 005a 9B18     		adds	r3, r3, r2
 580 005c AB42     		cmp	r3, r5
 581 005e E2D9     		bls	.L105
 582 0060 2800     		movs	r0, r5
 583 0062 FFF7FEFF 		bl	FLASH_PageErase
 584 0066 0948     		ldr	r0, .L111+4
 585 0068 FFF7FEFF 		bl	FLASH_WaitForLastOperation
ARM GAS  /tmp/cc7GQVg5.s 			page 11


 586 006c 0221     		movs	r1, #2
 587 006e 084A     		ldr	r2, .L111+8
 588 0070 1369     		ldr	r3, [r2, #16]
 589 0072 8B43     		bics	r3, r1
 590 0074 1361     		str	r3, [r2, #16]
 591 0076 0028     		cmp	r0, #0
 592 0078 01D0     		beq	.L108
 593 007a 3560     		str	r5, [r6]
 594 007c D3E7     		b	.L105
 595              	.L108:
 596 007e 8023     		movs	r3, #128
 597 0080 1B01     		lsls	r3, r3, #4
 598 0082 ED18     		adds	r5, r5, r3
 599 0084 E6E7     		b	.L107
 600              	.L112:
 601 0086 C046     		.align	2
 602              	.L111:
 603 0088 00000000 		.word	pFlash
 604 008c 50C30000 		.word	50000
 605 0090 00200240 		.word	1073881088
 607              		.section	.text.HAL_FLASHEx_Erase_IT,"ax",%progbits
 608              		.align	1
 609              		.global	HAL_FLASHEx_Erase_IT
 610              		.syntax unified
 611              		.code	16
 612              		.thumb_func
 613              		.fpu softvfp
 615              	HAL_FLASHEx_Erase_IT:
 616              		@ args = 0, pretend = 0, frame = 0
 617              		@ frame_needed = 0, uses_anonymous_args = 0
 618 0000 70B5     		push	{r4, r5, r6, lr}
 619 0002 124B     		ldr	r3, .L118
 620 0004 0224     		movs	r4, #2
 621 0006 1A7E     		ldrb	r2, [r3, #24]
 622 0008 012A     		cmp	r2, #1
 623 000a 12D0     		beq	.L114
 624 000c 0122     		movs	r2, #1
 625 000e 1978     		ldrb	r1, [r3]
 626 0010 1A76     		strb	r2, [r3, #24]
 627 0012 CCB2     		uxtb	r4, r1
 628 0014 0029     		cmp	r1, #0
 629 0016 16D1     		bne	.L117
 630 0018 A021     		movs	r1, #160
 631 001a 0D4D     		ldr	r5, .L118+4
 632 001c 4901     		lsls	r1, r1, #5
 633 001e 2E69     		ldr	r6, [r5, #16]
 634 0020 3143     		orrs	r1, r6
 635 0022 2961     		str	r1, [r5, #16]
 636 0024 0168     		ldr	r1, [r0]
 637 0026 9142     		cmp	r1, r2
 638 0028 05D1     		bne	.L115
 639 002a 9218     		adds	r2, r2, r2
 640 002c 1A70     		strb	r2, [r3]
 641 002e FFF7FEFF 		bl	FLASH_MassErase
 642              	.L114:
 643              		@ sp needed
 644 0032 2000     		movs	r0, r4
ARM GAS  /tmp/cc7GQVg5.s 			page 12


 645 0034 70BD     		pop	{r4, r5, r6, pc}
 646              	.L115:
 647 0036 1A70     		strb	r2, [r3]
 648 0038 8268     		ldr	r2, [r0, #8]
 649 003a 4068     		ldr	r0, [r0, #4]
 650 003c 5A60     		str	r2, [r3, #4]
 651 003e 9860     		str	r0, [r3, #8]
 652 0040 FFF7FEFF 		bl	FLASH_PageErase
 653 0044 F5E7     		b	.L114
 654              	.L117:
 655 0046 1400     		movs	r4, r2
 656 0048 F3E7     		b	.L114
 657              	.L119:
 658 004a C046     		.align	2
 659              	.L118:
 660 004c 00000000 		.word	pFlash
 661 0050 00200240 		.word	1073881088
 663              		.ident	"GCC: (Arch Repository) 10.1.0"
ARM GAS  /tmp/cc7GQVg5.s 			page 13

