ARM GAS  /tmp/ccLyPRKI.s 			page 1


   1              		.cpu cortex-m0
   2              		.eabi_attribute 20, 1
   3              		.eabi_attribute 21, 1
   4              		.eabi_attribute 23, 3
   5              		.eabi_attribute 24, 1
   6              		.eabi_attribute 25, 1
   7              		.eabi_attribute 26, 1
   8              		.eabi_attribute 30, 4
   9              		.eabi_attribute 34, 0
  10              		.eabi_attribute 18, 4
  11              		.file	"stm32f0xx_hal_i2c_ex.c"
  12              		.text
  13              		.section	.text.HAL_I2CEx_ConfigAnalogFilter,"ax",%progbits
  14              		.align	1
  15              		.global	HAL_I2CEx_ConfigAnalogFilter
  16              		.arch armv6s-m
  17              		.syntax unified
  18              		.code	16
  19              		.thumb_func
  20              		.fpu softvfp
  22              	HAL_I2CEx_ConfigAnalogFilter:
  23              		@ args = 0, pretend = 0, frame = 0
  24              		@ frame_needed = 0, uses_anonymous_args = 0
  25 0000 F0B5     		push	{r4, r5, r6, r7, lr}
  26 0002 0400     		movs	r4, r0
  27 0004 4134     		adds	r4, r4, #65
  28 0006 2278     		ldrb	r2, [r4]
  29 0008 0300     		movs	r3, r0
  30 000a 0F00     		movs	r7, r1
  31 000c 0220     		movs	r0, #2
  32 000e D6B2     		uxtb	r6, r2
  33 0010 202A     		cmp	r2, #32
  34 0012 18D1     		bne	.L2
  35 0014 1D00     		movs	r5, r3
  36 0016 4035     		adds	r5, r5, #64
  37 0018 2A78     		ldrb	r2, [r5]
  38 001a 012A     		cmp	r2, #1
  39 001c 13D0     		beq	.L2
  40 001e 2422     		movs	r2, #36
  41 0020 2270     		strb	r2, [r4]
  42 0022 1B68     		ldr	r3, [r3]
  43 0024 233A     		subs	r2, r2, #35
  44 0026 1968     		ldr	r1, [r3]
  45 0028 0748     		ldr	r0, .L5
  46 002a 9143     		bics	r1, r2
  47 002c 1960     		str	r1, [r3]
  48 002e 1968     		ldr	r1, [r3]
  49 0030 0140     		ands	r1, r0
  50 0032 0020     		movs	r0, #0
  51 0034 1960     		str	r1, [r3]
  52 0036 1968     		ldr	r1, [r3]
  53 0038 3943     		orrs	r1, r7
  54 003a 1960     		str	r1, [r3]
  55 003c 1968     		ldr	r1, [r3]
  56 003e 0A43     		orrs	r2, r1
  57 0040 1A60     		str	r2, [r3]
  58 0042 2670     		strb	r6, [r4]
ARM GAS  /tmp/ccLyPRKI.s 			page 2


  59 0044 2870     		strb	r0, [r5]
  60              	.L2:
  61              		@ sp needed
  62 0046 F0BD     		pop	{r4, r5, r6, r7, pc}
  63              	.L6:
  64              		.align	2
  65              	.L5:
  66 0048 FFEFFFFF 		.word	-4097
  68              		.section	.text.HAL_I2CEx_ConfigDigitalFilter,"ax",%progbits
  69              		.align	1
  70              		.global	HAL_I2CEx_ConfigDigitalFilter
  71              		.syntax unified
  72              		.code	16
  73              		.thumb_func
  74              		.fpu softvfp
  76              	HAL_I2CEx_ConfigDigitalFilter:
  77              		@ args = 0, pretend = 0, frame = 0
  78              		@ frame_needed = 0, uses_anonymous_args = 0
  79 0000 0200     		movs	r2, r0
  80 0002 F0B5     		push	{r4, r5, r6, r7, lr}
  81 0004 4132     		adds	r2, r2, #65
  82 0006 1478     		ldrb	r4, [r2]
  83 0008 0300     		movs	r3, r0
  84 000a E5B2     		uxtb	r5, r4
  85 000c 0220     		movs	r0, #2
  86 000e 202C     		cmp	r4, #32
  87 0010 17D1     		bne	.L8
  88 0012 1C00     		movs	r4, r3
  89 0014 4034     		adds	r4, r4, #64
  90 0016 2678     		ldrb	r6, [r4]
  91 0018 012E     		cmp	r6, #1
  92 001a 12D0     		beq	.L8
  93 001c 2230     		adds	r0, r0, #34
  94 001e 1070     		strb	r0, [r2]
  95 0020 1B68     		ldr	r3, [r3]
  96 0022 2338     		subs	r0, r0, #35
  97 0024 1E68     		ldr	r6, [r3]
  98 0026 074F     		ldr	r7, .L11
  99 0028 8643     		bics	r6, r0
 100 002a 1E60     		str	r6, [r3]
 101 002c 1E68     		ldr	r6, [r3]
 102 002e 0902     		lsls	r1, r1, #8
 103 0030 3E40     		ands	r6, r7
 104 0032 3143     		orrs	r1, r6
 105 0034 1960     		str	r1, [r3]
 106 0036 1968     		ldr	r1, [r3]
 107 0038 0843     		orrs	r0, r1
 108 003a 1860     		str	r0, [r3]
 109 003c 0020     		movs	r0, #0
 110 003e 1570     		strb	r5, [r2]
 111 0040 2070     		strb	r0, [r4]
 112              	.L8:
 113              		@ sp needed
 114 0042 F0BD     		pop	{r4, r5, r6, r7, pc}
 115              	.L12:
 116              		.align	2
 117              	.L11:
ARM GAS  /tmp/ccLyPRKI.s 			page 3


 118 0044 FFF0FFFF 		.word	-3841
 120              		.section	.text.HAL_I2CEx_EnableWakeUp,"ax",%progbits
 121              		.align	1
 122              		.global	HAL_I2CEx_EnableWakeUp
 123              		.syntax unified
 124              		.code	16
 125              		.thumb_func
 126              		.fpu softvfp
 128              	HAL_I2CEx_EnableWakeUp:
 129              		@ args = 0, pretend = 0, frame = 0
 130              		@ frame_needed = 0, uses_anonymous_args = 0
 131 0000 0100     		movs	r1, r0
 132 0002 70B5     		push	{r4, r5, r6, lr}
 133 0004 4131     		adds	r1, r1, #65
 134 0006 0A78     		ldrb	r2, [r1]
 135 0008 0300     		movs	r3, r0
 136 000a D5B2     		uxtb	r5, r2
 137 000c 0220     		movs	r0, #2
 138 000e 202A     		cmp	r2, #32
 139 0010 16D1     		bne	.L14
 140 0012 1C00     		movs	r4, r3
 141 0014 4034     		adds	r4, r4, #64
 142 0016 2278     		ldrb	r2, [r4]
 143 0018 012A     		cmp	r2, #1
 144 001a 11D0     		beq	.L14
 145 001c 2422     		movs	r2, #36
 146 001e 0A70     		strb	r2, [r1]
 147 0020 1B68     		ldr	r3, [r3]
 148 0022 233A     		subs	r2, r2, #35
 149 0024 1868     		ldr	r0, [r3]
 150 0026 9043     		bics	r0, r2
 151 0028 1860     		str	r0, [r3]
 152 002a 8020     		movs	r0, #128
 153 002c 1E68     		ldr	r6, [r3]
 154 002e C002     		lsls	r0, r0, #11
 155 0030 3043     		orrs	r0, r6
 156 0032 1860     		str	r0, [r3]
 157 0034 1868     		ldr	r0, [r3]
 158 0036 0243     		orrs	r2, r0
 159 0038 0020     		movs	r0, #0
 160 003a 1A60     		str	r2, [r3]
 161 003c 0D70     		strb	r5, [r1]
 162 003e 2070     		strb	r0, [r4]
 163              	.L14:
 164              		@ sp needed
 165 0040 70BD     		pop	{r4, r5, r6, pc}
 167              		.section	.text.HAL_I2CEx_DisableWakeUp,"ax",%progbits
 168              		.align	1
 169              		.global	HAL_I2CEx_DisableWakeUp
 170              		.syntax unified
 171              		.code	16
 172              		.thumb_func
 173              		.fpu softvfp
 175              	HAL_I2CEx_DisableWakeUp:
 176              		@ args = 0, pretend = 0, frame = 0
 177              		@ frame_needed = 0, uses_anonymous_args = 0
 178 0000 0100     		movs	r1, r0
ARM GAS  /tmp/ccLyPRKI.s 			page 4


 179 0002 70B5     		push	{r4, r5, r6, lr}
 180 0004 4131     		adds	r1, r1, #65
 181 0006 0A78     		ldrb	r2, [r1]
 182 0008 0300     		movs	r3, r0
 183 000a D5B2     		uxtb	r5, r2
 184 000c 0220     		movs	r0, #2
 185 000e 202A     		cmp	r2, #32
 186 0010 15D1     		bne	.L18
 187 0012 1C00     		movs	r4, r3
 188 0014 4034     		adds	r4, r4, #64
 189 0016 2278     		ldrb	r2, [r4]
 190 0018 012A     		cmp	r2, #1
 191 001a 10D0     		beq	.L18
 192 001c 2422     		movs	r2, #36
 193 001e 0A70     		strb	r2, [r1]
 194 0020 1B68     		ldr	r3, [r3]
 195 0022 233A     		subs	r2, r2, #35
 196 0024 1868     		ldr	r0, [r3]
 197 0026 064E     		ldr	r6, .L21
 198 0028 9043     		bics	r0, r2
 199 002a 1860     		str	r0, [r3]
 200 002c 1868     		ldr	r0, [r3]
 201 002e 3040     		ands	r0, r6
 202 0030 1860     		str	r0, [r3]
 203 0032 1868     		ldr	r0, [r3]
 204 0034 0243     		orrs	r2, r0
 205 0036 0020     		movs	r0, #0
 206 0038 1A60     		str	r2, [r3]
 207 003a 0D70     		strb	r5, [r1]
 208 003c 2070     		strb	r0, [r4]
 209              	.L18:
 210              		@ sp needed
 211 003e 70BD     		pop	{r4, r5, r6, pc}
 212              	.L22:
 213              		.align	2
 214              	.L21:
 215 0040 FFFFFBFF 		.word	-262145
 217              		.section	.text.HAL_I2CEx_EnableFastModePlus,"ax",%progbits
 218              		.align	1
 219              		.global	HAL_I2CEx_EnableFastModePlus
 220              		.syntax unified
 221              		.code	16
 222              		.thumb_func
 223              		.fpu softvfp
 225              	HAL_I2CEx_EnableFastModePlus:
 226              		@ args = 0, pretend = 0, frame = 8
 227              		@ frame_needed = 0, uses_anonymous_args = 0
 228 0000 37B5     		push	{r0, r1, r2, r4, r5, lr}
 229 0002 0125     		movs	r5, #1
 230              		@ sp needed
 231 0004 0649     		ldr	r1, .L24
 232 0006 8C69     		ldr	r4, [r1, #24]
 233 0008 2C43     		orrs	r4, r5
 234 000a 8C61     		str	r4, [r1, #24]
 235 000c 8A69     		ldr	r2, [r1, #24]
 236 000e 2A40     		ands	r2, r5
 237 0010 0192     		str	r2, [sp, #4]
ARM GAS  /tmp/ccLyPRKI.s 			page 5


 238 0012 044A     		ldr	r2, .L24+4
 239 0014 019B     		ldr	r3, [sp, #4]
 240 0016 1368     		ldr	r3, [r2]
 241 0018 0343     		orrs	r3, r0
 242 001a 1360     		str	r3, [r2]
 243 001c 37BD     		pop	{r0, r1, r2, r4, r5, pc}
 244              	.L25:
 245 001e C046     		.align	2
 246              	.L24:
 247 0020 00100240 		.word	1073876992
 248 0024 00000140 		.word	1073807360
 250              		.section	.text.HAL_I2CEx_DisableFastModePlus,"ax",%progbits
 251              		.align	1
 252              		.global	HAL_I2CEx_DisableFastModePlus
 253              		.syntax unified
 254              		.code	16
 255              		.thumb_func
 256              		.fpu softvfp
 258              	HAL_I2CEx_DisableFastModePlus:
 259              		@ args = 0, pretend = 0, frame = 8
 260              		@ frame_needed = 0, uses_anonymous_args = 0
 261 0000 13B5     		push	{r0, r1, r4, lr}
 262 0002 0124     		movs	r4, #1
 263              		@ sp needed
 264 0004 064A     		ldr	r2, .L27
 265 0006 9169     		ldr	r1, [r2, #24]
 266 0008 2143     		orrs	r1, r4
 267 000a 9161     		str	r1, [r2, #24]
 268 000c 9369     		ldr	r3, [r2, #24]
 269 000e 054A     		ldr	r2, .L27+4
 270 0010 2340     		ands	r3, r4
 271 0012 0193     		str	r3, [sp, #4]
 272 0014 019B     		ldr	r3, [sp, #4]
 273 0016 1368     		ldr	r3, [r2]
 274 0018 8343     		bics	r3, r0
 275 001a 1360     		str	r3, [r2]
 276 001c 13BD     		pop	{r0, r1, r4, pc}
 277              	.L28:
 278 001e C046     		.align	2
 279              	.L27:
 280 0020 00100240 		.word	1073876992
 281 0024 00000140 		.word	1073807360
 283              		.ident	"GCC: (Arch Repository) 10.1.0"
ARM GAS  /tmp/ccLyPRKI.s 			page 6

