ARM GAS  /tmp/ccSlPOFo.s 			page 1


   1              		.cpu cortex-m0
   2              		.eabi_attribute 20, 1
   3              		.eabi_attribute 21, 1
   4              		.eabi_attribute 23, 3
   5              		.eabi_attribute 24, 1
   6              		.eabi_attribute 25, 1
   7              		.eabi_attribute 26, 1
   8              		.eabi_attribute 30, 4
   9              		.eabi_attribute 34, 0
  10              		.eabi_attribute 18, 4
  11              		.file	"stm32f0xx_hal_tim_ex.c"
  12              		.text
  13              		.section	.text.TIM_CCxNChannelCmd,"ax",%progbits
  14              		.align	1
  15              		.arch armv6s-m
  16              		.syntax unified
  17              		.code	16
  18              		.thumb_func
  19              		.fpu softvfp
  21              	TIM_CCxNChannelCmd:
  22              		@ args = 0, pretend = 0, frame = 0
  23              		@ frame_needed = 0, uses_anonymous_args = 0
  24 0000 10B5     		push	{r4, lr}
  25 0002 0424     		movs	r4, #4
  26              		@ sp needed
  27 0004 8C40     		lsls	r4, r4, r1
  28 0006 8A40     		lsls	r2, r2, r1
  29 0008 036A     		ldr	r3, [r0, #32]
  30 000a A343     		bics	r3, r4
  31 000c 0362     		str	r3, [r0, #32]
  32 000e 036A     		ldr	r3, [r0, #32]
  33 0010 1A43     		orrs	r2, r3
  34 0012 0262     		str	r2, [r0, #32]
  35 0014 10BD     		pop	{r4, pc}
  37              		.section	.text.HAL_TIMEx_HallSensor_MspInit,"ax",%progbits
  38              		.align	1
  39              		.weak	HAL_TIMEx_HallSensor_MspInit
  40              		.syntax unified
  41              		.code	16
  42              		.thumb_func
  43              		.fpu softvfp
  45              	HAL_TIMEx_HallSensor_MspInit:
  46              		@ args = 0, pretend = 0, frame = 0
  47              		@ frame_needed = 0, uses_anonymous_args = 0
  48              		@ link register save eliminated.
  49              		@ sp needed
  50 0000 7047     		bx	lr
  52              		.section	.text.HAL_TIMEx_HallSensor_Init,"ax",%progbits
  53              		.align	1
  54              		.global	HAL_TIMEx_HallSensor_Init
  55              		.syntax unified
  56              		.code	16
  57              		.thumb_func
  58              		.fpu softvfp
  60              	HAL_TIMEx_HallSensor_Init:
  61              		@ args = 0, pretend = 0, frame = 40
  62              		@ frame_needed = 0, uses_anonymous_args = 0
ARM GAS  /tmp/ccSlPOFo.s 			page 2


  63 0000 F0B5     		push	{r4, r5, r6, r7, lr}
  64 0002 0400     		movs	r4, r0
  65 0004 0E00     		movs	r6, r1
  66 0006 0120     		movs	r0, #1
  67 0008 8BB0     		sub	sp, sp, #44
  68 000a 002C     		cmp	r4, #0
  69 000c 4FD0     		beq	.L4
  70 000e 2300     		movs	r3, r4
  71 0010 3D33     		adds	r3, r3, #61
  72 0012 0093     		str	r3, [sp]
  73 0014 1B78     		ldrb	r3, [r3]
  74 0016 DAB2     		uxtb	r2, r3
  75 0018 002B     		cmp	r3, #0
  76 001a 05D1     		bne	.L5
  77 001c 2300     		movs	r3, r4
  78 001e 3C33     		adds	r3, r3, #60
  79 0020 2000     		movs	r0, r4
  80 0022 1A70     		strb	r2, [r3]
  81 0024 FFF7FEFF 		bl	HAL_TIMEx_HallSensor_MspInit
  82              	.L5:
  83 0028 0223     		movs	r3, #2
  84 002a 009A     		ldr	r2, [sp]
  85 002c 211D     		adds	r1, r4, #4
  86 002e 1370     		strb	r3, [r2]
  87 0030 2068     		ldr	r0, [r4]
  88 0032 FFF7FEFF 		bl	TIM_Base_SetConfig
  89 0036 0322     		movs	r2, #3
  90 0038 B368     		ldr	r3, [r6, #8]
  91 003a 3168     		ldr	r1, [r6]
  92 003c 2068     		ldr	r0, [r4]
  93 003e FFF7FEFF 		bl	TIM_TI1_SetConfig
  94 0042 0C22     		movs	r2, #12
  95 0044 2068     		ldr	r0, [r4]
  96 0046 7027     		movs	r7, #112
  97 0048 8369     		ldr	r3, [r0, #24]
  98 004a 0025     		movs	r5, #0
  99 004c 9343     		bics	r3, r2
 100 004e 8361     		str	r3, [r0, #24]
 101 0050 8369     		ldr	r3, [r0, #24]
 102 0052 7268     		ldr	r2, [r6, #4]
 103 0054 03A9     		add	r1, sp, #12
 104 0056 1343     		orrs	r3, r2
 105 0058 8361     		str	r3, [r0, #24]
 106 005a 8023     		movs	r3, #128
 107 005c 4268     		ldr	r2, [r0, #4]
 108 005e 0397     		str	r7, [sp, #12]
 109 0060 1343     		orrs	r3, r2
 110 0062 4360     		str	r3, [r0, #4]
 111 0064 8368     		ldr	r3, [r0, #8]
 112 0066 BB43     		bics	r3, r7
 113 0068 8360     		str	r3, [r0, #8]
 114 006a 4023     		movs	r3, #64
 115 006c 8268     		ldr	r2, [r0, #8]
 116 006e 1343     		orrs	r3, r2
 117 0070 0722     		movs	r2, #7
 118 0072 8360     		str	r3, [r0, #8]
 119 0074 8368     		ldr	r3, [r0, #8]
ARM GAS  /tmp/ccSlPOFo.s 			page 3


 120 0076 9343     		bics	r3, r2
 121 0078 8360     		str	r3, [r0, #8]
 122 007a 0423     		movs	r3, #4
 123 007c 8268     		ldr	r2, [r0, #8]
 124 007e 1343     		orrs	r3, r2
 125 0080 8360     		str	r3, [r0, #8]
 126 0082 F368     		ldr	r3, [r6, #12]
 127 0084 0795     		str	r5, [sp, #28]
 128 0086 0193     		str	r3, [sp, #4]
 129 0088 0493     		str	r3, [sp, #16]
 130 008a 0895     		str	r5, [sp, #32]
 131 008c 0995     		str	r5, [sp, #36]
 132 008e 0695     		str	r5, [sp, #24]
 133 0090 0595     		str	r5, [sp, #20]
 134 0092 FFF7FEFF 		bl	TIM_OC2_SetConfig
 135 0096 2368     		ldr	r3, [r4]
 136 0098 2800     		movs	r0, r5
 137 009a 5A68     		ldr	r2, [r3, #4]
 138 009c BA43     		bics	r2, r7
 139 009e 5A60     		str	r2, [r3, #4]
 140 00a0 5022     		movs	r2, #80
 141 00a2 5968     		ldr	r1, [r3, #4]
 142 00a4 0A43     		orrs	r2, r1
 143 00a6 5A60     		str	r2, [r3, #4]
 144 00a8 0123     		movs	r3, #1
 145 00aa 009A     		ldr	r2, [sp]
 146 00ac 1370     		strb	r3, [r2]
 147              	.L4:
 148 00ae 0BB0     		add	sp, sp, #44
 149              		@ sp needed
 150 00b0 F0BD     		pop	{r4, r5, r6, r7, pc}
 152              		.section	.text.HAL_TIMEx_HallSensor_MspDeInit,"ax",%progbits
 153              		.align	1
 154              		.weak	HAL_TIMEx_HallSensor_MspDeInit
 155              		.syntax unified
 156              		.code	16
 157              		.thumb_func
 158              		.fpu softvfp
 160              	HAL_TIMEx_HallSensor_MspDeInit:
 161              		@ args = 0, pretend = 0, frame = 0
 162              		@ frame_needed = 0, uses_anonymous_args = 0
 163              		@ link register save eliminated.
 164              		@ sp needed
 165 0000 7047     		bx	lr
 167              		.section	.text.HAL_TIMEx_HallSensor_DeInit,"ax",%progbits
 168              		.align	1
 169              		.global	HAL_TIMEx_HallSensor_DeInit
 170              		.syntax unified
 171              		.code	16
 172              		.thumb_func
 173              		.fpu softvfp
 175              	HAL_TIMEx_HallSensor_DeInit:
 176              		@ args = 0, pretend = 0, frame = 0
 177              		@ frame_needed = 0, uses_anonymous_args = 0
 178 0000 70B5     		push	{r4, r5, r6, lr}
 179 0002 0500     		movs	r5, r0
 180 0004 0223     		movs	r3, #2
ARM GAS  /tmp/ccSlPOFo.s 			page 4


 181 0006 3D35     		adds	r5, r5, #61
 182 0008 2B70     		strb	r3, [r5]
 183 000a 0368     		ldr	r3, [r0]
 184 000c 0A4A     		ldr	r2, .L10
 185 000e 196A     		ldr	r1, [r3, #32]
 186 0010 0400     		movs	r4, r0
 187 0012 1142     		tst	r1, r2
 188 0014 07D1     		bne	.L9
 189 0016 196A     		ldr	r1, [r3, #32]
 190 0018 084A     		ldr	r2, .L10+4
 191 001a 1142     		tst	r1, r2
 192 001c 03D1     		bne	.L9
 193 001e 0121     		movs	r1, #1
 194 0020 1A68     		ldr	r2, [r3]
 195 0022 8A43     		bics	r2, r1
 196 0024 1A60     		str	r2, [r3]
 197              	.L9:
 198 0026 2000     		movs	r0, r4
 199              		@ sp needed
 200 0028 FFF7FEFF 		bl	HAL_TIMEx_HallSensor_MspDeInit
 201 002c 0020     		movs	r0, #0
 202 002e 3C34     		adds	r4, r4, #60
 203 0030 2870     		strb	r0, [r5]
 204 0032 2070     		strb	r0, [r4]
 205 0034 70BD     		pop	{r4, r5, r6, pc}
 206              	.L11:
 207 0036 C046     		.align	2
 208              	.L10:
 209 0038 11110000 		.word	4369
 210 003c 44040000 		.word	1092
 212              		.section	.text.HAL_TIMEx_HallSensor_Start,"ax",%progbits
 213              		.align	1
 214              		.global	HAL_TIMEx_HallSensor_Start
 215              		.syntax unified
 216              		.code	16
 217              		.thumb_func
 218              		.fpu softvfp
 220              	HAL_TIMEx_HallSensor_Start:
 221              		@ args = 0, pretend = 0, frame = 0
 222              		@ frame_needed = 0, uses_anonymous_args = 0
 223 0000 10B5     		push	{r4, lr}
 224 0002 0400     		movs	r4, r0
 225              		@ sp needed
 226 0004 0122     		movs	r2, #1
 227 0006 0021     		movs	r1, #0
 228 0008 0068     		ldr	r0, [r0]
 229 000a FFF7FEFF 		bl	TIM_CCxChannelCmd
 230 000e 0123     		movs	r3, #1
 231 0010 2268     		ldr	r2, [r4]
 232 0012 0020     		movs	r0, #0
 233 0014 1168     		ldr	r1, [r2]
 234 0016 0B43     		orrs	r3, r1
 235 0018 1360     		str	r3, [r2]
 236 001a 10BD     		pop	{r4, pc}
 238              		.section	.text.HAL_TIMEx_HallSensor_Stop,"ax",%progbits
 239              		.align	1
 240              		.global	HAL_TIMEx_HallSensor_Stop
ARM GAS  /tmp/ccSlPOFo.s 			page 5


 241              		.syntax unified
 242              		.code	16
 243              		.thumb_func
 244              		.fpu softvfp
 246              	HAL_TIMEx_HallSensor_Stop:
 247              		@ args = 0, pretend = 0, frame = 0
 248              		@ frame_needed = 0, uses_anonymous_args = 0
 249 0000 0022     		movs	r2, #0
 250 0002 10B5     		push	{r4, lr}
 251 0004 0400     		movs	r4, r0
 252 0006 1100     		movs	r1, r2
 253 0008 0068     		ldr	r0, [r0]
 254 000a FFF7FEFF 		bl	TIM_CCxChannelCmd
 255 000e 2368     		ldr	r3, [r4]
 256 0010 064A     		ldr	r2, .L15
 257 0012 196A     		ldr	r1, [r3, #32]
 258 0014 1142     		tst	r1, r2
 259 0016 07D1     		bne	.L14
 260 0018 196A     		ldr	r1, [r3, #32]
 261 001a 054A     		ldr	r2, .L15+4
 262 001c 1142     		tst	r1, r2
 263 001e 03D1     		bne	.L14
 264 0020 0121     		movs	r1, #1
 265 0022 1A68     		ldr	r2, [r3]
 266 0024 8A43     		bics	r2, r1
 267 0026 1A60     		str	r2, [r3]
 268              	.L14:
 269 0028 0020     		movs	r0, #0
 270              		@ sp needed
 271 002a 10BD     		pop	{r4, pc}
 272              	.L16:
 273              		.align	2
 274              	.L15:
 275 002c 11110000 		.word	4369
 276 0030 44040000 		.word	1092
 278              		.section	.text.HAL_TIMEx_HallSensor_Start_IT,"ax",%progbits
 279              		.align	1
 280              		.global	HAL_TIMEx_HallSensor_Start_IT
 281              		.syntax unified
 282              		.code	16
 283              		.thumb_func
 284              		.fpu softvfp
 286              	HAL_TIMEx_HallSensor_Start_IT:
 287              		@ args = 0, pretend = 0, frame = 0
 288              		@ frame_needed = 0, uses_anonymous_args = 0
 289 0000 0223     		movs	r3, #2
 290 0002 10B5     		push	{r4, lr}
 291 0004 0400     		movs	r4, r0
 292              		@ sp needed
 293 0006 0068     		ldr	r0, [r0]
 294 0008 0021     		movs	r1, #0
 295 000a C268     		ldr	r2, [r0, #12]
 296 000c 1343     		orrs	r3, r2
 297 000e C360     		str	r3, [r0, #12]
 298 0010 0122     		movs	r2, #1
 299 0012 FFF7FEFF 		bl	TIM_CCxChannelCmd
 300 0016 0123     		movs	r3, #1
ARM GAS  /tmp/ccSlPOFo.s 			page 6


 301 0018 2268     		ldr	r2, [r4]
 302 001a 0020     		movs	r0, #0
 303 001c 1168     		ldr	r1, [r2]
 304 001e 0B43     		orrs	r3, r1
 305 0020 1360     		str	r3, [r2]
 306 0022 10BD     		pop	{r4, pc}
 308              		.section	.text.HAL_TIMEx_HallSensor_Stop_IT,"ax",%progbits
 309              		.align	1
 310              		.global	HAL_TIMEx_HallSensor_Stop_IT
 311              		.syntax unified
 312              		.code	16
 313              		.thumb_func
 314              		.fpu softvfp
 316              	HAL_TIMEx_HallSensor_Stop_IT:
 317              		@ args = 0, pretend = 0, frame = 0
 318              		@ frame_needed = 0, uses_anonymous_args = 0
 319 0000 0022     		movs	r2, #0
 320 0002 10B5     		push	{r4, lr}
 321 0004 0400     		movs	r4, r0
 322 0006 1100     		movs	r1, r2
 323 0008 0068     		ldr	r0, [r0]
 324 000a FFF7FEFF 		bl	TIM_CCxChannelCmd
 325 000e 0221     		movs	r1, #2
 326 0010 2368     		ldr	r3, [r4]
 327 0012 DA68     		ldr	r2, [r3, #12]
 328 0014 8A43     		bics	r2, r1
 329 0016 DA60     		str	r2, [r3, #12]
 330 0018 196A     		ldr	r1, [r3, #32]
 331 001a 064A     		ldr	r2, .L20
 332 001c 1142     		tst	r1, r2
 333 001e 07D1     		bne	.L19
 334 0020 196A     		ldr	r1, [r3, #32]
 335 0022 054A     		ldr	r2, .L20+4
 336 0024 1142     		tst	r1, r2
 337 0026 03D1     		bne	.L19
 338 0028 0121     		movs	r1, #1
 339 002a 1A68     		ldr	r2, [r3]
 340 002c 8A43     		bics	r2, r1
 341 002e 1A60     		str	r2, [r3]
 342              	.L19:
 343 0030 0020     		movs	r0, #0
 344              		@ sp needed
 345 0032 10BD     		pop	{r4, pc}
 346              	.L21:
 347              		.align	2
 348              	.L20:
 349 0034 11110000 		.word	4369
 350 0038 44040000 		.word	1092
 352              		.section	.text.HAL_TIMEx_HallSensor_Start_DMA,"ax",%progbits
 353              		.align	1
 354              		.global	HAL_TIMEx_HallSensor_Start_DMA
 355              		.syntax unified
 356              		.code	16
 357              		.thumb_func
 358              		.fpu softvfp
 360              	HAL_TIMEx_HallSensor_Start_DMA:
 361              		@ args = 0, pretend = 0, frame = 0
ARM GAS  /tmp/ccSlPOFo.s 			page 7


 362              		@ frame_needed = 0, uses_anonymous_args = 0
 363 0000 0300     		movs	r3, r0
 364 0002 70B5     		push	{r4, r5, r6, lr}
 365 0004 3D33     		adds	r3, r3, #61
 366 0006 1600     		movs	r6, r2
 367 0008 1A78     		ldrb	r2, [r3]
 368 000a 0400     		movs	r4, r0
 369 000c 0D00     		movs	r5, r1
 370 000e D0B2     		uxtb	r0, r2
 371 0010 022A     		cmp	r2, #2
 372 0012 24D0     		beq	.L23
 373 0014 1A78     		ldrb	r2, [r3]
 374 0016 D0B2     		uxtb	r0, r2
 375 0018 012A     		cmp	r2, #1
 376 001a 05D1     		bne	.L24
 377 001c 0029     		cmp	r1, #0
 378 001e 01D1     		bne	.L25
 379 0020 002E     		cmp	r6, #0
 380 0022 1CD1     		bne	.L23
 381              	.L25:
 382 0024 0222     		movs	r2, #2
 383 0026 1A70     		strb	r2, [r3]
 384              	.L24:
 385 0028 0122     		movs	r2, #1
 386 002a 0021     		movs	r1, #0
 387 002c 2068     		ldr	r0, [r4]
 388 002e FFF7FEFF 		bl	TIM_CCxChannelCmd
 389 0032 606A     		ldr	r0, [r4, #36]
 390 0034 0A4B     		ldr	r3, .L29
 391 0036 2168     		ldr	r1, [r4]
 392 0038 8362     		str	r3, [r0, #40]
 393 003a 0A4B     		ldr	r3, .L29+4
 394 003c 2A00     		movs	r2, r5
 395 003e 0363     		str	r3, [r0, #48]
 396 0040 3431     		adds	r1, r1, #52
 397 0042 3300     		movs	r3, r6
 398 0044 FFF7FEFF 		bl	HAL_DMA_Start_IT
 399 0048 8022     		movs	r2, #128
 400 004a 2368     		ldr	r3, [r4]
 401 004c 9200     		lsls	r2, r2, #2
 402 004e D968     		ldr	r1, [r3, #12]
 403 0050 0020     		movs	r0, #0
 404 0052 0A43     		orrs	r2, r1
 405 0054 DA60     		str	r2, [r3, #12]
 406 0056 0122     		movs	r2, #1
 407 0058 1968     		ldr	r1, [r3]
 408 005a 0A43     		orrs	r2, r1
 409 005c 1A60     		str	r2, [r3]
 410              	.L23:
 411              		@ sp needed
 412 005e 70BD     		pop	{r4, r5, r6, pc}
 413              	.L30:
 414              		.align	2
 415              	.L29:
 416 0060 00000000 		.word	TIM_DMACaptureCplt
 417 0064 00000000 		.word	TIM_DMAError
 419              		.section	.text.HAL_TIMEx_HallSensor_Stop_DMA,"ax",%progbits
ARM GAS  /tmp/ccSlPOFo.s 			page 8


 420              		.align	1
 421              		.global	HAL_TIMEx_HallSensor_Stop_DMA
 422              		.syntax unified
 423              		.code	16
 424              		.thumb_func
 425              		.fpu softvfp
 427              	HAL_TIMEx_HallSensor_Stop_DMA:
 428              		@ args = 0, pretend = 0, frame = 0
 429              		@ frame_needed = 0, uses_anonymous_args = 0
 430 0000 0022     		movs	r2, #0
 431 0002 10B5     		push	{r4, lr}
 432 0004 0400     		movs	r4, r0
 433 0006 1100     		movs	r1, r2
 434 0008 0068     		ldr	r0, [r0]
 435 000a FFF7FEFF 		bl	TIM_CCxChannelCmd
 436 000e 2368     		ldr	r3, [r4]
 437 0010 0849     		ldr	r1, .L33
 438 0012 DA68     		ldr	r2, [r3, #12]
 439 0014 0A40     		ands	r2, r1
 440 0016 DA60     		str	r2, [r3, #12]
 441 0018 196A     		ldr	r1, [r3, #32]
 442 001a 074A     		ldr	r2, .L33+4
 443 001c 1142     		tst	r1, r2
 444 001e 07D1     		bne	.L32
 445 0020 196A     		ldr	r1, [r3, #32]
 446 0022 064A     		ldr	r2, .L33+8
 447 0024 1142     		tst	r1, r2
 448 0026 03D1     		bne	.L32
 449 0028 0121     		movs	r1, #1
 450 002a 1A68     		ldr	r2, [r3]
 451 002c 8A43     		bics	r2, r1
 452 002e 1A60     		str	r2, [r3]
 453              	.L32:
 454 0030 0020     		movs	r0, #0
 455              		@ sp needed
 456 0032 10BD     		pop	{r4, pc}
 457              	.L34:
 458              		.align	2
 459              	.L33:
 460 0034 FFFDFFFF 		.word	-513
 461 0038 11110000 		.word	4369
 462 003c 44040000 		.word	1092
 464              		.section	.text.HAL_TIMEx_OCN_Start,"ax",%progbits
 465              		.align	1
 466              		.global	HAL_TIMEx_OCN_Start
 467              		.syntax unified
 468              		.code	16
 469              		.thumb_func
 470              		.fpu softvfp
 472              	HAL_TIMEx_OCN_Start:
 473              		@ args = 0, pretend = 0, frame = 0
 474              		@ frame_needed = 0, uses_anonymous_args = 0
 475 0000 10B5     		push	{r4, lr}
 476 0002 0400     		movs	r4, r0
 477              		@ sp needed
 478 0004 0422     		movs	r2, #4
 479 0006 0068     		ldr	r0, [r0]
ARM GAS  /tmp/ccSlPOFo.s 			page 9


 480 0008 FFF7FEFF 		bl	TIM_CCxNChannelCmd
 481 000c 8022     		movs	r2, #128
 482 000e 2368     		ldr	r3, [r4]
 483 0010 1202     		lsls	r2, r2, #8
 484 0012 596C     		ldr	r1, [r3, #68]
 485 0014 0020     		movs	r0, #0
 486 0016 0A43     		orrs	r2, r1
 487 0018 5A64     		str	r2, [r3, #68]
 488 001a 0122     		movs	r2, #1
 489 001c 1968     		ldr	r1, [r3]
 490 001e 0A43     		orrs	r2, r1
 491 0020 1A60     		str	r2, [r3]
 492 0022 10BD     		pop	{r4, pc}
 494              		.section	.text.HAL_TIMEx_OCN_Stop,"ax",%progbits
 495              		.align	1
 496              		.global	HAL_TIMEx_OCN_Stop
 497              		.syntax unified
 498              		.code	16
 499              		.thumb_func
 500              		.fpu softvfp
 502              	HAL_TIMEx_OCN_Stop:
 503              		@ args = 0, pretend = 0, frame = 0
 504              		@ frame_needed = 0, uses_anonymous_args = 0
 505 0000 10B5     		push	{r4, lr}
 506 0002 0400     		movs	r4, r0
 507 0004 0022     		movs	r2, #0
 508 0006 0068     		ldr	r0, [r0]
 509 0008 FFF7FEFF 		bl	TIM_CCxNChannelCmd
 510 000c 2368     		ldr	r3, [r4]
 511 000e 0C49     		ldr	r1, .L39
 512 0010 1A6A     		ldr	r2, [r3, #32]
 513 0012 0A42     		tst	r2, r1
 514 0014 07D1     		bne	.L37
 515 0016 186A     		ldr	r0, [r3, #32]
 516 0018 0A4A     		ldr	r2, .L39+4
 517 001a 1042     		tst	r0, r2
 518 001c 03D1     		bne	.L37
 519 001e 5A6C     		ldr	r2, [r3, #68]
 520 0020 0948     		ldr	r0, .L39+8
 521 0022 0240     		ands	r2, r0
 522 0024 5A64     		str	r2, [r3, #68]
 523              	.L37:
 524 0026 1A6A     		ldr	r2, [r3, #32]
 525 0028 0A42     		tst	r2, r1
 526 002a 07D1     		bne	.L38
 527 002c 196A     		ldr	r1, [r3, #32]
 528 002e 054A     		ldr	r2, .L39+4
 529 0030 1142     		tst	r1, r2
 530 0032 03D1     		bne	.L38
 531 0034 0121     		movs	r1, #1
 532 0036 1A68     		ldr	r2, [r3]
 533 0038 8A43     		bics	r2, r1
 534 003a 1A60     		str	r2, [r3]
 535              	.L38:
 536 003c 0020     		movs	r0, #0
 537              		@ sp needed
 538 003e 10BD     		pop	{r4, pc}
ARM GAS  /tmp/ccSlPOFo.s 			page 10


 539              	.L40:
 540              		.align	2
 541              	.L39:
 542 0040 11110000 		.word	4369
 543 0044 44040000 		.word	1092
 544 0048 FF7FFFFF 		.word	-32769
 546              		.section	.text.HAL_TIMEx_OCN_Start_IT,"ax",%progbits
 547              		.align	1
 548              		.global	HAL_TIMEx_OCN_Start_IT
 549              		.syntax unified
 550              		.code	16
 551              		.thumb_func
 552              		.fpu softvfp
 554              	HAL_TIMEx_OCN_Start_IT:
 555              		@ args = 0, pretend = 0, frame = 0
 556              		@ frame_needed = 0, uses_anonymous_args = 0
 557 0000 10B5     		push	{r4, lr}
 558 0002 0400     		movs	r4, r0
 559 0004 0068     		ldr	r0, [r0]
 560 0006 0829     		cmp	r1, #8
 561 0008 20D0     		beq	.L42
 562 000a 16D8     		bhi	.L43
 563 000c 0029     		cmp	r1, #0
 564 000e 19D0     		beq	.L44
 565 0010 0429     		cmp	r1, #4
 566 0012 1BD0     		beq	.L42
 567              	.L46:
 568 0014 8023     		movs	r3, #128
 569              		@ sp needed
 570 0016 C268     		ldr	r2, [r0, #12]
 571 0018 1343     		orrs	r3, r2
 572 001a C360     		str	r3, [r0, #12]
 573 001c 0422     		movs	r2, #4
 574 001e FFF7FEFF 		bl	TIM_CCxNChannelCmd
 575 0022 8022     		movs	r2, #128
 576 0024 2368     		ldr	r3, [r4]
 577 0026 1202     		lsls	r2, r2, #8
 578 0028 596C     		ldr	r1, [r3, #68]
 579 002a 0020     		movs	r0, #0
 580 002c 0A43     		orrs	r2, r1
 581 002e 5A64     		str	r2, [r3, #68]
 582 0030 0122     		movs	r2, #1
 583 0032 1968     		ldr	r1, [r3]
 584 0034 0A43     		orrs	r2, r1
 585 0036 1A60     		str	r2, [r3]
 586 0038 10BD     		pop	{r4, pc}
 587              	.L43:
 588 003a 0C29     		cmp	r1, #12
 589 003c EAD1     		bne	.L46
 590 003e 1023     		movs	r3, #16
 591 0040 C268     		ldr	r2, [r0, #12]
 592 0042 01E0     		b	.L48
 593              	.L44:
 594 0044 0223     		movs	r3, #2
 595 0046 C268     		ldr	r2, [r0, #12]
 596              	.L48:
 597 0048 1343     		orrs	r3, r2
ARM GAS  /tmp/ccSlPOFo.s 			page 11


 598 004a 01E0     		b	.L49
 599              	.L42:
 600 004c C368     		ldr	r3, [r0, #12]
 601 004e 0B43     		orrs	r3, r1
 602              	.L49:
 603 0050 C360     		str	r3, [r0, #12]
 604 0052 DFE7     		b	.L46
 606              		.section	.text.HAL_TIMEx_OCN_Stop_IT,"ax",%progbits
 607              		.align	1
 608              		.global	HAL_TIMEx_OCN_Stop_IT
 609              		.syntax unified
 610              		.code	16
 611              		.thumb_func
 612              		.fpu softvfp
 614              	HAL_TIMEx_OCN_Stop_IT:
 615              		@ args = 0, pretend = 0, frame = 0
 616              		@ frame_needed = 0, uses_anonymous_args = 0
 617 0000 10B5     		push	{r4, lr}
 618 0002 0400     		movs	r4, r0
 619 0004 0068     		ldr	r0, [r0]
 620 0006 0829     		cmp	r1, #8
 621 0008 30D0     		beq	.L51
 622 000a 26D8     		bhi	.L52
 623 000c 0029     		cmp	r1, #0
 624 000e 29D0     		beq	.L53
 625 0010 0429     		cmp	r1, #4
 626 0012 2BD0     		beq	.L51
 627              	.L55:
 628 0014 0022     		movs	r2, #0
 629 0016 FFF7FEFF 		bl	TIM_CCxNChannelCmd
 630 001a 2368     		ldr	r3, [r4]
 631 001c 154A     		ldr	r2, .L62
 632 001e 196A     		ldr	r1, [r3, #32]
 633 0020 1142     		tst	r1, r2
 634 0022 03D1     		bne	.L57
 635 0024 8020     		movs	r0, #128
 636 0026 D968     		ldr	r1, [r3, #12]
 637 0028 8143     		bics	r1, r0
 638 002a D960     		str	r1, [r3, #12]
 639              	.L57:
 640 002c 196A     		ldr	r1, [r3, #32]
 641 002e 1248     		ldr	r0, .L62+4
 642 0030 0142     		tst	r1, r0
 643 0032 06D1     		bne	.L58
 644 0034 196A     		ldr	r1, [r3, #32]
 645 0036 1142     		tst	r1, r2
 646 0038 03D1     		bne	.L58
 647 003a 596C     		ldr	r1, [r3, #68]
 648 003c 0F4C     		ldr	r4, .L62+8
 649 003e 2140     		ands	r1, r4
 650 0040 5964     		str	r1, [r3, #68]
 651              	.L58:
 652 0042 196A     		ldr	r1, [r3, #32]
 653 0044 0142     		tst	r1, r0
 654 0046 06D1     		bne	.L59
 655 0048 196A     		ldr	r1, [r3, #32]
 656 004a 1142     		tst	r1, r2
ARM GAS  /tmp/ccSlPOFo.s 			page 12


 657 004c 03D1     		bne	.L59
 658 004e 0121     		movs	r1, #1
 659 0050 1A68     		ldr	r2, [r3]
 660 0052 8A43     		bics	r2, r1
 661 0054 1A60     		str	r2, [r3]
 662              	.L59:
 663 0056 0020     		movs	r0, #0
 664              		@ sp needed
 665 0058 10BD     		pop	{r4, pc}
 666              	.L52:
 667 005a 0C29     		cmp	r1, #12
 668 005c DAD1     		bne	.L55
 669 005e 1022     		movs	r2, #16
 670 0060 C368     		ldr	r3, [r0, #12]
 671 0062 01E0     		b	.L60
 672              	.L53:
 673 0064 0222     		movs	r2, #2
 674 0066 C368     		ldr	r3, [r0, #12]
 675              	.L60:
 676 0068 9343     		bics	r3, r2
 677 006a 01E0     		b	.L61
 678              	.L51:
 679 006c C368     		ldr	r3, [r0, #12]
 680 006e 8B43     		bics	r3, r1
 681              	.L61:
 682 0070 C360     		str	r3, [r0, #12]
 683 0072 CFE7     		b	.L55
 684              	.L63:
 685              		.align	2
 686              	.L62:
 687 0074 44040000 		.word	1092
 688 0078 11110000 		.word	4369
 689 007c FF7FFFFF 		.word	-32769
 691              		.section	.text.HAL_TIMEx_OCN_Start_DMA,"ax",%progbits
 692              		.align	1
 693              		.global	HAL_TIMEx_OCN_Start_DMA
 694              		.syntax unified
 695              		.code	16
 696              		.thumb_func
 697              		.fpu softvfp
 699              	HAL_TIMEx_OCN_Start_DMA:
 700              		@ args = 0, pretend = 0, frame = 0
 701              		@ frame_needed = 0, uses_anonymous_args = 0
 702 0000 70B5     		push	{r4, r5, r6, lr}
 703 0002 0D00     		movs	r5, r1
 704 0004 1100     		movs	r1, r2
 705 0006 0200     		movs	r2, r0
 706 0008 3D32     		adds	r2, r2, #61
 707 000a 1678     		ldrb	r6, [r2]
 708 000c 0400     		movs	r4, r0
 709 000e F0B2     		uxtb	r0, r6
 710 0010 022E     		cmp	r6, #2
 711 0012 21D0     		beq	.L65
 712 0014 1678     		ldrb	r6, [r2]
 713 0016 F0B2     		uxtb	r0, r6
 714 0018 012E     		cmp	r6, #1
 715 001a 05D1     		bne	.L66
ARM GAS  /tmp/ccSlPOFo.s 			page 13


 716 001c 0029     		cmp	r1, #0
 717 001e 01D1     		bne	.L67
 718 0020 002B     		cmp	r3, #0
 719 0022 19D1     		bne	.L65
 720              	.L67:
 721 0024 0220     		movs	r0, #2
 722 0026 1070     		strb	r0, [r2]
 723              	.L66:
 724 0028 2268     		ldr	r2, [r4]
 725 002a 082D     		cmp	r5, #8
 726 002c 40D0     		beq	.L68
 727 002e 14D8     		bhi	.L69
 728 0030 002D     		cmp	r5, #0
 729 0032 21D0     		beq	.L70
 730 0034 042D     		cmp	r5, #4
 731 0036 2ED0     		beq	.L71
 732              	.L72:
 733 0038 0422     		movs	r2, #4
 734 003a 2900     		movs	r1, r5
 735 003c 2068     		ldr	r0, [r4]
 736 003e FFF7FEFF 		bl	TIM_CCxNChannelCmd
 737 0042 8022     		movs	r2, #128
 738 0044 2368     		ldr	r3, [r4]
 739 0046 1202     		lsls	r2, r2, #8
 740 0048 596C     		ldr	r1, [r3, #68]
 741 004a 0020     		movs	r0, #0
 742 004c 0A43     		orrs	r2, r1
 743 004e 5A64     		str	r2, [r3, #68]
 744 0050 0122     		movs	r2, #1
 745 0052 1968     		ldr	r1, [r3]
 746 0054 0A43     		orrs	r2, r1
 747 0056 1A60     		str	r2, [r3]
 748              	.L65:
 749              		@ sp needed
 750 0058 70BD     		pop	{r4, r5, r6, pc}
 751              	.L69:
 752 005a 0C2D     		cmp	r5, #12
 753 005c ECD1     		bne	.L72
 754 005e 206B     		ldr	r0, [r4, #48]
 755 0060 1A4E     		ldr	r6, .L78
 756 0062 4032     		adds	r2, r2, #64
 757 0064 8662     		str	r6, [r0, #40]
 758 0066 1A4E     		ldr	r6, .L78+4
 759 0068 0663     		str	r6, [r0, #48]
 760 006a FFF7FEFF 		bl	HAL_DMA_Start_IT
 761 006e 8023     		movs	r3, #128
 762 0070 2268     		ldr	r2, [r4]
 763 0072 5B01     		lsls	r3, r3, #5
 764 0074 D168     		ldr	r1, [r2, #12]
 765 0076 0BE0     		b	.L77
 766              	.L70:
 767 0078 606A     		ldr	r0, [r4, #36]
 768 007a 144E     		ldr	r6, .L78
 769 007c 3432     		adds	r2, r2, #52
 770 007e 8662     		str	r6, [r0, #40]
 771 0080 134E     		ldr	r6, .L78+4
 772 0082 0663     		str	r6, [r0, #48]
ARM GAS  /tmp/ccSlPOFo.s 			page 14


 773 0084 FFF7FEFF 		bl	HAL_DMA_Start_IT
 774 0088 8023     		movs	r3, #128
 775 008a 2268     		ldr	r2, [r4]
 776 008c 9B00     		lsls	r3, r3, #2
 777 008e D168     		ldr	r1, [r2, #12]
 778              	.L77:
 779 0090 0B43     		orrs	r3, r1
 780 0092 D360     		str	r3, [r2, #12]
 781 0094 D0E7     		b	.L72
 782              	.L71:
 783 0096 A06A     		ldr	r0, [r4, #40]
 784 0098 0C4E     		ldr	r6, .L78
 785 009a 3832     		adds	r2, r2, #56
 786 009c 8662     		str	r6, [r0, #40]
 787 009e 0C4E     		ldr	r6, .L78+4
 788 00a0 0663     		str	r6, [r0, #48]
 789 00a2 FFF7FEFF 		bl	HAL_DMA_Start_IT
 790 00a6 8023     		movs	r3, #128
 791 00a8 2268     		ldr	r2, [r4]
 792 00aa DB00     		lsls	r3, r3, #3
 793 00ac D168     		ldr	r1, [r2, #12]
 794 00ae EFE7     		b	.L77
 795              	.L68:
 796 00b0 E06A     		ldr	r0, [r4, #44]
 797 00b2 064E     		ldr	r6, .L78
 798 00b4 3C32     		adds	r2, r2, #60
 799 00b6 8662     		str	r6, [r0, #40]
 800 00b8 054E     		ldr	r6, .L78+4
 801 00ba 0663     		str	r6, [r0, #48]
 802 00bc FFF7FEFF 		bl	HAL_DMA_Start_IT
 803 00c0 8023     		movs	r3, #128
 804 00c2 2268     		ldr	r2, [r4]
 805 00c4 1B01     		lsls	r3, r3, #4
 806 00c6 D168     		ldr	r1, [r2, #12]
 807 00c8 E2E7     		b	.L77
 808              	.L79:
 809 00ca C046     		.align	2
 810              	.L78:
 811 00cc 00000000 		.word	TIM_DMADelayPulseCplt
 812 00d0 00000000 		.word	TIM_DMAError
 814              		.section	.text.HAL_TIMEx_OCN_Stop_DMA,"ax",%progbits
 815              		.align	1
 816              		.global	HAL_TIMEx_OCN_Stop_DMA
 817              		.syntax unified
 818              		.code	16
 819              		.thumb_func
 820              		.fpu softvfp
 822              	HAL_TIMEx_OCN_Stop_DMA:
 823              		@ args = 0, pretend = 0, frame = 0
 824              		@ frame_needed = 0, uses_anonymous_args = 0
 825 0000 10B5     		push	{r4, lr}
 826 0002 0400     		movs	r4, r0
 827 0004 0068     		ldr	r0, [r0]
 828 0006 0829     		cmp	r1, #8
 829 0008 31D0     		beq	.L81
 830 000a 23D8     		bhi	.L82
 831 000c 0029     		cmp	r1, #0
ARM GAS  /tmp/ccSlPOFo.s 			page 15


 832 000e 26D0     		beq	.L83
 833 0010 0429     		cmp	r1, #4
 834 0012 29D0     		beq	.L84
 835              	.L85:
 836 0014 0022     		movs	r2, #0
 837 0016 FFF7FEFF 		bl	TIM_CCxNChannelCmd
 838 001a 2368     		ldr	r3, [r4]
 839 001c 1549     		ldr	r1, .L90
 840 001e 1A6A     		ldr	r2, [r3, #32]
 841 0020 0A42     		tst	r2, r1
 842 0022 07D1     		bne	.L87
 843 0024 186A     		ldr	r0, [r3, #32]
 844 0026 144A     		ldr	r2, .L90+4
 845 0028 1042     		tst	r0, r2
 846 002a 03D1     		bne	.L87
 847 002c 5A6C     		ldr	r2, [r3, #68]
 848 002e 1348     		ldr	r0, .L90+8
 849 0030 0240     		ands	r2, r0
 850 0032 5A64     		str	r2, [r3, #68]
 851              	.L87:
 852 0034 1A6A     		ldr	r2, [r3, #32]
 853 0036 0A42     		tst	r2, r1
 854 0038 07D1     		bne	.L88
 855 003a 196A     		ldr	r1, [r3, #32]
 856 003c 0E4A     		ldr	r2, .L90+4
 857 003e 1142     		tst	r1, r2
 858 0040 03D1     		bne	.L88
 859 0042 0121     		movs	r1, #1
 860 0044 1A68     		ldr	r2, [r3]
 861 0046 8A43     		bics	r2, r1
 862 0048 1A60     		str	r2, [r3]
 863              	.L88:
 864 004a 0123     		movs	r3, #1
 865              		@ sp needed
 866 004c 3D34     		adds	r4, r4, #61
 867 004e 0020     		movs	r0, #0
 868 0050 2370     		strb	r3, [r4]
 869 0052 10BD     		pop	{r4, pc}
 870              	.L82:
 871 0054 0C29     		cmp	r1, #12
 872 0056 DDD1     		bne	.L85
 873 0058 C368     		ldr	r3, [r0, #12]
 874 005a 094A     		ldr	r2, .L90+12
 875 005c 01E0     		b	.L89
 876              	.L83:
 877 005e C368     		ldr	r3, [r0, #12]
 878 0060 084A     		ldr	r2, .L90+16
 879              	.L89:
 880 0062 1340     		ands	r3, r2
 881 0064 C360     		str	r3, [r0, #12]
 882 0066 D5E7     		b	.L85
 883              	.L84:
 884 0068 C368     		ldr	r3, [r0, #12]
 885 006a 074A     		ldr	r2, .L90+20
 886 006c F9E7     		b	.L89
 887              	.L81:
 888 006e C368     		ldr	r3, [r0, #12]
ARM GAS  /tmp/ccSlPOFo.s 			page 16


 889 0070 064A     		ldr	r2, .L90+24
 890 0072 F6E7     		b	.L89
 891              	.L91:
 892              		.align	2
 893              	.L90:
 894 0074 11110000 		.word	4369
 895 0078 44040000 		.word	1092
 896 007c FF7FFFFF 		.word	-32769
 897 0080 FFEFFFFF 		.word	-4097
 898 0084 FFFDFFFF 		.word	-513
 899 0088 FFFBFFFF 		.word	-1025
 900 008c FFF7FFFF 		.word	-2049
 902              		.section	.text.HAL_TIMEx_PWMN_Start,"ax",%progbits
 903              		.align	1
 904              		.global	HAL_TIMEx_PWMN_Start
 905              		.syntax unified
 906              		.code	16
 907              		.thumb_func
 908              		.fpu softvfp
 910              	HAL_TIMEx_PWMN_Start:
 911              		@ args = 0, pretend = 0, frame = 0
 912              		@ frame_needed = 0, uses_anonymous_args = 0
 913 0000 10B5     		push	{r4, lr}
 914 0002 FFF7FEFF 		bl	HAL_TIMEx_OCN_Start
 915              		@ sp needed
 916 0006 10BD     		pop	{r4, pc}
 918              		.section	.text.HAL_TIMEx_PWMN_Stop,"ax",%progbits
 919              		.align	1
 920              		.global	HAL_TIMEx_PWMN_Stop
 921              		.syntax unified
 922              		.code	16
 923              		.thumb_func
 924              		.fpu softvfp
 926              	HAL_TIMEx_PWMN_Stop:
 927              		@ args = 0, pretend = 0, frame = 0
 928              		@ frame_needed = 0, uses_anonymous_args = 0
 929 0000 10B5     		push	{r4, lr}
 930 0002 FFF7FEFF 		bl	HAL_TIMEx_OCN_Stop
 931              		@ sp needed
 932 0006 10BD     		pop	{r4, pc}
 934              		.section	.text.HAL_TIMEx_PWMN_Start_IT,"ax",%progbits
 935              		.align	1
 936              		.global	HAL_TIMEx_PWMN_Start_IT
 937              		.syntax unified
 938              		.code	16
 939              		.thumb_func
 940              		.fpu softvfp
 942              	HAL_TIMEx_PWMN_Start_IT:
 943              		@ args = 0, pretend = 0, frame = 0
 944              		@ frame_needed = 0, uses_anonymous_args = 0
 945 0000 10B5     		push	{r4, lr}
 946 0002 FFF7FEFF 		bl	HAL_TIMEx_OCN_Start_IT
 947              		@ sp needed
 948 0006 10BD     		pop	{r4, pc}
 950              		.section	.text.HAL_TIMEx_PWMN_Stop_IT,"ax",%progbits
 951              		.align	1
 952              		.global	HAL_TIMEx_PWMN_Stop_IT
ARM GAS  /tmp/ccSlPOFo.s 			page 17


 953              		.syntax unified
 954              		.code	16
 955              		.thumb_func
 956              		.fpu softvfp
 958              	HAL_TIMEx_PWMN_Stop_IT:
 959              		@ args = 0, pretend = 0, frame = 0
 960              		@ frame_needed = 0, uses_anonymous_args = 0
 961 0000 10B5     		push	{r4, lr}
 962 0002 FFF7FEFF 		bl	HAL_TIMEx_OCN_Stop_IT
 963              		@ sp needed
 964 0006 10BD     		pop	{r4, pc}
 966              		.section	.text.HAL_TIMEx_PWMN_Start_DMA,"ax",%progbits
 967              		.align	1
 968              		.global	HAL_TIMEx_PWMN_Start_DMA
 969              		.syntax unified
 970              		.code	16
 971              		.thumb_func
 972              		.fpu softvfp
 974              	HAL_TIMEx_PWMN_Start_DMA:
 975              		@ args = 0, pretend = 0, frame = 0
 976              		@ frame_needed = 0, uses_anonymous_args = 0
 977 0000 10B5     		push	{r4, lr}
 978 0002 FFF7FEFF 		bl	HAL_TIMEx_OCN_Start_DMA
 979              		@ sp needed
 980 0006 10BD     		pop	{r4, pc}
 982              		.section	.text.HAL_TIMEx_PWMN_Stop_DMA,"ax",%progbits
 983              		.align	1
 984              		.global	HAL_TIMEx_PWMN_Stop_DMA
 985              		.syntax unified
 986              		.code	16
 987              		.thumb_func
 988              		.fpu softvfp
 990              	HAL_TIMEx_PWMN_Stop_DMA:
 991              		@ args = 0, pretend = 0, frame = 0
 992              		@ frame_needed = 0, uses_anonymous_args = 0
 993 0000 10B5     		push	{r4, lr}
 994 0002 FFF7FEFF 		bl	HAL_TIMEx_OCN_Stop_DMA
 995              		@ sp needed
 996 0006 10BD     		pop	{r4, pc}
 998              		.section	.text.HAL_TIMEx_OnePulseN_Start,"ax",%progbits
 999              		.align	1
 1000              		.global	HAL_TIMEx_OnePulseN_Start
 1001              		.syntax unified
 1002              		.code	16
 1003              		.thumb_func
 1004              		.fpu softvfp
 1006              	HAL_TIMEx_OnePulseN_Start:
 1007              		@ args = 0, pretend = 0, frame = 0
 1008              		@ frame_needed = 0, uses_anonymous_args = 0
 1009 0000 10B5     		push	{r4, lr}
 1010 0002 0400     		movs	r4, r0
 1011              		@ sp needed
 1012 0004 0422     		movs	r2, #4
 1013 0006 0068     		ldr	r0, [r0]
 1014 0008 FFF7FEFF 		bl	TIM_CCxNChannelCmd
 1015 000c 8023     		movs	r3, #128
 1016 000e 2268     		ldr	r2, [r4]
ARM GAS  /tmp/ccSlPOFo.s 			page 18


 1017 0010 1B02     		lsls	r3, r3, #8
 1018 0012 516C     		ldr	r1, [r2, #68]
 1019 0014 0020     		movs	r0, #0
 1020 0016 0B43     		orrs	r3, r1
 1021 0018 5364     		str	r3, [r2, #68]
 1022 001a 10BD     		pop	{r4, pc}
 1024              		.section	.text.HAL_TIMEx_OnePulseN_Stop,"ax",%progbits
 1025              		.align	1
 1026              		.global	HAL_TIMEx_OnePulseN_Stop
 1027              		.syntax unified
 1028              		.code	16
 1029              		.thumb_func
 1030              		.fpu softvfp
 1032              	HAL_TIMEx_OnePulseN_Stop:
 1033              		@ args = 0, pretend = 0, frame = 0
 1034              		@ frame_needed = 0, uses_anonymous_args = 0
 1035 0000 10B5     		push	{r4, lr}
 1036 0002 FFF7FEFF 		bl	HAL_TIMEx_OCN_Stop
 1037              		@ sp needed
 1038 0006 10BD     		pop	{r4, pc}
 1040              		.section	.text.HAL_TIMEx_OnePulseN_Start_IT,"ax",%progbits
 1041              		.align	1
 1042              		.global	HAL_TIMEx_OnePulseN_Start_IT
 1043              		.syntax unified
 1044              		.code	16
 1045              		.thumb_func
 1046              		.fpu softvfp
 1048              	HAL_TIMEx_OnePulseN_Start_IT:
 1049              		@ args = 0, pretend = 0, frame = 0
 1050              		@ frame_needed = 0, uses_anonymous_args = 0
 1051 0000 0223     		movs	r3, #2
 1052 0002 10B5     		push	{r4, lr}
 1053 0004 0400     		movs	r4, r0
 1054              		@ sp needed
 1055 0006 0068     		ldr	r0, [r0]
 1056 0008 C268     		ldr	r2, [r0, #12]
 1057 000a 1343     		orrs	r3, r2
 1058 000c 0422     		movs	r2, #4
 1059 000e C360     		str	r3, [r0, #12]
 1060 0010 C368     		ldr	r3, [r0, #12]
 1061 0012 1343     		orrs	r3, r2
 1062 0014 C360     		str	r3, [r0, #12]
 1063 0016 FFF7FEFF 		bl	TIM_CCxNChannelCmd
 1064 001a 8023     		movs	r3, #128
 1065 001c 2268     		ldr	r2, [r4]
 1066 001e 1B02     		lsls	r3, r3, #8
 1067 0020 516C     		ldr	r1, [r2, #68]
 1068 0022 0020     		movs	r0, #0
 1069 0024 0B43     		orrs	r3, r1
 1070 0026 5364     		str	r3, [r2, #68]
 1071 0028 10BD     		pop	{r4, pc}
 1073              		.section	.text.HAL_TIMEx_OnePulseN_Stop_IT,"ax",%progbits
 1074              		.align	1
 1075              		.global	HAL_TIMEx_OnePulseN_Stop_IT
 1076              		.syntax unified
 1077              		.code	16
 1078              		.thumb_func
ARM GAS  /tmp/ccSlPOFo.s 			page 19


 1079              		.fpu softvfp
 1081              	HAL_TIMEx_OnePulseN_Stop_IT:
 1082              		@ args = 0, pretend = 0, frame = 0
 1083              		@ frame_needed = 0, uses_anonymous_args = 0
 1084 0000 0222     		movs	r2, #2
 1085 0002 10B5     		push	{r4, lr}
 1086 0004 0400     		movs	r4, r0
 1087 0006 0068     		ldr	r0, [r0]
 1088 0008 C368     		ldr	r3, [r0, #12]
 1089 000a 9343     		bics	r3, r2
 1090 000c C360     		str	r3, [r0, #12]
 1091 000e C368     		ldr	r3, [r0, #12]
 1092 0010 9218     		adds	r2, r2, r2
 1093 0012 9343     		bics	r3, r2
 1094 0014 C360     		str	r3, [r0, #12]
 1095 0016 0022     		movs	r2, #0
 1096 0018 FFF7FEFF 		bl	TIM_CCxNChannelCmd
 1097 001c 2368     		ldr	r3, [r4]
 1098 001e 0C49     		ldr	r1, .L104
 1099 0020 1A6A     		ldr	r2, [r3, #32]
 1100 0022 0A42     		tst	r2, r1
 1101 0024 07D1     		bne	.L102
 1102 0026 186A     		ldr	r0, [r3, #32]
 1103 0028 0A4A     		ldr	r2, .L104+4
 1104 002a 1042     		tst	r0, r2
 1105 002c 03D1     		bne	.L102
 1106 002e 5A6C     		ldr	r2, [r3, #68]
 1107 0030 0948     		ldr	r0, .L104+8
 1108 0032 0240     		ands	r2, r0
 1109 0034 5A64     		str	r2, [r3, #68]
 1110              	.L102:
 1111 0036 1A6A     		ldr	r2, [r3, #32]
 1112 0038 0A42     		tst	r2, r1
 1113 003a 07D1     		bne	.L103
 1114 003c 196A     		ldr	r1, [r3, #32]
 1115 003e 054A     		ldr	r2, .L104+4
 1116 0040 1142     		tst	r1, r2
 1117 0042 03D1     		bne	.L103
 1118 0044 0121     		movs	r1, #1
 1119 0046 1A68     		ldr	r2, [r3]
 1120 0048 8A43     		bics	r2, r1
 1121 004a 1A60     		str	r2, [r3]
 1122              	.L103:
 1123 004c 0020     		movs	r0, #0
 1124              		@ sp needed
 1125 004e 10BD     		pop	{r4, pc}
 1126              	.L105:
 1127              		.align	2
 1128              	.L104:
 1129 0050 11110000 		.word	4369
 1130 0054 44040000 		.word	1092
 1131 0058 FF7FFFFF 		.word	-32769
 1133              		.section	.text.HAL_TIMEx_ConfigCommutationEvent,"ax",%progbits
 1134              		.align	1
 1135              		.global	HAL_TIMEx_ConfigCommutationEvent
 1136              		.syntax unified
 1137              		.code	16
ARM GAS  /tmp/ccSlPOFo.s 			page 20


 1138              		.thumb_func
 1139              		.fpu softvfp
 1141              	HAL_TIMEx_ConfigCommutationEvent:
 1142              		@ args = 0, pretend = 0, frame = 0
 1143              		@ frame_needed = 0, uses_anonymous_args = 0
 1144 0000 30B5     		push	{r4, r5, lr}
 1145 0002 0400     		movs	r4, r0
 1146 0004 3C34     		adds	r4, r4, #60
 1147 0006 1500     		movs	r5, r2
 1148 0008 2278     		ldrb	r2, [r4]
 1149 000a 0300     		movs	r3, r0
 1150 000c 0220     		movs	r0, #2
 1151 000e 012A     		cmp	r2, #1
 1152 0010 1AD0     		beq	.L107
 1153 0012 0122     		movs	r2, #1
 1154 0014 0800     		movs	r0, r1
 1155 0016 2270     		strb	r2, [r4]
 1156 0018 2F32     		adds	r2, r2, #47
 1157 001a 1B68     		ldr	r3, [r3]
 1158 001c 9043     		bics	r0, r2
 1159 001e 06D1     		bne	.L108
 1160 0020 7020     		movs	r0, #112
 1161 0022 9A68     		ldr	r2, [r3, #8]
 1162 0024 8243     		bics	r2, r0
 1163 0026 9A60     		str	r2, [r3, #8]
 1164 0028 9A68     		ldr	r2, [r3, #8]
 1165 002a 1143     		orrs	r1, r2
 1166 002c 9960     		str	r1, [r3, #8]
 1167              	.L108:
 1168 002e 0122     		movs	r2, #1
 1169 0030 5968     		ldr	r1, [r3, #4]
 1170 0032 0020     		movs	r0, #0
 1171 0034 0A43     		orrs	r2, r1
 1172 0036 0421     		movs	r1, #4
 1173 0038 5A60     		str	r2, [r3, #4]
 1174 003a 5A68     		ldr	r2, [r3, #4]
 1175 003c 8A43     		bics	r2, r1
 1176 003e 5A60     		str	r2, [r3, #4]
 1177 0040 5A68     		ldr	r2, [r3, #4]
 1178 0042 2A43     		orrs	r2, r5
 1179 0044 5A60     		str	r2, [r3, #4]
 1180 0046 2070     		strb	r0, [r4]
 1181              	.L107:
 1182              		@ sp needed
 1183 0048 30BD     		pop	{r4, r5, pc}
 1185              		.section	.text.HAL_TIMEx_ConfigCommutationEvent_IT,"ax",%progbits
 1186              		.align	1
 1187              		.global	HAL_TIMEx_ConfigCommutationEvent_IT
 1188              		.syntax unified
 1189              		.code	16
 1190              		.thumb_func
 1191              		.fpu softvfp
 1193              	HAL_TIMEx_ConfigCommutationEvent_IT:
 1194              		@ args = 0, pretend = 0, frame = 0
 1195              		@ frame_needed = 0, uses_anonymous_args = 0
 1196 0000 30B5     		push	{r4, r5, lr}
 1197 0002 0400     		movs	r4, r0
ARM GAS  /tmp/ccSlPOFo.s 			page 21


 1198 0004 3C34     		adds	r4, r4, #60
 1199 0006 1500     		movs	r5, r2
 1200 0008 2278     		ldrb	r2, [r4]
 1201 000a 0300     		movs	r3, r0
 1202 000c 0220     		movs	r0, #2
 1203 000e 012A     		cmp	r2, #1
 1204 0010 1ED0     		beq	.L111
 1205 0012 0122     		movs	r2, #1
 1206 0014 0800     		movs	r0, r1
 1207 0016 2270     		strb	r2, [r4]
 1208 0018 2F32     		adds	r2, r2, #47
 1209 001a 1B68     		ldr	r3, [r3]
 1210 001c 9043     		bics	r0, r2
 1211 001e 06D1     		bne	.L112
 1212 0020 7020     		movs	r0, #112
 1213 0022 9A68     		ldr	r2, [r3, #8]
 1214 0024 8243     		bics	r2, r0
 1215 0026 9A60     		str	r2, [r3, #8]
 1216 0028 9A68     		ldr	r2, [r3, #8]
 1217 002a 1143     		orrs	r1, r2
 1218 002c 9960     		str	r1, [r3, #8]
 1219              	.L112:
 1220 002e 0122     		movs	r2, #1
 1221 0030 5968     		ldr	r1, [r3, #4]
 1222 0032 0020     		movs	r0, #0
 1223 0034 0A43     		orrs	r2, r1
 1224 0036 0421     		movs	r1, #4
 1225 0038 5A60     		str	r2, [r3, #4]
 1226 003a 5A68     		ldr	r2, [r3, #4]
 1227 003c 8A43     		bics	r2, r1
 1228 003e 5A60     		str	r2, [r3, #4]
 1229 0040 5A68     		ldr	r2, [r3, #4]
 1230 0042 2A43     		orrs	r2, r5
 1231 0044 5A60     		str	r2, [r3, #4]
 1232 0046 2022     		movs	r2, #32
 1233 0048 D968     		ldr	r1, [r3, #12]
 1234 004a 0A43     		orrs	r2, r1
 1235 004c DA60     		str	r2, [r3, #12]
 1236 004e 2070     		strb	r0, [r4]
 1237              	.L111:
 1238              		@ sp needed
 1239 0050 30BD     		pop	{r4, r5, pc}
 1241              		.section	.text.HAL_TIMEx_ConfigCommutationEvent_DMA,"ax",%progbits
 1242              		.align	1
 1243              		.global	HAL_TIMEx_ConfigCommutationEvent_DMA
 1244              		.syntax unified
 1245              		.code	16
 1246              		.thumb_func
 1247              		.fpu softvfp
 1249              	HAL_TIMEx_ConfigCommutationEvent_DMA:
 1250              		@ args = 0, pretend = 0, frame = 0
 1251              		@ frame_needed = 0, uses_anonymous_args = 0
 1252 0000 70B5     		push	{r4, r5, r6, lr}
 1253 0002 0500     		movs	r5, r0
 1254 0004 3C35     		adds	r5, r5, #60
 1255 0006 2B78     		ldrb	r3, [r5]
 1256 0008 0400     		movs	r4, r0
ARM GAS  /tmp/ccSlPOFo.s 			page 22


 1257 000a 1600     		movs	r6, r2
 1258 000c 0220     		movs	r0, #2
 1259 000e 012B     		cmp	r3, #1
 1260 0010 24D0     		beq	.L115
 1261 0012 0123     		movs	r3, #1
 1262 0014 0A00     		movs	r2, r1
 1263 0016 2B70     		strb	r3, [r5]
 1264 0018 2F33     		adds	r3, r3, #47
 1265 001a 9A43     		bics	r2, r3
 1266 001c 2368     		ldr	r3, [r4]
 1267 001e 06D1     		bne	.L116
 1268 0020 9A68     		ldr	r2, [r3, #8]
 1269 0022 6E30     		adds	r0, r0, #110
 1270 0024 8243     		bics	r2, r0
 1271 0026 9A60     		str	r2, [r3, #8]
 1272 0028 9A68     		ldr	r2, [r3, #8]
 1273 002a 1143     		orrs	r1, r2
 1274 002c 9960     		str	r1, [r3, #8]
 1275              	.L116:
 1276 002e 0122     		movs	r2, #1
 1277 0030 5968     		ldr	r1, [r3, #4]
 1278 0032 0020     		movs	r0, #0
 1279 0034 0A43     		orrs	r2, r1
 1280 0036 0421     		movs	r1, #4
 1281 0038 5A60     		str	r2, [r3, #4]
 1282 003a 5A68     		ldr	r2, [r3, #4]
 1283 003c 8A43     		bics	r2, r1
 1284 003e 5A60     		str	r2, [r3, #4]
 1285 0040 5A68     		ldr	r2, [r3, #4]
 1286 0042 0749     		ldr	r1, .L118
 1287 0044 3243     		orrs	r2, r6
 1288 0046 5A60     		str	r2, [r3, #4]
 1289 0048 626B     		ldr	r2, [r4, #52]
 1290 004a 9162     		str	r1, [r2, #40]
 1291 004c 0549     		ldr	r1, .L118+4
 1292 004e 1163     		str	r1, [r2, #48]
 1293 0050 8022     		movs	r2, #128
 1294 0052 D968     		ldr	r1, [r3, #12]
 1295 0054 9201     		lsls	r2, r2, #6
 1296 0056 0A43     		orrs	r2, r1
 1297 0058 DA60     		str	r2, [r3, #12]
 1298 005a 2870     		strb	r0, [r5]
 1299              	.L115:
 1300              		@ sp needed
 1301 005c 70BD     		pop	{r4, r5, r6, pc}
 1302              	.L119:
 1303 005e C046     		.align	2
 1304              	.L118:
 1305 0060 00000000 		.word	TIMEx_DMACommutationCplt
 1306 0064 00000000 		.word	TIM_DMAError
 1308              		.section	.text.HAL_TIMEx_MasterConfigSynchronization,"ax",%progbits
 1309              		.align	1
 1310              		.global	HAL_TIMEx_MasterConfigSynchronization
 1311              		.syntax unified
 1312              		.code	16
 1313              		.thumb_func
 1314              		.fpu softvfp
ARM GAS  /tmp/ccSlPOFo.s 			page 23


 1316              	HAL_TIMEx_MasterConfigSynchronization:
 1317              		@ args = 0, pretend = 0, frame = 0
 1318              		@ frame_needed = 0, uses_anonymous_args = 0
 1319 0000 30B5     		push	{r4, r5, lr}
 1320 0002 0400     		movs	r4, r0
 1321 0004 0222     		movs	r2, #2
 1322 0006 3C34     		adds	r4, r4, #60
 1323 0008 2578     		ldrb	r5, [r4]
 1324 000a 0300     		movs	r3, r0
 1325 000c 1000     		movs	r0, r2
 1326 000e 012D     		cmp	r5, #1
 1327 0010 17D0     		beq	.L121
 1328 0012 1800     		movs	r0, r3
 1329 0014 7025     		movs	r5, #112
 1330 0016 3D30     		adds	r0, r0, #61
 1331 0018 0270     		strb	r2, [r0]
 1332 001a 1B68     		ldr	r3, [r3]
 1333 001c 5A68     		ldr	r2, [r3, #4]
 1334 001e AA43     		bics	r2, r5
 1335 0020 5A60     		str	r2, [r3, #4]
 1336 0022 5A68     		ldr	r2, [r3, #4]
 1337 0024 0D68     		ldr	r5, [r1]
 1338 0026 4968     		ldr	r1, [r1, #4]
 1339 0028 2A43     		orrs	r2, r5
 1340 002a 8025     		movs	r5, #128
 1341 002c 5A60     		str	r2, [r3, #4]
 1342 002e 9A68     		ldr	r2, [r3, #8]
 1343 0030 AA43     		bics	r2, r5
 1344 0032 9A60     		str	r2, [r3, #8]
 1345 0034 9A68     		ldr	r2, [r3, #8]
 1346 0036 0A43     		orrs	r2, r1
 1347 0038 9A60     		str	r2, [r3, #8]
 1348 003a 0123     		movs	r3, #1
 1349 003c 0370     		strb	r3, [r0]
 1350 003e 0020     		movs	r0, #0
 1351 0040 2070     		strb	r0, [r4]
 1352              	.L121:
 1353              		@ sp needed
 1354 0042 30BD     		pop	{r4, r5, pc}
 1356              		.section	.text.HAL_TIMEx_ConfigBreakDeadTime,"ax",%progbits
 1357              		.align	1
 1358              		.global	HAL_TIMEx_ConfigBreakDeadTime
 1359              		.syntax unified
 1360              		.code	16
 1361              		.thumb_func
 1362              		.fpu softvfp
 1364              	HAL_TIMEx_ConfigBreakDeadTime:
 1365              		@ args = 0, pretend = 0, frame = 0
 1366              		@ frame_needed = 0, uses_anonymous_args = 0
 1367 0000 30B5     		push	{r4, r5, lr}
 1368 0002 0400     		movs	r4, r0
 1369 0004 0223     		movs	r3, #2
 1370 0006 3C34     		adds	r4, r4, #60
 1371 0008 2578     		ldrb	r5, [r4]
 1372 000a 0200     		movs	r2, r0
 1373 000c 1800     		movs	r0, r3
 1374 000e 012D     		cmp	r5, #1
ARM GAS  /tmp/ccSlPOFo.s 			page 24


 1375 0010 24D0     		beq	.L124
 1376 0012 1000     		movs	r0, r2
 1377 0014 3D30     		adds	r0, r0, #61
 1378 0016 0370     		strb	r3, [r0]
 1379 0018 CD68     		ldr	r5, [r1, #12]
 1380 001a 114B     		ldr	r3, .L126
 1381 001c 1268     		ldr	r2, [r2]
 1382 001e 2B40     		ands	r3, r5
 1383 0020 8D68     		ldr	r5, [r1, #8]
 1384 0022 2B43     		orrs	r3, r5
 1385 0024 0F4D     		ldr	r5, .L126+4
 1386 0026 2B40     		ands	r3, r5
 1387 0028 4D68     		ldr	r5, [r1, #4]
 1388 002a 2B43     		orrs	r3, r5
 1389 002c 0E4D     		ldr	r5, .L126+8
 1390 002e 2B40     		ands	r3, r5
 1391 0030 0D68     		ldr	r5, [r1]
 1392 0032 2B43     		orrs	r3, r5
 1393 0034 0D4D     		ldr	r5, .L126+12
 1394 0036 2B40     		ands	r3, r5
 1395 0038 0D69     		ldr	r5, [r1, #16]
 1396 003a 2B43     		orrs	r3, r5
 1397 003c 0C4D     		ldr	r5, .L126+16
 1398 003e 2B40     		ands	r3, r5
 1399 0040 4D69     		ldr	r5, [r1, #20]
 1400 0042 8969     		ldr	r1, [r1, #24]
 1401 0044 2B43     		orrs	r3, r5
 1402 0046 0B4D     		ldr	r5, .L126+20
 1403 0048 2B40     		ands	r3, r5
 1404 004a 0B4D     		ldr	r5, .L126+24
 1405 004c 0B43     		orrs	r3, r1
 1406 004e 2B40     		ands	r3, r5
 1407 0050 0B43     		orrs	r3, r1
 1408 0052 5364     		str	r3, [r2, #68]
 1409 0054 0123     		movs	r3, #1
 1410 0056 0370     		strb	r3, [r0]
 1411 0058 0020     		movs	r0, #0
 1412 005a 2070     		strb	r0, [r4]
 1413              	.L124:
 1414              		@ sp needed
 1415 005c 30BD     		pop	{r4, r5, pc}
 1416              	.L127:
 1417 005e C046     		.align	2
 1418              	.L126:
 1419 0060 FFFCFFFF 		.word	-769
 1420 0064 FFFBFFFF 		.word	-1025
 1421 0068 FFF7FFFF 		.word	-2049
 1422 006c FFEFFFFF 		.word	-4097
 1423 0070 FFDFFFFF 		.word	-8193
 1424 0074 FFBFFFFF 		.word	-16385
 1425 0078 FF7FFFFF 		.word	-32769
 1427              		.section	.text.HAL_TIMEx_RemapConfig,"ax",%progbits
 1428              		.align	1
 1429              		.global	HAL_TIMEx_RemapConfig
 1430              		.syntax unified
 1431              		.code	16
 1432              		.thumb_func
ARM GAS  /tmp/ccSlPOFo.s 			page 25


 1433              		.fpu softvfp
 1435              	HAL_TIMEx_RemapConfig:
 1436              		@ args = 0, pretend = 0, frame = 0
 1437              		@ frame_needed = 0, uses_anonymous_args = 0
 1438 0000 0200     		movs	r2, r0
 1439 0002 10B5     		push	{r4, lr}
 1440 0004 3C32     		adds	r2, r2, #60
 1441 0006 1478     		ldrb	r4, [r2]
 1442 0008 0300     		movs	r3, r0
 1443 000a 0220     		movs	r0, #2
 1444 000c 012C     		cmp	r4, #1
 1445 000e 06D0     		beq	.L129
 1446 0010 1868     		ldr	r0, [r3]
 1447 0012 3D33     		adds	r3, r3, #61
 1448 0014 0165     		str	r1, [r0, #80]
 1449 0016 0121     		movs	r1, #1
 1450 0018 0020     		movs	r0, #0
 1451 001a 1970     		strb	r1, [r3]
 1452 001c 1070     		strb	r0, [r2]
 1453              	.L129:
 1454              		@ sp needed
 1455 001e 10BD     		pop	{r4, pc}
 1457              		.section	.text.HAL_TIM_ConfigOCrefClear,"ax",%progbits
 1458              		.align	1
 1459              		.global	HAL_TIM_ConfigOCrefClear
 1460              		.syntax unified
 1461              		.code	16
 1462              		.thumb_func
 1463              		.fpu softvfp
 1465              	HAL_TIM_ConfigOCrefClear:
 1466              		@ args = 0, pretend = 0, frame = 8
 1467              		@ frame_needed = 0, uses_anonymous_args = 0
 1468 0000 F7B5     		push	{r0, r1, r2, r4, r5, r6, r7, lr}
 1469 0002 0700     		movs	r7, r0
 1470 0004 0223     		movs	r3, #2
 1471 0006 3C37     		adds	r7, r7, #60
 1472 0008 1600     		movs	r6, r2
 1473 000a 3A78     		ldrb	r2, [r7]
 1474 000c 0400     		movs	r4, r0
 1475 000e 0D00     		movs	r5, r1
 1476 0010 1800     		movs	r0, r3
 1477 0012 012A     		cmp	r2, #1
 1478 0014 1DD0     		beq	.L132
 1479 0016 0122     		movs	r2, #1
 1480 0018 3A70     		strb	r2, [r7]
 1481 001a 2200     		movs	r2, r4
 1482 001c 3D32     		adds	r2, r2, #61
 1483 001e 1370     		strb	r3, [r2]
 1484 0020 4B68     		ldr	r3, [r1, #4]
 1485 0022 0192     		str	r2, [sp, #4]
 1486 0024 012B     		cmp	r3, #1
 1487 0026 1AD0     		beq	.L133
 1488 0028 8342     		cmp	r3, r0
 1489 002a 13D0     		beq	.L134
 1490 002c 002B     		cmp	r3, #0
 1491 002e 04D1     		bne	.L135
 1492 0030 2268     		ldr	r2, [r4]
ARM GAS  /tmp/ccSlPOFo.s 			page 26


 1493 0032 2A49     		ldr	r1, .L152
 1494 0034 9368     		ldr	r3, [r2, #8]
 1495 0036 0B40     		ands	r3, r1
 1496              	.L147:
 1497 0038 9360     		str	r3, [r2, #8]
 1498              	.L135:
 1499 003a 082E     		cmp	r6, #8
 1500 003c 3DD0     		beq	.L136
 1501 003e 19D8     		bhi	.L137
 1502 0040 002E     		cmp	r6, #0
 1503 0042 21D0     		beq	.L138
 1504 0044 042E     		cmp	r6, #4
 1505 0046 2CD0     		beq	.L139
 1506              	.L140:
 1507 0048 0123     		movs	r3, #1
 1508 004a 0020     		movs	r0, #0
 1509 004c 019A     		ldr	r2, [sp, #4]
 1510 004e 1370     		strb	r3, [r2]
 1511 0050 3870     		strb	r0, [r7]
 1512              	.L132:
 1513              		@ sp needed
 1514 0052 FEBD     		pop	{r1, r2, r3, r4, r5, r6, r7, pc}
 1515              	.L134:
 1516 0054 0821     		movs	r1, #8
 1517 0056 2268     		ldr	r2, [r4]
 1518 0058 9368     		ldr	r3, [r2, #8]
 1519 005a 8B43     		bics	r3, r1
 1520 005c ECE7     		b	.L147
 1521              	.L133:
 1522 005e 0B69     		ldr	r3, [r1, #16]
 1523 0060 8A68     		ldr	r2, [r1, #8]
 1524 0062 2068     		ldr	r0, [r4]
 1525 0064 C968     		ldr	r1, [r1, #12]
 1526 0066 FFF7FEFF 		bl	TIM_ETR_SetConfig
 1527 006a 0823     		movs	r3, #8
 1528 006c 2268     		ldr	r2, [r4]
 1529 006e 9168     		ldr	r1, [r2, #8]
 1530 0070 0B43     		orrs	r3, r1
 1531 0072 E1E7     		b	.L147
 1532              	.L137:
 1533 0074 0C2E     		cmp	r6, #12
 1534 0076 E7D1     		bne	.L140
 1535 0078 2A68     		ldr	r2, [r5]
 1536 007a 2368     		ldr	r3, [r4]
 1537 007c 002A     		cmp	r2, #0
 1538 007e 29D0     		beq	.L145
 1539 0080 8022     		movs	r2, #128
 1540 0082 D969     		ldr	r1, [r3, #28]
 1541 0084 1202     		lsls	r2, r2, #8
 1542 0086 1EE0     		b	.L151
 1543              	.L138:
 1544 0088 2968     		ldr	r1, [r5]
 1545 008a 8022     		movs	r2, #128
 1546 008c 2368     		ldr	r3, [r4]
 1547 008e 0029     		cmp	r1, #0
 1548 0090 03D0     		beq	.L142
 1549 0092 9969     		ldr	r1, [r3, #24]
ARM GAS  /tmp/ccSlPOFo.s 			page 27


 1550              	.L148:
 1551 0094 0A43     		orrs	r2, r1
 1552              	.L150:
 1553 0096 9A61     		str	r2, [r3, #24]
 1554 0098 D6E7     		b	.L140
 1555              	.L142:
 1556 009a 9969     		ldr	r1, [r3, #24]
 1557 009c 9143     		bics	r1, r2
 1558 009e 9961     		str	r1, [r3, #24]
 1559 00a0 D2E7     		b	.L140
 1560              	.L139:
 1561 00a2 2A68     		ldr	r2, [r5]
 1562 00a4 2368     		ldr	r3, [r4]
 1563 00a6 002A     		cmp	r2, #0
 1564 00a8 03D0     		beq	.L143
 1565 00aa 8022     		movs	r2, #128
 1566 00ac 9969     		ldr	r1, [r3, #24]
 1567 00ae 1202     		lsls	r2, r2, #8
 1568 00b0 F0E7     		b	.L148
 1569              	.L143:
 1570 00b2 9A69     		ldr	r2, [r3, #24]
 1571 00b4 0A49     		ldr	r1, .L152+4
 1572 00b6 0A40     		ands	r2, r1
 1573 00b8 EDE7     		b	.L150
 1574              	.L136:
 1575 00ba 2968     		ldr	r1, [r5]
 1576 00bc 8022     		movs	r2, #128
 1577 00be 2368     		ldr	r3, [r4]
 1578 00c0 0029     		cmp	r1, #0
 1579 00c2 03D0     		beq	.L144
 1580 00c4 D969     		ldr	r1, [r3, #28]
 1581              	.L151:
 1582 00c6 0A43     		orrs	r2, r1
 1583              	.L149:
 1584 00c8 DA61     		str	r2, [r3, #28]
 1585 00ca BDE7     		b	.L140
 1586              	.L144:
 1587 00cc D969     		ldr	r1, [r3, #28]
 1588 00ce 9143     		bics	r1, r2
 1589 00d0 D961     		str	r1, [r3, #28]
 1590 00d2 B9E7     		b	.L140
 1591              	.L145:
 1592 00d4 DA69     		ldr	r2, [r3, #28]
 1593 00d6 0249     		ldr	r1, .L152+4
 1594 00d8 0A40     		ands	r2, r1
 1595 00da F5E7     		b	.L149
 1596              	.L153:
 1597              		.align	2
 1598              	.L152:
 1599 00dc F700FFFF 		.word	-65289
 1600 00e0 FF7FFFFF 		.word	-32769
 1602              		.section	.text.HAL_TIMEx_CommutationCallback,"ax",%progbits
 1603              		.align	1
 1604              		.weak	HAL_TIMEx_CommutationCallback
 1605              		.syntax unified
 1606              		.code	16
 1607              		.thumb_func
ARM GAS  /tmp/ccSlPOFo.s 			page 28


 1608              		.fpu softvfp
 1610              	HAL_TIMEx_CommutationCallback:
 1611              		@ args = 0, pretend = 0, frame = 0
 1612              		@ frame_needed = 0, uses_anonymous_args = 0
 1613              		@ link register save eliminated.
 1614              		@ sp needed
 1615 0000 7047     		bx	lr
 1617              		.section	.text.TIMEx_DMACommutationCplt,"ax",%progbits
 1618              		.align	1
 1619              		.global	TIMEx_DMACommutationCplt
 1620              		.syntax unified
 1621              		.code	16
 1622              		.thumb_func
 1623              		.fpu softvfp
 1625              	TIMEx_DMACommutationCplt:
 1626              		@ args = 0, pretend = 0, frame = 0
 1627              		@ frame_needed = 0, uses_anonymous_args = 0
 1628 0000 406A     		ldr	r0, [r0, #36]
 1629 0002 0122     		movs	r2, #1
 1630 0004 0300     		movs	r3, r0
 1631 0006 10B5     		push	{r4, lr}
 1632 0008 3D33     		adds	r3, r3, #61
 1633 000a 1A70     		strb	r2, [r3]
 1634 000c FFF7FEFF 		bl	HAL_TIMEx_CommutationCallback
 1635              		@ sp needed
 1636 0010 10BD     		pop	{r4, pc}
 1638              		.section	.text.HAL_TIMEx_BreakCallback,"ax",%progbits
 1639              		.align	1
 1640              		.weak	HAL_TIMEx_BreakCallback
 1641              		.syntax unified
 1642              		.code	16
 1643              		.thumb_func
 1644              		.fpu softvfp
 1646              	HAL_TIMEx_BreakCallback:
 1647              		@ args = 0, pretend = 0, frame = 0
 1648              		@ frame_needed = 0, uses_anonymous_args = 0
 1649              		@ link register save eliminated.
 1650              		@ sp needed
 1651 0000 7047     		bx	lr
 1653              		.section	.text.HAL_TIMEx_HallSensor_GetState,"ax",%progbits
 1654              		.align	1
 1655              		.global	HAL_TIMEx_HallSensor_GetState
 1656              		.syntax unified
 1657              		.code	16
 1658              		.thumb_func
 1659              		.fpu softvfp
 1661              	HAL_TIMEx_HallSensor_GetState:
 1662              		@ args = 0, pretend = 0, frame = 0
 1663              		@ frame_needed = 0, uses_anonymous_args = 0
 1664              		@ link register save eliminated.
 1665 0000 3D30     		adds	r0, r0, #61
 1666 0002 0078     		ldrb	r0, [r0]
 1667              		@ sp needed
 1668 0004 C0B2     		uxtb	r0, r0
 1669 0006 7047     		bx	lr
 1671              		.ident	"GCC: (Arch Repository) 10.1.0"
ARM GAS  /tmp/ccSlPOFo.s 			page 29

