ARM GAS  /tmp/ccO2ztaf.s 			page 1


   1              		.cpu cortex-m0
   2              		.eabi_attribute 20, 1
   3              		.eabi_attribute 21, 1
   4              		.eabi_attribute 23, 3
   5              		.eabi_attribute 24, 1
   6              		.eabi_attribute 25, 1
   7              		.eabi_attribute 26, 1
   8              		.eabi_attribute 30, 4
   9              		.eabi_attribute 34, 0
  10              		.eabi_attribute 18, 4
  11              		.file	"stm32f0xx_hal_cortex.c"
  12              		.text
  13              		.section	.text.HAL_NVIC_SetPriority,"ax",%progbits
  14              		.align	1
  15              		.global	HAL_NVIC_SetPriority
  16              		.arch armv6s-m
  17              		.syntax unified
  18              		.code	16
  19              		.thumb_func
  20              		.fpu softvfp
  22              	HAL_NVIC_SetPriority:
  23              		@ args = 0, pretend = 0, frame = 0
  24              		@ frame_needed = 0, uses_anonymous_args = 0
  25 0000 30B5     		push	{r4, r5, lr}
  26 0002 FF25     		movs	r5, #255
  27 0004 0324     		movs	r4, #3
  28 0006 2A00     		movs	r2, r5
  29 0008 0440     		ands	r4, r0
  30 000a E400     		lsls	r4, r4, #3
  31 000c A240     		lsls	r2, r2, r4
  32 000e 8901     		lsls	r1, r1, #6
  33 0010 2940     		ands	r1, r5
  34 0012 D243     		mvns	r2, r2
  35 0014 A140     		lsls	r1, r1, r4
  36 0016 C3B2     		uxtb	r3, r0
  37 0018 0028     		cmp	r0, #0
  38 001a 0BDA     		bge	.L2
  39 001c 0F20     		movs	r0, #15
  40 001e 0340     		ands	r3, r0
  41 0020 083B     		subs	r3, r3, #8
  42 0022 0A48     		ldr	r0, .L4
  43 0024 9B08     		lsrs	r3, r3, #2
  44 0026 9B00     		lsls	r3, r3, #2
  45 0028 1B18     		adds	r3, r3, r0
  46 002a D869     		ldr	r0, [r3, #28]
  47 002c 0240     		ands	r2, r0
  48 002e 1143     		orrs	r1, r2
  49 0030 D961     		str	r1, [r3, #28]
  50              	.L1:
  51              		@ sp needed
  52 0032 30BD     		pop	{r4, r5, pc}
  53              	.L2:
  54 0034 064B     		ldr	r3, .L4+4
  55 0036 8008     		lsrs	r0, r0, #2
  56 0038 8000     		lsls	r0, r0, #2
  57 003a C018     		adds	r0, r0, r3
  58 003c C023     		movs	r3, #192
ARM GAS  /tmp/ccO2ztaf.s 			page 2


  59 003e 9B00     		lsls	r3, r3, #2
  60 0040 C458     		ldr	r4, [r0, r3]
  61 0042 2240     		ands	r2, r4
  62 0044 1143     		orrs	r1, r2
  63 0046 C150     		str	r1, [r0, r3]
  64 0048 F3E7     		b	.L1
  65              	.L5:
  66 004a C046     		.align	2
  67              	.L4:
  68 004c 00ED00E0 		.word	-536810240
  69 0050 00E100E0 		.word	-536813312
  71              		.section	.text.HAL_NVIC_EnableIRQ,"ax",%progbits
  72              		.align	1
  73              		.global	HAL_NVIC_EnableIRQ
  74              		.syntax unified
  75              		.code	16
  76              		.thumb_func
  77              		.fpu softvfp
  79              	HAL_NVIC_EnableIRQ:
  80              		@ args = 0, pretend = 0, frame = 0
  81              		@ frame_needed = 0, uses_anonymous_args = 0
  82              		@ link register save eliminated.
  83 0000 1F23     		movs	r3, #31
  84              		@ sp needed
  85 0002 1840     		ands	r0, r3
  86 0004 1E3B     		subs	r3, r3, #30
  87 0006 8340     		lsls	r3, r3, r0
  88 0008 014A     		ldr	r2, .L7
  89 000a 1360     		str	r3, [r2]
  90 000c 7047     		bx	lr
  91              	.L8:
  92 000e C046     		.align	2
  93              	.L7:
  94 0010 00E100E0 		.word	-536813312
  96              		.section	.text.HAL_NVIC_DisableIRQ,"ax",%progbits
  97              		.align	1
  98              		.global	HAL_NVIC_DisableIRQ
  99              		.syntax unified
 100              		.code	16
 101              		.thumb_func
 102              		.fpu softvfp
 104              	HAL_NVIC_DisableIRQ:
 105              		@ args = 0, pretend = 0, frame = 0
 106              		@ frame_needed = 0, uses_anonymous_args = 0
 107              		@ link register save eliminated.
 108 0000 1F23     		movs	r3, #31
 109              		@ sp needed
 110 0002 1840     		ands	r0, r3
 111 0004 1E3B     		subs	r3, r3, #30
 112 0006 8340     		lsls	r3, r3, r0
 113 0008 014A     		ldr	r2, .L10
 114 000a D367     		str	r3, [r2, #124]
 115 000c 7047     		bx	lr
 116              	.L11:
 117 000e C046     		.align	2
 118              	.L10:
 119 0010 04E100E0 		.word	-536813308
ARM GAS  /tmp/ccO2ztaf.s 			page 3


 121              		.section	.text.HAL_NVIC_SystemReset,"ax",%progbits
 122              		.align	1
 123              		.global	HAL_NVIC_SystemReset
 124              		.syntax unified
 125              		.code	16
 126              		.thumb_func
 127              		.fpu softvfp
 129              	HAL_NVIC_SystemReset:
 130              		@ Volatile: function does not return.
 131              		@ args = 0, pretend = 0, frame = 0
 132              		@ frame_needed = 0, uses_anonymous_args = 0
 133              		@ link register save eliminated.
 134              		.syntax divided
 135              	@ 429 "Drivers/CMSIS/Include/cmsis_gcc.h" 1
 136 0000 BFF34F8F 		dsb 0xF
 137              	@ 0 "" 2
 138              		.thumb
 139              		.syntax unified
 140 0004 034B     		ldr	r3, .L14
 141 0006 044A     		ldr	r2, .L14+4
 142 0008 DA60     		str	r2, [r3, #12]
 143              		.syntax divided
 144              	@ 429 "Drivers/CMSIS/Include/cmsis_gcc.h" 1
 145 000a BFF34F8F 		dsb 0xF
 146              	@ 0 "" 2
 147              		.thumb
 148              		.syntax unified
 149              	.L13:
 150              		.syntax divided
 151              	@ 375 "Drivers/CMSIS/Include/cmsis_gcc.h" 1
 152 000e C046     		nop
 153              	@ 0 "" 2
 154              		.thumb
 155              		.syntax unified
 156 0010 FDE7     		b	.L13
 157              	.L15:
 158 0012 C046     		.align	2
 159              	.L14:
 160 0014 00ED00E0 		.word	-536810240
 161 0018 0400FA05 		.word	100270084
 163              		.section	.text.HAL_SYSTICK_Config,"ax",%progbits
 164              		.align	1
 165              		.global	HAL_SYSTICK_Config
 166              		.syntax unified
 167              		.code	16
 168              		.thumb_func
 169              		.fpu softvfp
 171              	HAL_SYSTICK_Config:
 172              		@ args = 0, pretend = 0, frame = 0
 173              		@ frame_needed = 0, uses_anonymous_args = 0
 174              		@ link register save eliminated.
 175 0000 8022     		movs	r2, #128
 176 0002 431E     		subs	r3, r0, #1
 177 0004 5204     		lsls	r2, r2, #17
 178 0006 0120     		movs	r0, #1
 179 0008 9342     		cmp	r3, r2
 180 000a 0DD2     		bcs	.L16
ARM GAS  /tmp/ccO2ztaf.s 			page 4


 181 000c C021     		movs	r1, #192
 182 000e 074A     		ldr	r2, .L19
 183 0010 0748     		ldr	r0, .L19+4
 184 0012 5360     		str	r3, [r2, #4]
 185 0014 036A     		ldr	r3, [r0, #32]
 186 0016 0906     		lsls	r1, r1, #24
 187 0018 1B02     		lsls	r3, r3, #8
 188 001a 1B0A     		lsrs	r3, r3, #8
 189 001c 0B43     		orrs	r3, r1
 190 001e 0362     		str	r3, [r0, #32]
 191 0020 0020     		movs	r0, #0
 192 0022 0723     		movs	r3, #7
 193 0024 9060     		str	r0, [r2, #8]
 194 0026 1360     		str	r3, [r2]
 195              	.L16:
 196              		@ sp needed
 197 0028 7047     		bx	lr
 198              	.L20:
 199 002a C046     		.align	2
 200              	.L19:
 201 002c 10E000E0 		.word	-536813552
 202 0030 00ED00E0 		.word	-536810240
 204              		.section	.text.HAL_NVIC_GetPriority,"ax",%progbits
 205              		.align	1
 206              		.global	HAL_NVIC_GetPriority
 207              		.syntax unified
 208              		.code	16
 209              		.thumb_func
 210              		.fpu softvfp
 212              	HAL_NVIC_GetPriority:
 213              		@ args = 0, pretend = 0, frame = 0
 214              		@ frame_needed = 0, uses_anonymous_args = 0
 215              		@ link register save eliminated.
 216 0000 0322     		movs	r2, #3
 217 0002 0100     		movs	r1, r0
 218 0004 1140     		ands	r1, r2
 219 0006 9140     		lsls	r1, r1, r2
 220 0008 C3B2     		uxtb	r3, r0
 221 000a 0028     		cmp	r0, #0
 222 000c 0BDA     		bge	.L22
 223 000e 0F20     		movs	r0, #15
 224 0010 0340     		ands	r3, r0
 225 0012 083B     		subs	r3, r3, #8
 226 0014 0748     		ldr	r0, .L25
 227 0016 9B08     		lsrs	r3, r3, #2
 228 0018 9B00     		lsls	r3, r3, #2
 229 001a 1B18     		adds	r3, r3, r0
 230 001c 5868     		ldr	r0, [r3, #4]
 231              	.L24:
 232 001e C840     		lsrs	r0, r0, r1
 233              		@ sp needed
 234 0020 8009     		lsrs	r0, r0, #6
 235 0022 1040     		ands	r0, r2
 236 0024 7047     		bx	lr
 237              	.L22:
 238 0026 8308     		lsrs	r3, r0, #2
 239 0028 C033     		adds	r3, r3, #192
ARM GAS  /tmp/ccO2ztaf.s 			page 5


 240 002a 0348     		ldr	r0, .L25+4
 241 002c 9B00     		lsls	r3, r3, #2
 242 002e 1858     		ldr	r0, [r3, r0]
 243 0030 F5E7     		b	.L24
 244              	.L26:
 245 0032 C046     		.align	2
 246              	.L25:
 247 0034 18ED00E0 		.word	-536810216
 248 0038 00E100E0 		.word	-536813312
 250              		.section	.text.HAL_NVIC_SetPendingIRQ,"ax",%progbits
 251              		.align	1
 252              		.global	HAL_NVIC_SetPendingIRQ
 253              		.syntax unified
 254              		.code	16
 255              		.thumb_func
 256              		.fpu softvfp
 258              	HAL_NVIC_SetPendingIRQ:
 259              		@ args = 0, pretend = 0, frame = 0
 260              		@ frame_needed = 0, uses_anonymous_args = 0
 261              		@ link register save eliminated.
 262 0000 1F23     		movs	r3, #31
 263              		@ sp needed
 264 0002 1840     		ands	r0, r3
 265 0004 1E3B     		subs	r3, r3, #30
 266 0006 8340     		lsls	r3, r3, r0
 267 0008 014A     		ldr	r2, .L28
 268 000a 5360     		str	r3, [r2, #4]
 269 000c 7047     		bx	lr
 270              	.L29:
 271 000e C046     		.align	2
 272              	.L28:
 273 0010 FCE100E0 		.word	-536813060
 275              		.section	.text.HAL_NVIC_GetPendingIRQ,"ax",%progbits
 276              		.align	1
 277              		.global	HAL_NVIC_GetPendingIRQ
 278              		.syntax unified
 279              		.code	16
 280              		.thumb_func
 281              		.fpu softvfp
 283              	HAL_NVIC_GetPendingIRQ:
 284              		@ args = 0, pretend = 0, frame = 0
 285              		@ frame_needed = 0, uses_anonymous_args = 0
 286              		@ link register save eliminated.
 287 0000 1F22     		movs	r2, #31
 288              		@ sp needed
 289 0002 034B     		ldr	r3, .L31
 290 0004 1040     		ands	r0, r2
 291 0006 5B68     		ldr	r3, [r3, #4]
 292 0008 C340     		lsrs	r3, r3, r0
 293 000a 0120     		movs	r0, #1
 294 000c 1840     		ands	r0, r3
 295 000e 7047     		bx	lr
 296              	.L32:
 297              		.align	2
 298              	.L31:
 299 0010 FCE100E0 		.word	-536813060
 301              		.section	.text.HAL_NVIC_ClearPendingIRQ,"ax",%progbits
ARM GAS  /tmp/ccO2ztaf.s 			page 6


 302              		.align	1
 303              		.global	HAL_NVIC_ClearPendingIRQ
 304              		.syntax unified
 305              		.code	16
 306              		.thumb_func
 307              		.fpu softvfp
 309              	HAL_NVIC_ClearPendingIRQ:
 310              		@ args = 0, pretend = 0, frame = 0
 311              		@ frame_needed = 0, uses_anonymous_args = 0
 312              		@ link register save eliminated.
 313 0000 1F23     		movs	r3, #31
 314              		@ sp needed
 315 0002 1840     		ands	r0, r3
 316 0004 C022     		movs	r2, #192
 317 0006 1E3B     		subs	r3, r3, #30
 318 0008 8340     		lsls	r3, r3, r0
 319 000a 0249     		ldr	r1, .L34
 320 000c 5200     		lsls	r2, r2, #1
 321 000e 8B50     		str	r3, [r1, r2]
 322 0010 7047     		bx	lr
 323              	.L35:
 324 0012 C046     		.align	2
 325              	.L34:
 326 0014 00E100E0 		.word	-536813312
 328              		.section	.text.HAL_SYSTICK_CLKSourceConfig,"ax",%progbits
 329              		.align	1
 330              		.global	HAL_SYSTICK_CLKSourceConfig
 331              		.syntax unified
 332              		.code	16
 333              		.thumb_func
 334              		.fpu softvfp
 336              	HAL_SYSTICK_CLKSourceConfig:
 337              		@ args = 0, pretend = 0, frame = 0
 338              		@ frame_needed = 0, uses_anonymous_args = 0
 339              		@ link register save eliminated.
 340 0000 054B     		ldr	r3, .L39
 341 0002 1A68     		ldr	r2, [r3]
 342 0004 0428     		cmp	r0, #4
 343 0006 02D1     		bne	.L37
 344 0008 1043     		orrs	r0, r2
 345 000a 1860     		str	r0, [r3]
 346              	.L36:
 347              		@ sp needed
 348 000c 7047     		bx	lr
 349              	.L37:
 350 000e 0421     		movs	r1, #4
 351 0010 8A43     		bics	r2, r1
 352 0012 1A60     		str	r2, [r3]
 353 0014 FAE7     		b	.L36
 354              	.L40:
 355 0016 C046     		.align	2
 356              	.L39:
 357 0018 10E000E0 		.word	-536813552
 359              		.section	.text.HAL_SYSTICK_Callback,"ax",%progbits
 360              		.align	1
 361              		.weak	HAL_SYSTICK_Callback
 362              		.syntax unified
ARM GAS  /tmp/ccO2ztaf.s 			page 7


 363              		.code	16
 364              		.thumb_func
 365              		.fpu softvfp
 367              	HAL_SYSTICK_Callback:
 368              		@ args = 0, pretend = 0, frame = 0
 369              		@ frame_needed = 0, uses_anonymous_args = 0
 370              		@ link register save eliminated.
 371              		@ sp needed
 372 0000 7047     		bx	lr
 374              		.section	.text.HAL_SYSTICK_IRQHandler,"ax",%progbits
 375              		.align	1
 376              		.global	HAL_SYSTICK_IRQHandler
 377              		.syntax unified
 378              		.code	16
 379              		.thumb_func
 380              		.fpu softvfp
 382              	HAL_SYSTICK_IRQHandler:
 383              		@ args = 0, pretend = 0, frame = 0
 384              		@ frame_needed = 0, uses_anonymous_args = 0
 385 0000 10B5     		push	{r4, lr}
 386 0002 FFF7FEFF 		bl	HAL_SYSTICK_Callback
 387              		@ sp needed
 388 0006 10BD     		pop	{r4, pc}
 390              		.ident	"GCC: (Arch Repository) 10.1.0"
ARM GAS  /tmp/ccO2ztaf.s 			page 8

