ARM GAS  /tmp/cccS1FaW.s 			page 1


   1              		.cpu cortex-m0
   2              		.eabi_attribute 20, 1
   3              		.eabi_attribute 21, 1
   4              		.eabi_attribute 23, 3
   5              		.eabi_attribute 24, 1
   6              		.eabi_attribute 25, 1
   7              		.eabi_attribute 26, 1
   8              		.eabi_attribute 30, 4
   9              		.eabi_attribute 34, 0
  10              		.eabi_attribute 18, 4
  11              		.file	"stm32f0xx_hal_flash.c"
  12              		.text
  13              		.section	.text.FLASH_SetErrorCode,"ax",%progbits
  14              		.align	1
  15              		.arch armv6s-m
  16              		.syntax unified
  17              		.code	16
  18              		.thumb_func
  19              		.fpu softvfp
  21              	FLASH_SetErrorCode:
  22              		@ args = 0, pretend = 0, frame = 0
  23              		@ frame_needed = 0, uses_anonymous_args = 0
  24 0000 0C4A     		ldr	r2, .L10
  25 0002 1021     		movs	r1, #16
  26 0004 D068     		ldr	r0, [r2, #12]
  27 0006 30B5     		push	{r4, r5, lr}
  28 0008 0300     		movs	r3, r0
  29 000a 0B40     		ands	r3, r1
  30 000c 0842     		tst	r0, r1
  31 000e 05D0     		beq	.L2
  32 0010 0223     		movs	r3, #2
  33 0012 0948     		ldr	r0, .L10+4
  34 0014 C469     		ldr	r4, [r0, #28]
  35 0016 2343     		orrs	r3, r4
  36 0018 C361     		str	r3, [r0, #28]
  37 001a 0B00     		movs	r3, r1
  38              	.L2:
  39 001c 0420     		movs	r0, #4
  40 001e D168     		ldr	r1, [r2, #12]
  41 0020 0142     		tst	r1, r0
  42 0022 05D0     		beq	.L3
  43 0024 0121     		movs	r1, #1
  44 0026 044C     		ldr	r4, .L10+4
  45 0028 0343     		orrs	r3, r0
  46 002a E569     		ldr	r5, [r4, #28]
  47 002c 2943     		orrs	r1, r5
  48 002e E161     		str	r1, [r4, #28]
  49              	.L3:
  50 0030 D360     		str	r3, [r2, #12]
  51              		@ sp needed
  52 0032 30BD     		pop	{r4, r5, pc}
  53              	.L11:
  54              		.align	2
  55              	.L10:
  56 0034 00200240 		.word	1073881088
  57 0038 00000000 		.word	.LANCHOR0
  59              		.section	.text.HAL_FLASH_Program_IT,"ax",%progbits
ARM GAS  /tmp/cccS1FaW.s 			page 2


  60              		.align	1
  61              		.global	HAL_FLASH_Program_IT
  62              		.syntax unified
  63              		.code	16
  64              		.thumb_func
  65              		.fpu softvfp
  67              	HAL_FLASH_Program_IT:
  68              		@ args = 0, pretend = 0, frame = 0
  69              		@ frame_needed = 0, uses_anonymous_args = 0
  70 0000 F0B5     		push	{r4, r5, r6, r7, lr}
  71 0002 1D00     		movs	r5, r3
  72 0004 134B     		ldr	r3, .L19
  73 0006 1400     		movs	r4, r2
  74 0008 1A7E     		ldrb	r2, [r3, #24]
  75 000a 0600     		movs	r6, r0
  76 000c 0220     		movs	r0, #2
  77 000e 012A     		cmp	r2, #1
  78 0010 1AD0     		beq	.L13
  79 0012 0122     		movs	r2, #1
  80 0014 A020     		movs	r0, #160
  81 0016 1A76     		strb	r2, [r3, #24]
  82 0018 0F4A     		ldr	r2, .L19+4
  83 001a 4001     		lsls	r0, r0, #5
  84 001c 1769     		ldr	r7, [r2, #16]
  85 001e 3843     		orrs	r0, r7
  86 0020 1061     		str	r0, [r2, #16]
  87 0022 9960     		str	r1, [r3, #8]
  88 0024 0320     		movs	r0, #3
  89 0026 1C61     		str	r4, [r3, #16]
  90 0028 5D61     		str	r5, [r3, #20]
  91 002a 012E     		cmp	r6, #1
  92 002c 02D0     		beq	.L18
  93 002e 0420     		movs	r0, #4
  94 0030 022E     		cmp	r6, #2
  95 0032 0AD1     		bne	.L16
  96              	.L18:
  97 0034 1870     		strb	r0, [r3]
  98 0036 5E60     		str	r6, [r3, #4]
  99              	.L15:
 100 0038 0020     		movs	r0, #0
 101 003a D861     		str	r0, [r3, #28]
 102 003c 0123     		movs	r3, #1
 103 003e 1569     		ldr	r5, [r2, #16]
 104 0040 A4B2     		uxth	r4, r4
 105 0042 2B43     		orrs	r3, r5
 106 0044 1361     		str	r3, [r2, #16]
 107 0046 0C80     		strh	r4, [r1]
 108              	.L13:
 109              		@ sp needed
 110 0048 F0BD     		pop	{r4, r5, r6, r7, pc}
 111              	.L16:
 112 004a 0526     		movs	r6, #5
 113 004c 1E70     		strb	r6, [r3]
 114 004e 5860     		str	r0, [r3, #4]
 115 0050 F2E7     		b	.L15
 116              	.L20:
 117 0052 C046     		.align	2
ARM GAS  /tmp/cccS1FaW.s 			page 3


 118              	.L19:
 119 0054 00000000 		.word	.LANCHOR0
 120 0058 00200240 		.word	1073881088
 122              		.section	.text.HAL_FLASH_EndOfOperationCallback,"ax",%progbits
 123              		.align	1
 124              		.weak	HAL_FLASH_EndOfOperationCallback
 125              		.syntax unified
 126              		.code	16
 127              		.thumb_func
 128              		.fpu softvfp
 130              	HAL_FLASH_EndOfOperationCallback:
 131              		@ args = 0, pretend = 0, frame = 0
 132              		@ frame_needed = 0, uses_anonymous_args = 0
 133              		@ link register save eliminated.
 134              		@ sp needed
 135 0000 7047     		bx	lr
 137              		.section	.text.HAL_FLASH_OperationErrorCallback,"ax",%progbits
 138              		.align	1
 139              		.weak	HAL_FLASH_OperationErrorCallback
 140              		.syntax unified
 141              		.code	16
 142              		.thumb_func
 143              		.fpu softvfp
 145              	HAL_FLASH_OperationErrorCallback:
 146              		@ args = 0, pretend = 0, frame = 0
 147              		@ frame_needed = 0, uses_anonymous_args = 0
 148              		@ link register save eliminated.
 149              		@ sp needed
 150 0000 7047     		bx	lr
 152              		.section	.text.HAL_FLASH_IRQHandler,"ax",%progbits
 153              		.align	1
 154              		.global	HAL_FLASH_IRQHandler
 155              		.syntax unified
 156              		.code	16
 157              		.thumb_func
 158              		.fpu softvfp
 160              	HAL_FLASH_IRQHandler:
 161              		@ args = 0, pretend = 0, frame = 0
 162              		@ frame_needed = 0, uses_anonymous_args = 0
 163 0000 F8B5     		push	{r3, r4, r5, r6, r7, lr}
 164 0002 434D     		ldr	r5, .L45
 165 0004 434C     		ldr	r4, .L45+4
 166 0006 EB68     		ldr	r3, [r5, #12]
 167 0008 DB06     		lsls	r3, r3, #27
 168 000a 02D4     		bmi	.L24
 169 000c EB68     		ldr	r3, [r5, #12]
 170 000e 5B07     		lsls	r3, r3, #29
 171 0010 0AD5     		bpl	.L25
 172              	.L24:
 173 0012 0123     		movs	r3, #1
 174 0014 A668     		ldr	r6, [r4, #8]
 175 0016 5B42     		rsbs	r3, r3, #0
 176 0018 A360     		str	r3, [r4, #8]
 177 001a FFF7FEFF 		bl	FLASH_SetErrorCode
 178 001e 3000     		movs	r0, r6
 179 0020 FFF7FEFF 		bl	HAL_FLASH_OperationErrorCallback
 180 0024 0023     		movs	r3, #0
ARM GAS  /tmp/cccS1FaW.s 			page 4


 181 0026 2370     		strb	r3, [r4]
 182              	.L25:
 183 0028 2023     		movs	r3, #32
 184 002a EA68     		ldr	r2, [r5, #12]
 185 002c 1A42     		tst	r2, r3
 186 002e 1AD0     		beq	.L27
 187 0030 EB60     		str	r3, [r5, #12]
 188 0032 2378     		ldrb	r3, [r4]
 189 0034 002B     		cmp	r3, #0
 190 0036 16D0     		beq	.L27
 191 0038 2378     		ldrb	r3, [r4]
 192 003a 012B     		cmp	r3, #1
 193 003c 28D1     		bne	.L29
 194 003e 6368     		ldr	r3, [r4, #4]
 195 0040 013B     		subs	r3, r3, #1
 196 0042 6360     		str	r3, [r4, #4]
 197 0044 6368     		ldr	r3, [r4, #4]
 198 0046 002B     		cmp	r3, #0
 199 0048 1BD0     		beq	.L30
 200 004a A068     		ldr	r0, [r4, #8]
 201 004c FFF7FEFF 		bl	HAL_FLASH_EndOfOperationCallback
 202 0050 8023     		movs	r3, #128
 203 0052 0222     		movs	r2, #2
 204 0054 A068     		ldr	r0, [r4, #8]
 205 0056 1B01     		lsls	r3, r3, #4
 206 0058 C018     		adds	r0, r0, r3
 207 005a A060     		str	r0, [r4, #8]
 208 005c 2B69     		ldr	r3, [r5, #16]
 209 005e 9343     		bics	r3, r2
 210 0060 2B61     		str	r3, [r5, #16]
 211 0062 FFF7FEFF 		bl	FLASH_PageErase
 212              	.L27:
 213 0066 2378     		ldrb	r3, [r4]
 214 0068 DAB2     		uxtb	r2, r3
 215 006a 002B     		cmp	r3, #0
 216 006c 08D1     		bne	.L23
 217 006e 0721     		movs	r1, #7
 218 0070 2B69     		ldr	r3, [r5, #16]
 219 0072 8B43     		bics	r3, r1
 220 0074 2B61     		str	r3, [r5, #16]
 221 0076 2B69     		ldr	r3, [r5, #16]
 222 0078 2749     		ldr	r1, .L45+8
 223 007a 0B40     		ands	r3, r1
 224 007c 2B61     		str	r3, [r5, #16]
 225 007e 2276     		strb	r2, [r4, #24]
 226              	.L23:
 227              		@ sp needed
 228 0080 F8BD     		pop	{r3, r4, r5, r6, r7, pc}
 229              	.L30:
 230 0082 0120     		movs	r0, #1
 231 0084 4042     		rsbs	r0, r0, #0
 232 0086 A060     		str	r0, [r4, #8]
 233 0088 2370     		strb	r3, [r4]
 234 008a FFF7FEFF 		bl	HAL_FLASH_EndOfOperationCallback
 235 008e EAE7     		b	.L27
 236              	.L29:
 237 0090 2378     		ldrb	r3, [r4]
ARM GAS  /tmp/cccS1FaW.s 			page 5


 238 0092 022B     		cmp	r3, #2
 239 0094 09D1     		bne	.L31
 240 0096 0422     		movs	r2, #4
 241 0098 2B69     		ldr	r3, [r5, #16]
 242 009a 0020     		movs	r0, #0
 243 009c 9343     		bics	r3, r2
 244 009e 2B61     		str	r3, [r5, #16]
 245 00a0 FFF7FEFF 		bl	HAL_FLASH_EndOfOperationCallback
 246              	.L44:
 247 00a4 0023     		movs	r3, #0
 248 00a6 2370     		strb	r3, [r4]
 249 00a8 DDE7     		b	.L27
 250              	.L31:
 251 00aa 6368     		ldr	r3, [r4, #4]
 252 00ac 013B     		subs	r3, r3, #1
 253 00ae 6360     		str	r3, [r4, #4]
 254 00b0 6368     		ldr	r3, [r4, #4]
 255 00b2 002B     		cmp	r3, #0
 256 00b4 19D0     		beq	.L32
 257 00b6 A368     		ldr	r3, [r4, #8]
 258 00b8 0233     		adds	r3, r3, #2
 259 00ba A360     		str	r3, [r4, #8]
 260 00bc A668     		ldr	r6, [r4, #8]
 261 00be 2069     		ldr	r0, [r4, #16]
 262 00c0 6169     		ldr	r1, [r4, #20]
 263 00c2 0B0C     		lsrs	r3, r1, #16
 264 00c4 0F04     		lsls	r7, r1, #16
 265 00c6 0121     		movs	r1, #1
 266 00c8 020C     		lsrs	r2, r0, #16
 267 00ca 3A43     		orrs	r2, r7
 268 00cc 2261     		str	r2, [r4, #16]
 269 00ce 6361     		str	r3, [r4, #20]
 270 00d0 2B69     		ldr	r3, [r5, #16]
 271 00d2 8B43     		bics	r3, r1
 272 00d4 2B61     		str	r3, [r5, #16]
 273 00d6 2269     		ldr	r2, [r4, #16]
 274 00d8 6369     		ldr	r3, [r4, #20]
 275 00da 0023     		movs	r3, #0
 276 00dc E361     		str	r3, [r4, #28]
 277 00de 2B69     		ldr	r3, [r5, #16]
 278 00e0 92B2     		uxth	r2, r2
 279 00e2 1943     		orrs	r1, r3
 280 00e4 2961     		str	r1, [r5, #16]
 281 00e6 3280     		strh	r2, [r6]
 282 00e8 BDE7     		b	.L27
 283              	.L32:
 284 00ea 2378     		ldrb	r3, [r4]
 285 00ec 032B     		cmp	r3, #3
 286 00ee 06D1     		bne	.L33
 287 00f0 A068     		ldr	r0, [r4, #8]
 288              	.L43:
 289 00f2 FFF7FEFF 		bl	HAL_FLASH_EndOfOperationCallback
 290 00f6 0123     		movs	r3, #1
 291 00f8 5B42     		rsbs	r3, r3, #0
 292 00fa A360     		str	r3, [r4, #8]
 293 00fc D2E7     		b	.L44
 294              	.L33:
ARM GAS  /tmp/cccS1FaW.s 			page 6


 295 00fe 2378     		ldrb	r3, [r4]
 296 0100 A068     		ldr	r0, [r4, #8]
 297 0102 042B     		cmp	r3, #4
 298 0104 01D1     		bne	.L35
 299 0106 0238     		subs	r0, r0, #2
 300 0108 F3E7     		b	.L43
 301              	.L35:
 302 010a 0638     		subs	r0, r0, #6
 303 010c F1E7     		b	.L43
 304              	.L46:
 305 010e C046     		.align	2
 306              	.L45:
 307 0110 00200240 		.word	1073881088
 308 0114 00000000 		.word	.LANCHOR0
 309 0118 FFEBFFFF 		.word	-5121
 311              		.section	.text.HAL_FLASH_Unlock,"ax",%progbits
 312              		.align	1
 313              		.global	HAL_FLASH_Unlock
 314              		.syntax unified
 315              		.code	16
 316              		.thumb_func
 317              		.fpu softvfp
 319              	HAL_FLASH_Unlock:
 320              		@ args = 0, pretend = 0, frame = 0
 321              		@ frame_needed = 0, uses_anonymous_args = 0
 322              		@ link register save eliminated.
 323 0000 064B     		ldr	r3, .L51
 324 0002 0020     		movs	r0, #0
 325 0004 1A69     		ldr	r2, [r3, #16]
 326 0006 1206     		lsls	r2, r2, #24
 327 0008 06D5     		bpl	.L48
 328 000a 054A     		ldr	r2, .L51+4
 329 000c 5A60     		str	r2, [r3, #4]
 330 000e 054A     		ldr	r2, .L51+8
 331 0010 5A60     		str	r2, [r3, #4]
 332 0012 1869     		ldr	r0, [r3, #16]
 333 0014 0006     		lsls	r0, r0, #24
 334 0016 C00F     		lsrs	r0, r0, #31
 335              	.L48:
 336              		@ sp needed
 337 0018 7047     		bx	lr
 338              	.L52:
 339 001a C046     		.align	2
 340              	.L51:
 341 001c 00200240 		.word	1073881088
 342 0020 23016745 		.word	1164378403
 343 0024 AB89EFCD 		.word	-839939669
 345              		.section	.text.HAL_FLASH_Lock,"ax",%progbits
 346              		.align	1
 347              		.global	HAL_FLASH_Lock
 348              		.syntax unified
 349              		.code	16
 350              		.thumb_func
 351              		.fpu softvfp
 353              	HAL_FLASH_Lock:
 354              		@ args = 0, pretend = 0, frame = 0
 355              		@ frame_needed = 0, uses_anonymous_args = 0
ARM GAS  /tmp/cccS1FaW.s 			page 7


 356              		@ link register save eliminated.
 357 0000 8023     		movs	r3, #128
 358              		@ sp needed
 359 0002 034A     		ldr	r2, .L54
 360 0004 0020     		movs	r0, #0
 361 0006 1169     		ldr	r1, [r2, #16]
 362 0008 0B43     		orrs	r3, r1
 363 000a 1361     		str	r3, [r2, #16]
 364 000c 7047     		bx	lr
 365              	.L55:
 366 000e C046     		.align	2
 367              	.L54:
 368 0010 00200240 		.word	1073881088
 370              		.section	.text.HAL_FLASH_OB_Unlock,"ax",%progbits
 371              		.align	1
 372              		.global	HAL_FLASH_OB_Unlock
 373              		.syntax unified
 374              		.code	16
 375              		.thumb_func
 376              		.fpu softvfp
 378              	HAL_FLASH_OB_Unlock:
 379              		@ args = 0, pretend = 0, frame = 0
 380              		@ frame_needed = 0, uses_anonymous_args = 0
 381 0000 074B     		ldr	r3, .L59
 382 0002 8022     		movs	r2, #128
 383 0004 1969     		ldr	r1, [r3, #16]
 384 0006 10B5     		push	{r4, lr}
 385 0008 0C00     		movs	r4, r1
 386 000a 9200     		lsls	r2, r2, #2
 387 000c 0120     		movs	r0, #1
 388 000e 1440     		ands	r4, r2
 389 0010 1142     		tst	r1, r2
 390 0012 04D1     		bne	.L57
 391 0014 2000     		movs	r0, r4
 392 0016 034A     		ldr	r2, .L59+4
 393 0018 9A60     		str	r2, [r3, #8]
 394 001a 034A     		ldr	r2, .L59+8
 395 001c 9A60     		str	r2, [r3, #8]
 396              	.L57:
 397              		@ sp needed
 398 001e 10BD     		pop	{r4, pc}
 399              	.L60:
 400              		.align	2
 401              	.L59:
 402 0020 00200240 		.word	1073881088
 403 0024 23016745 		.word	1164378403
 404 0028 AB89EFCD 		.word	-839939669
 406              		.section	.text.HAL_FLASH_OB_Lock,"ax",%progbits
 407              		.align	1
 408              		.global	HAL_FLASH_OB_Lock
 409              		.syntax unified
 410              		.code	16
 411              		.thumb_func
 412              		.fpu softvfp
 414              	HAL_FLASH_OB_Lock:
 415              		@ args = 0, pretend = 0, frame = 0
 416              		@ frame_needed = 0, uses_anonymous_args = 0
ARM GAS  /tmp/cccS1FaW.s 			page 8


 417              		@ link register save eliminated.
 418 0000 034A     		ldr	r2, .L62
 419 0002 0449     		ldr	r1, .L62+4
 420 0004 1369     		ldr	r3, [r2, #16]
 421 0006 0020     		movs	r0, #0
 422              		@ sp needed
 423 0008 0B40     		ands	r3, r1
 424 000a 1361     		str	r3, [r2, #16]
 425 000c 7047     		bx	lr
 426              	.L63:
 427 000e C046     		.align	2
 428              	.L62:
 429 0010 00200240 		.word	1073881088
 430 0014 FFFDFFFF 		.word	-513
 432              		.section	.text.HAL_FLASH_GetError,"ax",%progbits
 433              		.align	1
 434              		.global	HAL_FLASH_GetError
 435              		.syntax unified
 436              		.code	16
 437              		.thumb_func
 438              		.fpu softvfp
 440              	HAL_FLASH_GetError:
 441              		@ args = 0, pretend = 0, frame = 0
 442              		@ frame_needed = 0, uses_anonymous_args = 0
 443              		@ link register save eliminated.
 444 0000 014B     		ldr	r3, .L65
 445              		@ sp needed
 446 0002 D869     		ldr	r0, [r3, #28]
 447 0004 7047     		bx	lr
 448              	.L66:
 449 0006 C046     		.align	2
 450              	.L65:
 451 0008 00000000 		.word	.LANCHOR0
 453              		.section	.text.FLASH_WaitForLastOperation,"ax",%progbits
 454              		.align	1
 455              		.global	FLASH_WaitForLastOperation
 456              		.syntax unified
 457              		.code	16
 458              		.thumb_func
 459              		.fpu softvfp
 461              	FLASH_WaitForLastOperation:
 462              		@ args = 0, pretend = 0, frame = 0
 463              		@ frame_needed = 0, uses_anonymous_args = 0
 464 0000 70B5     		push	{r4, r5, r6, lr}
 465 0002 0400     		movs	r4, r0
 466 0004 FFF7FEFF 		bl	HAL_GetTick
 467 0008 0126     		movs	r6, #1
 468 000a 0500     		movs	r5, r0
 469              	.L68:
 470 000c 104B     		ldr	r3, .L83
 471              	.L69:
 472 000e DA68     		ldr	r2, [r3, #12]
 473 0010 3242     		tst	r2, r6
 474 0012 11D1     		bne	.L73
 475 0014 2022     		movs	r2, #32
 476 0016 D968     		ldr	r1, [r3, #12]
 477 0018 1142     		tst	r1, r2
ARM GAS  /tmp/cccS1FaW.s 			page 9


 478 001a 00D0     		beq	.L74
 479 001c DA60     		str	r2, [r3, #12]
 480              	.L74:
 481 001e D968     		ldr	r1, [r3, #12]
 482 0020 1022     		movs	r2, #16
 483 0022 0800     		movs	r0, r1
 484 0024 1040     		ands	r0, r2
 485 0026 1142     		tst	r1, r2
 486 0028 02D1     		bne	.L75
 487 002a DB68     		ldr	r3, [r3, #12]
 488 002c 5B07     		lsls	r3, r3, #29
 489 002e 08D5     		bpl	.L71
 490              	.L75:
 491 0030 FFF7FEFF 		bl	FLASH_SetErrorCode
 492 0034 0120     		movs	r0, #1
 493 0036 04E0     		b	.L71
 494              	.L73:
 495 0038 621C     		adds	r2, r4, #1
 496 003a E8D0     		beq	.L69
 497 003c 002C     		cmp	r4, #0
 498 003e 01D1     		bne	.L70
 499              	.L72:
 500 0040 0320     		movs	r0, #3
 501              	.L71:
 502              		@ sp needed
 503 0042 70BD     		pop	{r4, r5, r6, pc}
 504              	.L70:
 505 0044 FFF7FEFF 		bl	HAL_GetTick
 506 0048 401B     		subs	r0, r0, r5
 507 004a A042     		cmp	r0, r4
 508 004c DED9     		bls	.L68
 509 004e F7E7     		b	.L72
 510              	.L84:
 511              		.align	2
 512              	.L83:
 513 0050 00200240 		.word	1073881088
 515              		.global	__aeabi_llsr
 516              		.section	.text.HAL_FLASH_Program,"ax",%progbits
 517              		.align	1
 518              		.global	HAL_FLASH_Program
 519              		.syntax unified
 520              		.code	16
 521              		.thumb_func
 522              		.fpu softvfp
 524              	HAL_FLASH_Program:
 525              		@ args = 0, pretend = 0, frame = 16
 526              		@ frame_needed = 0, uses_anonymous_args = 0
 527 0000 F0B5     		push	{r4, r5, r6, r7, lr}
 528 0002 85B0     		sub	sp, sp, #20
 529 0004 0393     		str	r3, [sp, #12]
 530 0006 1C4B     		ldr	r3, .L94
 531 0008 0191     		str	r1, [sp, #4]
 532 000a 0292     		str	r2, [sp, #8]
 533 000c 1A7E     		ldrb	r2, [r3, #24]
 534 000e 0400     		movs	r4, r0
 535 0010 0220     		movs	r0, #2
 536 0012 012A     		cmp	r2, #1
ARM GAS  /tmp/cccS1FaW.s 			page 10


 537 0014 2ED0     		beq	.L86
 538 0016 0122     		movs	r2, #1
 539 0018 1848     		ldr	r0, .L94+4
 540 001a 1A76     		strb	r2, [r3, #24]
 541 001c FFF7FEFF 		bl	FLASH_WaitForLastOperation
 542 0020 0028     		cmp	r0, #0
 543 0022 24D1     		bne	.L87
 544 0024 2600     		movs	r6, r4
 545 0026 012C     		cmp	r4, #1
 546 0028 02D0     		beq	.L88
 547 002a 022C     		cmp	r4, #2
 548 002c 00D0     		beq	.L88
 549 002e 0426     		movs	r6, #4
 550              	.L88:
 551 0030 0024     		movs	r4, #0
 552              	.L89:
 553 0032 0298     		ldr	r0, [sp, #8]
 554 0034 0399     		ldr	r1, [sp, #12]
 555 0036 2201     		lsls	r2, r4, #4
 556 0038 FFF7FEFF 		bl	__aeabi_llsr
 557 003c 0022     		movs	r2, #0
 558 003e 0127     		movs	r7, #1
 559 0040 0D4B     		ldr	r3, .L94
 560 0042 0F4D     		ldr	r5, .L94+8
 561 0044 DA61     		str	r2, [r3, #28]
 562 0046 2B69     		ldr	r3, [r5, #16]
 563 0048 019A     		ldr	r2, [sp, #4]
 564 004a 3B43     		orrs	r3, r7
 565 004c 2B61     		str	r3, [r5, #16]
 566 004e 6300     		lsls	r3, r4, #1
 567 0050 9B18     		adds	r3, r3, r2
 568 0052 80B2     		uxth	r0, r0
 569 0054 1880     		strh	r0, [r3]
 570 0056 0948     		ldr	r0, .L94+4
 571 0058 FFF7FEFF 		bl	FLASH_WaitForLastOperation
 572 005c 2B69     		ldr	r3, [r5, #16]
 573 005e BB43     		bics	r3, r7
 574 0060 2B61     		str	r3, [r5, #16]
 575 0062 0028     		cmp	r0, #0
 576 0064 03D1     		bne	.L87
 577 0066 E419     		adds	r4, r4, r7
 578 0068 E3B2     		uxtb	r3, r4
 579 006a 9E42     		cmp	r6, r3
 580 006c E1D8     		bhi	.L89
 581              	.L87:
 582 006e 0022     		movs	r2, #0
 583 0070 014B     		ldr	r3, .L94
 584 0072 1A76     		strb	r2, [r3, #24]
 585              	.L86:
 586 0074 05B0     		add	sp, sp, #20
 587              		@ sp needed
 588 0076 F0BD     		pop	{r4, r5, r6, r7, pc}
 589              	.L95:
 590              		.align	2
 591              	.L94:
 592 0078 00000000 		.word	.LANCHOR0
 593 007c 50C30000 		.word	50000
ARM GAS  /tmp/cccS1FaW.s 			page 11


 594 0080 00200240 		.word	1073881088
 596              		.section	.text.HAL_FLASH_OB_Launch,"ax",%progbits
 597              		.align	1
 598              		.global	HAL_FLASH_OB_Launch
 599              		.syntax unified
 600              		.code	16
 601              		.thumb_func
 602              		.fpu softvfp
 604              	HAL_FLASH_OB_Launch:
 605              		@ args = 0, pretend = 0, frame = 0
 606              		@ frame_needed = 0, uses_anonymous_args = 0
 607 0000 8023     		movs	r3, #128
 608 0002 054A     		ldr	r2, .L97
 609 0004 10B5     		push	{r4, lr}
 610 0006 1169     		ldr	r1, [r2, #16]
 611 0008 9B01     		lsls	r3, r3, #6
 612 000a 0B43     		orrs	r3, r1
 613 000c 0348     		ldr	r0, .L97+4
 614 000e 1361     		str	r3, [r2, #16]
 615 0010 FFF7FEFF 		bl	FLASH_WaitForLastOperation
 616              		@ sp needed
 617 0014 10BD     		pop	{r4, pc}
 618              	.L98:
 619 0016 C046     		.align	2
 620              	.L97:
 621 0018 00200240 		.word	1073881088
 622 001c 50C30000 		.word	50000
 624              		.global	pFlash
 625              		.section	.bss.pFlash,"aw",%nobits
 626              		.align	3
 627              		.set	.LANCHOR0,. + 0
 630              	pFlash:
 631 0000 00000000 		.space	32
 631      00000000 
 631      00000000 
 631      00000000 
 631      00000000 
 632              		.ident	"GCC: (Arch Repository) 10.1.0"
ARM GAS  /tmp/cccS1FaW.s 			page 12

