ARM GAS  /tmp/cct6apLa.s 			page 1


   1              		.cpu cortex-m0
   2              		.eabi_attribute 20, 1
   3              		.eabi_attribute 21, 1
   4              		.eabi_attribute 23, 3
   5              		.eabi_attribute 24, 1
   6              		.eabi_attribute 25, 1
   7              		.eabi_attribute 26, 1
   8              		.eabi_attribute 30, 4
   9              		.eabi_attribute 34, 0
  10              		.eabi_attribute 18, 4
  11              		.file	"stm32f0xx_hal_tim.c"
  12              		.text
  13              		.section	.text.TIM_OC1_SetConfig,"ax",%progbits
  14              		.align	1
  15              		.arch armv6s-m
  16              		.syntax unified
  17              		.code	16
  18              		.thumb_func
  19              		.fpu softvfp
  21              	TIM_OC1_SetConfig:
  22              		@ args = 0, pretend = 0, frame = 0
  23              		@ frame_needed = 0, uses_anonymous_args = 0
  24 0000 0122     		movs	r2, #1
  25 0002 036A     		ldr	r3, [r0, #32]
  26 0004 70B5     		push	{r4, r5, r6, lr}
  27 0006 9343     		bics	r3, r2
  28 0008 0362     		str	r3, [r0, #32]
  29 000a 036A     		ldr	r3, [r0, #32]
  30 000c 4468     		ldr	r4, [r0, #4]
  31 000e 8569     		ldr	r5, [r0, #24]
  32 0010 7232     		adds	r2, r2, #114
  33 0012 9543     		bics	r5, r2
  34 0014 0A68     		ldr	r2, [r1]
  35 0016 1543     		orrs	r5, r2
  36 0018 0222     		movs	r2, #2
  37 001a 9343     		bics	r3, r2
  38 001c 8A68     		ldr	r2, [r1, #8]
  39 001e 1343     		orrs	r3, r2
  40 0020 144A     		ldr	r2, .L5
  41 0022 9042     		cmp	r0, r2
  42 0024 08D0     		beq	.L2
  43 0026 144E     		ldr	r6, .L5+4
  44 0028 B042     		cmp	r0, r6
  45 002a 05D0     		beq	.L2
  46 002c 134E     		ldr	r6, .L5+8
  47 002e B042     		cmp	r0, r6
  48 0030 02D0     		beq	.L2
  49 0032 134E     		ldr	r6, .L5+12
  50 0034 B042     		cmp	r0, r6
  51 0036 16D1     		bne	.L3
  52              	.L2:
  53 0038 0826     		movs	r6, #8
  54 003a B343     		bics	r3, r6
  55 003c CE68     		ldr	r6, [r1, #12]
  56 003e 3343     		orrs	r3, r6
  57 0040 0426     		movs	r6, #4
  58 0042 B343     		bics	r3, r6
ARM GAS  /tmp/cct6apLa.s 			page 2


  59 0044 9042     		cmp	r0, r2
  60 0046 08D0     		beq	.L4
  61 0048 0B4A     		ldr	r2, .L5+4
  62 004a 9042     		cmp	r0, r2
  63 004c 05D0     		beq	.L4
  64 004e 0B4A     		ldr	r2, .L5+8
  65 0050 9042     		cmp	r0, r2
  66 0052 02D0     		beq	.L4
  67 0054 0A4A     		ldr	r2, .L5+12
  68 0056 9042     		cmp	r0, r2
  69 0058 05D1     		bne	.L3
  70              	.L4:
  71 005a 0A4A     		ldr	r2, .L5+16
  72 005c 8E69     		ldr	r6, [r1, #24]
  73 005e 2240     		ands	r2, r4
  74 0060 4C69     		ldr	r4, [r1, #20]
  75 0062 3443     		orrs	r4, r6
  76 0064 1443     		orrs	r4, r2
  77              	.L3:
  78 0066 4A68     		ldr	r2, [r1, #4]
  79 0068 4460     		str	r4, [r0, #4]
  80              		@ sp needed
  81 006a 8561     		str	r5, [r0, #24]
  82 006c 4263     		str	r2, [r0, #52]
  83 006e 0362     		str	r3, [r0, #32]
  84 0070 70BD     		pop	{r4, r5, r6, pc}
  85              	.L6:
  86 0072 C046     		.align	2
  87              	.L5:
  88 0074 002C0140 		.word	1073818624
  89 0078 00400140 		.word	1073823744
  90 007c 00440140 		.word	1073824768
  91 0080 00480140 		.word	1073825792
  92 0084 FFFCFFFF 		.word	-769
  94              		.section	.text.TIM_OC3_SetConfig,"ax",%progbits
  95              		.align	1
  96              		.syntax unified
  97              		.code	16
  98              		.thumb_func
  99              		.fpu softvfp
 101              	TIM_OC3_SetConfig:
 102              		@ args = 0, pretend = 0, frame = 0
 103              		@ frame_needed = 0, uses_anonymous_args = 0
 104 0000 70B5     		push	{r4, r5, r6, lr}
 105 0002 7325     		movs	r5, #115
 106 0004 036A     		ldr	r3, [r0, #32]
 107 0006 174A     		ldr	r2, .L14
 108 0008 1340     		ands	r3, r2
 109 000a 0362     		str	r3, [r0, #32]
 110 000c 036A     		ldr	r3, [r0, #32]
 111 000e 4268     		ldr	r2, [r0, #4]
 112 0010 C469     		ldr	r4, [r0, #28]
 113 0012 AC43     		bics	r4, r5
 114 0014 0D68     		ldr	r5, [r1]
 115 0016 2C43     		orrs	r4, r5
 116 0018 134D     		ldr	r5, .L14+4
 117 001a 2B40     		ands	r3, r5
ARM GAS  /tmp/cct6apLa.s 			page 3


 118 001c 8D68     		ldr	r5, [r1, #8]
 119 001e 2D02     		lsls	r5, r5, #8
 120 0020 2B43     		orrs	r3, r5
 121 0022 124D     		ldr	r5, .L14+8
 122 0024 A842     		cmp	r0, r5
 123 0026 0ED1     		bne	.L8
 124 0028 114D     		ldr	r5, .L14+12
 125 002a 1D40     		ands	r5, r3
 126 002c CB68     		ldr	r3, [r1, #12]
 127 002e 1B02     		lsls	r3, r3, #8
 128 0030 2B43     		orrs	r3, r5
 129 0032 104D     		ldr	r5, .L14+16
 130 0034 2B40     		ands	r3, r5
 131              	.L9:
 132 0036 104D     		ldr	r5, .L14+20
 133 0038 4E69     		ldr	r6, [r1, #20]
 134 003a 1540     		ands	r5, r2
 135 003c 8A69     		ldr	r2, [r1, #24]
 136 003e 3243     		orrs	r2, r6
 137 0040 1201     		lsls	r2, r2, #4
 138 0042 2A43     		orrs	r2, r5
 139 0044 08E0     		b	.L10
 140              	.L8:
 141 0046 0D4D     		ldr	r5, .L14+24
 142 0048 A842     		cmp	r0, r5
 143 004a F4D0     		beq	.L9
 144 004c 0C4D     		ldr	r5, .L14+28
 145 004e A842     		cmp	r0, r5
 146 0050 F1D0     		beq	.L9
 147 0052 0C4D     		ldr	r5, .L14+32
 148 0054 A842     		cmp	r0, r5
 149 0056 EED0     		beq	.L9
 150              	.L10:
 151              		@ sp needed
 152 0058 4260     		str	r2, [r0, #4]
 153 005a 4A68     		ldr	r2, [r1, #4]
 154 005c C461     		str	r4, [r0, #28]
 155 005e C263     		str	r2, [r0, #60]
 156 0060 0362     		str	r3, [r0, #32]
 157 0062 70BD     		pop	{r4, r5, r6, pc}
 158              	.L15:
 159              		.align	2
 160              	.L14:
 161 0064 FFFEFFFF 		.word	-257
 162 0068 FFFDFFFF 		.word	-513
 163 006c 002C0140 		.word	1073818624
 164 0070 FFF7FFFF 		.word	-2049
 165 0074 FFFBFFFF 		.word	-1025
 166 0078 FFCFFFFF 		.word	-12289
 167 007c 00400140 		.word	1073823744
 168 0080 00440140 		.word	1073824768
 169 0084 00480140 		.word	1073825792
 171              		.section	.text.TIM_OC4_SetConfig,"ax",%progbits
 172              		.align	1
 173              		.syntax unified
 174              		.code	16
 175              		.thumb_func
ARM GAS  /tmp/cct6apLa.s 			page 4


 176              		.fpu softvfp
 178              	TIM_OC4_SetConfig:
 179              		@ args = 0, pretend = 0, frame = 0
 180              		@ frame_needed = 0, uses_anonymous_args = 0
 181 0000 036A     		ldr	r3, [r0, #32]
 182 0002 144A     		ldr	r2, .L19
 183 0004 30B5     		push	{r4, r5, lr}
 184 0006 1340     		ands	r3, r2
 185 0008 0362     		str	r3, [r0, #32]
 186 000a 026A     		ldr	r2, [r0, #32]
 187 000c 124C     		ldr	r4, .L19+4
 188 000e 4368     		ldr	r3, [r0, #4]
 189 0010 C569     		ldr	r5, [r0, #28]
 190 0012 2540     		ands	r5, r4
 191 0014 0C68     		ldr	r4, [r1]
 192 0016 2402     		lsls	r4, r4, #8
 193 0018 2543     		orrs	r5, r4
 194 001a 104C     		ldr	r4, .L19+8
 195 001c 2240     		ands	r2, r4
 196 001e 8C68     		ldr	r4, [r1, #8]
 197 0020 2403     		lsls	r4, r4, #12
 198 0022 2243     		orrs	r2, r4
 199 0024 0E4C     		ldr	r4, .L19+12
 200 0026 A042     		cmp	r0, r4
 201 0028 08D0     		beq	.L17
 202 002a 0E4C     		ldr	r4, .L19+16
 203 002c A042     		cmp	r0, r4
 204 002e 05D0     		beq	.L17
 205 0030 0D4C     		ldr	r4, .L19+20
 206 0032 A042     		cmp	r0, r4
 207 0034 02D0     		beq	.L17
 208 0036 0D4C     		ldr	r4, .L19+24
 209 0038 A042     		cmp	r0, r4
 210 003a 04D1     		bne	.L18
 211              	.L17:
 212 003c 0C4C     		ldr	r4, .L19+28
 213 003e 2340     		ands	r3, r4
 214 0040 4C69     		ldr	r4, [r1, #20]
 215 0042 A401     		lsls	r4, r4, #6
 216 0044 2343     		orrs	r3, r4
 217              	.L18:
 218 0046 4360     		str	r3, [r0, #4]
 219 0048 4B68     		ldr	r3, [r1, #4]
 220 004a C561     		str	r5, [r0, #28]
 221              		@ sp needed
 222 004c 0364     		str	r3, [r0, #64]
 223 004e 0262     		str	r2, [r0, #32]
 224 0050 30BD     		pop	{r4, r5, pc}
 225              	.L20:
 226 0052 C046     		.align	2
 227              	.L19:
 228 0054 FFEFFFFF 		.word	-4097
 229 0058 FF8CFFFF 		.word	-29441
 230 005c FFDFFFFF 		.word	-8193
 231 0060 002C0140 		.word	1073818624
 232 0064 00400140 		.word	1073823744
 233 0068 00440140 		.word	1073824768
ARM GAS  /tmp/cct6apLa.s 			page 5


 234 006c 00480140 		.word	1073825792
 235 0070 FFBFFFFF 		.word	-16385
 237              		.section	.text.HAL_TIM_Base_MspInit,"ax",%progbits
 238              		.align	1
 239              		.weak	HAL_TIM_Base_MspInit
 240              		.syntax unified
 241              		.code	16
 242              		.thumb_func
 243              		.fpu softvfp
 245              	HAL_TIM_Base_MspInit:
 246              		@ args = 0, pretend = 0, frame = 0
 247              		@ frame_needed = 0, uses_anonymous_args = 0
 248              		@ link register save eliminated.
 249              		@ sp needed
 250 0000 7047     		bx	lr
 252              		.section	.text.HAL_TIM_Base_MspDeInit,"ax",%progbits
 253              		.align	1
 254              		.weak	HAL_TIM_Base_MspDeInit
 255              		.syntax unified
 256              		.code	16
 257              		.thumb_func
 258              		.fpu softvfp
 260              	HAL_TIM_Base_MspDeInit:
 261              		@ args = 0, pretend = 0, frame = 0
 262              		@ frame_needed = 0, uses_anonymous_args = 0
 263              		@ link register save eliminated.
 264              		@ sp needed
 265 0000 7047     		bx	lr
 267              		.section	.text.HAL_TIM_Base_DeInit,"ax",%progbits
 268              		.align	1
 269              		.global	HAL_TIM_Base_DeInit
 270              		.syntax unified
 271              		.code	16
 272              		.thumb_func
 273              		.fpu softvfp
 275              	HAL_TIM_Base_DeInit:
 276              		@ args = 0, pretend = 0, frame = 0
 277              		@ frame_needed = 0, uses_anonymous_args = 0
 278 0000 70B5     		push	{r4, r5, r6, lr}
 279 0002 0500     		movs	r5, r0
 280 0004 0223     		movs	r3, #2
 281 0006 3D35     		adds	r5, r5, #61
 282 0008 2B70     		strb	r3, [r5]
 283 000a 0368     		ldr	r3, [r0]
 284 000c 0A4A     		ldr	r2, .L25
 285 000e 196A     		ldr	r1, [r3, #32]
 286 0010 0400     		movs	r4, r0
 287 0012 1142     		tst	r1, r2
 288 0014 07D1     		bne	.L24
 289 0016 196A     		ldr	r1, [r3, #32]
 290 0018 084A     		ldr	r2, .L25+4
 291 001a 1142     		tst	r1, r2
 292 001c 03D1     		bne	.L24
 293 001e 0121     		movs	r1, #1
 294 0020 1A68     		ldr	r2, [r3]
 295 0022 8A43     		bics	r2, r1
 296 0024 1A60     		str	r2, [r3]
ARM GAS  /tmp/cct6apLa.s 			page 6


 297              	.L24:
 298 0026 2000     		movs	r0, r4
 299              		@ sp needed
 300 0028 FFF7FEFF 		bl	HAL_TIM_Base_MspDeInit
 301 002c 0020     		movs	r0, #0
 302 002e 3C34     		adds	r4, r4, #60
 303 0030 2870     		strb	r0, [r5]
 304 0032 2070     		strb	r0, [r4]
 305 0034 70BD     		pop	{r4, r5, r6, pc}
 306              	.L26:
 307 0036 C046     		.align	2
 308              	.L25:
 309 0038 11110000 		.word	4369
 310 003c 44040000 		.word	1092
 312              		.section	.text.HAL_TIM_Base_Start,"ax",%progbits
 313              		.align	1
 314              		.global	HAL_TIM_Base_Start
 315              		.syntax unified
 316              		.code	16
 317              		.thumb_func
 318              		.fpu softvfp
 320              	HAL_TIM_Base_Start:
 321              		@ args = 0, pretend = 0, frame = 0
 322              		@ frame_needed = 0, uses_anonymous_args = 0
 323              		@ link register save eliminated.
 324 0000 0200     		movs	r2, r0
 325              		@ sp needed
 326 0002 0223     		movs	r3, #2
 327 0004 0121     		movs	r1, #1
 328 0006 3D32     		adds	r2, r2, #61
 329 0008 1370     		strb	r3, [r2]
 330 000a 0068     		ldr	r0, [r0]
 331 000c 0368     		ldr	r3, [r0]
 332 000e 0B43     		orrs	r3, r1
 333 0010 0360     		str	r3, [r0]
 334 0012 0020     		movs	r0, #0
 335 0014 1170     		strb	r1, [r2]
 336 0016 7047     		bx	lr
 338              		.section	.text.HAL_TIM_Base_Stop,"ax",%progbits
 339              		.align	1
 340              		.global	HAL_TIM_Base_Stop
 341              		.syntax unified
 342              		.code	16
 343              		.thumb_func
 344              		.fpu softvfp
 346              	HAL_TIM_Base_Stop:
 347              		@ args = 0, pretend = 0, frame = 0
 348              		@ frame_needed = 0, uses_anonymous_args = 0
 349              		@ link register save eliminated.
 350 0000 0100     		movs	r1, r0
 351 0002 0223     		movs	r3, #2
 352 0004 3D31     		adds	r1, r1, #61
 353 0006 0B70     		strb	r3, [r1]
 354 0008 0368     		ldr	r3, [r0]
 355 000a 084A     		ldr	r2, .L30
 356 000c 186A     		ldr	r0, [r3, #32]
 357 000e 1042     		tst	r0, r2
ARM GAS  /tmp/cct6apLa.s 			page 7


 358 0010 07D1     		bne	.L29
 359 0012 186A     		ldr	r0, [r3, #32]
 360 0014 064A     		ldr	r2, .L30+4
 361 0016 1042     		tst	r0, r2
 362 0018 03D1     		bne	.L29
 363 001a 0120     		movs	r0, #1
 364 001c 1A68     		ldr	r2, [r3]
 365 001e 8243     		bics	r2, r0
 366 0020 1A60     		str	r2, [r3]
 367              	.L29:
 368 0022 0123     		movs	r3, #1
 369              		@ sp needed
 370 0024 0020     		movs	r0, #0
 371 0026 0B70     		strb	r3, [r1]
 372 0028 7047     		bx	lr
 373              	.L31:
 374 002a C046     		.align	2
 375              	.L30:
 376 002c 11110000 		.word	4369
 377 0030 44040000 		.word	1092
 379              		.section	.text.HAL_TIM_Base_Start_IT,"ax",%progbits
 380              		.align	1
 381              		.global	HAL_TIM_Base_Start_IT
 382              		.syntax unified
 383              		.code	16
 384              		.thumb_func
 385              		.fpu softvfp
 387              	HAL_TIM_Base_Start_IT:
 388              		@ args = 0, pretend = 0, frame = 0
 389              		@ frame_needed = 0, uses_anonymous_args = 0
 390              		@ link register save eliminated.
 391 0000 0122     		movs	r2, #1
 392              		@ sp needed
 393 0002 0368     		ldr	r3, [r0]
 394 0004 0020     		movs	r0, #0
 395 0006 D968     		ldr	r1, [r3, #12]
 396 0008 1143     		orrs	r1, r2
 397 000a D960     		str	r1, [r3, #12]
 398 000c 1968     		ldr	r1, [r3]
 399 000e 0A43     		orrs	r2, r1
 400 0010 1A60     		str	r2, [r3]
 401 0012 7047     		bx	lr
 403              		.section	.text.HAL_TIM_Base_Stop_IT,"ax",%progbits
 404              		.align	1
 405              		.global	HAL_TIM_Base_Stop_IT
 406              		.syntax unified
 407              		.code	16
 408              		.thumb_func
 409              		.fpu softvfp
 411              	HAL_TIM_Base_Stop_IT:
 412              		@ args = 0, pretend = 0, frame = 0
 413              		@ frame_needed = 0, uses_anonymous_args = 0
 414              		@ link register save eliminated.
 415 0000 0121     		movs	r1, #1
 416 0002 0368     		ldr	r3, [r0]
 417 0004 DA68     		ldr	r2, [r3, #12]
 418 0006 8A43     		bics	r2, r1
ARM GAS  /tmp/cct6apLa.s 			page 8


 419 0008 DA60     		str	r2, [r3, #12]
 420 000a 186A     		ldr	r0, [r3, #32]
 421 000c 054A     		ldr	r2, .L35
 422 000e 1042     		tst	r0, r2
 423 0010 06D1     		bne	.L34
 424 0012 186A     		ldr	r0, [r3, #32]
 425 0014 044A     		ldr	r2, .L35+4
 426 0016 1042     		tst	r0, r2
 427 0018 02D1     		bne	.L34
 428 001a 1A68     		ldr	r2, [r3]
 429 001c 8A43     		bics	r2, r1
 430 001e 1A60     		str	r2, [r3]
 431              	.L34:
 432 0020 0020     		movs	r0, #0
 433              		@ sp needed
 434 0022 7047     		bx	lr
 435              	.L36:
 436              		.align	2
 437              	.L35:
 438 0024 11110000 		.word	4369
 439 0028 44040000 		.word	1092
 441              		.section	.text.HAL_TIM_Base_Start_DMA,"ax",%progbits
 442              		.align	1
 443              		.global	HAL_TIM_Base_Start_DMA
 444              		.syntax unified
 445              		.code	16
 446              		.thumb_func
 447              		.fpu softvfp
 449              	HAL_TIM_Base_Start_DMA:
 450              		@ args = 0, pretend = 0, frame = 0
 451              		@ frame_needed = 0, uses_anonymous_args = 0
 452 0000 1300     		movs	r3, r2
 453 0002 0200     		movs	r2, r0
 454 0004 70B5     		push	{r4, r5, r6, lr}
 455 0006 3D32     		adds	r2, r2, #61
 456 0008 1578     		ldrb	r5, [r2]
 457 000a 0400     		movs	r4, r0
 458 000c E8B2     		uxtb	r0, r5
 459 000e 022D     		cmp	r5, #2
 460 0010 1DD0     		beq	.L38
 461 0012 1578     		ldrb	r5, [r2]
 462 0014 E8B2     		uxtb	r0, r5
 463 0016 012D     		cmp	r5, #1
 464 0018 05D1     		bne	.L39
 465 001a 0029     		cmp	r1, #0
 466 001c 01D1     		bne	.L40
 467 001e 002B     		cmp	r3, #0
 468 0020 15D1     		bne	.L38
 469              	.L40:
 470 0022 0220     		movs	r0, #2
 471 0024 1070     		strb	r0, [r2]
 472              	.L39:
 473 0026 206A     		ldr	r0, [r4, #32]
 474 0028 094A     		ldr	r2, .L44
 475 002a 8262     		str	r2, [r0, #40]
 476 002c 094A     		ldr	r2, .L44+4
 477 002e 0263     		str	r2, [r0, #48]
ARM GAS  /tmp/cct6apLa.s 			page 9


 478 0030 2268     		ldr	r2, [r4]
 479 0032 2C32     		adds	r2, r2, #44
 480 0034 FFF7FEFF 		bl	HAL_DMA_Start_IT
 481 0038 8022     		movs	r2, #128
 482 003a 2368     		ldr	r3, [r4]
 483 003c 5200     		lsls	r2, r2, #1
 484 003e D968     		ldr	r1, [r3, #12]
 485 0040 0020     		movs	r0, #0
 486 0042 0A43     		orrs	r2, r1
 487 0044 DA60     		str	r2, [r3, #12]
 488 0046 0122     		movs	r2, #1
 489 0048 1968     		ldr	r1, [r3]
 490 004a 0A43     		orrs	r2, r1
 491 004c 1A60     		str	r2, [r3]
 492              	.L38:
 493              		@ sp needed
 494 004e 70BD     		pop	{r4, r5, r6, pc}
 495              	.L45:
 496              		.align	2
 497              	.L44:
 498 0050 00000000 		.word	TIM_DMAPeriodElapsedCplt
 499 0054 00000000 		.word	TIM_DMAError
 501              		.section	.text.HAL_TIM_Base_Stop_DMA,"ax",%progbits
 502              		.align	1
 503              		.global	HAL_TIM_Base_Stop_DMA
 504              		.syntax unified
 505              		.code	16
 506              		.thumb_func
 507              		.fpu softvfp
 509              	HAL_TIM_Base_Stop_DMA:
 510              		@ args = 0, pretend = 0, frame = 0
 511              		@ frame_needed = 0, uses_anonymous_args = 0
 512              		@ link register save eliminated.
 513 0000 0368     		ldr	r3, [r0]
 514 0002 0A49     		ldr	r1, .L48
 515 0004 DA68     		ldr	r2, [r3, #12]
 516 0006 0A40     		ands	r2, r1
 517 0008 DA60     		str	r2, [r3, #12]
 518 000a 196A     		ldr	r1, [r3, #32]
 519 000c 084A     		ldr	r2, .L48+4
 520 000e 1142     		tst	r1, r2
 521 0010 07D1     		bne	.L47
 522 0012 196A     		ldr	r1, [r3, #32]
 523 0014 074A     		ldr	r2, .L48+8
 524 0016 1142     		tst	r1, r2
 525 0018 03D1     		bne	.L47
 526 001a 0121     		movs	r1, #1
 527 001c 1A68     		ldr	r2, [r3]
 528 001e 8A43     		bics	r2, r1
 529 0020 1A60     		str	r2, [r3]
 530              	.L47:
 531 0022 0123     		movs	r3, #1
 532              		@ sp needed
 533 0024 3D30     		adds	r0, r0, #61
 534 0026 0370     		strb	r3, [r0]
 535 0028 0020     		movs	r0, #0
 536 002a 7047     		bx	lr
ARM GAS  /tmp/cct6apLa.s 			page 10


 537              	.L49:
 538              		.align	2
 539              	.L48:
 540 002c FFFEFFFF 		.word	-257
 541 0030 11110000 		.word	4369
 542 0034 44040000 		.word	1092
 544              		.section	.text.HAL_TIM_OC_MspInit,"ax",%progbits
 545              		.align	1
 546              		.weak	HAL_TIM_OC_MspInit
 547              		.syntax unified
 548              		.code	16
 549              		.thumb_func
 550              		.fpu softvfp
 552              	HAL_TIM_OC_MspInit:
 553              		@ args = 0, pretend = 0, frame = 0
 554              		@ frame_needed = 0, uses_anonymous_args = 0
 555              		@ link register save eliminated.
 556              		@ sp needed
 557 0000 7047     		bx	lr
 559              		.section	.text.HAL_TIM_OC_MspDeInit,"ax",%progbits
 560              		.align	1
 561              		.weak	HAL_TIM_OC_MspDeInit
 562              		.syntax unified
 563              		.code	16
 564              		.thumb_func
 565              		.fpu softvfp
 567              	HAL_TIM_OC_MspDeInit:
 568              		@ args = 0, pretend = 0, frame = 0
 569              		@ frame_needed = 0, uses_anonymous_args = 0
 570              		@ link register save eliminated.
 571              		@ sp needed
 572 0000 7047     		bx	lr
 574              		.section	.text.HAL_TIM_OC_DeInit,"ax",%progbits
 575              		.align	1
 576              		.global	HAL_TIM_OC_DeInit
 577              		.syntax unified
 578              		.code	16
 579              		.thumb_func
 580              		.fpu softvfp
 582              	HAL_TIM_OC_DeInit:
 583              		@ args = 0, pretend = 0, frame = 0
 584              		@ frame_needed = 0, uses_anonymous_args = 0
 585 0000 70B5     		push	{r4, r5, r6, lr}
 586 0002 0500     		movs	r5, r0
 587 0004 0223     		movs	r3, #2
 588 0006 3D35     		adds	r5, r5, #61
 589 0008 2B70     		strb	r3, [r5]
 590 000a 0368     		ldr	r3, [r0]
 591 000c 0A4A     		ldr	r2, .L54
 592 000e 196A     		ldr	r1, [r3, #32]
 593 0010 0400     		movs	r4, r0
 594 0012 1142     		tst	r1, r2
 595 0014 07D1     		bne	.L53
 596 0016 196A     		ldr	r1, [r3, #32]
 597 0018 084A     		ldr	r2, .L54+4
 598 001a 1142     		tst	r1, r2
 599 001c 03D1     		bne	.L53
ARM GAS  /tmp/cct6apLa.s 			page 11


 600 001e 0121     		movs	r1, #1
 601 0020 1A68     		ldr	r2, [r3]
 602 0022 8A43     		bics	r2, r1
 603 0024 1A60     		str	r2, [r3]
 604              	.L53:
 605 0026 2000     		movs	r0, r4
 606              		@ sp needed
 607 0028 FFF7FEFF 		bl	HAL_TIM_OC_MspDeInit
 608 002c 0020     		movs	r0, #0
 609 002e 3C34     		adds	r4, r4, #60
 610 0030 2870     		strb	r0, [r5]
 611 0032 2070     		strb	r0, [r4]
 612 0034 70BD     		pop	{r4, r5, r6, pc}
 613              	.L55:
 614 0036 C046     		.align	2
 615              	.L54:
 616 0038 11110000 		.word	4369
 617 003c 44040000 		.word	1092
 619              		.section	.text.HAL_TIM_PWM_MspInit,"ax",%progbits
 620              		.align	1
 621              		.weak	HAL_TIM_PWM_MspInit
 622              		.syntax unified
 623              		.code	16
 624              		.thumb_func
 625              		.fpu softvfp
 627              	HAL_TIM_PWM_MspInit:
 628              		@ args = 0, pretend = 0, frame = 0
 629              		@ frame_needed = 0, uses_anonymous_args = 0
 630              		@ link register save eliminated.
 631              		@ sp needed
 632 0000 7047     		bx	lr
 634              		.section	.text.HAL_TIM_PWM_MspDeInit,"ax",%progbits
 635              		.align	1
 636              		.weak	HAL_TIM_PWM_MspDeInit
 637              		.syntax unified
 638              		.code	16
 639              		.thumb_func
 640              		.fpu softvfp
 642              	HAL_TIM_PWM_MspDeInit:
 643              		@ args = 0, pretend = 0, frame = 0
 644              		@ frame_needed = 0, uses_anonymous_args = 0
 645              		@ link register save eliminated.
 646              		@ sp needed
 647 0000 7047     		bx	lr
 649              		.section	.text.HAL_TIM_PWM_DeInit,"ax",%progbits
 650              		.align	1
 651              		.global	HAL_TIM_PWM_DeInit
 652              		.syntax unified
 653              		.code	16
 654              		.thumb_func
 655              		.fpu softvfp
 657              	HAL_TIM_PWM_DeInit:
 658              		@ args = 0, pretend = 0, frame = 0
 659              		@ frame_needed = 0, uses_anonymous_args = 0
 660 0000 70B5     		push	{r4, r5, r6, lr}
 661 0002 0500     		movs	r5, r0
 662 0004 0223     		movs	r3, #2
ARM GAS  /tmp/cct6apLa.s 			page 12


 663 0006 3D35     		adds	r5, r5, #61
 664 0008 2B70     		strb	r3, [r5]
 665 000a 0368     		ldr	r3, [r0]
 666 000c 0A4A     		ldr	r2, .L60
 667 000e 196A     		ldr	r1, [r3, #32]
 668 0010 0400     		movs	r4, r0
 669 0012 1142     		tst	r1, r2
 670 0014 07D1     		bne	.L59
 671 0016 196A     		ldr	r1, [r3, #32]
 672 0018 084A     		ldr	r2, .L60+4
 673 001a 1142     		tst	r1, r2
 674 001c 03D1     		bne	.L59
 675 001e 0121     		movs	r1, #1
 676 0020 1A68     		ldr	r2, [r3]
 677 0022 8A43     		bics	r2, r1
 678 0024 1A60     		str	r2, [r3]
 679              	.L59:
 680 0026 2000     		movs	r0, r4
 681              		@ sp needed
 682 0028 FFF7FEFF 		bl	HAL_TIM_PWM_MspDeInit
 683 002c 0020     		movs	r0, #0
 684 002e 3C34     		adds	r4, r4, #60
 685 0030 2870     		strb	r0, [r5]
 686 0032 2070     		strb	r0, [r4]
 687 0034 70BD     		pop	{r4, r5, r6, pc}
 688              	.L61:
 689 0036 C046     		.align	2
 690              	.L60:
 691 0038 11110000 		.word	4369
 692 003c 44040000 		.word	1092
 694              		.section	.text.HAL_TIM_IC_MspInit,"ax",%progbits
 695              		.align	1
 696              		.weak	HAL_TIM_IC_MspInit
 697              		.syntax unified
 698              		.code	16
 699              		.thumb_func
 700              		.fpu softvfp
 702              	HAL_TIM_IC_MspInit:
 703              		@ args = 0, pretend = 0, frame = 0
 704              		@ frame_needed = 0, uses_anonymous_args = 0
 705              		@ link register save eliminated.
 706              		@ sp needed
 707 0000 7047     		bx	lr
 709              		.section	.text.HAL_TIM_IC_MspDeInit,"ax",%progbits
 710              		.align	1
 711              		.weak	HAL_TIM_IC_MspDeInit
 712              		.syntax unified
 713              		.code	16
 714              		.thumb_func
 715              		.fpu softvfp
 717              	HAL_TIM_IC_MspDeInit:
 718              		@ args = 0, pretend = 0, frame = 0
 719              		@ frame_needed = 0, uses_anonymous_args = 0
 720              		@ link register save eliminated.
 721              		@ sp needed
 722 0000 7047     		bx	lr
 724              		.section	.text.HAL_TIM_IC_DeInit,"ax",%progbits
ARM GAS  /tmp/cct6apLa.s 			page 13


 725              		.align	1
 726              		.global	HAL_TIM_IC_DeInit
 727              		.syntax unified
 728              		.code	16
 729              		.thumb_func
 730              		.fpu softvfp
 732              	HAL_TIM_IC_DeInit:
 733              		@ args = 0, pretend = 0, frame = 0
 734              		@ frame_needed = 0, uses_anonymous_args = 0
 735 0000 70B5     		push	{r4, r5, r6, lr}
 736 0002 0500     		movs	r5, r0
 737 0004 0223     		movs	r3, #2
 738 0006 3D35     		adds	r5, r5, #61
 739 0008 2B70     		strb	r3, [r5]
 740 000a 0368     		ldr	r3, [r0]
 741 000c 0A4A     		ldr	r2, .L66
 742 000e 196A     		ldr	r1, [r3, #32]
 743 0010 0400     		movs	r4, r0
 744 0012 1142     		tst	r1, r2
 745 0014 07D1     		bne	.L65
 746 0016 196A     		ldr	r1, [r3, #32]
 747 0018 084A     		ldr	r2, .L66+4
 748 001a 1142     		tst	r1, r2
 749 001c 03D1     		bne	.L65
 750 001e 0121     		movs	r1, #1
 751 0020 1A68     		ldr	r2, [r3]
 752 0022 8A43     		bics	r2, r1
 753 0024 1A60     		str	r2, [r3]
 754              	.L65:
 755 0026 2000     		movs	r0, r4
 756              		@ sp needed
 757 0028 FFF7FEFF 		bl	HAL_TIM_IC_MspDeInit
 758 002c 0020     		movs	r0, #0
 759 002e 3C34     		adds	r4, r4, #60
 760 0030 2870     		strb	r0, [r5]
 761 0032 2070     		strb	r0, [r4]
 762 0034 70BD     		pop	{r4, r5, r6, pc}
 763              	.L67:
 764 0036 C046     		.align	2
 765              	.L66:
 766 0038 11110000 		.word	4369
 767 003c 44040000 		.word	1092
 769              		.section	.text.HAL_TIM_OnePulse_MspInit,"ax",%progbits
 770              		.align	1
 771              		.weak	HAL_TIM_OnePulse_MspInit
 772              		.syntax unified
 773              		.code	16
 774              		.thumb_func
 775              		.fpu softvfp
 777              	HAL_TIM_OnePulse_MspInit:
 778              		@ args = 0, pretend = 0, frame = 0
 779              		@ frame_needed = 0, uses_anonymous_args = 0
 780              		@ link register save eliminated.
 781              		@ sp needed
 782 0000 7047     		bx	lr
 784              		.section	.text.HAL_TIM_OnePulse_MspDeInit,"ax",%progbits
 785              		.align	1
ARM GAS  /tmp/cct6apLa.s 			page 14


 786              		.weak	HAL_TIM_OnePulse_MspDeInit
 787              		.syntax unified
 788              		.code	16
 789              		.thumb_func
 790              		.fpu softvfp
 792              	HAL_TIM_OnePulse_MspDeInit:
 793              		@ args = 0, pretend = 0, frame = 0
 794              		@ frame_needed = 0, uses_anonymous_args = 0
 795              		@ link register save eliminated.
 796              		@ sp needed
 797 0000 7047     		bx	lr
 799              		.section	.text.HAL_TIM_OnePulse_DeInit,"ax",%progbits
 800              		.align	1
 801              		.global	HAL_TIM_OnePulse_DeInit
 802              		.syntax unified
 803              		.code	16
 804              		.thumb_func
 805              		.fpu softvfp
 807              	HAL_TIM_OnePulse_DeInit:
 808              		@ args = 0, pretend = 0, frame = 0
 809              		@ frame_needed = 0, uses_anonymous_args = 0
 810 0000 70B5     		push	{r4, r5, r6, lr}
 811 0002 0500     		movs	r5, r0
 812 0004 0223     		movs	r3, #2
 813 0006 3D35     		adds	r5, r5, #61
 814 0008 2B70     		strb	r3, [r5]
 815 000a 0368     		ldr	r3, [r0]
 816 000c 0A4A     		ldr	r2, .L72
 817 000e 196A     		ldr	r1, [r3, #32]
 818 0010 0400     		movs	r4, r0
 819 0012 1142     		tst	r1, r2
 820 0014 07D1     		bne	.L71
 821 0016 196A     		ldr	r1, [r3, #32]
 822 0018 084A     		ldr	r2, .L72+4
 823 001a 1142     		tst	r1, r2
 824 001c 03D1     		bne	.L71
 825 001e 0121     		movs	r1, #1
 826 0020 1A68     		ldr	r2, [r3]
 827 0022 8A43     		bics	r2, r1
 828 0024 1A60     		str	r2, [r3]
 829              	.L71:
 830 0026 2000     		movs	r0, r4
 831              		@ sp needed
 832 0028 FFF7FEFF 		bl	HAL_TIM_OnePulse_MspDeInit
 833 002c 0020     		movs	r0, #0
 834 002e 3C34     		adds	r4, r4, #60
 835 0030 2870     		strb	r0, [r5]
 836 0032 2070     		strb	r0, [r4]
 837 0034 70BD     		pop	{r4, r5, r6, pc}
 838              	.L73:
 839 0036 C046     		.align	2
 840              	.L72:
 841 0038 11110000 		.word	4369
 842 003c 44040000 		.word	1092
 844              		.section	.text.HAL_TIM_OnePulse_Start,"ax",%progbits
 845              		.align	1
 846              		.global	HAL_TIM_OnePulse_Start
ARM GAS  /tmp/cct6apLa.s 			page 15


 847              		.syntax unified
 848              		.code	16
 849              		.thumb_func
 850              		.fpu softvfp
 852              	HAL_TIM_OnePulse_Start:
 853              		@ args = 0, pretend = 0, frame = 0
 854              		@ frame_needed = 0, uses_anonymous_args = 0
 855              		@ link register save eliminated.
 856 0000 0122     		movs	r2, #1
 857 0002 0368     		ldr	r3, [r0]
 858 0004 196A     		ldr	r1, [r3, #32]
 859 0006 9143     		bics	r1, r2
 860 0008 1962     		str	r1, [r3, #32]
 861 000a 196A     		ldr	r1, [r3, #32]
 862 000c 0A43     		orrs	r2, r1
 863 000e 1A62     		str	r2, [r3, #32]
 864 0010 1022     		movs	r2, #16
 865 0012 196A     		ldr	r1, [r3, #32]
 866 0014 9143     		bics	r1, r2
 867 0016 1962     		str	r1, [r3, #32]
 868 0018 196A     		ldr	r1, [r3, #32]
 869 001a 0A43     		orrs	r2, r1
 870 001c 1A62     		str	r2, [r3, #32]
 871 001e 094A     		ldr	r2, .L77
 872 0020 9342     		cmp	r3, r2
 873 0022 08D0     		beq	.L75
 874 0024 084A     		ldr	r2, .L77+4
 875 0026 9342     		cmp	r3, r2
 876 0028 05D0     		beq	.L75
 877 002a 084A     		ldr	r2, .L77+8
 878 002c 9342     		cmp	r3, r2
 879 002e 02D0     		beq	.L75
 880 0030 074A     		ldr	r2, .L77+12
 881 0032 9342     		cmp	r3, r2
 882 0034 04D1     		bne	.L76
 883              	.L75:
 884 0036 8022     		movs	r2, #128
 885 0038 596C     		ldr	r1, [r3, #68]
 886 003a 1202     		lsls	r2, r2, #8
 887 003c 0A43     		orrs	r2, r1
 888 003e 5A64     		str	r2, [r3, #68]
 889              	.L76:
 890 0040 0020     		movs	r0, #0
 891              		@ sp needed
 892 0042 7047     		bx	lr
 893              	.L78:
 894              		.align	2
 895              	.L77:
 896 0044 002C0140 		.word	1073818624
 897 0048 00400140 		.word	1073823744
 898 004c 00440140 		.word	1073824768
 899 0050 00480140 		.word	1073825792
 901              		.section	.text.HAL_TIM_OnePulse_Stop,"ax",%progbits
 902              		.align	1
 903              		.global	HAL_TIM_OnePulse_Stop
 904              		.syntax unified
 905              		.code	16
ARM GAS  /tmp/cct6apLa.s 			page 16


 906              		.thumb_func
 907              		.fpu softvfp
 909              	HAL_TIM_OnePulse_Stop:
 910              		@ args = 0, pretend = 0, frame = 0
 911              		@ frame_needed = 0, uses_anonymous_args = 0
 912              		@ link register save eliminated.
 913 0000 0121     		movs	r1, #1
 914 0002 0368     		ldr	r3, [r0]
 915 0004 1A6A     		ldr	r2, [r3, #32]
 916 0006 8A43     		bics	r2, r1
 917 0008 1A62     		str	r2, [r3, #32]
 918 000a 1A6A     		ldr	r2, [r3, #32]
 919 000c 0F31     		adds	r1, r1, #15
 920 000e 1A62     		str	r2, [r3, #32]
 921 0010 1A6A     		ldr	r2, [r3, #32]
 922 0012 8A43     		bics	r2, r1
 923 0014 1A62     		str	r2, [r3, #32]
 924 0016 1A6A     		ldr	r2, [r3, #32]
 925 0018 1249     		ldr	r1, .L83
 926 001a 1A62     		str	r2, [r3, #32]
 927 001c 124A     		ldr	r2, .L83+4
 928 001e 9342     		cmp	r3, r2
 929 0020 08D0     		beq	.L80
 930 0022 124A     		ldr	r2, .L83+8
 931 0024 9342     		cmp	r3, r2
 932 0026 05D0     		beq	.L80
 933 0028 114A     		ldr	r2, .L83+12
 934 002a 9342     		cmp	r3, r2
 935 002c 02D0     		beq	.L80
 936 002e 114A     		ldr	r2, .L83+16
 937 0030 9342     		cmp	r3, r2
 938 0032 0AD1     		bne	.L81
 939              	.L80:
 940 0034 1A6A     		ldr	r2, [r3, #32]
 941 0036 0A42     		tst	r2, r1
 942 0038 07D1     		bne	.L81
 943 003a 186A     		ldr	r0, [r3, #32]
 944 003c 0E4A     		ldr	r2, .L83+20
 945 003e 1042     		tst	r0, r2
 946 0040 03D1     		bne	.L81
 947 0042 5A6C     		ldr	r2, [r3, #68]
 948 0044 0D48     		ldr	r0, .L83+24
 949 0046 0240     		ands	r2, r0
 950 0048 5A64     		str	r2, [r3, #68]
 951              	.L81:
 952 004a 1A6A     		ldr	r2, [r3, #32]
 953 004c 0A42     		tst	r2, r1
 954 004e 07D1     		bne	.L82
 955 0050 196A     		ldr	r1, [r3, #32]
 956 0052 094A     		ldr	r2, .L83+20
 957 0054 1142     		tst	r1, r2
 958 0056 03D1     		bne	.L82
 959 0058 0121     		movs	r1, #1
 960 005a 1A68     		ldr	r2, [r3]
 961 005c 8A43     		bics	r2, r1
 962 005e 1A60     		str	r2, [r3]
 963              	.L82:
ARM GAS  /tmp/cct6apLa.s 			page 17


 964 0060 0020     		movs	r0, #0
 965              		@ sp needed
 966 0062 7047     		bx	lr
 967              	.L84:
 968              		.align	2
 969              	.L83:
 970 0064 11110000 		.word	4369
 971 0068 002C0140 		.word	1073818624
 972 006c 00400140 		.word	1073823744
 973 0070 00440140 		.word	1073824768
 974 0074 00480140 		.word	1073825792
 975 0078 44040000 		.word	1092
 976 007c FF7FFFFF 		.word	-32769
 978              		.section	.text.HAL_TIM_OnePulse_Start_IT,"ax",%progbits
 979              		.align	1
 980              		.global	HAL_TIM_OnePulse_Start_IT
 981              		.syntax unified
 982              		.code	16
 983              		.thumb_func
 984              		.fpu softvfp
 986              	HAL_TIM_OnePulse_Start_IT:
 987              		@ args = 0, pretend = 0, frame = 0
 988              		@ frame_needed = 0, uses_anonymous_args = 0
 989              		@ link register save eliminated.
 990 0000 0222     		movs	r2, #2
 991 0002 0368     		ldr	r3, [r0]
 992 0004 D968     		ldr	r1, [r3, #12]
 993 0006 0A43     		orrs	r2, r1
 994 0008 DA60     		str	r2, [r3, #12]
 995 000a 0422     		movs	r2, #4
 996 000c D968     		ldr	r1, [r3, #12]
 997 000e 0A43     		orrs	r2, r1
 998 0010 DA60     		str	r2, [r3, #12]
 999 0012 0122     		movs	r2, #1
 1000 0014 196A     		ldr	r1, [r3, #32]
 1001 0016 9143     		bics	r1, r2
 1002 0018 1962     		str	r1, [r3, #32]
 1003 001a 196A     		ldr	r1, [r3, #32]
 1004 001c 0A43     		orrs	r2, r1
 1005 001e 1A62     		str	r2, [r3, #32]
 1006 0020 1022     		movs	r2, #16
 1007 0022 196A     		ldr	r1, [r3, #32]
 1008 0024 9143     		bics	r1, r2
 1009 0026 1962     		str	r1, [r3, #32]
 1010 0028 196A     		ldr	r1, [r3, #32]
 1011 002a 0A43     		orrs	r2, r1
 1012 002c 1A62     		str	r2, [r3, #32]
 1013 002e 094A     		ldr	r2, .L88
 1014 0030 9342     		cmp	r3, r2
 1015 0032 08D0     		beq	.L86
 1016 0034 084A     		ldr	r2, .L88+4
 1017 0036 9342     		cmp	r3, r2
 1018 0038 05D0     		beq	.L86
 1019 003a 084A     		ldr	r2, .L88+8
 1020 003c 9342     		cmp	r3, r2
 1021 003e 02D0     		beq	.L86
 1022 0040 074A     		ldr	r2, .L88+12
ARM GAS  /tmp/cct6apLa.s 			page 18


 1023 0042 9342     		cmp	r3, r2
 1024 0044 04D1     		bne	.L87
 1025              	.L86:
 1026 0046 8022     		movs	r2, #128
 1027 0048 596C     		ldr	r1, [r3, #68]
 1028 004a 1202     		lsls	r2, r2, #8
 1029 004c 0A43     		orrs	r2, r1
 1030 004e 5A64     		str	r2, [r3, #68]
 1031              	.L87:
 1032 0050 0020     		movs	r0, #0
 1033              		@ sp needed
 1034 0052 7047     		bx	lr
 1035              	.L89:
 1036              		.align	2
 1037              	.L88:
 1038 0054 002C0140 		.word	1073818624
 1039 0058 00400140 		.word	1073823744
 1040 005c 00440140 		.word	1073824768
 1041 0060 00480140 		.word	1073825792
 1043              		.section	.text.HAL_TIM_OnePulse_Stop_IT,"ax",%progbits
 1044              		.align	1
 1045              		.global	HAL_TIM_OnePulse_Stop_IT
 1046              		.syntax unified
 1047              		.code	16
 1048              		.thumb_func
 1049              		.fpu softvfp
 1051              	HAL_TIM_OnePulse_Stop_IT:
 1052              		@ args = 0, pretend = 0, frame = 0
 1053              		@ frame_needed = 0, uses_anonymous_args = 0
 1054              		@ link register save eliminated.
 1055 0000 0221     		movs	r1, #2
 1056 0002 0368     		ldr	r3, [r0]
 1057 0004 DA68     		ldr	r2, [r3, #12]
 1058 0006 8A43     		bics	r2, r1
 1059 0008 DA60     		str	r2, [r3, #12]
 1060 000a DA68     		ldr	r2, [r3, #12]
 1061 000c 4918     		adds	r1, r1, r1
 1062 000e 8A43     		bics	r2, r1
 1063 0010 DA60     		str	r2, [r3, #12]
 1064 0012 1A6A     		ldr	r2, [r3, #32]
 1065 0014 0339     		subs	r1, r1, #3
 1066 0016 8A43     		bics	r2, r1
 1067 0018 1A62     		str	r2, [r3, #32]
 1068 001a 1A6A     		ldr	r2, [r3, #32]
 1069 001c 0F31     		adds	r1, r1, #15
 1070 001e 1A62     		str	r2, [r3, #32]
 1071 0020 1A6A     		ldr	r2, [r3, #32]
 1072 0022 8A43     		bics	r2, r1
 1073 0024 1A62     		str	r2, [r3, #32]
 1074 0026 1A6A     		ldr	r2, [r3, #32]
 1075 0028 1249     		ldr	r1, .L94
 1076 002a 1A62     		str	r2, [r3, #32]
 1077 002c 124A     		ldr	r2, .L94+4
 1078 002e 9342     		cmp	r3, r2
 1079 0030 08D0     		beq	.L91
 1080 0032 124A     		ldr	r2, .L94+8
 1081 0034 9342     		cmp	r3, r2
ARM GAS  /tmp/cct6apLa.s 			page 19


 1082 0036 05D0     		beq	.L91
 1083 0038 114A     		ldr	r2, .L94+12
 1084 003a 9342     		cmp	r3, r2
 1085 003c 02D0     		beq	.L91
 1086 003e 114A     		ldr	r2, .L94+16
 1087 0040 9342     		cmp	r3, r2
 1088 0042 0AD1     		bne	.L92
 1089              	.L91:
 1090 0044 1A6A     		ldr	r2, [r3, #32]
 1091 0046 0A42     		tst	r2, r1
 1092 0048 07D1     		bne	.L92
 1093 004a 186A     		ldr	r0, [r3, #32]
 1094 004c 0E4A     		ldr	r2, .L94+20
 1095 004e 1042     		tst	r0, r2
 1096 0050 03D1     		bne	.L92
 1097 0052 5A6C     		ldr	r2, [r3, #68]
 1098 0054 0D48     		ldr	r0, .L94+24
 1099 0056 0240     		ands	r2, r0
 1100 0058 5A64     		str	r2, [r3, #68]
 1101              	.L92:
 1102 005a 1A6A     		ldr	r2, [r3, #32]
 1103 005c 0A42     		tst	r2, r1
 1104 005e 07D1     		bne	.L93
 1105 0060 196A     		ldr	r1, [r3, #32]
 1106 0062 094A     		ldr	r2, .L94+20
 1107 0064 1142     		tst	r1, r2
 1108 0066 03D1     		bne	.L93
 1109 0068 0121     		movs	r1, #1
 1110 006a 1A68     		ldr	r2, [r3]
 1111 006c 8A43     		bics	r2, r1
 1112 006e 1A60     		str	r2, [r3]
 1113              	.L93:
 1114 0070 0020     		movs	r0, #0
 1115              		@ sp needed
 1116 0072 7047     		bx	lr
 1117              	.L95:
 1118              		.align	2
 1119              	.L94:
 1120 0074 11110000 		.word	4369
 1121 0078 002C0140 		.word	1073818624
 1122 007c 00400140 		.word	1073823744
 1123 0080 00440140 		.word	1073824768
 1124 0084 00480140 		.word	1073825792
 1125 0088 44040000 		.word	1092
 1126 008c FF7FFFFF 		.word	-32769
 1128              		.section	.text.HAL_TIM_Encoder_MspInit,"ax",%progbits
 1129              		.align	1
 1130              		.weak	HAL_TIM_Encoder_MspInit
 1131              		.syntax unified
 1132              		.code	16
 1133              		.thumb_func
 1134              		.fpu softvfp
 1136              	HAL_TIM_Encoder_MspInit:
 1137              		@ args = 0, pretend = 0, frame = 0
 1138              		@ frame_needed = 0, uses_anonymous_args = 0
 1139              		@ link register save eliminated.
 1140              		@ sp needed
ARM GAS  /tmp/cct6apLa.s 			page 20


 1141 0000 7047     		bx	lr
 1143              		.section	.text.HAL_TIM_Encoder_MspDeInit,"ax",%progbits
 1144              		.align	1
 1145              		.weak	HAL_TIM_Encoder_MspDeInit
 1146              		.syntax unified
 1147              		.code	16
 1148              		.thumb_func
 1149              		.fpu softvfp
 1151              	HAL_TIM_Encoder_MspDeInit:
 1152              		@ args = 0, pretend = 0, frame = 0
 1153              		@ frame_needed = 0, uses_anonymous_args = 0
 1154              		@ link register save eliminated.
 1155              		@ sp needed
 1156 0000 7047     		bx	lr
 1158              		.section	.text.HAL_TIM_Encoder_DeInit,"ax",%progbits
 1159              		.align	1
 1160              		.global	HAL_TIM_Encoder_DeInit
 1161              		.syntax unified
 1162              		.code	16
 1163              		.thumb_func
 1164              		.fpu softvfp
 1166              	HAL_TIM_Encoder_DeInit:
 1167              		@ args = 0, pretend = 0, frame = 0
 1168              		@ frame_needed = 0, uses_anonymous_args = 0
 1169 0000 70B5     		push	{r4, r5, r6, lr}
 1170 0002 0500     		movs	r5, r0
 1171 0004 0223     		movs	r3, #2
 1172 0006 3D35     		adds	r5, r5, #61
 1173 0008 2B70     		strb	r3, [r5]
 1174 000a 0368     		ldr	r3, [r0]
 1175 000c 0A4A     		ldr	r2, .L100
 1176 000e 196A     		ldr	r1, [r3, #32]
 1177 0010 0400     		movs	r4, r0
 1178 0012 1142     		tst	r1, r2
 1179 0014 07D1     		bne	.L99
 1180 0016 196A     		ldr	r1, [r3, #32]
 1181 0018 084A     		ldr	r2, .L100+4
 1182 001a 1142     		tst	r1, r2
 1183 001c 03D1     		bne	.L99
 1184 001e 0121     		movs	r1, #1
 1185 0020 1A68     		ldr	r2, [r3]
 1186 0022 8A43     		bics	r2, r1
 1187 0024 1A60     		str	r2, [r3]
 1188              	.L99:
 1189 0026 2000     		movs	r0, r4
 1190              		@ sp needed
 1191 0028 FFF7FEFF 		bl	HAL_TIM_Encoder_MspDeInit
 1192 002c 0020     		movs	r0, #0
 1193 002e 3C34     		adds	r4, r4, #60
 1194 0030 2870     		strb	r0, [r5]
 1195 0032 2070     		strb	r0, [r4]
 1196 0034 70BD     		pop	{r4, r5, r6, pc}
 1197              	.L101:
 1198 0036 C046     		.align	2
 1199              	.L100:
 1200 0038 11110000 		.word	4369
 1201 003c 44040000 		.word	1092
ARM GAS  /tmp/cct6apLa.s 			page 21


 1203              		.section	.text.HAL_TIM_Encoder_Start,"ax",%progbits
 1204              		.align	1
 1205              		.global	HAL_TIM_Encoder_Start
 1206              		.syntax unified
 1207              		.code	16
 1208              		.thumb_func
 1209              		.fpu softvfp
 1211              	HAL_TIM_Encoder_Start:
 1212              		@ args = 0, pretend = 0, frame = 0
 1213              		@ frame_needed = 0, uses_anonymous_args = 0
 1214              		@ link register save eliminated.
 1215 0000 0122     		movs	r2, #1
 1216 0002 0368     		ldr	r3, [r0]
 1217 0004 0029     		cmp	r1, #0
 1218 0006 0AD0     		beq	.L103
 1219 0008 0429     		cmp	r1, #4
 1220 000a 05D0     		beq	.L109
 1221 000c 196A     		ldr	r1, [r3, #32]
 1222 000e 9143     		bics	r1, r2
 1223 0010 1962     		str	r1, [r3, #32]
 1224 0012 196A     		ldr	r1, [r3, #32]
 1225 0014 0A43     		orrs	r2, r1
 1226 0016 1A62     		str	r2, [r3, #32]
 1227              	.L109:
 1228 0018 1022     		movs	r2, #16
 1229 001a 196A     		ldr	r1, [r3, #32]
 1230 001c 00E0     		b	.L108
 1231              	.L103:
 1232 001e 196A     		ldr	r1, [r3, #32]
 1233              	.L108:
 1234 0020 9143     		bics	r1, r2
 1235 0022 1962     		str	r1, [r3, #32]
 1236 0024 196A     		ldr	r1, [r3, #32]
 1237 0026 0020     		movs	r0, #0
 1238              		@ sp needed
 1239 0028 0A43     		orrs	r2, r1
 1240 002a 1A62     		str	r2, [r3, #32]
 1241 002c 0122     		movs	r2, #1
 1242 002e 1968     		ldr	r1, [r3]
 1243 0030 0A43     		orrs	r2, r1
 1244 0032 1A60     		str	r2, [r3]
 1245 0034 7047     		bx	lr
 1247              		.section	.text.HAL_TIM_Encoder_Stop,"ax",%progbits
 1248              		.align	1
 1249              		.global	HAL_TIM_Encoder_Stop
 1250              		.syntax unified
 1251              		.code	16
 1252              		.thumb_func
 1253              		.fpu softvfp
 1255              	HAL_TIM_Encoder_Stop:
 1256              		@ args = 0, pretend = 0, frame = 0
 1257              		@ frame_needed = 0, uses_anonymous_args = 0
 1258              		@ link register save eliminated.
 1259 0000 0368     		ldr	r3, [r0]
 1260 0002 0029     		cmp	r1, #0
 1261 0004 0AD0     		beq	.L111
 1262 0006 0429     		cmp	r1, #4
ARM GAS  /tmp/cct6apLa.s 			page 22


 1263 0008 1CD0     		beq	.L112
 1264 000a 0121     		movs	r1, #1
 1265 000c 1A6A     		ldr	r2, [r3, #32]
 1266 000e 8A43     		bics	r2, r1
 1267 0010 1A62     		str	r2, [r3, #32]
 1268 0012 1A6A     		ldr	r2, [r3, #32]
 1269 0014 0F31     		adds	r1, r1, #15
 1270 0016 1A62     		str	r2, [r3, #32]
 1271 0018 1A6A     		ldr	r2, [r3, #32]
 1272 001a 01E0     		b	.L117
 1273              	.L111:
 1274 001c 0121     		movs	r1, #1
 1275 001e 1A6A     		ldr	r2, [r3, #32]
 1276              	.L117:
 1277 0020 8A43     		bics	r2, r1
 1278 0022 1A62     		str	r2, [r3, #32]
 1279 0024 1A6A     		ldr	r2, [r3, #32]
 1280 0026 1A62     		str	r2, [r3, #32]
 1281 0028 196A     		ldr	r1, [r3, #32]
 1282 002a 084A     		ldr	r2, .L118
 1283 002c 1142     		tst	r1, r2
 1284 002e 07D1     		bne	.L115
 1285 0030 196A     		ldr	r1, [r3, #32]
 1286 0032 074A     		ldr	r2, .L118+4
 1287 0034 1142     		tst	r1, r2
 1288 0036 03D1     		bne	.L115
 1289 0038 0121     		movs	r1, #1
 1290 003a 1A68     		ldr	r2, [r3]
 1291 003c 8A43     		bics	r2, r1
 1292 003e 1A60     		str	r2, [r3]
 1293              	.L115:
 1294 0040 0020     		movs	r0, #0
 1295              		@ sp needed
 1296 0042 7047     		bx	lr
 1297              	.L112:
 1298 0044 1021     		movs	r1, #16
 1299 0046 1A6A     		ldr	r2, [r3, #32]
 1300 0048 EAE7     		b	.L117
 1301              	.L119:
 1302 004a C046     		.align	2
 1303              	.L118:
 1304 004c 11110000 		.word	4369
 1305 0050 44040000 		.word	1092
 1307              		.section	.text.HAL_TIM_Encoder_Start_IT,"ax",%progbits
 1308              		.align	1
 1309              		.global	HAL_TIM_Encoder_Start_IT
 1310              		.syntax unified
 1311              		.code	16
 1312              		.thumb_func
 1313              		.fpu softvfp
 1315              	HAL_TIM_Encoder_Start_IT:
 1316              		@ args = 0, pretend = 0, frame = 0
 1317              		@ frame_needed = 0, uses_anonymous_args = 0
 1318              		@ link register save eliminated.
 1319 0000 0122     		movs	r2, #1
 1320 0002 0368     		ldr	r3, [r0]
 1321 0004 0029     		cmp	r1, #0
ARM GAS  /tmp/cct6apLa.s 			page 23


 1322 0006 15D0     		beq	.L121
 1323 0008 0429     		cmp	r1, #4
 1324 000a 1ED0     		beq	.L122
 1325 000c 196A     		ldr	r1, [r3, #32]
 1326 000e 9143     		bics	r1, r2
 1327 0010 1962     		str	r1, [r3, #32]
 1328 0012 196A     		ldr	r1, [r3, #32]
 1329 0014 0A43     		orrs	r2, r1
 1330 0016 1A62     		str	r2, [r3, #32]
 1331 0018 1022     		movs	r2, #16
 1332 001a 196A     		ldr	r1, [r3, #32]
 1333 001c 9143     		bics	r1, r2
 1334 001e 1962     		str	r1, [r3, #32]
 1335 0020 196A     		ldr	r1, [r3, #32]
 1336 0022 0A43     		orrs	r2, r1
 1337 0024 1A62     		str	r2, [r3, #32]
 1338 0026 0222     		movs	r2, #2
 1339 0028 D968     		ldr	r1, [r3, #12]
 1340 002a 0A43     		orrs	r2, r1
 1341 002c DA60     		str	r2, [r3, #12]
 1342 002e D968     		ldr	r1, [r3, #12]
 1343 0030 0422     		movs	r2, #4
 1344 0032 07E0     		b	.L126
 1345              	.L121:
 1346 0034 196A     		ldr	r1, [r3, #32]
 1347 0036 9143     		bics	r1, r2
 1348 0038 1962     		str	r1, [r3, #32]
 1349 003a 196A     		ldr	r1, [r3, #32]
 1350 003c 0A43     		orrs	r2, r1
 1351 003e 1A62     		str	r2, [r3, #32]
 1352 0040 0222     		movs	r2, #2
 1353 0042 D968     		ldr	r1, [r3, #12]
 1354              	.L126:
 1355 0044 0A43     		orrs	r2, r1
 1356 0046 DA60     		str	r2, [r3, #12]
 1357 0048 09E0     		b	.L124
 1358              	.L122:
 1359 004a 1022     		movs	r2, #16
 1360 004c 186A     		ldr	r0, [r3, #32]
 1361 004e 9043     		bics	r0, r2
 1362 0050 1862     		str	r0, [r3, #32]
 1363 0052 186A     		ldr	r0, [r3, #32]
 1364 0054 0243     		orrs	r2, r0
 1365 0056 1A62     		str	r2, [r3, #32]
 1366 0058 DA68     		ldr	r2, [r3, #12]
 1367 005a 1143     		orrs	r1, r2
 1368 005c D960     		str	r1, [r3, #12]
 1369              	.L124:
 1370 005e 0122     		movs	r2, #1
 1371              		@ sp needed
 1372 0060 1968     		ldr	r1, [r3]
 1373 0062 0020     		movs	r0, #0
 1374 0064 0A43     		orrs	r2, r1
 1375 0066 1A60     		str	r2, [r3]
 1376 0068 7047     		bx	lr
 1378              		.section	.text.HAL_TIM_Encoder_Stop_IT,"ax",%progbits
 1379              		.align	1
ARM GAS  /tmp/cct6apLa.s 			page 24


 1380              		.global	HAL_TIM_Encoder_Stop_IT
 1381              		.syntax unified
 1382              		.code	16
 1383              		.thumb_func
 1384              		.fpu softvfp
 1386              	HAL_TIM_Encoder_Stop_IT:
 1387              		@ args = 0, pretend = 0, frame = 0
 1388              		@ frame_needed = 0, uses_anonymous_args = 0
 1389 0000 0368     		ldr	r3, [r0]
 1390 0002 10B5     		push	{r4, lr}
 1391 0004 1A6A     		ldr	r2, [r3, #32]
 1392 0006 0124     		movs	r4, #1
 1393 0008 0029     		cmp	r1, #0
 1394 000a 06D1     		bne	.L128
 1395 000c A243     		bics	r2, r4
 1396 000e 1A62     		str	r2, [r3, #32]
 1397 0010 1A6A     		ldr	r2, [r3, #32]
 1398 0012 1A62     		str	r2, [r3, #32]
 1399              	.L132:
 1400 0014 DA68     		ldr	r2, [r3, #12]
 1401 0016 0231     		adds	r1, r1, #2
 1402 0018 07E0     		b	.L133
 1403              	.L128:
 1404 001a 0429     		cmp	r1, #4
 1405 001c 18D1     		bne	.L130
 1406 001e 1024     		movs	r4, #16
 1407 0020 A243     		bics	r2, r4
 1408 0022 1A62     		str	r2, [r3, #32]
 1409 0024 1A6A     		ldr	r2, [r3, #32]
 1410 0026 1A62     		str	r2, [r3, #32]
 1411 0028 DA68     		ldr	r2, [r3, #12]
 1412              	.L133:
 1413 002a 8A43     		bics	r2, r1
 1414 002c DA60     		str	r2, [r3, #12]
 1415 002e 196A     		ldr	r1, [r3, #32]
 1416 0030 0F4A     		ldr	r2, .L134
 1417 0032 1142     		tst	r1, r2
 1418 0034 07D1     		bne	.L131
 1419 0036 196A     		ldr	r1, [r3, #32]
 1420 0038 0E4A     		ldr	r2, .L134+4
 1421 003a 1142     		tst	r1, r2
 1422 003c 03D1     		bne	.L131
 1423 003e 0121     		movs	r1, #1
 1424 0040 1A68     		ldr	r2, [r3]
 1425 0042 8A43     		bics	r2, r1
 1426 0044 1A60     		str	r2, [r3]
 1427              	.L131:
 1428 0046 0123     		movs	r3, #1
 1429              		@ sp needed
 1430 0048 3D30     		adds	r0, r0, #61
 1431 004a 0370     		strb	r3, [r0]
 1432 004c 0020     		movs	r0, #0
 1433 004e 10BD     		pop	{r4, pc}
 1434              	.L130:
 1435 0050 1021     		movs	r1, #16
 1436 0052 A243     		bics	r2, r4
 1437 0054 1A62     		str	r2, [r3, #32]
ARM GAS  /tmp/cct6apLa.s 			page 25


 1438 0056 1A6A     		ldr	r2, [r3, #32]
 1439 0058 1A62     		str	r2, [r3, #32]
 1440 005a 1A6A     		ldr	r2, [r3, #32]
 1441 005c 8A43     		bics	r2, r1
 1442 005e 1A62     		str	r2, [r3, #32]
 1443 0060 1A6A     		ldr	r2, [r3, #32]
 1444 0062 0E39     		subs	r1, r1, #14
 1445 0064 1A62     		str	r2, [r3, #32]
 1446 0066 DA68     		ldr	r2, [r3, #12]
 1447 0068 8A43     		bics	r2, r1
 1448 006a DA60     		str	r2, [r3, #12]
 1449 006c D2E7     		b	.L132
 1450              	.L135:
 1451 006e C046     		.align	2
 1452              	.L134:
 1453 0070 11110000 		.word	4369
 1454 0074 44040000 		.word	1092
 1456              		.section	.text.HAL_TIM_Encoder_Start_DMA,"ax",%progbits
 1457              		.align	1
 1458              		.global	HAL_TIM_Encoder_Start_DMA
 1459              		.syntax unified
 1460              		.code	16
 1461              		.thumb_func
 1462              		.fpu softvfp
 1464              	HAL_TIM_Encoder_Start_DMA:
 1465              		@ args = 4, pretend = 0, frame = 0
 1466              		@ frame_needed = 0, uses_anonymous_args = 0
 1467 0000 F8B5     		push	{r3, r4, r5, r6, r7, lr}
 1468 0002 1D00     		movs	r5, r3
 1469 0004 06AB     		add	r3, sp, #24
 1470 0006 1E88     		ldrh	r6, [r3]
 1471 0008 0300     		movs	r3, r0
 1472 000a 3D33     		adds	r3, r3, #61
 1473 000c 0400     		movs	r4, r0
 1474 000e 1878     		ldrb	r0, [r3]
 1475 0010 C7B2     		uxtb	r7, r0
 1476 0012 0228     		cmp	r0, #2
 1477 0014 2CD0     		beq	.L137
 1478 0016 1878     		ldrb	r0, [r3]
 1479 0018 C7B2     		uxtb	r7, r0
 1480 001a 0128     		cmp	r0, #1
 1481 001c 07D1     		bne	.L138
 1482 001e 002A     		cmp	r2, #0
 1483 0020 01D0     		beq	.L139
 1484 0022 002D     		cmp	r5, #0
 1485 0024 01D1     		bne	.L140
 1486              	.L139:
 1487 0026 002E     		cmp	r6, #0
 1488 0028 22D1     		bne	.L137
 1489              	.L140:
 1490 002a 0220     		movs	r0, #2
 1491 002c 1870     		strb	r0, [r3]
 1492              	.L138:
 1493 002e 0429     		cmp	r1, #4
 1494 0030 20D0     		beq	.L141
 1495 0032 1829     		cmp	r1, #24
 1496 0034 3CD0     		beq	.L142
ARM GAS  /tmp/cct6apLa.s 			page 26


 1497 0036 0027     		movs	r7, #0
 1498 0038 B942     		cmp	r1, r7
 1499 003a 19D1     		bne	.L137
 1500 003c 606A     		ldr	r0, [r4, #36]
 1501 003e 354B     		ldr	r3, .L151
 1502 0040 2168     		ldr	r1, [r4]
 1503 0042 8362     		str	r3, [r0, #40]
 1504 0044 344B     		ldr	r3, .L151+4
 1505 0046 3431     		adds	r1, r1, #52
 1506 0048 0363     		str	r3, [r0, #48]
 1507 004a 3300     		movs	r3, r6
 1508 004c FFF7FEFF 		bl	HAL_DMA_Start_IT
 1509 0050 8022     		movs	r2, #128
 1510 0052 2368     		ldr	r3, [r4]
 1511 0054 9200     		lsls	r2, r2, #2
 1512 0056 D968     		ldr	r1, [r3, #12]
 1513 0058 0A43     		orrs	r2, r1
 1514 005a DA60     		str	r2, [r3, #12]
 1515 005c 0122     		movs	r2, #1
 1516 005e 1968     		ldr	r1, [r3]
 1517 0060 1143     		orrs	r1, r2
 1518 0062 1960     		str	r1, [r3]
 1519 0064 196A     		ldr	r1, [r3, #32]
 1520 0066 9143     		bics	r1, r2
 1521 0068 1962     		str	r1, [r3, #32]
 1522 006a 196A     		ldr	r1, [r3, #32]
 1523 006c 0A43     		orrs	r2, r1
 1524 006e 1A62     		str	r2, [r3, #32]
 1525              	.L137:
 1526 0070 3800     		movs	r0, r7
 1527              		@ sp needed
 1528 0072 F8BD     		pop	{r3, r4, r5, r6, r7, pc}
 1529              	.L141:
 1530 0074 A06A     		ldr	r0, [r4, #40]
 1531 0076 274B     		ldr	r3, .L151
 1532 0078 2168     		ldr	r1, [r4]
 1533 007a 8362     		str	r3, [r0, #40]
 1534 007c 264B     		ldr	r3, .L151+4
 1535 007e 2A00     		movs	r2, r5
 1536 0080 0363     		str	r3, [r0, #48]
 1537 0082 3831     		adds	r1, r1, #56
 1538 0084 3300     		movs	r3, r6
 1539 0086 FFF7FEFF 		bl	HAL_DMA_Start_IT
 1540 008a 8022     		movs	r2, #128
 1541 008c 2368     		ldr	r3, [r4]
 1542 008e D200     		lsls	r2, r2, #3
 1543 0090 D968     		ldr	r1, [r3, #12]
 1544 0092 0A43     		orrs	r2, r1
 1545 0094 DA60     		str	r2, [r3, #12]
 1546 0096 0122     		movs	r2, #1
 1547 0098 1968     		ldr	r1, [r3]
 1548 009a 0A43     		orrs	r2, r1
 1549 009c 1A60     		str	r2, [r3]
 1550 009e 1022     		movs	r2, #16
 1551 00a0 196A     		ldr	r1, [r3, #32]
 1552 00a2 9143     		bics	r1, r2
 1553 00a4 1962     		str	r1, [r3, #32]
ARM GAS  /tmp/cct6apLa.s 			page 27


 1554 00a6 196A     		ldr	r1, [r3, #32]
 1555 00a8 0A43     		orrs	r2, r1
 1556 00aa 1A62     		str	r2, [r3, #32]
 1557              	.L150:
 1558 00ac 0027     		movs	r7, #0
 1559 00ae DFE7     		b	.L137
 1560              	.L142:
 1561 00b0 606A     		ldr	r0, [r4, #36]
 1562 00b2 184F     		ldr	r7, .L151
 1563 00b4 184B     		ldr	r3, .L151+4
 1564 00b6 2168     		ldr	r1, [r4]
 1565 00b8 0363     		str	r3, [r0, #48]
 1566 00ba 3431     		adds	r1, r1, #52
 1567 00bc 3300     		movs	r3, r6
 1568 00be 8762     		str	r7, [r0, #40]
 1569 00c0 FFF7FEFF 		bl	HAL_DMA_Start_IT
 1570 00c4 A06A     		ldr	r0, [r4, #40]
 1571 00c6 144B     		ldr	r3, .L151+4
 1572 00c8 2168     		ldr	r1, [r4]
 1573 00ca 2A00     		movs	r2, r5
 1574 00cc 0363     		str	r3, [r0, #48]
 1575 00ce 3831     		adds	r1, r1, #56
 1576 00d0 3300     		movs	r3, r6
 1577 00d2 8762     		str	r7, [r0, #40]
 1578 00d4 FFF7FEFF 		bl	HAL_DMA_Start_IT
 1579 00d8 0122     		movs	r2, #1
 1580 00da 2368     		ldr	r3, [r4]
 1581 00dc 1968     		ldr	r1, [r3]
 1582 00de 1143     		orrs	r1, r2
 1583 00e0 1960     		str	r1, [r3]
 1584 00e2 196A     		ldr	r1, [r3, #32]
 1585 00e4 9143     		bics	r1, r2
 1586 00e6 1962     		str	r1, [r3, #32]
 1587 00e8 196A     		ldr	r1, [r3, #32]
 1588 00ea 0A43     		orrs	r2, r1
 1589 00ec 1A62     		str	r2, [r3, #32]
 1590 00ee 1022     		movs	r2, #16
 1591 00f0 196A     		ldr	r1, [r3, #32]
 1592 00f2 9143     		bics	r1, r2
 1593 00f4 1962     		str	r1, [r3, #32]
 1594 00f6 196A     		ldr	r1, [r3, #32]
 1595 00f8 0A43     		orrs	r2, r1
 1596 00fa 1A62     		str	r2, [r3, #32]
 1597 00fc 8022     		movs	r2, #128
 1598 00fe D968     		ldr	r1, [r3, #12]
 1599 0100 9200     		lsls	r2, r2, #2
 1600 0102 0A43     		orrs	r2, r1
 1601 0104 DA60     		str	r2, [r3, #12]
 1602 0106 8022     		movs	r2, #128
 1603 0108 D968     		ldr	r1, [r3, #12]
 1604 010a D200     		lsls	r2, r2, #3
 1605 010c 0A43     		orrs	r2, r1
 1606 010e DA60     		str	r2, [r3, #12]
 1607 0110 CCE7     		b	.L150
 1608              	.L152:
 1609 0112 C046     		.align	2
 1610              	.L151:
ARM GAS  /tmp/cct6apLa.s 			page 28


 1611 0114 00000000 		.word	TIM_DMACaptureCplt
 1612 0118 00000000 		.word	TIM_DMAError
 1614              		.section	.text.HAL_TIM_Encoder_Stop_DMA,"ax",%progbits
 1615              		.align	1
 1616              		.global	HAL_TIM_Encoder_Stop_DMA
 1617              		.syntax unified
 1618              		.code	16
 1619              		.thumb_func
 1620              		.fpu softvfp
 1622              	HAL_TIM_Encoder_Stop_DMA:
 1623              		@ args = 0, pretend = 0, frame = 0
 1624              		@ frame_needed = 0, uses_anonymous_args = 0
 1625 0000 30B5     		push	{r4, r5, lr}
 1626 0002 0368     		ldr	r3, [r0]
 1627 0004 0125     		movs	r5, #1
 1628 0006 0029     		cmp	r1, #0
 1629 0008 19D1     		bne	.L154
 1630 000a 1A6A     		ldr	r2, [r3, #32]
 1631 000c 1949     		ldr	r1, .L160
 1632 000e AA43     		bics	r2, r5
 1633 0010 1A62     		str	r2, [r3, #32]
 1634 0012 1A6A     		ldr	r2, [r3, #32]
 1635 0014 1A62     		str	r2, [r3, #32]
 1636 0016 DA68     		ldr	r2, [r3, #12]
 1637 0018 0A40     		ands	r2, r1
 1638              	.L158:
 1639 001a DA60     		str	r2, [r3, #12]
 1640 001c 196A     		ldr	r1, [r3, #32]
 1641 001e 164A     		ldr	r2, .L160+4
 1642 0020 1142     		tst	r1, r2
 1643 0022 07D1     		bne	.L157
 1644 0024 196A     		ldr	r1, [r3, #32]
 1645 0026 154A     		ldr	r2, .L160+8
 1646 0028 1142     		tst	r1, r2
 1647 002a 03D1     		bne	.L157
 1648 002c 0121     		movs	r1, #1
 1649 002e 1A68     		ldr	r2, [r3]
 1650 0030 8A43     		bics	r2, r1
 1651 0032 1A60     		str	r2, [r3]
 1652              	.L157:
 1653 0034 0123     		movs	r3, #1
 1654              		@ sp needed
 1655 0036 3D30     		adds	r0, r0, #61
 1656 0038 0370     		strb	r3, [r0]
 1657 003a 0020     		movs	r0, #0
 1658 003c 30BD     		pop	{r4, r5, pc}
 1659              	.L154:
 1660 003e 104C     		ldr	r4, .L160+12
 1661 0040 1A6A     		ldr	r2, [r3, #32]
 1662 0042 0429     		cmp	r1, #4
 1663 0044 07D1     		bne	.L156
 1664 0046 0C31     		adds	r1, r1, #12
 1665 0048 8A43     		bics	r2, r1
 1666 004a 1A62     		str	r2, [r3, #32]
 1667 004c 1A6A     		ldr	r2, [r3, #32]
 1668 004e 1A62     		str	r2, [r3, #32]
 1669              	.L159:
ARM GAS  /tmp/cct6apLa.s 			page 29


 1670 0050 DA68     		ldr	r2, [r3, #12]
 1671 0052 2240     		ands	r2, r4
 1672 0054 E1E7     		b	.L158
 1673              	.L156:
 1674 0056 AA43     		bics	r2, r5
 1675 0058 1A62     		str	r2, [r3, #32]
 1676 005a 1A6A     		ldr	r2, [r3, #32]
 1677 005c 1A62     		str	r2, [r3, #32]
 1678 005e 1022     		movs	r2, #16
 1679 0060 196A     		ldr	r1, [r3, #32]
 1680 0062 9143     		bics	r1, r2
 1681 0064 1962     		str	r1, [r3, #32]
 1682 0066 1A6A     		ldr	r2, [r3, #32]
 1683 0068 1A62     		str	r2, [r3, #32]
 1684 006a D968     		ldr	r1, [r3, #12]
 1685 006c 014A     		ldr	r2, .L160
 1686 006e 1140     		ands	r1, r2
 1687 0070 D960     		str	r1, [r3, #12]
 1688 0072 EDE7     		b	.L159
 1689              	.L161:
 1690              		.align	2
 1691              	.L160:
 1692 0074 FFFDFFFF 		.word	-513
 1693 0078 11110000 		.word	4369
 1694 007c 44040000 		.word	1092
 1695 0080 FFFBFFFF 		.word	-1025
 1697              		.section	.text.HAL_TIM_DMABurst_MultiWriteStart,"ax",%progbits
 1698              		.align	1
 1699              		.global	HAL_TIM_DMABurst_MultiWriteStart
 1700              		.syntax unified
 1701              		.code	16
 1702              		.thumb_func
 1703              		.fpu softvfp
 1705              	HAL_TIM_DMABurst_MultiWriteStart:
 1706              		@ args = 8, pretend = 0, frame = 0
 1707              		@ frame_needed = 0, uses_anonymous_args = 0
 1708 0000 F8B5     		push	{r3, r4, r5, r6, r7, lr}
 1709 0002 1500     		movs	r5, r2
 1710 0004 0200     		movs	r2, r0
 1711 0006 3D32     		adds	r2, r2, #61
 1712 0008 1678     		ldrb	r6, [r2]
 1713 000a 0400     		movs	r4, r0
 1714 000c 0F00     		movs	r7, r1
 1715 000e F0B2     		uxtb	r0, r6
 1716 0010 1900     		movs	r1, r3
 1717 0012 079B     		ldr	r3, [sp, #28]
 1718 0014 022E     		cmp	r6, #2
 1719 0016 27D0     		beq	.L163
 1720 0018 1678     		ldrb	r6, [r2]
 1721 001a F0B2     		uxtb	r0, r6
 1722 001c 012E     		cmp	r6, #1
 1723 001e 06D1     		bne	.L164
 1724 0020 0029     		cmp	r1, #0
 1725 0022 02D1     		bne	.L165
 1726 0024 069E     		ldr	r6, [sp, #24]
 1727 0026 002E     		cmp	r6, #0
 1728 0028 1ED1     		bne	.L163
ARM GAS  /tmp/cct6apLa.s 			page 30


 1729              	.L165:
 1730 002a 0220     		movs	r0, #2
 1731 002c 1070     		strb	r0, [r2]
 1732              	.L164:
 1733 002e 8020     		movs	r0, #128
 1734 0030 2268     		ldr	r2, [r4]
 1735 0032 0001     		lsls	r0, r0, #4
 1736 0034 8542     		cmp	r5, r0
 1737 0036 34D0     		beq	.L166
 1738 0038 17D8     		bhi	.L167
 1739 003a 8020     		movs	r0, #128
 1740 003c 8000     		lsls	r0, r0, #2
 1741 003e 8542     		cmp	r5, r0
 1742 0040 2AD0     		beq	.L168
 1743 0042 8020     		movs	r0, #128
 1744 0044 C000     		lsls	r0, r0, #3
 1745 0046 8542     		cmp	r5, r0
 1746 0048 29D0     		beq	.L169
 1747 004a 8020     		movs	r0, #128
 1748 004c 4000     		lsls	r0, r0, #1
 1749 004e 8542     		cmp	r5, r0
 1750 0050 19D0     		beq	.L170
 1751              	.L171:
 1752 0052 069E     		ldr	r6, [sp, #24]
 1753 0054 2368     		ldr	r3, [r4]
 1754 0056 3E43     		orrs	r6, r7
 1755 0058 9E64     		str	r6, [r3, #72]
 1756 005a DA68     		ldr	r2, [r3, #12]
 1757 005c 0020     		movs	r0, #0
 1758 005e 1543     		orrs	r5, r2
 1759 0060 DD60     		str	r5, [r3, #12]
 1760 0062 0123     		movs	r3, #1
 1761 0064 3D34     		adds	r4, r4, #61
 1762 0066 2370     		strb	r3, [r4]
 1763              	.L163:
 1764              		@ sp needed
 1765 0068 F8BD     		pop	{r3, r4, r5, r6, r7, pc}
 1766              	.L167:
 1767 006a 8020     		movs	r0, #128
 1768 006c 8001     		lsls	r0, r0, #6
 1769 006e 8542     		cmp	r5, r0
 1770 0070 19D0     		beq	.L172
 1771 0072 8020     		movs	r0, #128
 1772 0074 C001     		lsls	r0, r0, #7
 1773 0076 8542     		cmp	r5, r0
 1774 0078 18D0     		beq	.L173
 1775 007a 8020     		movs	r0, #128
 1776 007c 4001     		lsls	r0, r0, #5
 1777 007e 8542     		cmp	r5, r0
 1778 0080 E7D1     		bne	.L171
 1779 0082 206B     		ldr	r0, [r4, #48]
 1780 0084 09E0     		b	.L179
 1781              	.L170:
 1782 0086 206A     		ldr	r0, [r4, #32]
 1783 0088 0A4E     		ldr	r6, .L180
 1784              	.L178:
 1785 008a 8662     		str	r6, [r0, #40]
ARM GAS  /tmp/cct6apLa.s 			page 31


 1786 008c 0A4E     		ldr	r6, .L180+4
 1787 008e 4C32     		adds	r2, r2, #76
 1788 0090 0663     		str	r6, [r0, #48]
 1789 0092 FFF7FEFF 		bl	HAL_DMA_Start_IT
 1790 0096 DCE7     		b	.L171
 1791              	.L168:
 1792 0098 606A     		ldr	r0, [r4, #36]
 1793              	.L179:
 1794 009a 084E     		ldr	r6, .L180+8
 1795 009c F5E7     		b	.L178
 1796              	.L169:
 1797 009e A06A     		ldr	r0, [r4, #40]
 1798 00a0 FBE7     		b	.L179
 1799              	.L166:
 1800 00a2 E06A     		ldr	r0, [r4, #44]
 1801 00a4 F9E7     		b	.L179
 1802              	.L172:
 1803 00a6 606B     		ldr	r0, [r4, #52]
 1804 00a8 054E     		ldr	r6, .L180+12
 1805 00aa EEE7     		b	.L178
 1806              	.L173:
 1807 00ac A06B     		ldr	r0, [r4, #56]
 1808 00ae 054E     		ldr	r6, .L180+16
 1809 00b0 EBE7     		b	.L178
 1810              	.L181:
 1811 00b2 C046     		.align	2
 1812              	.L180:
 1813 00b4 00000000 		.word	TIM_DMAPeriodElapsedCplt
 1814 00b8 00000000 		.word	TIM_DMAError
 1815 00bc 00000000 		.word	TIM_DMADelayPulseCplt
 1816 00c0 00000000 		.word	TIMEx_DMACommutationCplt
 1817 00c4 00000000 		.word	TIM_DMATriggerCplt
 1819              		.section	.text.HAL_TIM_DMABurst_WriteStart,"ax",%progbits
 1820              		.align	1
 1821              		.global	HAL_TIM_DMABurst_WriteStart
 1822              		.syntax unified
 1823              		.code	16
 1824              		.thumb_func
 1825              		.fpu softvfp
 1827              	HAL_TIM_DMABurst_WriteStart:
 1828              		@ args = 4, pretend = 0, frame = 0
 1829              		@ frame_needed = 0, uses_anonymous_args = 0
 1830 0000 37B5     		push	{r0, r1, r2, r4, r5, lr}
 1831 0002 069D     		ldr	r5, [sp, #24]
 1832              		@ sp needed
 1833 0004 2C0A     		lsrs	r4, r5, #8
 1834 0006 0134     		adds	r4, r4, #1
 1835 0008 0095     		str	r5, [sp]
 1836 000a 0194     		str	r4, [sp, #4]
 1837 000c FFF7FEFF 		bl	HAL_TIM_DMABurst_MultiWriteStart
 1838 0010 3EBD     		pop	{r1, r2, r3, r4, r5, pc}
 1840              		.section	.text.HAL_TIM_DMABurst_WriteStop,"ax",%progbits
 1841              		.align	1
 1842              		.global	HAL_TIM_DMABurst_WriteStop
 1843              		.syntax unified
 1844              		.code	16
 1845              		.thumb_func
ARM GAS  /tmp/cct6apLa.s 			page 32


 1846              		.fpu softvfp
 1848              	HAL_TIM_DMABurst_WriteStop:
 1849              		@ args = 0, pretend = 0, frame = 0
 1850              		@ frame_needed = 0, uses_anonymous_args = 0
 1851 0000 8023     		movs	r3, #128
 1852 0002 70B5     		push	{r4, r5, r6, lr}
 1853 0004 1B01     		lsls	r3, r3, #4
 1854 0006 0500     		movs	r5, r0
 1855 0008 0C00     		movs	r4, r1
 1856 000a 9942     		cmp	r1, r3
 1857 000c 28D0     		beq	.L184
 1858 000e 11D8     		bhi	.L185
 1859 0010 8023     		movs	r3, #128
 1860 0012 9B00     		lsls	r3, r3, #2
 1861 0014 9942     		cmp	r1, r3
 1862 0016 1FD0     		beq	.L186
 1863 0018 8023     		movs	r3, #128
 1864 001a DB00     		lsls	r3, r3, #3
 1865 001c 9942     		cmp	r1, r3
 1866 001e 1DD0     		beq	.L187
 1867 0020 8023     		movs	r3, #128
 1868 0022 5B00     		lsls	r3, r3, #1
 1869 0024 9942     		cmp	r1, r3
 1870 0026 13D0     		beq	.L188
 1871              	.L189:
 1872              		@ sp needed
 1873 0028 2A68     		ldr	r2, [r5]
 1874 002a 0020     		movs	r0, #0
 1875 002c D368     		ldr	r3, [r2, #12]
 1876 002e A343     		bics	r3, r4
 1877 0030 D360     		str	r3, [r2, #12]
 1878 0032 70BD     		pop	{r4, r5, r6, pc}
 1879              	.L185:
 1880 0034 8023     		movs	r3, #128
 1881 0036 9B01     		lsls	r3, r3, #6
 1882 0038 9942     		cmp	r1, r3
 1883 003a 13D0     		beq	.L190
 1884 003c 8023     		movs	r3, #128
 1885 003e DB01     		lsls	r3, r3, #7
 1886 0040 9942     		cmp	r1, r3
 1887 0042 11D0     		beq	.L191
 1888 0044 8023     		movs	r3, #128
 1889 0046 5B01     		lsls	r3, r3, #5
 1890 0048 9942     		cmp	r1, r3
 1891 004a EDD1     		bne	.L189
 1892 004c 006B     		ldr	r0, [r0, #48]
 1893 004e 00E0     		b	.L193
 1894              	.L188:
 1895 0050 006A     		ldr	r0, [r0, #32]
 1896              	.L193:
 1897 0052 FFF7FEFF 		bl	HAL_DMA_Abort
 1898 0056 E7E7     		b	.L189
 1899              	.L186:
 1900 0058 406A     		ldr	r0, [r0, #36]
 1901 005a FAE7     		b	.L193
 1902              	.L187:
 1903 005c 806A     		ldr	r0, [r0, #40]
ARM GAS  /tmp/cct6apLa.s 			page 33


 1904 005e F8E7     		b	.L193
 1905              	.L184:
 1906 0060 C06A     		ldr	r0, [r0, #44]
 1907 0062 F6E7     		b	.L193
 1908              	.L190:
 1909 0064 406B     		ldr	r0, [r0, #52]
 1910 0066 F4E7     		b	.L193
 1911              	.L191:
 1912 0068 806B     		ldr	r0, [r0, #56]
 1913 006a F2E7     		b	.L193
 1915              		.section	.text.HAL_TIM_DMABurst_MultiReadStart,"ax",%progbits
 1916              		.align	1
 1917              		.global	HAL_TIM_DMABurst_MultiReadStart
 1918              		.syntax unified
 1919              		.code	16
 1920              		.thumb_func
 1921              		.fpu softvfp
 1923              	HAL_TIM_DMABurst_MultiReadStart:
 1924              		@ args = 8, pretend = 0, frame = 0
 1925              		@ frame_needed = 0, uses_anonymous_args = 0
 1926 0000 F8B5     		push	{r3, r4, r5, r6, r7, lr}
 1927 0002 0F00     		movs	r7, r1
 1928 0004 0100     		movs	r1, r0
 1929 0006 3D31     		adds	r1, r1, #61
 1930 0008 0E78     		ldrb	r6, [r1]
 1931 000a 0400     		movs	r4, r0
 1932 000c 1500     		movs	r5, r2
 1933 000e F0B2     		uxtb	r0, r6
 1934 0010 1A00     		movs	r2, r3
 1935 0012 079B     		ldr	r3, [sp, #28]
 1936 0014 022E     		cmp	r6, #2
 1937 0016 27D0     		beq	.L195
 1938 0018 0E78     		ldrb	r6, [r1]
 1939 001a F0B2     		uxtb	r0, r6
 1940 001c 012E     		cmp	r6, #1
 1941 001e 06D1     		bne	.L196
 1942 0020 002A     		cmp	r2, #0
 1943 0022 02D1     		bne	.L197
 1944 0024 069E     		ldr	r6, [sp, #24]
 1945 0026 002E     		cmp	r6, #0
 1946 0028 1ED1     		bne	.L195
 1947              	.L197:
 1948 002a 0220     		movs	r0, #2
 1949 002c 0870     		strb	r0, [r1]
 1950              	.L196:
 1951 002e 8020     		movs	r0, #128
 1952 0030 2168     		ldr	r1, [r4]
 1953 0032 0001     		lsls	r0, r0, #4
 1954 0034 8542     		cmp	r5, r0
 1955 0036 34D0     		beq	.L198
 1956 0038 17D8     		bhi	.L199
 1957 003a 8020     		movs	r0, #128
 1958 003c 8000     		lsls	r0, r0, #2
 1959 003e 8542     		cmp	r5, r0
 1960 0040 2AD0     		beq	.L200
 1961 0042 8020     		movs	r0, #128
 1962 0044 C000     		lsls	r0, r0, #3
ARM GAS  /tmp/cct6apLa.s 			page 34


 1963 0046 8542     		cmp	r5, r0
 1964 0048 29D0     		beq	.L201
 1965 004a 8020     		movs	r0, #128
 1966 004c 4000     		lsls	r0, r0, #1
 1967 004e 8542     		cmp	r5, r0
 1968 0050 19D0     		beq	.L202
 1969              	.L203:
 1970 0052 069E     		ldr	r6, [sp, #24]
 1971 0054 2368     		ldr	r3, [r4]
 1972 0056 3E43     		orrs	r6, r7
 1973 0058 9E64     		str	r6, [r3, #72]
 1974 005a DA68     		ldr	r2, [r3, #12]
 1975 005c 0020     		movs	r0, #0
 1976 005e 1543     		orrs	r5, r2
 1977 0060 DD60     		str	r5, [r3, #12]
 1978 0062 0123     		movs	r3, #1
 1979 0064 3D34     		adds	r4, r4, #61
 1980 0066 2370     		strb	r3, [r4]
 1981              	.L195:
 1982              		@ sp needed
 1983 0068 F8BD     		pop	{r3, r4, r5, r6, r7, pc}
 1984              	.L199:
 1985 006a 8020     		movs	r0, #128
 1986 006c 8001     		lsls	r0, r0, #6
 1987 006e 8542     		cmp	r5, r0
 1988 0070 19D0     		beq	.L204
 1989 0072 8020     		movs	r0, #128
 1990 0074 C001     		lsls	r0, r0, #7
 1991 0076 8542     		cmp	r5, r0
 1992 0078 18D0     		beq	.L205
 1993 007a 8020     		movs	r0, #128
 1994 007c 4001     		lsls	r0, r0, #5
 1995 007e 8542     		cmp	r5, r0
 1996 0080 E7D1     		bne	.L203
 1997 0082 206B     		ldr	r0, [r4, #48]
 1998 0084 09E0     		b	.L211
 1999              	.L202:
 2000 0086 206A     		ldr	r0, [r4, #32]
 2001 0088 0A4E     		ldr	r6, .L212
 2002              	.L210:
 2003 008a 8662     		str	r6, [r0, #40]
 2004 008c 0A4E     		ldr	r6, .L212+4
 2005 008e 4C31     		adds	r1, r1, #76
 2006 0090 0663     		str	r6, [r0, #48]
 2007 0092 FFF7FEFF 		bl	HAL_DMA_Start_IT
 2008 0096 DCE7     		b	.L203
 2009              	.L200:
 2010 0098 606A     		ldr	r0, [r4, #36]
 2011              	.L211:
 2012 009a 084E     		ldr	r6, .L212+8
 2013 009c F5E7     		b	.L210
 2014              	.L201:
 2015 009e A06A     		ldr	r0, [r4, #40]
 2016 00a0 FBE7     		b	.L211
 2017              	.L198:
 2018 00a2 E06A     		ldr	r0, [r4, #44]
 2019 00a4 F9E7     		b	.L211
ARM GAS  /tmp/cct6apLa.s 			page 35


 2020              	.L204:
 2021 00a6 606B     		ldr	r0, [r4, #52]
 2022 00a8 054E     		ldr	r6, .L212+12
 2023 00aa EEE7     		b	.L210
 2024              	.L205:
 2025 00ac A06B     		ldr	r0, [r4, #56]
 2026 00ae 054E     		ldr	r6, .L212+16
 2027 00b0 EBE7     		b	.L210
 2028              	.L213:
 2029 00b2 C046     		.align	2
 2030              	.L212:
 2031 00b4 00000000 		.word	TIM_DMAPeriodElapsedCplt
 2032 00b8 00000000 		.word	TIM_DMAError
 2033 00bc 00000000 		.word	TIM_DMACaptureCplt
 2034 00c0 00000000 		.word	TIMEx_DMACommutationCplt
 2035 00c4 00000000 		.word	TIM_DMATriggerCplt
 2037              		.section	.text.HAL_TIM_DMABurst_ReadStart,"ax",%progbits
 2038              		.align	1
 2039              		.global	HAL_TIM_DMABurst_ReadStart
 2040              		.syntax unified
 2041              		.code	16
 2042              		.thumb_func
 2043              		.fpu softvfp
 2045              	HAL_TIM_DMABurst_ReadStart:
 2046              		@ args = 4, pretend = 0, frame = 0
 2047              		@ frame_needed = 0, uses_anonymous_args = 0
 2048 0000 37B5     		push	{r0, r1, r2, r4, r5, lr}
 2049 0002 069D     		ldr	r5, [sp, #24]
 2050              		@ sp needed
 2051 0004 2C0A     		lsrs	r4, r5, #8
 2052 0006 0134     		adds	r4, r4, #1
 2053 0008 0095     		str	r5, [sp]
 2054 000a 0194     		str	r4, [sp, #4]
 2055 000c FFF7FEFF 		bl	HAL_TIM_DMABurst_MultiReadStart
 2056 0010 3EBD     		pop	{r1, r2, r3, r4, r5, pc}
 2058              		.section	.text.HAL_TIM_DMABurst_ReadStop,"ax",%progbits
 2059              		.align	1
 2060              		.global	HAL_TIM_DMABurst_ReadStop
 2061              		.syntax unified
 2062              		.code	16
 2063              		.thumb_func
 2064              		.fpu softvfp
 2066              	HAL_TIM_DMABurst_ReadStop:
 2067              		@ args = 0, pretend = 0, frame = 0
 2068              		@ frame_needed = 0, uses_anonymous_args = 0
 2069 0000 10B5     		push	{r4, lr}
 2070 0002 FFF7FEFF 		bl	HAL_TIM_DMABurst_WriteStop
 2071              		@ sp needed
 2072 0006 10BD     		pop	{r4, pc}
 2074              		.section	.text.HAL_TIM_GenerateEvent,"ax",%progbits
 2075              		.align	1
 2076              		.global	HAL_TIM_GenerateEvent
 2077              		.syntax unified
 2078              		.code	16
 2079              		.thumb_func
 2080              		.fpu softvfp
 2082              	HAL_TIM_GenerateEvent:
ARM GAS  /tmp/cct6apLa.s 			page 36


 2083              		@ args = 0, pretend = 0, frame = 0
 2084              		@ frame_needed = 0, uses_anonymous_args = 0
 2085 0000 0200     		movs	r2, r0
 2086 0002 30B5     		push	{r4, r5, lr}
 2087 0004 0224     		movs	r4, #2
 2088 0006 3C32     		adds	r2, r2, #60
 2089 0008 1578     		ldrb	r5, [r2]
 2090 000a 0300     		movs	r3, r0
 2091 000c 2000     		movs	r0, r4
 2092 000e 012D     		cmp	r5, #1
 2093 0010 08D0     		beq	.L217
 2094 0012 1800     		movs	r0, r3
 2095 0014 3D30     		adds	r0, r0, #61
 2096 0016 0470     		strb	r4, [r0]
 2097 0018 1B68     		ldr	r3, [r3]
 2098 001a 5961     		str	r1, [r3, #20]
 2099 001c 0123     		movs	r3, #1
 2100 001e 0370     		strb	r3, [r0]
 2101 0020 0020     		movs	r0, #0
 2102 0022 1070     		strb	r0, [r2]
 2103              	.L217:
 2104              		@ sp needed
 2105 0024 30BD     		pop	{r4, r5, pc}
 2107              		.section	.text.HAL_TIM_ConfigTI1Input,"ax",%progbits
 2108              		.align	1
 2109              		.global	HAL_TIM_ConfigTI1Input
 2110              		.syntax unified
 2111              		.code	16
 2112              		.thumb_func
 2113              		.fpu softvfp
 2115              	HAL_TIM_ConfigTI1Input:
 2116              		@ args = 0, pretend = 0, frame = 0
 2117              		@ frame_needed = 0, uses_anonymous_args = 0
 2118              		@ link register save eliminated.
 2119 0000 0268     		ldr	r2, [r0]
 2120 0002 8020     		movs	r0, #128
 2121              		@ sp needed
 2122 0004 5368     		ldr	r3, [r2, #4]
 2123 0006 8343     		bics	r3, r0
 2124 0008 0B43     		orrs	r3, r1
 2125 000a 0020     		movs	r0, #0
 2126 000c 5360     		str	r3, [r2, #4]
 2127 000e 7047     		bx	lr
 2129              		.section	.text.HAL_TIM_ReadCapturedValue,"ax",%progbits
 2130              		.align	1
 2131              		.global	HAL_TIM_ReadCapturedValue
 2132              		.syntax unified
 2133              		.code	16
 2134              		.thumb_func
 2135              		.fpu softvfp
 2137              	HAL_TIM_ReadCapturedValue:
 2138              		@ args = 0, pretend = 0, frame = 0
 2139              		@ frame_needed = 0, uses_anonymous_args = 0
 2140 0000 0200     		movs	r2, r0
 2141 0002 10B5     		push	{r4, lr}
 2142 0004 3C32     		adds	r2, r2, #60
 2143 0006 1478     		ldrb	r4, [r2]
ARM GAS  /tmp/cct6apLa.s 			page 37


 2144 0008 0300     		movs	r3, r0
 2145 000a 0220     		movs	r0, #2
 2146 000c 012C     		cmp	r4, #1
 2147 000e 09D0     		beq	.L220
 2148 0010 0829     		cmp	r1, #8
 2149 0012 13D0     		beq	.L222
 2150 0014 07D8     		bhi	.L223
 2151 0016 0029     		cmp	r1, #0
 2152 0018 0AD0     		beq	.L224
 2153 001a 0429     		cmp	r1, #4
 2154 001c 0BD0     		beq	.L225
 2155              	.L229:
 2156 001e 0020     		movs	r0, #0
 2157              	.L226:
 2158 0020 0023     		movs	r3, #0
 2159 0022 1370     		strb	r3, [r2]
 2160              	.L220:
 2161              		@ sp needed
 2162 0024 10BD     		pop	{r4, pc}
 2163              	.L223:
 2164 0026 0C29     		cmp	r1, #12
 2165 0028 F9D1     		bne	.L229
 2166 002a 1B68     		ldr	r3, [r3]
 2167 002c 186C     		ldr	r0, [r3, #64]
 2168 002e F7E7     		b	.L226
 2169              	.L224:
 2170 0030 1B68     		ldr	r3, [r3]
 2171 0032 586B     		ldr	r0, [r3, #52]
 2172 0034 F4E7     		b	.L226
 2173              	.L225:
 2174 0036 1B68     		ldr	r3, [r3]
 2175 0038 986B     		ldr	r0, [r3, #56]
 2176 003a F1E7     		b	.L226
 2177              	.L222:
 2178 003c 1B68     		ldr	r3, [r3]
 2179 003e D86B     		ldr	r0, [r3, #60]
 2180 0040 EEE7     		b	.L226
 2182              		.section	.text.HAL_TIM_PeriodElapsedCallback,"ax",%progbits
 2183              		.align	1
 2184              		.weak	HAL_TIM_PeriodElapsedCallback
 2185              		.syntax unified
 2186              		.code	16
 2187              		.thumb_func
 2188              		.fpu softvfp
 2190              	HAL_TIM_PeriodElapsedCallback:
 2191              		@ args = 0, pretend = 0, frame = 0
 2192              		@ frame_needed = 0, uses_anonymous_args = 0
 2193              		@ link register save eliminated.
 2194              		@ sp needed
 2195 0000 7047     		bx	lr
 2197              		.section	.text.TIM_DMAPeriodElapsedCplt,"ax",%progbits
 2198              		.align	1
 2199              		.syntax unified
 2200              		.code	16
 2201              		.thumb_func
 2202              		.fpu softvfp
 2204              	TIM_DMAPeriodElapsedCplt:
ARM GAS  /tmp/cct6apLa.s 			page 38


 2205              		@ args = 0, pretend = 0, frame = 0
 2206              		@ frame_needed = 0, uses_anonymous_args = 0
 2207 0000 406A     		ldr	r0, [r0, #36]
 2208 0002 0122     		movs	r2, #1
 2209 0004 0300     		movs	r3, r0
 2210 0006 10B5     		push	{r4, lr}
 2211 0008 3D33     		adds	r3, r3, #61
 2212 000a 1A70     		strb	r2, [r3]
 2213 000c FFF7FEFF 		bl	HAL_TIM_PeriodElapsedCallback
 2214              		@ sp needed
 2215 0010 10BD     		pop	{r4, pc}
 2217              		.section	.text.HAL_TIM_OC_DelayElapsedCallback,"ax",%progbits
 2218              		.align	1
 2219              		.weak	HAL_TIM_OC_DelayElapsedCallback
 2220              		.syntax unified
 2221              		.code	16
 2222              		.thumb_func
 2223              		.fpu softvfp
 2225              	HAL_TIM_OC_DelayElapsedCallback:
 2226              		@ args = 0, pretend = 0, frame = 0
 2227              		@ frame_needed = 0, uses_anonymous_args = 0
 2228              		@ link register save eliminated.
 2229              		@ sp needed
 2230 0000 7047     		bx	lr
 2232              		.section	.text.HAL_TIM_IC_CaptureCallback,"ax",%progbits
 2233              		.align	1
 2234              		.weak	HAL_TIM_IC_CaptureCallback
 2235              		.syntax unified
 2236              		.code	16
 2237              		.thumb_func
 2238              		.fpu softvfp
 2240              	HAL_TIM_IC_CaptureCallback:
 2241              		@ args = 0, pretend = 0, frame = 0
 2242              		@ frame_needed = 0, uses_anonymous_args = 0
 2243              		@ link register save eliminated.
 2244              		@ sp needed
 2245 0000 7047     		bx	lr
 2247              		.section	.text.TIM_DMACaptureCplt,"ax",%progbits
 2248              		.align	1
 2249              		.global	TIM_DMACaptureCplt
 2250              		.syntax unified
 2251              		.code	16
 2252              		.thumb_func
 2253              		.fpu softvfp
 2255              	TIM_DMACaptureCplt:
 2256              		@ args = 0, pretend = 0, frame = 0
 2257              		@ frame_needed = 0, uses_anonymous_args = 0
 2258 0000 10B5     		push	{r4, lr}
 2259 0002 446A     		ldr	r4, [r0, #36]
 2260 0004 0123     		movs	r3, #1
 2261 0006 2200     		movs	r2, r4
 2262 0008 3D32     		adds	r2, r2, #61
 2263 000a 1370     		strb	r3, [r2]
 2264 000c 626A     		ldr	r2, [r4, #36]
 2265 000e 8242     		cmp	r2, r0
 2266 0010 06D1     		bne	.L235
 2267              	.L239:
ARM GAS  /tmp/cct6apLa.s 			page 39


 2268 0012 2377     		strb	r3, [r4, #28]
 2269              	.L236:
 2270 0014 2000     		movs	r0, r4
 2271              		@ sp needed
 2272 0016 FFF7FEFF 		bl	HAL_TIM_IC_CaptureCallback
 2273 001a 0023     		movs	r3, #0
 2274 001c 2377     		strb	r3, [r4, #28]
 2275 001e 10BD     		pop	{r4, pc}
 2276              	.L235:
 2277 0020 A36A     		ldr	r3, [r4, #40]
 2278 0022 8342     		cmp	r3, r0
 2279 0024 01D1     		bne	.L237
 2280 0026 0223     		movs	r3, #2
 2281 0028 F3E7     		b	.L239
 2282              	.L237:
 2283 002a E36A     		ldr	r3, [r4, #44]
 2284 002c 8342     		cmp	r3, r0
 2285 002e 01D1     		bne	.L238
 2286 0030 0423     		movs	r3, #4
 2287 0032 EEE7     		b	.L239
 2288              	.L238:
 2289 0034 236B     		ldr	r3, [r4, #48]
 2290 0036 8342     		cmp	r3, r0
 2291 0038 ECD1     		bne	.L236
 2292 003a 0823     		movs	r3, #8
 2293 003c E9E7     		b	.L239
 2295              		.section	.text.HAL_TIM_PWM_PulseFinishedCallback,"ax",%progbits
 2296              		.align	1
 2297              		.weak	HAL_TIM_PWM_PulseFinishedCallback
 2298              		.syntax unified
 2299              		.code	16
 2300              		.thumb_func
 2301              		.fpu softvfp
 2303              	HAL_TIM_PWM_PulseFinishedCallback:
 2304              		@ args = 0, pretend = 0, frame = 0
 2305              		@ frame_needed = 0, uses_anonymous_args = 0
 2306              		@ link register save eliminated.
 2307              		@ sp needed
 2308 0000 7047     		bx	lr
 2310              		.section	.text.TIM_DMADelayPulseCplt,"ax",%progbits
 2311              		.align	1
 2312              		.global	TIM_DMADelayPulseCplt
 2313              		.syntax unified
 2314              		.code	16
 2315              		.thumb_func
 2316              		.fpu softvfp
 2318              	TIM_DMADelayPulseCplt:
 2319              		@ args = 0, pretend = 0, frame = 0
 2320              		@ frame_needed = 0, uses_anonymous_args = 0
 2321 0000 10B5     		push	{r4, lr}
 2322 0002 446A     		ldr	r4, [r0, #36]
 2323 0004 0123     		movs	r3, #1
 2324 0006 2200     		movs	r2, r4
 2325 0008 3D32     		adds	r2, r2, #61
 2326 000a 1370     		strb	r3, [r2]
 2327 000c 626A     		ldr	r2, [r4, #36]
 2328 000e 8242     		cmp	r2, r0
ARM GAS  /tmp/cct6apLa.s 			page 40


 2329 0010 06D1     		bne	.L242
 2330              	.L246:
 2331 0012 2377     		strb	r3, [r4, #28]
 2332              	.L243:
 2333 0014 2000     		movs	r0, r4
 2334              		@ sp needed
 2335 0016 FFF7FEFF 		bl	HAL_TIM_PWM_PulseFinishedCallback
 2336 001a 0023     		movs	r3, #0
 2337 001c 2377     		strb	r3, [r4, #28]
 2338 001e 10BD     		pop	{r4, pc}
 2339              	.L242:
 2340 0020 A36A     		ldr	r3, [r4, #40]
 2341 0022 8342     		cmp	r3, r0
 2342 0024 01D1     		bne	.L244
 2343 0026 0223     		movs	r3, #2
 2344 0028 F3E7     		b	.L246
 2345              	.L244:
 2346 002a E36A     		ldr	r3, [r4, #44]
 2347 002c 8342     		cmp	r3, r0
 2348 002e 01D1     		bne	.L245
 2349 0030 0423     		movs	r3, #4
 2350 0032 EEE7     		b	.L246
 2351              	.L245:
 2352 0034 236B     		ldr	r3, [r4, #48]
 2353 0036 8342     		cmp	r3, r0
 2354 0038 ECD1     		bne	.L243
 2355 003a 0823     		movs	r3, #8
 2356 003c E9E7     		b	.L246
 2358              		.section	.text.HAL_TIM_TriggerCallback,"ax",%progbits
 2359              		.align	1
 2360              		.weak	HAL_TIM_TriggerCallback
 2361              		.syntax unified
 2362              		.code	16
 2363              		.thumb_func
 2364              		.fpu softvfp
 2366              	HAL_TIM_TriggerCallback:
 2367              		@ args = 0, pretend = 0, frame = 0
 2368              		@ frame_needed = 0, uses_anonymous_args = 0
 2369              		@ link register save eliminated.
 2370              		@ sp needed
 2371 0000 7047     		bx	lr
 2373              		.section	.text.HAL_TIM_IRQHandler,"ax",%progbits
 2374              		.align	1
 2375              		.global	HAL_TIM_IRQHandler
 2376              		.syntax unified
 2377              		.code	16
 2378              		.thumb_func
 2379              		.fpu softvfp
 2381              	HAL_TIM_IRQHandler:
 2382              		@ args = 0, pretend = 0, frame = 0
 2383              		@ frame_needed = 0, uses_anonymous_args = 0
 2384 0000 0222     		movs	r2, #2
 2385 0002 0368     		ldr	r3, [r0]
 2386 0004 10B5     		push	{r4, lr}
 2387 0006 1969     		ldr	r1, [r3, #16]
 2388 0008 0400     		movs	r4, r0
 2389 000a 1142     		tst	r1, r2
ARM GAS  /tmp/cct6apLa.s 			page 41


 2390 000c 0ED0     		beq	.L249
 2391 000e D968     		ldr	r1, [r3, #12]
 2392 0010 1142     		tst	r1, r2
 2393 0012 0BD0     		beq	.L249
 2394 0014 053A     		subs	r2, r2, #5
 2395 0016 1A61     		str	r2, [r3, #16]
 2396 0018 0432     		adds	r2, r2, #4
 2397 001a 0277     		strb	r2, [r0, #28]
 2398 001c 9B69     		ldr	r3, [r3, #24]
 2399 001e 9B07     		lsls	r3, r3, #30
 2400 0020 00D1     		bne	.LCB2463
 2401 0022 79E0     		b	.L250	@long jump
 2402              	.LCB2463:
 2403 0024 FFF7FEFF 		bl	HAL_TIM_IC_CaptureCallback
 2404              	.L251:
 2405 0028 0023     		movs	r3, #0
 2406 002a 2377     		strb	r3, [r4, #28]
 2407              	.L249:
 2408 002c 0422     		movs	r2, #4
 2409 002e 2368     		ldr	r3, [r4]
 2410 0030 1969     		ldr	r1, [r3, #16]
 2411 0032 1142     		tst	r1, r2
 2412 0034 10D0     		beq	.L252
 2413 0036 D968     		ldr	r1, [r3, #12]
 2414 0038 1142     		tst	r1, r2
 2415 003a 0DD0     		beq	.L252
 2416 003c 093A     		subs	r2, r2, #9
 2417 003e 1A61     		str	r2, [r3, #16]
 2418 0040 0732     		adds	r2, r2, #7
 2419 0042 2277     		strb	r2, [r4, #28]
 2420 0044 9A69     		ldr	r2, [r3, #24]
 2421 0046 C023     		movs	r3, #192
 2422 0048 9B00     		lsls	r3, r3, #2
 2423 004a 2000     		movs	r0, r4
 2424 004c 1A42     		tst	r2, r3
 2425 004e 69D0     		beq	.L253
 2426 0050 FFF7FEFF 		bl	HAL_TIM_IC_CaptureCallback
 2427              	.L254:
 2428 0054 0023     		movs	r3, #0
 2429 0056 2377     		strb	r3, [r4, #28]
 2430              	.L252:
 2431 0058 0822     		movs	r2, #8
 2432 005a 2368     		ldr	r3, [r4]
 2433 005c 1969     		ldr	r1, [r3, #16]
 2434 005e 1142     		tst	r1, r2
 2435 0060 0ED0     		beq	.L255
 2436 0062 D968     		ldr	r1, [r3, #12]
 2437 0064 1142     		tst	r1, r2
 2438 0066 0BD0     		beq	.L255
 2439 0068 113A     		subs	r2, r2, #17
 2440 006a 1A61     		str	r2, [r3, #16]
 2441 006c 0D32     		adds	r2, r2, #13
 2442 006e 2277     		strb	r2, [r4, #28]
 2443 0070 DB69     		ldr	r3, [r3, #28]
 2444 0072 2000     		movs	r0, r4
 2445 0074 9B07     		lsls	r3, r3, #30
 2446 0076 5BD0     		beq	.L256
ARM GAS  /tmp/cct6apLa.s 			page 42


 2447 0078 FFF7FEFF 		bl	HAL_TIM_IC_CaptureCallback
 2448              	.L257:
 2449 007c 0023     		movs	r3, #0
 2450 007e 2377     		strb	r3, [r4, #28]
 2451              	.L255:
 2452 0080 1022     		movs	r2, #16
 2453 0082 2368     		ldr	r3, [r4]
 2454 0084 1969     		ldr	r1, [r3, #16]
 2455 0086 1142     		tst	r1, r2
 2456 0088 10D0     		beq	.L258
 2457 008a D968     		ldr	r1, [r3, #12]
 2458 008c 1142     		tst	r1, r2
 2459 008e 0DD0     		beq	.L258
 2460 0090 213A     		subs	r2, r2, #33
 2461 0092 1A61     		str	r2, [r3, #16]
 2462 0094 1932     		adds	r2, r2, #25
 2463 0096 2277     		strb	r2, [r4, #28]
 2464 0098 DA69     		ldr	r2, [r3, #28]
 2465 009a C023     		movs	r3, #192
 2466 009c 9B00     		lsls	r3, r3, #2
 2467 009e 2000     		movs	r0, r4
 2468 00a0 1A42     		tst	r2, r3
 2469 00a2 4BD0     		beq	.L259
 2470 00a4 FFF7FEFF 		bl	HAL_TIM_IC_CaptureCallback
 2471              	.L260:
 2472 00a8 0023     		movs	r3, #0
 2473 00aa 2377     		strb	r3, [r4, #28]
 2474              	.L258:
 2475 00ac 0122     		movs	r2, #1
 2476 00ae 2368     		ldr	r3, [r4]
 2477 00b0 1969     		ldr	r1, [r3, #16]
 2478 00b2 1142     		tst	r1, r2
 2479 00b4 07D0     		beq	.L261
 2480 00b6 D968     		ldr	r1, [r3, #12]
 2481 00b8 1142     		tst	r1, r2
 2482 00ba 04D0     		beq	.L261
 2483 00bc 033A     		subs	r2, r2, #3
 2484 00be 2000     		movs	r0, r4
 2485 00c0 1A61     		str	r2, [r3, #16]
 2486 00c2 FFF7FEFF 		bl	HAL_TIM_PeriodElapsedCallback
 2487              	.L261:
 2488 00c6 8022     		movs	r2, #128
 2489 00c8 2368     		ldr	r3, [r4]
 2490 00ca 1969     		ldr	r1, [r3, #16]
 2491 00cc 1142     		tst	r1, r2
 2492 00ce 08D0     		beq	.L262
 2493 00d0 D968     		ldr	r1, [r3, #12]
 2494 00d2 1142     		tst	r1, r2
 2495 00d4 05D0     		beq	.L262
 2496 00d6 023A     		subs	r2, r2, #2
 2497 00d8 FF3A     		subs	r2, r2, #255
 2498 00da 2000     		movs	r0, r4
 2499 00dc 1A61     		str	r2, [r3, #16]
 2500 00de FFF7FEFF 		bl	HAL_TIMEx_BreakCallback
 2501              	.L262:
 2502 00e2 4022     		movs	r2, #64
 2503 00e4 2368     		ldr	r3, [r4]
ARM GAS  /tmp/cct6apLa.s 			page 43


 2504 00e6 1969     		ldr	r1, [r3, #16]
 2505 00e8 1142     		tst	r1, r2
 2506 00ea 07D0     		beq	.L263
 2507 00ec D968     		ldr	r1, [r3, #12]
 2508 00ee 1142     		tst	r1, r2
 2509 00f0 04D0     		beq	.L263
 2510 00f2 813A     		subs	r2, r2, #129
 2511 00f4 2000     		movs	r0, r4
 2512 00f6 1A61     		str	r2, [r3, #16]
 2513 00f8 FFF7FEFF 		bl	HAL_TIM_TriggerCallback
 2514              	.L263:
 2515 00fc 2022     		movs	r2, #32
 2516 00fe 2368     		ldr	r3, [r4]
 2517 0100 1969     		ldr	r1, [r3, #16]
 2518 0102 1142     		tst	r1, r2
 2519 0104 07D0     		beq	.L248
 2520 0106 D968     		ldr	r1, [r3, #12]
 2521 0108 1142     		tst	r1, r2
 2522 010a 04D0     		beq	.L248
 2523 010c 413A     		subs	r2, r2, #65
 2524 010e 2000     		movs	r0, r4
 2525 0110 1A61     		str	r2, [r3, #16]
 2526 0112 FFF7FEFF 		bl	HAL_TIMEx_CommutationCallback
 2527              	.L248:
 2528              		@ sp needed
 2529 0116 10BD     		pop	{r4, pc}
 2530              	.L250:
 2531 0118 FFF7FEFF 		bl	HAL_TIM_OC_DelayElapsedCallback
 2532 011c 2000     		movs	r0, r4
 2533 011e FFF7FEFF 		bl	HAL_TIM_PWM_PulseFinishedCallback
 2534 0122 81E7     		b	.L251
 2535              	.L253:
 2536 0124 FFF7FEFF 		bl	HAL_TIM_OC_DelayElapsedCallback
 2537 0128 2000     		movs	r0, r4
 2538 012a FFF7FEFF 		bl	HAL_TIM_PWM_PulseFinishedCallback
 2539 012e 91E7     		b	.L254
 2540              	.L256:
 2541 0130 FFF7FEFF 		bl	HAL_TIM_OC_DelayElapsedCallback
 2542 0134 2000     		movs	r0, r4
 2543 0136 FFF7FEFF 		bl	HAL_TIM_PWM_PulseFinishedCallback
 2544 013a 9FE7     		b	.L257
 2545              	.L259:
 2546 013c FFF7FEFF 		bl	HAL_TIM_OC_DelayElapsedCallback
 2547 0140 2000     		movs	r0, r4
 2548 0142 FFF7FEFF 		bl	HAL_TIM_PWM_PulseFinishedCallback
 2549 0146 AFE7     		b	.L260
 2551              		.section	.text.TIM_DMATriggerCplt,"ax",%progbits
 2552              		.align	1
 2553              		.syntax unified
 2554              		.code	16
 2555              		.thumb_func
 2556              		.fpu softvfp
 2558              	TIM_DMATriggerCplt:
 2559              		@ args = 0, pretend = 0, frame = 0
 2560              		@ frame_needed = 0, uses_anonymous_args = 0
 2561 0000 406A     		ldr	r0, [r0, #36]
 2562 0002 0122     		movs	r2, #1
ARM GAS  /tmp/cct6apLa.s 			page 44


 2563 0004 0300     		movs	r3, r0
 2564 0006 10B5     		push	{r4, lr}
 2565 0008 3D33     		adds	r3, r3, #61
 2566 000a 1A70     		strb	r2, [r3]
 2567 000c FFF7FEFF 		bl	HAL_TIM_TriggerCallback
 2568              		@ sp needed
 2569 0010 10BD     		pop	{r4, pc}
 2571              		.section	.text.HAL_TIM_ErrorCallback,"ax",%progbits
 2572              		.align	1
 2573              		.weak	HAL_TIM_ErrorCallback
 2574              		.syntax unified
 2575              		.code	16
 2576              		.thumb_func
 2577              		.fpu softvfp
 2579              	HAL_TIM_ErrorCallback:
 2580              		@ args = 0, pretend = 0, frame = 0
 2581              		@ frame_needed = 0, uses_anonymous_args = 0
 2582              		@ link register save eliminated.
 2583              		@ sp needed
 2584 0000 7047     		bx	lr
 2586              		.section	.text.TIM_DMAError,"ax",%progbits
 2587              		.align	1
 2588              		.global	TIM_DMAError
 2589              		.syntax unified
 2590              		.code	16
 2591              		.thumb_func
 2592              		.fpu softvfp
 2594              	TIM_DMAError:
 2595              		@ args = 0, pretend = 0, frame = 0
 2596              		@ frame_needed = 0, uses_anonymous_args = 0
 2597 0000 406A     		ldr	r0, [r0, #36]
 2598 0002 0122     		movs	r2, #1
 2599 0004 0300     		movs	r3, r0
 2600 0006 10B5     		push	{r4, lr}
 2601 0008 3D33     		adds	r3, r3, #61
 2602 000a 1A70     		strb	r2, [r3]
 2603 000c FFF7FEFF 		bl	HAL_TIM_ErrorCallback
 2604              		@ sp needed
 2605 0010 10BD     		pop	{r4, pc}
 2607              		.section	.text.HAL_TIM_Base_GetState,"ax",%progbits
 2608              		.align	1
 2609              		.global	HAL_TIM_Base_GetState
 2610              		.syntax unified
 2611              		.code	16
 2612              		.thumb_func
 2613              		.fpu softvfp
 2615              	HAL_TIM_Base_GetState:
 2616              		@ args = 0, pretend = 0, frame = 0
 2617              		@ frame_needed = 0, uses_anonymous_args = 0
 2618              		@ link register save eliminated.
 2619 0000 3D30     		adds	r0, r0, #61
 2620 0002 0078     		ldrb	r0, [r0]
 2621              		@ sp needed
 2622 0004 C0B2     		uxtb	r0, r0
 2623 0006 7047     		bx	lr
 2625              		.section	.text.HAL_TIM_OC_GetState,"ax",%progbits
 2626              		.align	1
ARM GAS  /tmp/cct6apLa.s 			page 45


 2627              		.global	HAL_TIM_OC_GetState
 2628              		.syntax unified
 2629              		.code	16
 2630              		.thumb_func
 2631              		.fpu softvfp
 2633              	HAL_TIM_OC_GetState:
 2634              		@ args = 0, pretend = 0, frame = 0
 2635              		@ frame_needed = 0, uses_anonymous_args = 0
 2636              		@ link register save eliminated.
 2637 0000 3D30     		adds	r0, r0, #61
 2638 0002 0078     		ldrb	r0, [r0]
 2639              		@ sp needed
 2640 0004 C0B2     		uxtb	r0, r0
 2641 0006 7047     		bx	lr
 2643              		.section	.text.HAL_TIM_PWM_GetState,"ax",%progbits
 2644              		.align	1
 2645              		.global	HAL_TIM_PWM_GetState
 2646              		.syntax unified
 2647              		.code	16
 2648              		.thumb_func
 2649              		.fpu softvfp
 2651              	HAL_TIM_PWM_GetState:
 2652              		@ args = 0, pretend = 0, frame = 0
 2653              		@ frame_needed = 0, uses_anonymous_args = 0
 2654              		@ link register save eliminated.
 2655 0000 3D30     		adds	r0, r0, #61
 2656 0002 0078     		ldrb	r0, [r0]
 2657              		@ sp needed
 2658 0004 C0B2     		uxtb	r0, r0
 2659 0006 7047     		bx	lr
 2661              		.section	.text.HAL_TIM_IC_GetState,"ax",%progbits
 2662              		.align	1
 2663              		.global	HAL_TIM_IC_GetState
 2664              		.syntax unified
 2665              		.code	16
 2666              		.thumb_func
 2667              		.fpu softvfp
 2669              	HAL_TIM_IC_GetState:
 2670              		@ args = 0, pretend = 0, frame = 0
 2671              		@ frame_needed = 0, uses_anonymous_args = 0
 2672              		@ link register save eliminated.
 2673 0000 3D30     		adds	r0, r0, #61
 2674 0002 0078     		ldrb	r0, [r0]
 2675              		@ sp needed
 2676 0004 C0B2     		uxtb	r0, r0
 2677 0006 7047     		bx	lr
 2679              		.section	.text.HAL_TIM_OnePulse_GetState,"ax",%progbits
 2680              		.align	1
 2681              		.global	HAL_TIM_OnePulse_GetState
 2682              		.syntax unified
 2683              		.code	16
 2684              		.thumb_func
 2685              		.fpu softvfp
 2687              	HAL_TIM_OnePulse_GetState:
 2688              		@ args = 0, pretend = 0, frame = 0
 2689              		@ frame_needed = 0, uses_anonymous_args = 0
 2690              		@ link register save eliminated.
ARM GAS  /tmp/cct6apLa.s 			page 46


 2691 0000 3D30     		adds	r0, r0, #61
 2692 0002 0078     		ldrb	r0, [r0]
 2693              		@ sp needed
 2694 0004 C0B2     		uxtb	r0, r0
 2695 0006 7047     		bx	lr
 2697              		.section	.text.HAL_TIM_Encoder_GetState,"ax",%progbits
 2698              		.align	1
 2699              		.global	HAL_TIM_Encoder_GetState
 2700              		.syntax unified
 2701              		.code	16
 2702              		.thumb_func
 2703              		.fpu softvfp
 2705              	HAL_TIM_Encoder_GetState:
 2706              		@ args = 0, pretend = 0, frame = 0
 2707              		@ frame_needed = 0, uses_anonymous_args = 0
 2708              		@ link register save eliminated.
 2709 0000 3D30     		adds	r0, r0, #61
 2710 0002 0078     		ldrb	r0, [r0]
 2711              		@ sp needed
 2712 0004 C0B2     		uxtb	r0, r0
 2713 0006 7047     		bx	lr
 2715              		.section	.text.TIM_Base_SetConfig,"ax",%progbits
 2716              		.align	1
 2717              		.global	TIM_Base_SetConfig
 2718              		.syntax unified
 2719              		.code	16
 2720              		.thumb_func
 2721              		.fpu softvfp
 2723              	TIM_Base_SetConfig:
 2724              		@ args = 0, pretend = 0, frame = 0
 2725              		@ frame_needed = 0, uses_anonymous_args = 0
 2726 0000 204A     		ldr	r2, .L329
 2727 0002 10B5     		push	{r4, lr}
 2728 0004 0368     		ldr	r3, [r0]
 2729 0006 9042     		cmp	r0, r2
 2730 0008 06D0     		beq	.L323
 2731 000a 8024     		movs	r4, #128
 2732 000c E405     		lsls	r4, r4, #23
 2733 000e A042     		cmp	r0, r4
 2734 0010 02D0     		beq	.L323
 2735 0012 1D4C     		ldr	r4, .L329+4
 2736 0014 A042     		cmp	r0, r4
 2737 0016 0CD1     		bne	.L324
 2738              	.L323:
 2739 0018 7024     		movs	r4, #112
 2740 001a A343     		bics	r3, r4
 2741 001c 4C68     		ldr	r4, [r1, #4]
 2742 001e 2343     		orrs	r3, r4
 2743 0020 9042     		cmp	r0, r2
 2744 0022 12D0     		beq	.L325
 2745 0024 8024     		movs	r4, #128
 2746 0026 E405     		lsls	r4, r4, #23
 2747 0028 A042     		cmp	r0, r4
 2748 002a 0ED0     		beq	.L325
 2749 002c 164C     		ldr	r4, .L329+4
 2750 002e A042     		cmp	r0, r4
 2751 0030 0BD0     		beq	.L325
ARM GAS  /tmp/cct6apLa.s 			page 47


 2752              	.L324:
 2753 0032 164C     		ldr	r4, .L329+8
 2754 0034 A042     		cmp	r0, r4
 2755 0036 08D0     		beq	.L325
 2756 0038 154C     		ldr	r4, .L329+12
 2757 003a A042     		cmp	r0, r4
 2758 003c 05D0     		beq	.L325
 2759 003e 154C     		ldr	r4, .L329+16
 2760 0040 A042     		cmp	r0, r4
 2761 0042 02D0     		beq	.L325
 2762 0044 144C     		ldr	r4, .L329+20
 2763 0046 A042     		cmp	r0, r4
 2764 0048 03D1     		bne	.L326
 2765              	.L325:
 2766 004a 144C     		ldr	r4, .L329+24
 2767 004c 2340     		ands	r3, r4
 2768 004e CC68     		ldr	r4, [r1, #12]
 2769 0050 2343     		orrs	r3, r4
 2770              	.L326:
 2771 0052 8024     		movs	r4, #128
 2772 0054 A343     		bics	r3, r4
 2773 0056 4C69     		ldr	r4, [r1, #20]
 2774 0058 2343     		orrs	r3, r4
 2775 005a 0360     		str	r3, [r0]
 2776 005c 8B68     		ldr	r3, [r1, #8]
 2777 005e C362     		str	r3, [r0, #44]
 2778 0060 0B68     		ldr	r3, [r1]
 2779 0062 8362     		str	r3, [r0, #40]
 2780 0064 9042     		cmp	r0, r2
 2781 0066 08D0     		beq	.L327
 2782 0068 094B     		ldr	r3, .L329+12
 2783 006a 9842     		cmp	r0, r3
 2784 006c 05D0     		beq	.L327
 2785 006e 094B     		ldr	r3, .L329+16
 2786 0070 9842     		cmp	r0, r3
 2787 0072 02D0     		beq	.L327
 2788 0074 084B     		ldr	r3, .L329+20
 2789 0076 9842     		cmp	r0, r3
 2790 0078 01D1     		bne	.L328
 2791              	.L327:
 2792 007a 0B69     		ldr	r3, [r1, #16]
 2793 007c 0363     		str	r3, [r0, #48]
 2794              	.L328:
 2795 007e 0123     		movs	r3, #1
 2796              		@ sp needed
 2797 0080 4361     		str	r3, [r0, #20]
 2798 0082 10BD     		pop	{r4, pc}
 2799              	.L330:
 2800              		.align	2
 2801              	.L329:
 2802 0084 002C0140 		.word	1073818624
 2803 0088 00040040 		.word	1073742848
 2804 008c 00200040 		.word	1073750016
 2805 0090 00400140 		.word	1073823744
 2806 0094 00440140 		.word	1073824768
 2807 0098 00480140 		.word	1073825792
 2808 009c FFFCFFFF 		.word	-769
ARM GAS  /tmp/cct6apLa.s 			page 48


 2810              		.section	.text.HAL_TIM_Base_Init,"ax",%progbits
 2811              		.align	1
 2812              		.global	HAL_TIM_Base_Init
 2813              		.syntax unified
 2814              		.code	16
 2815              		.thumb_func
 2816              		.fpu softvfp
 2818              	HAL_TIM_Base_Init:
 2819              		@ args = 0, pretend = 0, frame = 0
 2820              		@ frame_needed = 0, uses_anonymous_args = 0
 2821 0000 70B5     		push	{r4, r5, r6, lr}
 2822 0002 0400     		movs	r4, r0
 2823 0004 0120     		movs	r0, #1
 2824 0006 002C     		cmp	r4, #0
 2825 0008 14D0     		beq	.L332
 2826 000a 2500     		movs	r5, r4
 2827 000c 3D35     		adds	r5, r5, #61
 2828 000e 2B78     		ldrb	r3, [r5]
 2829 0010 DAB2     		uxtb	r2, r3
 2830 0012 002B     		cmp	r3, #0
 2831 0014 05D1     		bne	.L333
 2832 0016 2300     		movs	r3, r4
 2833 0018 3C33     		adds	r3, r3, #60
 2834 001a 2000     		movs	r0, r4
 2835 001c 1A70     		strb	r2, [r3]
 2836 001e FFF7FEFF 		bl	HAL_TIM_Base_MspInit
 2837              	.L333:
 2838 0022 0223     		movs	r3, #2
 2839 0024 2B70     		strb	r3, [r5]
 2840 0026 2068     		ldr	r0, [r4]
 2841 0028 211D     		adds	r1, r4, #4
 2842 002a FFF7FEFF 		bl	TIM_Base_SetConfig
 2843 002e 0123     		movs	r3, #1
 2844 0030 0020     		movs	r0, #0
 2845 0032 2B70     		strb	r3, [r5]
 2846              	.L332:
 2847              		@ sp needed
 2848 0034 70BD     		pop	{r4, r5, r6, pc}
 2850              		.section	.text.HAL_TIM_OC_Init,"ax",%progbits
 2851              		.align	1
 2852              		.global	HAL_TIM_OC_Init
 2853              		.syntax unified
 2854              		.code	16
 2855              		.thumb_func
 2856              		.fpu softvfp
 2858              	HAL_TIM_OC_Init:
 2859              		@ args = 0, pretend = 0, frame = 0
 2860              		@ frame_needed = 0, uses_anonymous_args = 0
 2861 0000 70B5     		push	{r4, r5, r6, lr}
 2862 0002 0400     		movs	r4, r0
 2863 0004 0120     		movs	r0, #1
 2864 0006 002C     		cmp	r4, #0
 2865 0008 14D0     		beq	.L336
 2866 000a 2500     		movs	r5, r4
 2867 000c 3D35     		adds	r5, r5, #61
 2868 000e 2B78     		ldrb	r3, [r5]
 2869 0010 DAB2     		uxtb	r2, r3
ARM GAS  /tmp/cct6apLa.s 			page 49


 2870 0012 002B     		cmp	r3, #0
 2871 0014 05D1     		bne	.L337
 2872 0016 2300     		movs	r3, r4
 2873 0018 3C33     		adds	r3, r3, #60
 2874 001a 2000     		movs	r0, r4
 2875 001c 1A70     		strb	r2, [r3]
 2876 001e FFF7FEFF 		bl	HAL_TIM_OC_MspInit
 2877              	.L337:
 2878 0022 0223     		movs	r3, #2
 2879 0024 2B70     		strb	r3, [r5]
 2880 0026 2068     		ldr	r0, [r4]
 2881 0028 211D     		adds	r1, r4, #4
 2882 002a FFF7FEFF 		bl	TIM_Base_SetConfig
 2883 002e 0123     		movs	r3, #1
 2884 0030 0020     		movs	r0, #0
 2885 0032 2B70     		strb	r3, [r5]
 2886              	.L336:
 2887              		@ sp needed
 2888 0034 70BD     		pop	{r4, r5, r6, pc}
 2890              		.section	.text.HAL_TIM_PWM_Init,"ax",%progbits
 2891              		.align	1
 2892              		.global	HAL_TIM_PWM_Init
 2893              		.syntax unified
 2894              		.code	16
 2895              		.thumb_func
 2896              		.fpu softvfp
 2898              	HAL_TIM_PWM_Init:
 2899              		@ args = 0, pretend = 0, frame = 0
 2900              		@ frame_needed = 0, uses_anonymous_args = 0
 2901 0000 70B5     		push	{r4, r5, r6, lr}
 2902 0002 0400     		movs	r4, r0
 2903 0004 0120     		movs	r0, #1
 2904 0006 002C     		cmp	r4, #0
 2905 0008 14D0     		beq	.L340
 2906 000a 2500     		movs	r5, r4
 2907 000c 3D35     		adds	r5, r5, #61
 2908 000e 2B78     		ldrb	r3, [r5]
 2909 0010 DAB2     		uxtb	r2, r3
 2910 0012 002B     		cmp	r3, #0
 2911 0014 05D1     		bne	.L341
 2912 0016 2300     		movs	r3, r4
 2913 0018 3C33     		adds	r3, r3, #60
 2914 001a 2000     		movs	r0, r4
 2915 001c 1A70     		strb	r2, [r3]
 2916 001e FFF7FEFF 		bl	HAL_TIM_PWM_MspInit
 2917              	.L341:
 2918 0022 0223     		movs	r3, #2
 2919 0024 2B70     		strb	r3, [r5]
 2920 0026 2068     		ldr	r0, [r4]
 2921 0028 211D     		adds	r1, r4, #4
 2922 002a FFF7FEFF 		bl	TIM_Base_SetConfig
 2923 002e 0123     		movs	r3, #1
 2924 0030 0020     		movs	r0, #0
 2925 0032 2B70     		strb	r3, [r5]
 2926              	.L340:
 2927              		@ sp needed
 2928 0034 70BD     		pop	{r4, r5, r6, pc}
ARM GAS  /tmp/cct6apLa.s 			page 50


 2930              		.section	.text.HAL_TIM_IC_Init,"ax",%progbits
 2931              		.align	1
 2932              		.global	HAL_TIM_IC_Init
 2933              		.syntax unified
 2934              		.code	16
 2935              		.thumb_func
 2936              		.fpu softvfp
 2938              	HAL_TIM_IC_Init:
 2939              		@ args = 0, pretend = 0, frame = 0
 2940              		@ frame_needed = 0, uses_anonymous_args = 0
 2941 0000 70B5     		push	{r4, r5, r6, lr}
 2942 0002 0400     		movs	r4, r0
 2943 0004 0120     		movs	r0, #1
 2944 0006 002C     		cmp	r4, #0
 2945 0008 14D0     		beq	.L344
 2946 000a 2500     		movs	r5, r4
 2947 000c 3D35     		adds	r5, r5, #61
 2948 000e 2B78     		ldrb	r3, [r5]
 2949 0010 DAB2     		uxtb	r2, r3
 2950 0012 002B     		cmp	r3, #0
 2951 0014 05D1     		bne	.L345
 2952 0016 2300     		movs	r3, r4
 2953 0018 3C33     		adds	r3, r3, #60
 2954 001a 2000     		movs	r0, r4
 2955 001c 1A70     		strb	r2, [r3]
 2956 001e FFF7FEFF 		bl	HAL_TIM_IC_MspInit
 2957              	.L345:
 2958 0022 0223     		movs	r3, #2
 2959 0024 2B70     		strb	r3, [r5]
 2960 0026 2068     		ldr	r0, [r4]
 2961 0028 211D     		adds	r1, r4, #4
 2962 002a FFF7FEFF 		bl	TIM_Base_SetConfig
 2963 002e 0123     		movs	r3, #1
 2964 0030 0020     		movs	r0, #0
 2965 0032 2B70     		strb	r3, [r5]
 2966              	.L344:
 2967              		@ sp needed
 2968 0034 70BD     		pop	{r4, r5, r6, pc}
 2970              		.section	.text.HAL_TIM_OnePulse_Init,"ax",%progbits
 2971              		.align	1
 2972              		.global	HAL_TIM_OnePulse_Init
 2973              		.syntax unified
 2974              		.code	16
 2975              		.thumb_func
 2976              		.fpu softvfp
 2978              	HAL_TIM_OnePulse_Init:
 2979              		@ args = 0, pretend = 0, frame = 0
 2980              		@ frame_needed = 0, uses_anonymous_args = 0
 2981 0000 70B5     		push	{r4, r5, r6, lr}
 2982 0002 0400     		movs	r4, r0
 2983 0004 0E00     		movs	r6, r1
 2984 0006 0120     		movs	r0, #1
 2985 0008 002C     		cmp	r4, #0
 2986 000a 1CD0     		beq	.L348
 2987 000c 2500     		movs	r5, r4
 2988 000e 3D35     		adds	r5, r5, #61
 2989 0010 2B78     		ldrb	r3, [r5]
ARM GAS  /tmp/cct6apLa.s 			page 51


 2990 0012 DAB2     		uxtb	r2, r3
 2991 0014 002B     		cmp	r3, #0
 2992 0016 05D1     		bne	.L349
 2993 0018 2300     		movs	r3, r4
 2994 001a 3C33     		adds	r3, r3, #60
 2995 001c 2000     		movs	r0, r4
 2996 001e 1A70     		strb	r2, [r3]
 2997 0020 FFF7FEFF 		bl	HAL_TIM_OnePulse_MspInit
 2998              	.L349:
 2999 0024 0223     		movs	r3, #2
 3000 0026 2B70     		strb	r3, [r5]
 3001 0028 2068     		ldr	r0, [r4]
 3002 002a 211D     		adds	r1, r4, #4
 3003 002c FFF7FEFF 		bl	TIM_Base_SetConfig
 3004 0030 0821     		movs	r1, #8
 3005 0032 2368     		ldr	r3, [r4]
 3006 0034 0020     		movs	r0, #0
 3007 0036 1A68     		ldr	r2, [r3]
 3008 0038 8A43     		bics	r2, r1
 3009 003a 1A60     		str	r2, [r3]
 3010 003c 1968     		ldr	r1, [r3]
 3011 003e 3143     		orrs	r1, r6
 3012 0040 1960     		str	r1, [r3]
 3013 0042 0123     		movs	r3, #1
 3014 0044 2B70     		strb	r3, [r5]
 3015              	.L348:
 3016              		@ sp needed
 3017 0046 70BD     		pop	{r4, r5, r6, pc}
 3019              		.section	.text.HAL_TIM_Encoder_Init,"ax",%progbits
 3020              		.align	1
 3021              		.global	HAL_TIM_Encoder_Init
 3022              		.syntax unified
 3023              		.code	16
 3024              		.thumb_func
 3025              		.fpu softvfp
 3027              	HAL_TIM_Encoder_Init:
 3028              		@ args = 0, pretend = 0, frame = 0
 3029              		@ frame_needed = 0, uses_anonymous_args = 0
 3030 0000 F8B5     		push	{r3, r4, r5, r6, r7, lr}
 3031 0002 0600     		movs	r6, r0
 3032 0004 0C00     		movs	r4, r1
 3033 0006 0120     		movs	r0, #1
 3034 0008 002E     		cmp	r6, #0
 3035 000a 3DD0     		beq	.L352
 3036 000c 3500     		movs	r5, r6
 3037 000e 3D35     		adds	r5, r5, #61
 3038 0010 2B78     		ldrb	r3, [r5]
 3039 0012 DAB2     		uxtb	r2, r3
 3040 0014 002B     		cmp	r3, #0
 3041 0016 05D1     		bne	.L353
 3042 0018 3300     		movs	r3, r6
 3043 001a 3C33     		adds	r3, r3, #60
 3044 001c 3000     		movs	r0, r6
 3045 001e 1A70     		strb	r2, [r3]
 3046 0020 FFF7FEFF 		bl	HAL_TIM_Encoder_MspInit
 3047              	.L353:
 3048 0024 0223     		movs	r3, #2
ARM GAS  /tmp/cct6apLa.s 			page 52


 3049 0026 3100     		movs	r1, r6
 3050 0028 0722     		movs	r2, #7
 3051 002a 2B70     		strb	r3, [r5]
 3052 002c 01C9     		ldmia	r1!, {r0}
 3053 002e 8368     		ldr	r3, [r0, #8]
 3054 0030 9343     		bics	r3, r2
 3055 0032 8360     		str	r3, [r0, #8]
 3056 0034 FFF7FEFF 		bl	TIM_Base_SetConfig
 3057 0038 3268     		ldr	r2, [r6]
 3058 003a 2368     		ldr	r3, [r4]
 3059 003c 9168     		ldr	r1, [r2, #8]
 3060 003e 9669     		ldr	r6, [r2, #24]
 3061 0040 1943     		orrs	r1, r3
 3062 0042 124B     		ldr	r3, .L355
 3063 0044 A768     		ldr	r7, [r4, #8]
 3064 0046 1E40     		ands	r6, r3
 3065 0048 A369     		ldr	r3, [r4, #24]
 3066 004a 106A     		ldr	r0, [r2, #32]
 3067 004c 1B02     		lsls	r3, r3, #8
 3068 004e 3B43     		orrs	r3, r7
 3069 0050 3343     		orrs	r3, r6
 3070 0052 0F4E     		ldr	r6, .L355+4
 3071 0054 2769     		ldr	r7, [r4, #16]
 3072 0056 1E40     		ands	r6, r3
 3073 0058 E369     		ldr	r3, [r4, #28]
 3074 005a 3F01     		lsls	r7, r7, #4
 3075 005c 1B02     		lsls	r3, r3, #8
 3076 005e 3B43     		orrs	r3, r7
 3077 0060 E768     		ldr	r7, [r4, #12]
 3078 0062 3B43     		orrs	r3, r7
 3079 0064 276A     		ldr	r7, [r4, #32]
 3080 0066 3F03     		lsls	r7, r7, #12
 3081 0068 3B43     		orrs	r3, r7
 3082 006a 3343     		orrs	r3, r6
 3083 006c AA26     		movs	r6, #170
 3084 006e B043     		bics	r0, r6
 3085 0070 0600     		movs	r6, r0
 3086 0072 6069     		ldr	r0, [r4, #20]
 3087 0074 6468     		ldr	r4, [r4, #4]
 3088 0076 0001     		lsls	r0, r0, #4
 3089 0078 2043     		orrs	r0, r4
 3090 007a 9160     		str	r1, [r2, #8]
 3091 007c 3043     		orrs	r0, r6
 3092 007e 9361     		str	r3, [r2, #24]
 3093 0080 0123     		movs	r3, #1
 3094 0082 1062     		str	r0, [r2, #32]
 3095 0084 0020     		movs	r0, #0
 3096 0086 2B70     		strb	r3, [r5]
 3097              	.L352:
 3098              		@ sp needed
 3099 0088 F8BD     		pop	{r3, r4, r5, r6, r7, pc}
 3100              	.L356:
 3101 008a C046     		.align	2
 3102              	.L355:
 3103 008c FCFCFFFF 		.word	-772
 3104 0090 0303FFFF 		.word	-64765
 3106              		.section	.text.TIM_OC2_SetConfig,"ax",%progbits
ARM GAS  /tmp/cct6apLa.s 			page 53


 3107              		.align	1
 3108              		.global	TIM_OC2_SetConfig
 3109              		.syntax unified
 3110              		.code	16
 3111              		.thumb_func
 3112              		.fpu softvfp
 3114              	TIM_OC2_SetConfig:
 3115              		@ args = 0, pretend = 0, frame = 0
 3116              		@ frame_needed = 0, uses_anonymous_args = 0
 3117 0000 1022     		movs	r2, #16
 3118 0002 036A     		ldr	r3, [r0, #32]
 3119 0004 70B5     		push	{r4, r5, r6, lr}
 3120 0006 9343     		bics	r3, r2
 3121 0008 0362     		str	r3, [r0, #32]
 3122 000a 026A     		ldr	r2, [r0, #32]
 3123 000c 164C     		ldr	r4, .L364
 3124 000e 4368     		ldr	r3, [r0, #4]
 3125 0010 8569     		ldr	r5, [r0, #24]
 3126 0012 2540     		ands	r5, r4
 3127 0014 0C68     		ldr	r4, [r1]
 3128 0016 2402     		lsls	r4, r4, #8
 3129 0018 2543     		orrs	r5, r4
 3130 001a 2024     		movs	r4, #32
 3131 001c A243     		bics	r2, r4
 3132 001e 8C68     		ldr	r4, [r1, #8]
 3133 0020 2401     		lsls	r4, r4, #4
 3134 0022 2243     		orrs	r2, r4
 3135 0024 114C     		ldr	r4, .L364+4
 3136 0026 A042     		cmp	r0, r4
 3137 0028 0FD1     		bne	.L358
 3138 002a 8024     		movs	r4, #128
 3139 002c A243     		bics	r2, r4
 3140 002e 1400     		movs	r4, r2
 3141 0030 CA68     		ldr	r2, [r1, #12]
 3142 0032 1201     		lsls	r2, r2, #4
 3143 0034 2243     		orrs	r2, r4
 3144 0036 4024     		movs	r4, #64
 3145 0038 A243     		bics	r2, r4
 3146              	.L359:
 3147 003a 0D4E     		ldr	r6, .L364+8
 3148 003c 4C69     		ldr	r4, [r1, #20]
 3149 003e 1E40     		ands	r6, r3
 3150 0040 8B69     		ldr	r3, [r1, #24]
 3151 0042 2343     		orrs	r3, r4
 3152 0044 9B00     		lsls	r3, r3, #2
 3153 0046 3343     		orrs	r3, r6
 3154 0048 08E0     		b	.L360
 3155              	.L358:
 3156 004a 0A4C     		ldr	r4, .L364+12
 3157 004c A042     		cmp	r0, r4
 3158 004e F4D0     		beq	.L359
 3159 0050 094C     		ldr	r4, .L364+16
 3160 0052 A042     		cmp	r0, r4
 3161 0054 F1D0     		beq	.L359
 3162 0056 094C     		ldr	r4, .L364+20
 3163 0058 A042     		cmp	r0, r4
 3164 005a EED0     		beq	.L359
ARM GAS  /tmp/cct6apLa.s 			page 54


 3165              	.L360:
 3166              		@ sp needed
 3167 005c 4360     		str	r3, [r0, #4]
 3168 005e 4B68     		ldr	r3, [r1, #4]
 3169 0060 8561     		str	r5, [r0, #24]
 3170 0062 8363     		str	r3, [r0, #56]
 3171 0064 0262     		str	r2, [r0, #32]
 3172 0066 70BD     		pop	{r4, r5, r6, pc}
 3173              	.L365:
 3174              		.align	2
 3175              	.L364:
 3176 0068 FF8CFFFF 		.word	-29441
 3177 006c 002C0140 		.word	1073818624
 3178 0070 FFF3FFFF 		.word	-3073
 3179 0074 00400140 		.word	1073823744
 3180 0078 00440140 		.word	1073824768
 3181 007c 00480140 		.word	1073825792
 3183              		.section	.text.HAL_TIM_OC_ConfigChannel,"ax",%progbits
 3184              		.align	1
 3185              		.global	HAL_TIM_OC_ConfigChannel
 3186              		.syntax unified
 3187              		.code	16
 3188              		.thumb_func
 3189              		.fpu softvfp
 3191              	HAL_TIM_OC_ConfigChannel:
 3192              		@ args = 0, pretend = 0, frame = 0
 3193              		@ frame_needed = 0, uses_anonymous_args = 0
 3194 0000 70B5     		push	{r4, r5, r6, lr}
 3195 0002 0400     		movs	r4, r0
 3196 0004 0226     		movs	r6, #2
 3197 0006 3C34     		adds	r4, r4, #60
 3198 0008 2578     		ldrb	r5, [r4]
 3199 000a 0300     		movs	r3, r0
 3200 000c 3000     		movs	r0, r6
 3201 000e 012D     		cmp	r5, #1
 3202 0010 0FD0     		beq	.L367
 3203 0012 1D00     		movs	r5, r3
 3204 0014 0138     		subs	r0, r0, #1
 3205 0016 3D35     		adds	r5, r5, #61
 3206 0018 2070     		strb	r0, [r4]
 3207 001a 2E70     		strb	r6, [r5]
 3208 001c 082A     		cmp	r2, #8
 3209 001e 17D0     		beq	.L368
 3210 0020 08D8     		bhi	.L369
 3211 0022 002A     		cmp	r2, #0
 3212 0024 0CD0     		beq	.L370
 3213 0026 042A     		cmp	r2, #4
 3214 0028 0ED0     		beq	.L371
 3215              	.L372:
 3216 002a 0123     		movs	r3, #1
 3217 002c 0020     		movs	r0, #0
 3218 002e 2B70     		strb	r3, [r5]
 3219 0030 2070     		strb	r0, [r4]
 3220              	.L367:
 3221              		@ sp needed
 3222 0032 70BD     		pop	{r4, r5, r6, pc}
 3223              	.L369:
ARM GAS  /tmp/cct6apLa.s 			page 55


 3224 0034 0C2A     		cmp	r2, #12
 3225 0036 F8D1     		bne	.L372
 3226 0038 1868     		ldr	r0, [r3]
 3227 003a FFF7FEFF 		bl	TIM_OC4_SetConfig
 3228 003e F4E7     		b	.L372
 3229              	.L370:
 3230 0040 1868     		ldr	r0, [r3]
 3231 0042 FFF7FEFF 		bl	TIM_OC1_SetConfig
 3232 0046 F0E7     		b	.L372
 3233              	.L371:
 3234 0048 1868     		ldr	r0, [r3]
 3235 004a FFF7FEFF 		bl	TIM_OC2_SetConfig
 3236 004e ECE7     		b	.L372
 3237              	.L368:
 3238 0050 1868     		ldr	r0, [r3]
 3239 0052 FFF7FEFF 		bl	TIM_OC3_SetConfig
 3240 0056 E8E7     		b	.L372
 3242              		.section	.text.HAL_TIM_PWM_ConfigChannel,"ax",%progbits
 3243              		.align	1
 3244              		.global	HAL_TIM_PWM_ConfigChannel
 3245              		.syntax unified
 3246              		.code	16
 3247              		.thumb_func
 3248              		.fpu softvfp
 3250              	HAL_TIM_PWM_ConfigChannel:
 3251              		@ args = 0, pretend = 0, frame = 8
 3252              		@ frame_needed = 0, uses_anonymous_args = 0
 3253 0000 F7B5     		push	{r0, r1, r2, r4, r5, r6, r7, lr}
 3254 0002 0700     		movs	r7, r0
 3255 0004 0223     		movs	r3, #2
 3256 0006 3C37     		adds	r7, r7, #60
 3257 0008 1600     		movs	r6, r2
 3258 000a 3A78     		ldrb	r2, [r7]
 3259 000c 0400     		movs	r4, r0
 3260 000e 0D00     		movs	r5, r1
 3261 0010 1800     		movs	r0, r3
 3262 0012 012A     		cmp	r2, #1
 3263 0014 11D0     		beq	.L376
 3264 0016 0122     		movs	r2, #1
 3265 0018 3A70     		strb	r2, [r7]
 3266 001a 2200     		movs	r2, r4
 3267 001c 3D32     		adds	r2, r2, #61
 3268 001e 0192     		str	r2, [sp, #4]
 3269 0020 1370     		strb	r3, [r2]
 3270 0022 082E     		cmp	r6, #8
 3271 0024 3FD0     		beq	.L377
 3272 0026 09D8     		bhi	.L378
 3273 0028 002E     		cmp	r6, #0
 3274 002a 1AD0     		beq	.L379
 3275 002c 042E     		cmp	r6, #4
 3276 002e 29D0     		beq	.L380
 3277              	.L381:
 3278 0030 0123     		movs	r3, #1
 3279 0032 0020     		movs	r0, #0
 3280 0034 019A     		ldr	r2, [sp, #4]
 3281 0036 1370     		strb	r3, [r2]
 3282 0038 3870     		strb	r0, [r7]
ARM GAS  /tmp/cct6apLa.s 			page 56


 3283              	.L376:
 3284              		@ sp needed
 3285 003a FEBD     		pop	{r1, r2, r3, r4, r5, r6, r7, pc}
 3286              	.L378:
 3287 003c 0C2E     		cmp	r6, #12
 3288 003e F7D1     		bne	.L381
 3289 0040 2068     		ldr	r0, [r4]
 3290 0042 FFF7FEFF 		bl	TIM_OC4_SetConfig
 3291 0046 8022     		movs	r2, #128
 3292 0048 2368     		ldr	r3, [r4]
 3293 004a 1201     		lsls	r2, r2, #4
 3294 004c D969     		ldr	r1, [r3, #28]
 3295 004e 0A43     		orrs	r2, r1
 3296 0050 DA61     		str	r2, [r3, #28]
 3297 0052 DA69     		ldr	r2, [r3, #28]
 3298 0054 1C49     		ldr	r1, .L386
 3299 0056 0A40     		ands	r2, r1
 3300 0058 DA61     		str	r2, [r3, #28]
 3301 005a 2A69     		ldr	r2, [r5, #16]
 3302 005c D969     		ldr	r1, [r3, #28]
 3303 005e 1202     		lsls	r2, r2, #8
 3304 0060 2EE0     		b	.L385
 3305              	.L379:
 3306 0062 2068     		ldr	r0, [r4]
 3307 0064 FFF7FEFF 		bl	TIM_OC1_SetConfig
 3308 0068 0822     		movs	r2, #8
 3309 006a 2368     		ldr	r3, [r4]
 3310 006c 9969     		ldr	r1, [r3, #24]
 3311 006e 0A43     		orrs	r2, r1
 3312 0070 0421     		movs	r1, #4
 3313 0072 9A61     		str	r2, [r3, #24]
 3314 0074 9A69     		ldr	r2, [r3, #24]
 3315 0076 8A43     		bics	r2, r1
 3316 0078 9A61     		str	r2, [r3, #24]
 3317 007a 9A69     		ldr	r2, [r3, #24]
 3318 007c 2969     		ldr	r1, [r5, #16]
 3319              	.L384:
 3320 007e 0A43     		orrs	r2, r1
 3321 0080 9A61     		str	r2, [r3, #24]
 3322 0082 D5E7     		b	.L381
 3323              	.L380:
 3324 0084 2068     		ldr	r0, [r4]
 3325 0086 FFF7FEFF 		bl	TIM_OC2_SetConfig
 3326 008a 8022     		movs	r2, #128
 3327 008c 2368     		ldr	r3, [r4]
 3328 008e 1201     		lsls	r2, r2, #4
 3329 0090 9969     		ldr	r1, [r3, #24]
 3330 0092 0A43     		orrs	r2, r1
 3331 0094 9A61     		str	r2, [r3, #24]
 3332 0096 9A69     		ldr	r2, [r3, #24]
 3333 0098 0B49     		ldr	r1, .L386
 3334 009a 0A40     		ands	r2, r1
 3335 009c 9A61     		str	r2, [r3, #24]
 3336 009e 2A69     		ldr	r2, [r5, #16]
 3337 00a0 9969     		ldr	r1, [r3, #24]
 3338 00a2 1202     		lsls	r2, r2, #8
 3339 00a4 EBE7     		b	.L384
ARM GAS  /tmp/cct6apLa.s 			page 57


 3340              	.L377:
 3341 00a6 2068     		ldr	r0, [r4]
 3342 00a8 FFF7FEFF 		bl	TIM_OC3_SetConfig
 3343 00ac 0421     		movs	r1, #4
 3344 00ae 2368     		ldr	r3, [r4]
 3345 00b0 DA69     		ldr	r2, [r3, #28]
 3346 00b2 1643     		orrs	r6, r2
 3347 00b4 DE61     		str	r6, [r3, #28]
 3348 00b6 DA69     		ldr	r2, [r3, #28]
 3349 00b8 8A43     		bics	r2, r1
 3350 00ba DA61     		str	r2, [r3, #28]
 3351 00bc DA69     		ldr	r2, [r3, #28]
 3352 00be 2969     		ldr	r1, [r5, #16]
 3353              	.L385:
 3354 00c0 0A43     		orrs	r2, r1
 3355 00c2 DA61     		str	r2, [r3, #28]
 3356 00c4 B4E7     		b	.L381
 3357              	.L387:
 3358 00c6 C046     		.align	2
 3359              	.L386:
 3360 00c8 FFFBFFFF 		.word	-1025
 3362              		.section	.text.TIM_TI1_SetConfig,"ax",%progbits
 3363              		.align	1
 3364              		.global	TIM_TI1_SetConfig
 3365              		.syntax unified
 3366              		.code	16
 3367              		.thumb_func
 3368              		.fpu softvfp
 3370              	TIM_TI1_SetConfig:
 3371              		@ args = 0, pretend = 0, frame = 0
 3372              		@ frame_needed = 0, uses_anonymous_args = 0
 3373 0000 F0B5     		push	{r4, r5, r6, r7, lr}
 3374 0002 0126     		movs	r6, #1
 3375 0004 046A     		ldr	r4, [r0, #32]
 3376 0006 124F     		ldr	r7, .L391
 3377 0008 B443     		bics	r4, r6
 3378 000a 0462     		str	r4, [r0, #32]
 3379 000c 1500     		movs	r5, r2
 3380 000e 8269     		ldr	r2, [r0, #24]
 3381 0010 046A     		ldr	r4, [r0, #32]
 3382 0012 B842     		cmp	r0, r7
 3383 0014 17D0     		beq	.L389
 3384 0016 8027     		movs	r7, #128
 3385 0018 FF05     		lsls	r7, r7, #23
 3386 001a B842     		cmp	r0, r7
 3387 001c 13D0     		beq	.L389
 3388 001e 0D4F     		ldr	r7, .L391+4
 3389 0020 B842     		cmp	r0, r7
 3390 0022 10D0     		beq	.L389
 3391 0024 0C4F     		ldr	r7, .L391+8
 3392 0026 B842     		cmp	r0, r7
 3393 0028 0DD0     		beq	.L389
 3394 002a 3243     		orrs	r2, r6
 3395              	.L390:
 3396 002c F025     		movs	r5, #240
 3397              		@ sp needed
 3398 002e AA43     		bics	r2, r5
ARM GAS  /tmp/cct6apLa.s 			page 58


 3399 0030 1B01     		lsls	r3, r3, #4
 3400 0032 0F35     		adds	r5, r5, #15
 3401 0034 2B40     		ands	r3, r5
 3402 0036 1A43     		orrs	r2, r3
 3403 0038 0A23     		movs	r3, #10
 3404 003a 9C43     		bics	r4, r3
 3405 003c 1940     		ands	r1, r3
 3406 003e 2143     		orrs	r1, r4
 3407 0040 8261     		str	r2, [r0, #24]
 3408 0042 0162     		str	r1, [r0, #32]
 3409 0044 F0BD     		pop	{r4, r5, r6, r7, pc}
 3410              	.L389:
 3411 0046 0326     		movs	r6, #3
 3412 0048 B243     		bics	r2, r6
 3413 004a 2A43     		orrs	r2, r5
 3414 004c EEE7     		b	.L390
 3415              	.L392:
 3416 004e C046     		.align	2
 3417              	.L391:
 3418 0050 002C0140 		.word	1073818624
 3419 0054 00040040 		.word	1073742848
 3420 0058 00400140 		.word	1073823744
 3422              		.section	.text.HAL_TIM_IC_ConfigChannel,"ax",%progbits
 3423              		.align	1
 3424              		.global	HAL_TIM_IC_ConfigChannel
 3425              		.syntax unified
 3426              		.code	16
 3427              		.thumb_func
 3428              		.fpu softvfp
 3430              	HAL_TIM_IC_ConfigChannel:
 3431              		@ args = 0, pretend = 0, frame = 8
 3432              		@ frame_needed = 0, uses_anonymous_args = 0
 3433 0000 F7B5     		push	{r0, r1, r2, r4, r5, r6, r7, lr}
 3434 0002 1600     		movs	r6, r2
 3435 0004 0200     		movs	r2, r0
 3436 0006 0223     		movs	r3, #2
 3437 0008 3C32     		adds	r2, r2, #60
 3438 000a 0D00     		movs	r5, r1
 3439 000c 1178     		ldrb	r1, [r2]
 3440 000e 0400     		movs	r4, r0
 3441 0010 1800     		movs	r0, r3
 3442 0012 0129     		cmp	r1, #1
 3443 0014 1AD0     		beq	.L394
 3444 0016 0121     		movs	r1, #1
 3445 0018 5370     		strb	r3, [r2, #1]
 3446 001a 1170     		strb	r1, [r2]
 3447 001c 2068     		ldr	r0, [r4]
 3448 001e 2968     		ldr	r1, [r5]
 3449 0020 6A68     		ldr	r2, [r5, #4]
 3450 0022 EB68     		ldr	r3, [r5, #12]
 3451 0024 002E     		cmp	r6, #0
 3452 0026 12D1     		bne	.L395
 3453 0028 FFF7FEFF 		bl	TIM_TI1_SetConfig
 3454 002c 0C21     		movs	r1, #12
 3455 002e 2368     		ldr	r3, [r4]
 3456 0030 9A69     		ldr	r2, [r3, #24]
 3457 0032 8A43     		bics	r2, r1
ARM GAS  /tmp/cct6apLa.s 			page 59


 3458 0034 9A61     		str	r2, [r3, #24]
 3459 0036 9A69     		ldr	r2, [r3, #24]
 3460 0038 A968     		ldr	r1, [r5, #8]
 3461 003a 0A43     		orrs	r2, r1
 3462 003c 9A61     		str	r2, [r3, #24]
 3463              	.L396:
 3464 003e 2300     		movs	r3, r4
 3465 0040 0122     		movs	r2, #1
 3466 0042 0020     		movs	r0, #0
 3467 0044 3D33     		adds	r3, r3, #61
 3468 0046 3C34     		adds	r4, r4, #60
 3469 0048 1A70     		strb	r2, [r3]
 3470 004a 2070     		strb	r0, [r4]
 3471              	.L394:
 3472              		@ sp needed
 3473 004c FEBD     		pop	{r1, r2, r3, r4, r5, r6, r7, pc}
 3474              	.L395:
 3475 004e AD68     		ldr	r5, [r5, #8]
 3476 0050 0195     		str	r5, [sp, #4]
 3477 0052 042E     		cmp	r6, #4
 3478 0054 1FD1     		bne	.L397
 3479 0056 1027     		movs	r7, #16
 3480 0058 066A     		ldr	r6, [r0, #32]
 3481 005a 304D     		ldr	r5, .L401
 3482 005c BE43     		bics	r6, r7
 3483 005e 0662     		str	r6, [r0, #32]
 3484 0060 8769     		ldr	r7, [r0, #24]
 3485 0062 1202     		lsls	r2, r2, #8
 3486 0064 2F40     		ands	r7, r5
 3487 0066 3A43     		orrs	r2, r7
 3488 0068 2D4F     		ldr	r7, .L401+4
 3489 006a 1B07     		lsls	r3, r3, #28
 3490 006c 3A40     		ands	r2, r7
 3491 006e 1B0C     		lsrs	r3, r3, #16
 3492 0070 1343     		orrs	r3, r2
 3493 0072 A022     		movs	r2, #160
 3494 0074 066A     		ldr	r6, [r0, #32]
 3495 0076 0901     		lsls	r1, r1, #4
 3496 0078 9643     		bics	r6, r2
 3497 007a 1140     		ands	r1, r2
 3498 007c 3143     		orrs	r1, r6
 3499 007e 8361     		str	r3, [r0, #24]
 3500 0080 0162     		str	r1, [r0, #32]
 3501 0082 8369     		ldr	r3, [r0, #24]
 3502 0084 274A     		ldr	r2, .L401+8
 3503 0086 1340     		ands	r3, r2
 3504 0088 8361     		str	r3, [r0, #24]
 3505 008a 019A     		ldr	r2, [sp, #4]
 3506 008c 8369     		ldr	r3, [r0, #24]
 3507 008e 1502     		lsls	r5, r2, #8
 3508 0090 1D43     		orrs	r5, r3
 3509 0092 8561     		str	r5, [r0, #24]
 3510 0094 D3E7     		b	.L396
 3511              	.L397:
 3512 0096 082E     		cmp	r6, #8
 3513 0098 20D1     		bne	.L398
 3514 009a 0325     		movs	r5, #3
ARM GAS  /tmp/cct6apLa.s 			page 60


 3515 009c 066A     		ldr	r6, [r0, #32]
 3516 009e 224F     		ldr	r7, .L401+12
 3517 00a0 1B01     		lsls	r3, r3, #4
 3518 00a2 3E40     		ands	r6, r7
 3519 00a4 0662     		str	r6, [r0, #32]
 3520 00a6 C669     		ldr	r6, [r0, #28]
 3521 00a8 076A     		ldr	r7, [r0, #32]
 3522 00aa AE43     		bics	r6, r5
 3523 00ac 1643     		orrs	r6, r2
 3524 00ae F022     		movs	r2, #240
 3525 00b0 9643     		bics	r6, r2
 3526 00b2 0F32     		adds	r2, r2, #15
 3527 00b4 1340     		ands	r3, r2
 3528 00b6 1E43     		orrs	r6, r3
 3529 00b8 1C4B     		ldr	r3, .L401+16
 3530 00ba 0902     		lsls	r1, r1, #8
 3531 00bc 1F40     		ands	r7, r3
 3532 00be A023     		movs	r3, #160
 3533 00c0 1B01     		lsls	r3, r3, #4
 3534 00c2 1940     		ands	r1, r3
 3535 00c4 3943     		orrs	r1, r7
 3536 00c6 C661     		str	r6, [r0, #28]
 3537 00c8 0162     		str	r1, [r0, #32]
 3538 00ca C369     		ldr	r3, [r0, #28]
 3539 00cc F33A     		subs	r2, r2, #243
 3540 00ce 9343     		bics	r3, r2
 3541 00d0 C361     		str	r3, [r0, #28]
 3542 00d2 C369     		ldr	r3, [r0, #28]
 3543 00d4 019D     		ldr	r5, [sp, #4]
 3544              	.L400:
 3545 00d6 1D43     		orrs	r5, r3
 3546 00d8 C561     		str	r5, [r0, #28]
 3547 00da B0E7     		b	.L396
 3548              	.L398:
 3549 00dc 066A     		ldr	r6, [r0, #32]
 3550 00de 144F     		ldr	r7, .L401+20
 3551 00e0 0E4D     		ldr	r5, .L401
 3552 00e2 3E40     		ands	r6, r7
 3553 00e4 0662     		str	r6, [r0, #32]
 3554 00e6 C769     		ldr	r7, [r0, #28]
 3555 00e8 1202     		lsls	r2, r2, #8
 3556 00ea 2F40     		ands	r7, r5
 3557 00ec 3A43     		orrs	r2, r7
 3558 00ee 0C4F     		ldr	r7, .L401+4
 3559 00f0 1B07     		lsls	r3, r3, #28
 3560 00f2 3A40     		ands	r2, r7
 3561 00f4 1B0C     		lsrs	r3, r3, #16
 3562 00f6 066A     		ldr	r6, [r0, #32]
 3563 00f8 1343     		orrs	r3, r2
 3564 00fa 0E4A     		ldr	r2, .L401+24
 3565 00fc 0903     		lsls	r1, r1, #12
 3566 00fe 1640     		ands	r6, r2
 3567 0100 A022     		movs	r2, #160
 3568 0102 1202     		lsls	r2, r2, #8
 3569 0104 1140     		ands	r1, r2
 3570 0106 3143     		orrs	r1, r6
 3571 0108 C361     		str	r3, [r0, #28]
ARM GAS  /tmp/cct6apLa.s 			page 61


 3572 010a 0162     		str	r1, [r0, #32]
 3573 010c C369     		ldr	r3, [r0, #28]
 3574 010e 054A     		ldr	r2, .L401+8
 3575 0110 1340     		ands	r3, r2
 3576 0112 019A     		ldr	r2, [sp, #4]
 3577 0114 C361     		str	r3, [r0, #28]
 3578 0116 C369     		ldr	r3, [r0, #28]
 3579 0118 1502     		lsls	r5, r2, #8
 3580 011a DCE7     		b	.L400
 3581              	.L402:
 3582              		.align	2
 3583              	.L401:
 3584 011c FFFCFFFF 		.word	-769
 3585 0120 FF0FFFFF 		.word	-61441
 3586 0124 FFF3FFFF 		.word	-3073
 3587 0128 FFFEFFFF 		.word	-257
 3588 012c FFF5FFFF 		.word	-2561
 3589 0130 FFEFFFFF 		.word	-4097
 3590 0134 FF5FFFFF 		.word	-40961
 3592              		.section	.text.HAL_TIM_OnePulse_ConfigChannel,"ax",%progbits
 3593              		.align	1
 3594              		.global	HAL_TIM_OnePulse_ConfigChannel
 3595              		.syntax unified
 3596              		.code	16
 3597              		.thumb_func
 3598              		.fpu softvfp
 3600              	HAL_TIM_OnePulse_ConfigChannel:
 3601              		@ args = 0, pretend = 0, frame = 40
 3602              		@ frame_needed = 0, uses_anonymous_args = 0
 3603 0000 F0B5     		push	{r4, r5, r6, r7, lr}
 3604 0002 0500     		movs	r5, r0
 3605 0004 0C00     		movs	r4, r1
 3606 0006 1F00     		movs	r7, r3
 3607 0008 0120     		movs	r0, #1
 3608 000a 8BB0     		sub	sp, sp, #44
 3609 000c 9A42     		cmp	r2, r3
 3610 000e 24D0     		beq	.L404
 3611 0010 2E00     		movs	r6, r5
 3612 0012 0223     		movs	r3, #2
 3613 0014 3C36     		adds	r6, r6, #60
 3614 0016 3178     		ldrb	r1, [r6]
 3615 0018 1800     		movs	r0, r3
 3616 001a 0129     		cmp	r1, #1
 3617 001c 1DD0     		beq	.L404
 3618 001e 0121     		movs	r1, #1
 3619 0020 3170     		strb	r1, [r6]
 3620 0022 2900     		movs	r1, r5
 3621 0024 3D31     		adds	r1, r1, #61
 3622 0026 0B70     		strb	r3, [r1]
 3623 0028 2368     		ldr	r3, [r4]
 3624 002a 0393     		str	r3, [sp, #12]
 3625 002c 6368     		ldr	r3, [r4, #4]
 3626 002e 0493     		str	r3, [sp, #16]
 3627 0030 A368     		ldr	r3, [r4, #8]
 3628 0032 0593     		str	r3, [sp, #20]
 3629 0034 E368     		ldr	r3, [r4, #12]
 3630 0036 0693     		str	r3, [sp, #24]
ARM GAS  /tmp/cct6apLa.s 			page 62


 3631 0038 2369     		ldr	r3, [r4, #16]
 3632 003a 0893     		str	r3, [sp, #32]
 3633 003c 6369     		ldr	r3, [r4, #20]
 3634 003e 0993     		str	r3, [sp, #36]
 3635 0040 002A     		cmp	r2, #0
 3636 0042 0CD0     		beq	.L405
 3637 0044 042A     		cmp	r2, #4
 3638 0046 0FD0     		beq	.L406
 3639              	.L407:
 3640 0048 002F     		cmp	r7, #0
 3641 004a 12D0     		beq	.L408
 3642 004c 042F     		cmp	r7, #4
 3643 004e 2BD0     		beq	.L409
 3644              	.L410:
 3645 0050 0123     		movs	r3, #1
 3646 0052 0020     		movs	r0, #0
 3647 0054 3D35     		adds	r5, r5, #61
 3648 0056 2B70     		strb	r3, [r5]
 3649 0058 3070     		strb	r0, [r6]
 3650              	.L404:
 3651 005a 0BB0     		add	sp, sp, #44
 3652              		@ sp needed
 3653 005c F0BD     		pop	{r4, r5, r6, r7, pc}
 3654              	.L405:
 3655 005e 2868     		ldr	r0, [r5]
 3656 0060 03A9     		add	r1, sp, #12
 3657 0062 FFF7FEFF 		bl	TIM_OC1_SetConfig
 3658 0066 EFE7     		b	.L407
 3659              	.L406:
 3660 0068 2868     		ldr	r0, [r5]
 3661 006a 03A9     		add	r1, sp, #12
 3662 006c FFF7FEFF 		bl	TIM_OC2_SetConfig
 3663 0070 EAE7     		b	.L407
 3664              	.L408:
 3665 0072 1834     		adds	r4, r4, #24
 3666 0074 0ECC     		ldmia	r4!, {r1, r2, r3}
 3667 0076 2868     		ldr	r0, [r5]
 3668 0078 FFF7FEFF 		bl	TIM_TI1_SetConfig
 3669 007c 0C21     		movs	r1, #12
 3670 007e 2B68     		ldr	r3, [r5]
 3671 0080 9A69     		ldr	r2, [r3, #24]
 3672 0082 8A43     		bics	r2, r1
 3673 0084 9A61     		str	r2, [r3, #24]
 3674 0086 9A68     		ldr	r2, [r3, #8]
 3675 0088 6431     		adds	r1, r1, #100
 3676 008a 8A43     		bics	r2, r1
 3677 008c 9A60     		str	r2, [r3, #8]
 3678 008e 5022     		movs	r2, #80
 3679 0090 9968     		ldr	r1, [r3, #8]
 3680              	.L413:
 3681 0092 0A43     		orrs	r2, r1
 3682 0094 0721     		movs	r1, #7
 3683 0096 9A60     		str	r2, [r3, #8]
 3684 0098 9A68     		ldr	r2, [r3, #8]
 3685 009a 8A43     		bics	r2, r1
 3686 009c 9A60     		str	r2, [r3, #8]
 3687 009e 0622     		movs	r2, #6
ARM GAS  /tmp/cct6apLa.s 			page 63


 3688 00a0 9968     		ldr	r1, [r3, #8]
 3689 00a2 0A43     		orrs	r2, r1
 3690 00a4 9A60     		str	r2, [r3, #8]
 3691 00a6 D3E7     		b	.L410
 3692              	.L409:
 3693 00a8 1027     		movs	r7, #16
 3694 00aa 2B68     		ldr	r3, [r5]
 3695 00ac E269     		ldr	r2, [r4, #28]
 3696 00ae 186A     		ldr	r0, [r3, #32]
 3697 00b0 A169     		ldr	r1, [r4, #24]
 3698 00b2 B843     		bics	r0, r7
 3699 00b4 246A     		ldr	r4, [r4, #32]
 3700 00b6 1862     		str	r0, [r3, #32]
 3701 00b8 9869     		ldr	r0, [r3, #24]
 3702 00ba 0192     		str	r2, [sp, #4]
 3703 00bc 0F4A     		ldr	r2, .L414
 3704 00be 2407     		lsls	r4, r4, #28
 3705 00c0 0240     		ands	r2, r0
 3706 00c2 9446     		mov	ip, r2
 3707 00c4 019A     		ldr	r2, [sp, #4]
 3708 00c6 240C     		lsrs	r4, r4, #16
 3709 00c8 1002     		lsls	r0, r2, #8
 3710 00ca 6246     		mov	r2, ip
 3711 00cc 1043     		orrs	r0, r2
 3712 00ce 0C4A     		ldr	r2, .L414+4
 3713 00d0 1F6A     		ldr	r7, [r3, #32]
 3714 00d2 1040     		ands	r0, r2
 3715 00d4 2043     		orrs	r0, r4
 3716 00d6 A024     		movs	r4, #160
 3717 00d8 0A01     		lsls	r2, r1, #4
 3718 00da A743     		bics	r7, r4
 3719 00dc 2240     		ands	r2, r4
 3720 00de 3A43     		orrs	r2, r7
 3721 00e0 9861     		str	r0, [r3, #24]
 3722 00e2 1A62     		str	r2, [r3, #32]
 3723 00e4 9A69     		ldr	r2, [r3, #24]
 3724 00e6 0749     		ldr	r1, .L414+8
 3725 00e8 0A40     		ands	r2, r1
 3726 00ea 7021     		movs	r1, #112
 3727 00ec 9A61     		str	r2, [r3, #24]
 3728 00ee 9A68     		ldr	r2, [r3, #8]
 3729 00f0 8A43     		bics	r2, r1
 3730 00f2 9A60     		str	r2, [r3, #8]
 3731 00f4 9968     		ldr	r1, [r3, #8]
 3732 00f6 6022     		movs	r2, #96
 3733 00f8 CBE7     		b	.L413
 3734              	.L415:
 3735 00fa C046     		.align	2
 3736              	.L414:
 3737 00fc FFFCFFFF 		.word	-769
 3738 0100 FF0FFFFF 		.word	-61441
 3739 0104 FFF3FFFF 		.word	-3073
 3741              		.section	.text.TIM_ETR_SetConfig,"ax",%progbits
 3742              		.align	1
 3743              		.global	TIM_ETR_SetConfig
 3744              		.syntax unified
 3745              		.code	16
ARM GAS  /tmp/cct6apLa.s 			page 64


 3746              		.thumb_func
 3747              		.fpu softvfp
 3749              	TIM_ETR_SetConfig:
 3750              		@ args = 0, pretend = 0, frame = 0
 3751              		@ frame_needed = 0, uses_anonymous_args = 0
 3752 0000 30B5     		push	{r4, r5, lr}
 3753 0002 8468     		ldr	r4, [r0, #8]
 3754 0004 034D     		ldr	r5, .L417
 3755 0006 0A43     		orrs	r2, r1
 3756 0008 1B02     		lsls	r3, r3, #8
 3757 000a 2C40     		ands	r4, r5
 3758 000c 1343     		orrs	r3, r2
 3759 000e 2343     		orrs	r3, r4
 3760 0010 8360     		str	r3, [r0, #8]
 3761              		@ sp needed
 3762 0012 30BD     		pop	{r4, r5, pc}
 3763              	.L418:
 3764              		.align	2
 3765              	.L417:
 3766 0014 FF00FFFF 		.word	-65281
 3768              		.section	.text.HAL_TIM_ConfigOCrefClear,"ax",%progbits
 3769              		.align	1
 3770              		.weak	HAL_TIM_ConfigOCrefClear
 3771              		.syntax unified
 3772              		.code	16
 3773              		.thumb_func
 3774              		.fpu softvfp
 3776              	HAL_TIM_ConfigOCrefClear:
 3777              		@ args = 0, pretend = 0, frame = 8
 3778              		@ frame_needed = 0, uses_anonymous_args = 0
 3779 0000 F7B5     		push	{r0, r1, r2, r4, r5, r6, r7, lr}
 3780 0002 0700     		movs	r7, r0
 3781 0004 0223     		movs	r3, #2
 3782 0006 3C37     		adds	r7, r7, #60
 3783 0008 1600     		movs	r6, r2
 3784 000a 3A78     		ldrb	r2, [r7]
 3785 000c 0400     		movs	r4, r0
 3786 000e 0D00     		movs	r5, r1
 3787 0010 1800     		movs	r0, r3
 3788 0012 012A     		cmp	r2, #1
 3789 0014 16D0     		beq	.L420
 3790 0016 0122     		movs	r2, #1
 3791 0018 3A70     		strb	r2, [r7]
 3792 001a 2200     		movs	r2, r4
 3793 001c 3D32     		adds	r2, r2, #61
 3794 001e 1370     		strb	r3, [r2]
 3795 0020 4B68     		ldr	r3, [r1, #4]
 3796 0022 0192     		str	r2, [sp, #4]
 3797 0024 002B     		cmp	r3, #0
 3798 0026 0ED0     		beq	.L421
 3799 0028 012B     		cmp	r3, #1
 3800 002a 12D0     		beq	.L422
 3801              	.L423:
 3802 002c 082E     		cmp	r6, #8
 3803 002e 3ED0     		beq	.L424
 3804 0030 1AD8     		bhi	.L425
 3805 0032 002E     		cmp	r6, #0
ARM GAS  /tmp/cct6apLa.s 			page 65


 3806 0034 22D0     		beq	.L426
 3807 0036 042E     		cmp	r6, #4
 3808 0038 2DD0     		beq	.L427
 3809              	.L428:
 3810 003a 0123     		movs	r3, #1
 3811 003c 0020     		movs	r0, #0
 3812 003e 019A     		ldr	r2, [sp, #4]
 3813 0040 1370     		strb	r3, [r2]
 3814 0042 3870     		strb	r0, [r7]
 3815              	.L420:
 3816              		@ sp needed
 3817 0044 FEBD     		pop	{r1, r2, r3, r4, r5, r6, r7, pc}
 3818              	.L421:
 3819 0046 2268     		ldr	r2, [r4]
 3820 0048 2149     		ldr	r1, .L440
 3821 004a 9368     		ldr	r3, [r2, #8]
 3822 004c 0B40     		ands	r3, r1
 3823              	.L435:
 3824 004e 9360     		str	r3, [r2, #8]
 3825 0050 ECE7     		b	.L423
 3826              	.L422:
 3827 0052 0B69     		ldr	r3, [r1, #16]
 3828 0054 8A68     		ldr	r2, [r1, #8]
 3829 0056 2068     		ldr	r0, [r4]
 3830 0058 C968     		ldr	r1, [r1, #12]
 3831 005a FFF7FEFF 		bl	TIM_ETR_SetConfig
 3832 005e 0823     		movs	r3, #8
 3833 0060 2268     		ldr	r2, [r4]
 3834 0062 9168     		ldr	r1, [r2, #8]
 3835 0064 0B43     		orrs	r3, r1
 3836 0066 F2E7     		b	.L435
 3837              	.L425:
 3838 0068 0C2E     		cmp	r6, #12
 3839 006a E6D1     		bne	.L428
 3840 006c 2A68     		ldr	r2, [r5]
 3841 006e 2368     		ldr	r3, [r4]
 3842 0070 002A     		cmp	r2, #0
 3843 0072 29D0     		beq	.L433
 3844 0074 8022     		movs	r2, #128
 3845 0076 D969     		ldr	r1, [r3, #28]
 3846 0078 1202     		lsls	r2, r2, #8
 3847 007a 1EE0     		b	.L439
 3848              	.L426:
 3849 007c 2968     		ldr	r1, [r5]
 3850 007e 8022     		movs	r2, #128
 3851 0080 2368     		ldr	r3, [r4]
 3852 0082 0029     		cmp	r1, #0
 3853 0084 03D0     		beq	.L430
 3854 0086 9969     		ldr	r1, [r3, #24]
 3855              	.L436:
 3856 0088 0A43     		orrs	r2, r1
 3857              	.L438:
 3858 008a 9A61     		str	r2, [r3, #24]
 3859 008c D5E7     		b	.L428
 3860              	.L430:
 3861 008e 9969     		ldr	r1, [r3, #24]
 3862 0090 9143     		bics	r1, r2
ARM GAS  /tmp/cct6apLa.s 			page 66


 3863 0092 9961     		str	r1, [r3, #24]
 3864 0094 D1E7     		b	.L428
 3865              	.L427:
 3866 0096 2A68     		ldr	r2, [r5]
 3867 0098 2368     		ldr	r3, [r4]
 3868 009a 002A     		cmp	r2, #0
 3869 009c 03D0     		beq	.L431
 3870 009e 8022     		movs	r2, #128
 3871 00a0 9969     		ldr	r1, [r3, #24]
 3872 00a2 1202     		lsls	r2, r2, #8
 3873 00a4 F0E7     		b	.L436
 3874              	.L431:
 3875 00a6 9A69     		ldr	r2, [r3, #24]
 3876 00a8 0A49     		ldr	r1, .L440+4
 3877 00aa 0A40     		ands	r2, r1
 3878 00ac EDE7     		b	.L438
 3879              	.L424:
 3880 00ae 2968     		ldr	r1, [r5]
 3881 00b0 8022     		movs	r2, #128
 3882 00b2 2368     		ldr	r3, [r4]
 3883 00b4 0029     		cmp	r1, #0
 3884 00b6 03D0     		beq	.L432
 3885 00b8 D969     		ldr	r1, [r3, #28]
 3886              	.L439:
 3887 00ba 0A43     		orrs	r2, r1
 3888              	.L437:
 3889 00bc DA61     		str	r2, [r3, #28]
 3890 00be BCE7     		b	.L428
 3891              	.L432:
 3892 00c0 D969     		ldr	r1, [r3, #28]
 3893 00c2 9143     		bics	r1, r2
 3894 00c4 D961     		str	r1, [r3, #28]
 3895 00c6 B8E7     		b	.L428
 3896              	.L433:
 3897 00c8 DA69     		ldr	r2, [r3, #28]
 3898 00ca 0249     		ldr	r1, .L440+4
 3899 00cc 0A40     		ands	r2, r1
 3900 00ce F5E7     		b	.L437
 3901              	.L441:
 3902              		.align	2
 3903              	.L440:
 3904 00d0 F700FFFF 		.word	-65289
 3905 00d4 FF7FFFFF 		.word	-32769
 3907              		.section	.text.HAL_TIM_ConfigClockSource,"ax",%progbits
 3908              		.align	1
 3909              		.global	HAL_TIM_ConfigClockSource
 3910              		.syntax unified
 3911              		.code	16
 3912              		.thumb_func
 3913              		.fpu softvfp
 3915              	HAL_TIM_ConfigClockSource:
 3916              		@ args = 0, pretend = 0, frame = 0
 3917              		@ frame_needed = 0, uses_anonymous_args = 0
 3918 0000 F8B5     		push	{r3, r4, r5, r6, r7, lr}
 3919 0002 0500     		movs	r5, r0
 3920 0004 0223     		movs	r3, #2
 3921 0006 3C35     		adds	r5, r5, #60
ARM GAS  /tmp/cct6apLa.s 			page 67


 3922 0008 2A78     		ldrb	r2, [r5]
 3923 000a 0400     		movs	r4, r0
 3924 000c 1800     		movs	r0, r3
 3925 000e 012A     		cmp	r2, #1
 3926 0010 1BD0     		beq	.L443
 3927 0012 2600     		movs	r6, r4
 3928 0014 0127     		movs	r7, #1
 3929 0016 3D36     		adds	r6, r6, #61
 3930 0018 2F70     		strb	r7, [r5]
 3931 001a 3370     		strb	r3, [r6]
 3932 001c 2068     		ldr	r0, [r4]
 3933 001e 524A     		ldr	r2, .L462
 3934 0020 8368     		ldr	r3, [r0, #8]
 3935 0022 1340     		ands	r3, r2
 3936 0024 8360     		str	r3, [r0, #8]
 3937 0026 0B68     		ldr	r3, [r1]
 3938 0028 502B     		cmp	r3, #80
 3939 002a 53D0     		beq	.L444
 3940 002c 2BD8     		bhi	.L445
 3941 002e 202B     		cmp	r3, #32
 3942 0030 00D1     		bne	.LCB4128
 3943 0032 8DE0     		b	.L446	@long jump
 3944              	.LCB4128:
 3945 0034 0AD8     		bhi	.L447
 3946 0036 002B     		cmp	r3, #0
 3947 0038 00D1     		bne	.LCB4132
 3948 003a 7DE0     		b	.L448	@long jump
 3949              	.LCB4132:
 3950 003c 102B     		cmp	r3, #16
 3951 003e 00D1     		bne	.LCB4134
 3952 0040 80E0     		b	.L449	@long jump
 3953              	.LCB4134:
 3954              	.L450:
 3955 0042 0123     		movs	r3, #1
 3956 0044 0020     		movs	r0, #0
 3957 0046 3370     		strb	r3, [r6]
 3958 0048 2870     		strb	r0, [r5]
 3959              	.L443:
 3960              		@ sp needed
 3961 004a F8BD     		pop	{r3, r4, r5, r6, r7, pc}
 3962              	.L447:
 3963 004c 302B     		cmp	r3, #48
 3964 004e 00D1     		bne	.LCB4154
 3965 0050 84E0     		b	.L451	@long jump
 3966              	.LCB4154:
 3967 0052 402B     		cmp	r3, #64
 3968 0054 F5D1     		bne	.L450
 3969 0056 CA68     		ldr	r2, [r1, #12]
 3970 0058 4C68     		ldr	r4, [r1, #4]
 3971 005a 016A     		ldr	r1, [r0, #32]
 3972 005c 036A     		ldr	r3, [r0, #32]
 3973 005e BB43     		bics	r3, r7
 3974 0060 F027     		movs	r7, #240
 3975 0062 0362     		str	r3, [r0, #32]
 3976 0064 8369     		ldr	r3, [r0, #24]
 3977 0066 BB43     		bics	r3, r7
 3978 0068 1F00     		movs	r7, r3
ARM GAS  /tmp/cct6apLa.s 			page 68


 3979 006a 1301     		lsls	r3, r2, #4
 3980 006c 0A22     		movs	r2, #10
 3981 006e 9143     		bics	r1, r2
 3982 0070 0A00     		movs	r2, r1
 3983 0072 3B43     		orrs	r3, r7
 3984 0074 2243     		orrs	r2, r4
 3985 0076 8361     		str	r3, [r0, #24]
 3986 0078 0262     		str	r2, [r0, #32]
 3987 007a 7022     		movs	r2, #112
 3988 007c 8368     		ldr	r3, [r0, #8]
 3989 007e 9343     		bics	r3, r2
 3990 0080 1A00     		movs	r2, r3
 3991 0082 4723     		movs	r3, #71
 3992 0084 3DE0     		b	.L460
 3993              	.L445:
 3994 0086 8022     		movs	r2, #128
 3995 0088 5201     		lsls	r2, r2, #5
 3996 008a 9342     		cmp	r3, r2
 3997 008c 1DD0     		beq	.L453
 3998 008e 0ED8     		bhi	.L454
 3999 0090 602B     		cmp	r3, #96
 4000 0092 38D0     		beq	.L455
 4001 0094 702B     		cmp	r3, #112
 4002 0096 D4D1     		bne	.L450
 4003 0098 CB68     		ldr	r3, [r1, #12]
 4004 009a 4A68     		ldr	r2, [r1, #4]
 4005 009c 8968     		ldr	r1, [r1, #8]
 4006 009e FFF7FEFF 		bl	TIM_ETR_SetConfig
 4007 00a2 7721     		movs	r1, #119
 4008 00a4 2268     		ldr	r2, [r4]
 4009 00a6 9368     		ldr	r3, [r2, #8]
 4010              	.L461:
 4011 00a8 0B43     		orrs	r3, r1
 4012 00aa 9360     		str	r3, [r2, #8]
 4013 00ac C9E7     		b	.L450
 4014              	.L454:
 4015 00ae 8022     		movs	r2, #128
 4016 00b0 9201     		lsls	r2, r2, #6
 4017 00b2 9342     		cmp	r3, r2
 4018 00b4 C5D1     		bne	.L450
 4019 00b6 CB68     		ldr	r3, [r1, #12]
 4020 00b8 4A68     		ldr	r2, [r1, #4]
 4021 00ba 8968     		ldr	r1, [r1, #8]
 4022 00bc FFF7FEFF 		bl	TIM_ETR_SetConfig
 4023 00c0 8023     		movs	r3, #128
 4024 00c2 2268     		ldr	r2, [r4]
 4025 00c4 DB01     		lsls	r3, r3, #7
 4026 00c6 9168     		ldr	r1, [r2, #8]
 4027 00c8 EEE7     		b	.L461
 4028              	.L453:
 4029 00ca 0722     		movs	r2, #7
 4030 00cc 8368     		ldr	r3, [r0, #8]
 4031 00ce 9343     		bics	r3, r2
 4032              	.L459:
 4033 00d0 8360     		str	r3, [r0, #8]
 4034 00d2 B6E7     		b	.L450
 4035              	.L444:
ARM GAS  /tmp/cct6apLa.s 			page 69


 4036 00d4 CA68     		ldr	r2, [r1, #12]
 4037 00d6 4C68     		ldr	r4, [r1, #4]
 4038 00d8 016A     		ldr	r1, [r0, #32]
 4039 00da 036A     		ldr	r3, [r0, #32]
 4040 00dc BB43     		bics	r3, r7
 4041 00de F027     		movs	r7, #240
 4042 00e0 0362     		str	r3, [r0, #32]
 4043 00e2 8369     		ldr	r3, [r0, #24]
 4044 00e4 BB43     		bics	r3, r7
 4045 00e6 1F00     		movs	r7, r3
 4046 00e8 1301     		lsls	r3, r2, #4
 4047 00ea 0A22     		movs	r2, #10
 4048 00ec 9143     		bics	r1, r2
 4049 00ee 0A00     		movs	r2, r1
 4050 00f0 3B43     		orrs	r3, r7
 4051 00f2 2243     		orrs	r2, r4
 4052 00f4 8361     		str	r3, [r0, #24]
 4053 00f6 0262     		str	r2, [r0, #32]
 4054 00f8 7022     		movs	r2, #112
 4055 00fa 8368     		ldr	r3, [r0, #8]
 4056 00fc 9343     		bics	r3, r2
 4057 00fe 1A00     		movs	r2, r3
 4058 0100 5723     		movs	r3, #87
 4059              	.L460:
 4060 0102 1343     		orrs	r3, r2
 4061 0104 E4E7     		b	.L459
 4062              	.L455:
 4063 0106 4A68     		ldr	r2, [r1, #4]
 4064 0108 CF68     		ldr	r7, [r1, #12]
 4065 010a 1021     		movs	r1, #16
 4066 010c 036A     		ldr	r3, [r0, #32]
 4067 010e 174C     		ldr	r4, .L462+4
 4068 0110 8B43     		bics	r3, r1
 4069 0112 0362     		str	r3, [r0, #32]
 4070 0114 8169     		ldr	r1, [r0, #24]
 4071 0116 036A     		ldr	r3, [r0, #32]
 4072 0118 2140     		ands	r1, r4
 4073 011a A024     		movs	r4, #160
 4074 011c A343     		bics	r3, r4
 4075 011e 1C00     		movs	r4, r3
 4076 0120 1301     		lsls	r3, r2, #4
 4077 0122 7022     		movs	r2, #112
 4078 0124 3F03     		lsls	r7, r7, #12
 4079 0126 2343     		orrs	r3, r4
 4080 0128 3943     		orrs	r1, r7
 4081 012a 8161     		str	r1, [r0, #24]
 4082 012c 0362     		str	r3, [r0, #32]
 4083 012e 8368     		ldr	r3, [r0, #8]
 4084 0130 9343     		bics	r3, r2
 4085 0132 1A00     		movs	r2, r3
 4086 0134 6723     		movs	r3, #103
 4087 0136 E4E7     		b	.L460
 4088              	.L448:
 4089 0138 7022     		movs	r2, #112
 4090 013a 8368     		ldr	r3, [r0, #8]
 4091 013c 9343     		bics	r3, r2
 4092 013e 1A00     		movs	r2, r3
ARM GAS  /tmp/cct6apLa.s 			page 70


 4093 0140 0723     		movs	r3, #7
 4094 0142 DEE7     		b	.L460
 4095              	.L449:
 4096 0144 7022     		movs	r2, #112
 4097 0146 8368     		ldr	r3, [r0, #8]
 4098 0148 9343     		bics	r3, r2
 4099 014a 1A00     		movs	r2, r3
 4100 014c 1723     		movs	r3, #23
 4101 014e D8E7     		b	.L460
 4102              	.L446:
 4103 0150 7022     		movs	r2, #112
 4104 0152 8368     		ldr	r3, [r0, #8]
 4105 0154 9343     		bics	r3, r2
 4106 0156 1A00     		movs	r2, r3
 4107 0158 2723     		movs	r3, #39
 4108 015a D2E7     		b	.L460
 4109              	.L451:
 4110 015c 7022     		movs	r2, #112
 4111 015e 8368     		ldr	r3, [r0, #8]
 4112 0160 9343     		bics	r3, r2
 4113 0162 1A00     		movs	r2, r3
 4114 0164 3723     		movs	r3, #55
 4115 0166 CCE7     		b	.L460
 4116              	.L463:
 4117              		.align	2
 4118              	.L462:
 4119 0168 8800FFFF 		.word	-65400
 4120 016c FF0FFFFF 		.word	-61441
 4122              		.section	.text.TIM_SlaveTimer_SetConfig,"ax",%progbits
 4123              		.align	1
 4124              		.syntax unified
 4125              		.code	16
 4126              		.thumb_func
 4127              		.fpu softvfp
 4129              	TIM_SlaveTimer_SetConfig:
 4130              		@ args = 0, pretend = 0, frame = 0
 4131              		@ frame_needed = 0, uses_anonymous_args = 0
 4132 0000 7022     		movs	r2, #112
 4133 0002 70B5     		push	{r4, r5, r6, lr}
 4134 0004 0724     		movs	r4, #7
 4135 0006 0068     		ldr	r0, [r0]
 4136 0008 8368     		ldr	r3, [r0, #8]
 4137 000a 9343     		bics	r3, r2
 4138 000c 4A68     		ldr	r2, [r1, #4]
 4139 000e 1343     		orrs	r3, r2
 4140 0010 A343     		bics	r3, r4
 4141 0012 0C68     		ldr	r4, [r1]
 4142 0014 2343     		orrs	r3, r4
 4143 0016 8360     		str	r3, [r0, #8]
 4144 0018 602A     		cmp	r2, #96
 4145 001a 2FD0     		beq	.L465
 4146 001c 04D8     		bhi	.L466
 4147 001e 402A     		cmp	r2, #64
 4148 0020 0AD0     		beq	.L467
 4149 0022 502A     		cmp	r2, #80
 4150 0024 16D0     		beq	.L468
 4151              	.L464:
ARM GAS  /tmp/cct6apLa.s 			page 71


 4152              		@ sp needed
 4153 0026 70BD     		pop	{r4, r5, r6, pc}
 4154              	.L466:
 4155 0028 702A     		cmp	r2, #112
 4156 002a FCD1     		bne	.L464
 4157 002c 0B69     		ldr	r3, [r1, #16]
 4158 002e 8A68     		ldr	r2, [r1, #8]
 4159 0030 C968     		ldr	r1, [r1, #12]
 4160 0032 FFF7FEFF 		bl	TIM_ETR_SetConfig
 4161 0036 F6E7     		b	.L464
 4162              	.L467:
 4163 0038 0122     		movs	r2, #1
 4164 003a 056A     		ldr	r5, [r0, #32]
 4165 003c 036A     		ldr	r3, [r0, #32]
 4166 003e 9343     		bics	r3, r2
 4167 0040 0362     		str	r3, [r0, #32]
 4168 0042 8469     		ldr	r4, [r0, #24]
 4169 0044 0B69     		ldr	r3, [r1, #16]
 4170 0046 EF32     		adds	r2, r2, #239
 4171 0048 9443     		bics	r4, r2
 4172 004a 1B01     		lsls	r3, r3, #4
 4173 004c 2343     		orrs	r3, r4
 4174 004e 8361     		str	r3, [r0, #24]
 4175 0050 0562     		str	r5, [r0, #32]
 4176 0052 E8E7     		b	.L464
 4177              	.L468:
 4178 0054 0125     		movs	r5, #1
 4179 0056 0A69     		ldr	r2, [r1, #16]
 4180 0058 8C68     		ldr	r4, [r1, #8]
 4181 005a 016A     		ldr	r1, [r0, #32]
 4182 005c 036A     		ldr	r3, [r0, #32]
 4183 005e AB43     		bics	r3, r5
 4184 0060 0362     		str	r3, [r0, #32]
 4185 0062 8369     		ldr	r3, [r0, #24]
 4186 0064 EF35     		adds	r5, r5, #239
 4187 0066 AB43     		bics	r3, r5
 4188 0068 1D00     		movs	r5, r3
 4189 006a 1301     		lsls	r3, r2, #4
 4190 006c 0A22     		movs	r2, #10
 4191 006e 9143     		bics	r1, r2
 4192 0070 0A00     		movs	r2, r1
 4193 0072 2B43     		orrs	r3, r5
 4194 0074 2243     		orrs	r2, r4
 4195 0076 8361     		str	r3, [r0, #24]
 4196 0078 0262     		str	r2, [r0, #32]
 4197 007a D4E7     		b	.L464
 4198              	.L465:
 4199 007c 0C69     		ldr	r4, [r1, #16]
 4200 007e 8A68     		ldr	r2, [r1, #8]
 4201 0080 1021     		movs	r1, #16
 4202 0082 036A     		ldr	r3, [r0, #32]
 4203 0084 074D     		ldr	r5, .L470
 4204 0086 8B43     		bics	r3, r1
 4205 0088 0362     		str	r3, [r0, #32]
 4206 008a 8169     		ldr	r1, [r0, #24]
 4207 008c 036A     		ldr	r3, [r0, #32]
 4208 008e 0D40     		ands	r5, r1
ARM GAS  /tmp/cct6apLa.s 			page 72


 4209 0090 2103     		lsls	r1, r4, #12
 4210 0092 A024     		movs	r4, #160
 4211 0094 A343     		bics	r3, r4
 4212 0096 1C00     		movs	r4, r3
 4213 0098 1301     		lsls	r3, r2, #4
 4214 009a 2943     		orrs	r1, r5
 4215 009c 2343     		orrs	r3, r4
 4216 009e 8161     		str	r1, [r0, #24]
 4217 00a0 0362     		str	r3, [r0, #32]
 4218 00a2 C0E7     		b	.L464
 4219              	.L471:
 4220              		.align	2
 4221              	.L470:
 4222 00a4 FF0FFFFF 		.word	-61441
 4224              		.section	.text.HAL_TIM_SlaveConfigSynchronization,"ax",%progbits
 4225              		.align	1
 4226              		.global	HAL_TIM_SlaveConfigSynchronization
 4227              		.syntax unified
 4228              		.code	16
 4229              		.thumb_func
 4230              		.fpu softvfp
 4232              	HAL_TIM_SlaveConfigSynchronization:
 4233              		@ args = 0, pretend = 0, frame = 0
 4234              		@ frame_needed = 0, uses_anonymous_args = 0
 4235 0000 F8B5     		push	{r3, r4, r5, r6, r7, lr}
 4236 0002 0500     		movs	r5, r0
 4237 0004 0223     		movs	r3, #2
 4238 0006 3C35     		adds	r5, r5, #60
 4239 0008 2A78     		ldrb	r2, [r5]
 4240 000a 0400     		movs	r4, r0
 4241 000c 1800     		movs	r0, r3
 4242 000e 012A     		cmp	r2, #1
 4243 0010 13D0     		beq	.L473
 4244 0012 2600     		movs	r6, r4
 4245 0014 0127     		movs	r7, #1
 4246 0016 3D36     		adds	r6, r6, #61
 4247 0018 2000     		movs	r0, r4
 4248 001a 2F70     		strb	r7, [r5]
 4249 001c 3370     		strb	r3, [r6]
 4250 001e FFF7FEFF 		bl	TIM_SlaveTimer_SetConfig
 4251 0022 4021     		movs	r1, #64
 4252 0024 0020     		movs	r0, #0
 4253 0026 2368     		ldr	r3, [r4]
 4254 0028 DA68     		ldr	r2, [r3, #12]
 4255 002a 8A43     		bics	r2, r1
 4256 002c DA60     		str	r2, [r3, #12]
 4257 002e DA68     		ldr	r2, [r3, #12]
 4258 0030 0249     		ldr	r1, .L475
 4259 0032 0A40     		ands	r2, r1
 4260 0034 DA60     		str	r2, [r3, #12]
 4261 0036 3770     		strb	r7, [r6]
 4262 0038 2870     		strb	r0, [r5]
 4263              	.L473:
 4264              		@ sp needed
 4265 003a F8BD     		pop	{r3, r4, r5, r6, r7, pc}
 4266              	.L476:
 4267              		.align	2
ARM GAS  /tmp/cct6apLa.s 			page 73


 4268              	.L475:
 4269 003c FFBFFFFF 		.word	-16385
 4271              		.section	.text.HAL_TIM_SlaveConfigSynchronization_IT,"ax",%progbits
 4272              		.align	1
 4273              		.global	HAL_TIM_SlaveConfigSynchronization_IT
 4274              		.syntax unified
 4275              		.code	16
 4276              		.thumb_func
 4277              		.fpu softvfp
 4279              	HAL_TIM_SlaveConfigSynchronization_IT:
 4280              		@ args = 0, pretend = 0, frame = 0
 4281              		@ frame_needed = 0, uses_anonymous_args = 0
 4282 0000 F8B5     		push	{r3, r4, r5, r6, r7, lr}
 4283 0002 0500     		movs	r5, r0
 4284 0004 0223     		movs	r3, #2
 4285 0006 3C35     		adds	r5, r5, #60
 4286 0008 2A78     		ldrb	r2, [r5]
 4287 000a 0400     		movs	r4, r0
 4288 000c 1800     		movs	r0, r3
 4289 000e 012A     		cmp	r2, #1
 4290 0010 13D0     		beq	.L478
 4291 0012 2600     		movs	r6, r4
 4292 0014 0127     		movs	r7, #1
 4293 0016 3D36     		adds	r6, r6, #61
 4294 0018 2000     		movs	r0, r4
 4295 001a 2F70     		strb	r7, [r5]
 4296 001c 3370     		strb	r3, [r6]
 4297 001e FFF7FEFF 		bl	TIM_SlaveTimer_SetConfig
 4298 0022 4022     		movs	r2, #64
 4299 0024 0020     		movs	r0, #0
 4300 0026 2368     		ldr	r3, [r4]
 4301 0028 D968     		ldr	r1, [r3, #12]
 4302 002a 0A43     		orrs	r2, r1
 4303 002c DA60     		str	r2, [r3, #12]
 4304 002e DA68     		ldr	r2, [r3, #12]
 4305 0030 0249     		ldr	r1, .L480
 4306 0032 0A40     		ands	r2, r1
 4307 0034 DA60     		str	r2, [r3, #12]
 4308 0036 3770     		strb	r7, [r6]
 4309 0038 2870     		strb	r0, [r5]
 4310              	.L478:
 4311              		@ sp needed
 4312 003a F8BD     		pop	{r3, r4, r5, r6, r7, pc}
 4313              	.L481:
 4314              		.align	2
 4315              	.L480:
 4316 003c FFBFFFFF 		.word	-16385
 4318              		.section	.text.TIM_CCxChannelCmd,"ax",%progbits
 4319              		.align	1
 4320              		.global	TIM_CCxChannelCmd
 4321              		.syntax unified
 4322              		.code	16
 4323              		.thumb_func
 4324              		.fpu softvfp
 4326              	TIM_CCxChannelCmd:
 4327              		@ args = 0, pretend = 0, frame = 0
 4328              		@ frame_needed = 0, uses_anonymous_args = 0
ARM GAS  /tmp/cct6apLa.s 			page 74


 4329 0000 10B5     		push	{r4, lr}
 4330 0002 0124     		movs	r4, #1
 4331              		@ sp needed
 4332 0004 8C40     		lsls	r4, r4, r1
 4333 0006 8A40     		lsls	r2, r2, r1
 4334 0008 036A     		ldr	r3, [r0, #32]
 4335 000a A343     		bics	r3, r4
 4336 000c 0362     		str	r3, [r0, #32]
 4337 000e 036A     		ldr	r3, [r0, #32]
 4338 0010 1A43     		orrs	r2, r3
 4339 0012 0262     		str	r2, [r0, #32]
 4340 0014 10BD     		pop	{r4, pc}
 4342              		.section	.text.HAL_TIM_OC_Start,"ax",%progbits
 4343              		.align	1
 4344              		.global	HAL_TIM_OC_Start
 4345              		.syntax unified
 4346              		.code	16
 4347              		.thumb_func
 4348              		.fpu softvfp
 4350              	HAL_TIM_OC_Start:
 4351              		@ args = 0, pretend = 0, frame = 0
 4352              		@ frame_needed = 0, uses_anonymous_args = 0
 4353 0000 10B5     		push	{r4, lr}
 4354 0002 0400     		movs	r4, r0
 4355 0004 0122     		movs	r2, #1
 4356 0006 0068     		ldr	r0, [r0]
 4357 0008 FFF7FEFF 		bl	TIM_CCxChannelCmd
 4358 000c 2368     		ldr	r3, [r4]
 4359 000e 0B4A     		ldr	r2, .L486
 4360 0010 9342     		cmp	r3, r2
 4361 0012 08D0     		beq	.L484
 4362 0014 0A4A     		ldr	r2, .L486+4
 4363 0016 9342     		cmp	r3, r2
 4364 0018 05D0     		beq	.L484
 4365 001a 0A4A     		ldr	r2, .L486+8
 4366 001c 9342     		cmp	r3, r2
 4367 001e 02D0     		beq	.L484
 4368 0020 094A     		ldr	r2, .L486+12
 4369 0022 9342     		cmp	r3, r2
 4370 0024 04D1     		bne	.L485
 4371              	.L484:
 4372 0026 8022     		movs	r2, #128
 4373 0028 596C     		ldr	r1, [r3, #68]
 4374 002a 1202     		lsls	r2, r2, #8
 4375 002c 0A43     		orrs	r2, r1
 4376 002e 5A64     		str	r2, [r3, #68]
 4377              	.L485:
 4378 0030 0122     		movs	r2, #1
 4379              		@ sp needed
 4380 0032 1968     		ldr	r1, [r3]
 4381 0034 0020     		movs	r0, #0
 4382 0036 0A43     		orrs	r2, r1
 4383 0038 1A60     		str	r2, [r3]
 4384 003a 10BD     		pop	{r4, pc}
 4385              	.L487:
 4386              		.align	2
 4387              	.L486:
ARM GAS  /tmp/cct6apLa.s 			page 75


 4388 003c 002C0140 		.word	1073818624
 4389 0040 00400140 		.word	1073823744
 4390 0044 00440140 		.word	1073824768
 4391 0048 00480140 		.word	1073825792
 4393              		.section	.text.HAL_TIM_PWM_Start,"ax",%progbits
 4394              		.align	1
 4395              		.global	HAL_TIM_PWM_Start
 4396              		.syntax unified
 4397              		.code	16
 4398              		.thumb_func
 4399              		.fpu softvfp
 4401              	HAL_TIM_PWM_Start:
 4402              		@ args = 0, pretend = 0, frame = 0
 4403              		@ frame_needed = 0, uses_anonymous_args = 0
 4404 0000 10B5     		push	{r4, lr}
 4405 0002 FFF7FEFF 		bl	HAL_TIM_OC_Start
 4406              		@ sp needed
 4407 0006 10BD     		pop	{r4, pc}
 4409              		.section	.text.HAL_TIM_OC_Stop,"ax",%progbits
 4410              		.align	1
 4411              		.global	HAL_TIM_OC_Stop
 4412              		.syntax unified
 4413              		.code	16
 4414              		.thumb_func
 4415              		.fpu softvfp
 4417              	HAL_TIM_OC_Stop:
 4418              		@ args = 0, pretend = 0, frame = 0
 4419              		@ frame_needed = 0, uses_anonymous_args = 0
 4420 0000 10B5     		push	{r4, lr}
 4421 0002 0400     		movs	r4, r0
 4422 0004 0022     		movs	r2, #0
 4423 0006 0068     		ldr	r0, [r0]
 4424 0008 FFF7FEFF 		bl	TIM_CCxChannelCmd
 4425 000c 2368     		ldr	r3, [r4]
 4426 000e 124A     		ldr	r2, .L493
 4427 0010 1249     		ldr	r1, .L493+4
 4428 0012 9342     		cmp	r3, r2
 4429 0014 08D0     		beq	.L490
 4430 0016 124A     		ldr	r2, .L493+8
 4431 0018 9342     		cmp	r3, r2
 4432 001a 05D0     		beq	.L490
 4433 001c 114A     		ldr	r2, .L493+12
 4434 001e 9342     		cmp	r3, r2
 4435 0020 02D0     		beq	.L490
 4436 0022 114A     		ldr	r2, .L493+16
 4437 0024 9342     		cmp	r3, r2
 4438 0026 0AD1     		bne	.L491
 4439              	.L490:
 4440 0028 1A6A     		ldr	r2, [r3, #32]
 4441 002a 0A42     		tst	r2, r1
 4442 002c 07D1     		bne	.L491
 4443 002e 186A     		ldr	r0, [r3, #32]
 4444 0030 0E4A     		ldr	r2, .L493+20
 4445 0032 1042     		tst	r0, r2
 4446 0034 03D1     		bne	.L491
 4447 0036 5A6C     		ldr	r2, [r3, #68]
 4448 0038 0D48     		ldr	r0, .L493+24
ARM GAS  /tmp/cct6apLa.s 			page 76


 4449 003a 0240     		ands	r2, r0
 4450 003c 5A64     		str	r2, [r3, #68]
 4451              	.L491:
 4452 003e 1A6A     		ldr	r2, [r3, #32]
 4453 0040 0A42     		tst	r2, r1
 4454 0042 07D1     		bne	.L492
 4455 0044 196A     		ldr	r1, [r3, #32]
 4456 0046 094A     		ldr	r2, .L493+20
 4457 0048 1142     		tst	r1, r2
 4458 004a 03D1     		bne	.L492
 4459 004c 0121     		movs	r1, #1
 4460 004e 1A68     		ldr	r2, [r3]
 4461 0050 8A43     		bics	r2, r1
 4462 0052 1A60     		str	r2, [r3]
 4463              	.L492:
 4464 0054 0020     		movs	r0, #0
 4465              		@ sp needed
 4466 0056 10BD     		pop	{r4, pc}
 4467              	.L494:
 4468              		.align	2
 4469              	.L493:
 4470 0058 002C0140 		.word	1073818624
 4471 005c 11110000 		.word	4369
 4472 0060 00400140 		.word	1073823744
 4473 0064 00440140 		.word	1073824768
 4474 0068 00480140 		.word	1073825792
 4475 006c 44040000 		.word	1092
 4476 0070 FF7FFFFF 		.word	-32769
 4478              		.section	.text.HAL_TIM_OC_Start_IT,"ax",%progbits
 4479              		.align	1
 4480              		.global	HAL_TIM_OC_Start_IT
 4481              		.syntax unified
 4482              		.code	16
 4483              		.thumb_func
 4484              		.fpu softvfp
 4486              	HAL_TIM_OC_Start_IT:
 4487              		@ args = 0, pretend = 0, frame = 0
 4488              		@ frame_needed = 0, uses_anonymous_args = 0
 4489 0000 10B5     		push	{r4, lr}
 4490 0002 0400     		movs	r4, r0
 4491 0004 0068     		ldr	r0, [r0]
 4492 0006 0829     		cmp	r1, #8
 4493 0008 28D0     		beq	.L496
 4494 000a 1ED8     		bhi	.L497
 4495 000c 0029     		cmp	r1, #0
 4496 000e 21D0     		beq	.L498
 4497 0010 0429     		cmp	r1, #4
 4498 0012 23D0     		beq	.L496
 4499              	.L500:
 4500 0014 0122     		movs	r2, #1
 4501 0016 FFF7FEFF 		bl	TIM_CCxChannelCmd
 4502 001a 2368     		ldr	r3, [r4]
 4503 001c 114A     		ldr	r2, .L506
 4504 001e 9342     		cmp	r3, r2
 4505 0020 08D0     		beq	.L502
 4506 0022 114A     		ldr	r2, .L506+4
 4507 0024 9342     		cmp	r3, r2
ARM GAS  /tmp/cct6apLa.s 			page 77


 4508 0026 05D0     		beq	.L502
 4509 0028 104A     		ldr	r2, .L506+8
 4510 002a 9342     		cmp	r3, r2
 4511 002c 02D0     		beq	.L502
 4512 002e 104A     		ldr	r2, .L506+12
 4513 0030 9342     		cmp	r3, r2
 4514 0032 04D1     		bne	.L503
 4515              	.L502:
 4516 0034 8022     		movs	r2, #128
 4517 0036 596C     		ldr	r1, [r3, #68]
 4518 0038 1202     		lsls	r2, r2, #8
 4519 003a 0A43     		orrs	r2, r1
 4520 003c 5A64     		str	r2, [r3, #68]
 4521              	.L503:
 4522 003e 0122     		movs	r2, #1
 4523              		@ sp needed
 4524 0040 1968     		ldr	r1, [r3]
 4525 0042 0020     		movs	r0, #0
 4526 0044 0A43     		orrs	r2, r1
 4527 0046 1A60     		str	r2, [r3]
 4528 0048 10BD     		pop	{r4, pc}
 4529              	.L497:
 4530 004a 0C29     		cmp	r1, #12
 4531 004c E2D1     		bne	.L500
 4532 004e 1023     		movs	r3, #16
 4533 0050 C268     		ldr	r2, [r0, #12]
 4534 0052 01E0     		b	.L504
 4535              	.L498:
 4536 0054 0223     		movs	r3, #2
 4537 0056 C268     		ldr	r2, [r0, #12]
 4538              	.L504:
 4539 0058 1343     		orrs	r3, r2
 4540 005a 01E0     		b	.L505
 4541              	.L496:
 4542 005c C368     		ldr	r3, [r0, #12]
 4543 005e 0B43     		orrs	r3, r1
 4544              	.L505:
 4545 0060 C360     		str	r3, [r0, #12]
 4546 0062 D7E7     		b	.L500
 4547              	.L507:
 4548              		.align	2
 4549              	.L506:
 4550 0064 002C0140 		.word	1073818624
 4551 0068 00400140 		.word	1073823744
 4552 006c 00440140 		.word	1073824768
 4553 0070 00480140 		.word	1073825792
 4555              		.section	.text.HAL_TIM_PWM_Start_IT,"ax",%progbits
 4556              		.align	1
 4557              		.global	HAL_TIM_PWM_Start_IT
 4558              		.syntax unified
 4559              		.code	16
 4560              		.thumb_func
 4561              		.fpu softvfp
 4563              	HAL_TIM_PWM_Start_IT:
 4564              		@ args = 0, pretend = 0, frame = 0
 4565              		@ frame_needed = 0, uses_anonymous_args = 0
 4566 0000 10B5     		push	{r4, lr}
ARM GAS  /tmp/cct6apLa.s 			page 78


 4567 0002 FFF7FEFF 		bl	HAL_TIM_OC_Start_IT
 4568              		@ sp needed
 4569 0006 10BD     		pop	{r4, pc}
 4571              		.section	.text.HAL_TIM_OC_Stop_IT,"ax",%progbits
 4572              		.align	1
 4573              		.global	HAL_TIM_OC_Stop_IT
 4574              		.syntax unified
 4575              		.code	16
 4576              		.thumb_func
 4577              		.fpu softvfp
 4579              	HAL_TIM_OC_Stop_IT:
 4580              		@ args = 0, pretend = 0, frame = 0
 4581              		@ frame_needed = 0, uses_anonymous_args = 0
 4582 0000 10B5     		push	{r4, lr}
 4583 0002 0400     		movs	r4, r0
 4584 0004 0068     		ldr	r0, [r0]
 4585 0006 0829     		cmp	r1, #8
 4586 0008 36D0     		beq	.L510
 4587 000a 2CD8     		bhi	.L511
 4588 000c 0029     		cmp	r1, #0
 4589 000e 2FD0     		beq	.L512
 4590 0010 0429     		cmp	r1, #4
 4591 0012 31D0     		beq	.L510
 4592              	.L514:
 4593 0014 0022     		movs	r2, #0
 4594 0016 FFF7FEFF 		bl	TIM_CCxChannelCmd
 4595 001a 2368     		ldr	r3, [r4]
 4596 001c 184A     		ldr	r2, .L521
 4597 001e 1949     		ldr	r1, .L521+4
 4598 0020 9342     		cmp	r3, r2
 4599 0022 08D0     		beq	.L516
 4600 0024 184A     		ldr	r2, .L521+8
 4601 0026 9342     		cmp	r3, r2
 4602 0028 05D0     		beq	.L516
 4603 002a 184A     		ldr	r2, .L521+12
 4604 002c 9342     		cmp	r3, r2
 4605 002e 02D0     		beq	.L516
 4606 0030 174A     		ldr	r2, .L521+16
 4607 0032 9342     		cmp	r3, r2
 4608 0034 0AD1     		bne	.L517
 4609              	.L516:
 4610 0036 1A6A     		ldr	r2, [r3, #32]
 4611 0038 0A42     		tst	r2, r1
 4612 003a 07D1     		bne	.L517
 4613 003c 186A     		ldr	r0, [r3, #32]
 4614 003e 154A     		ldr	r2, .L521+20
 4615 0040 1042     		tst	r0, r2
 4616 0042 03D1     		bne	.L517
 4617 0044 5A6C     		ldr	r2, [r3, #68]
 4618 0046 1448     		ldr	r0, .L521+24
 4619 0048 0240     		ands	r2, r0
 4620 004a 5A64     		str	r2, [r3, #68]
 4621              	.L517:
 4622 004c 1A6A     		ldr	r2, [r3, #32]
 4623 004e 0A42     		tst	r2, r1
 4624 0050 07D1     		bne	.L518
 4625 0052 196A     		ldr	r1, [r3, #32]
ARM GAS  /tmp/cct6apLa.s 			page 79


 4626 0054 0F4A     		ldr	r2, .L521+20
 4627 0056 1142     		tst	r1, r2
 4628 0058 03D1     		bne	.L518
 4629 005a 0121     		movs	r1, #1
 4630 005c 1A68     		ldr	r2, [r3]
 4631 005e 8A43     		bics	r2, r1
 4632 0060 1A60     		str	r2, [r3]
 4633              	.L518:
 4634 0062 0020     		movs	r0, #0
 4635              		@ sp needed
 4636 0064 10BD     		pop	{r4, pc}
 4637              	.L511:
 4638 0066 0C29     		cmp	r1, #12
 4639 0068 D4D1     		bne	.L514
 4640 006a 1022     		movs	r2, #16
 4641 006c C368     		ldr	r3, [r0, #12]
 4642 006e 01E0     		b	.L519
 4643              	.L512:
 4644 0070 0222     		movs	r2, #2
 4645 0072 C368     		ldr	r3, [r0, #12]
 4646              	.L519:
 4647 0074 9343     		bics	r3, r2
 4648 0076 01E0     		b	.L520
 4649              	.L510:
 4650 0078 C368     		ldr	r3, [r0, #12]
 4651 007a 8B43     		bics	r3, r1
 4652              	.L520:
 4653 007c C360     		str	r3, [r0, #12]
 4654 007e C9E7     		b	.L514
 4655              	.L522:
 4656              		.align	2
 4657              	.L521:
 4658 0080 002C0140 		.word	1073818624
 4659 0084 11110000 		.word	4369
 4660 0088 00400140 		.word	1073823744
 4661 008c 00440140 		.word	1073824768
 4662 0090 00480140 		.word	1073825792
 4663 0094 44040000 		.word	1092
 4664 0098 FF7FFFFF 		.word	-32769
 4666              		.section	.text.HAL_TIM_PWM_Stop_IT,"ax",%progbits
 4667              		.align	1
 4668              		.global	HAL_TIM_PWM_Stop_IT
 4669              		.syntax unified
 4670              		.code	16
 4671              		.thumb_func
 4672              		.fpu softvfp
 4674              	HAL_TIM_PWM_Stop_IT:
 4675              		@ args = 0, pretend = 0, frame = 0
 4676              		@ frame_needed = 0, uses_anonymous_args = 0
 4677 0000 10B5     		push	{r4, lr}
 4678 0002 FFF7FEFF 		bl	HAL_TIM_OC_Stop_IT
 4679              		@ sp needed
 4680 0006 10BD     		pop	{r4, pc}
 4682              		.section	.text.HAL_TIM_OC_Start_DMA,"ax",%progbits
 4683              		.align	1
 4684              		.global	HAL_TIM_OC_Start_DMA
 4685              		.syntax unified
ARM GAS  /tmp/cct6apLa.s 			page 80


 4686              		.code	16
 4687              		.thumb_func
 4688              		.fpu softvfp
 4690              	HAL_TIM_OC_Start_DMA:
 4691              		@ args = 0, pretend = 0, frame = 0
 4692              		@ frame_needed = 0, uses_anonymous_args = 0
 4693 0000 70B5     		push	{r4, r5, r6, lr}
 4694 0002 0D00     		movs	r5, r1
 4695 0004 1100     		movs	r1, r2
 4696 0006 0200     		movs	r2, r0
 4697 0008 3D32     		adds	r2, r2, #61
 4698 000a 1678     		ldrb	r6, [r2]
 4699 000c 0400     		movs	r4, r0
 4700 000e F0B2     		uxtb	r0, r6
 4701 0010 022E     		cmp	r6, #2
 4702 0012 2DD0     		beq	.L525
 4703 0014 1678     		ldrb	r6, [r2]
 4704 0016 F0B2     		uxtb	r0, r6
 4705 0018 012E     		cmp	r6, #1
 4706 001a 05D1     		bne	.L526
 4707 001c 0029     		cmp	r1, #0
 4708 001e 01D1     		bne	.L527
 4709 0020 002B     		cmp	r3, #0
 4710 0022 25D1     		bne	.L525
 4711              	.L527:
 4712 0024 0220     		movs	r0, #2
 4713 0026 1070     		strb	r0, [r2]
 4714              	.L526:
 4715 0028 2268     		ldr	r2, [r4]
 4716 002a 082D     		cmp	r5, #8
 4717 002c 4CD0     		beq	.L528
 4718 002e 20D8     		bhi	.L529
 4719 0030 002D     		cmp	r5, #0
 4720 0032 2DD0     		beq	.L530
 4721 0034 042D     		cmp	r5, #4
 4722 0036 3AD0     		beq	.L531
 4723              	.L532:
 4724 0038 0122     		movs	r2, #1
 4725 003a 2900     		movs	r1, r5
 4726 003c 2068     		ldr	r0, [r4]
 4727 003e FFF7FEFF 		bl	TIM_CCxChannelCmd
 4728 0042 2368     		ldr	r3, [r4]
 4729 0044 274A     		ldr	r2, .L540
 4730 0046 9342     		cmp	r3, r2
 4731 0048 08D0     		beq	.L534
 4732 004a 274A     		ldr	r2, .L540+4
 4733 004c 9342     		cmp	r3, r2
 4734 004e 05D0     		beq	.L534
 4735 0050 264A     		ldr	r2, .L540+8
 4736 0052 9342     		cmp	r3, r2
 4737 0054 02D0     		beq	.L534
 4738 0056 264A     		ldr	r2, .L540+12
 4739 0058 9342     		cmp	r3, r2
 4740 005a 04D1     		bne	.L535
 4741              	.L534:
 4742 005c 8022     		movs	r2, #128
 4743 005e 596C     		ldr	r1, [r3, #68]
ARM GAS  /tmp/cct6apLa.s 			page 81


 4744 0060 1202     		lsls	r2, r2, #8
 4745 0062 0A43     		orrs	r2, r1
 4746 0064 5A64     		str	r2, [r3, #68]
 4747              	.L535:
 4748 0066 0122     		movs	r2, #1
 4749 0068 0020     		movs	r0, #0
 4750 006a 1968     		ldr	r1, [r3]
 4751 006c 0A43     		orrs	r2, r1
 4752 006e 1A60     		str	r2, [r3]
 4753              	.L525:
 4754              		@ sp needed
 4755 0070 70BD     		pop	{r4, r5, r6, pc}
 4756              	.L529:
 4757 0072 0C2D     		cmp	r5, #12
 4758 0074 E0D1     		bne	.L532
 4759 0076 206B     		ldr	r0, [r4, #48]
 4760 0078 1E4E     		ldr	r6, .L540+16
 4761 007a 4032     		adds	r2, r2, #64
 4762 007c 8662     		str	r6, [r0, #40]
 4763 007e 1E4E     		ldr	r6, .L540+20
 4764 0080 0663     		str	r6, [r0, #48]
 4765 0082 FFF7FEFF 		bl	HAL_DMA_Start_IT
 4766 0086 8023     		movs	r3, #128
 4767 0088 2268     		ldr	r2, [r4]
 4768 008a 5B01     		lsls	r3, r3, #5
 4769 008c D168     		ldr	r1, [r2, #12]
 4770 008e 0BE0     		b	.L539
 4771              	.L530:
 4772 0090 606A     		ldr	r0, [r4, #36]
 4773 0092 184E     		ldr	r6, .L540+16
 4774 0094 3432     		adds	r2, r2, #52
 4775 0096 8662     		str	r6, [r0, #40]
 4776 0098 174E     		ldr	r6, .L540+20
 4777 009a 0663     		str	r6, [r0, #48]
 4778 009c FFF7FEFF 		bl	HAL_DMA_Start_IT
 4779 00a0 8023     		movs	r3, #128
 4780 00a2 2268     		ldr	r2, [r4]
 4781 00a4 9B00     		lsls	r3, r3, #2
 4782 00a6 D168     		ldr	r1, [r2, #12]
 4783              	.L539:
 4784 00a8 0B43     		orrs	r3, r1
 4785 00aa D360     		str	r3, [r2, #12]
 4786 00ac C4E7     		b	.L532
 4787              	.L531:
 4788 00ae A06A     		ldr	r0, [r4, #40]
 4789 00b0 104E     		ldr	r6, .L540+16
 4790 00b2 3832     		adds	r2, r2, #56
 4791 00b4 8662     		str	r6, [r0, #40]
 4792 00b6 104E     		ldr	r6, .L540+20
 4793 00b8 0663     		str	r6, [r0, #48]
 4794 00ba FFF7FEFF 		bl	HAL_DMA_Start_IT
 4795 00be 8023     		movs	r3, #128
 4796 00c0 2268     		ldr	r2, [r4]
 4797 00c2 DB00     		lsls	r3, r3, #3
 4798 00c4 D168     		ldr	r1, [r2, #12]
 4799 00c6 EFE7     		b	.L539
 4800              	.L528:
ARM GAS  /tmp/cct6apLa.s 			page 82


 4801 00c8 E06A     		ldr	r0, [r4, #44]
 4802 00ca 0A4E     		ldr	r6, .L540+16
 4803 00cc 3C32     		adds	r2, r2, #60
 4804 00ce 8662     		str	r6, [r0, #40]
 4805 00d0 094E     		ldr	r6, .L540+20
 4806 00d2 0663     		str	r6, [r0, #48]
 4807 00d4 FFF7FEFF 		bl	HAL_DMA_Start_IT
 4808 00d8 8023     		movs	r3, #128
 4809 00da 2268     		ldr	r2, [r4]
 4810 00dc 1B01     		lsls	r3, r3, #4
 4811 00de D168     		ldr	r1, [r2, #12]
 4812 00e0 E2E7     		b	.L539
 4813              	.L541:
 4814 00e2 C046     		.align	2
 4815              	.L540:
 4816 00e4 002C0140 		.word	1073818624
 4817 00e8 00400140 		.word	1073823744
 4818 00ec 00440140 		.word	1073824768
 4819 00f0 00480140 		.word	1073825792
 4820 00f4 00000000 		.word	TIM_DMADelayPulseCplt
 4821 00f8 00000000 		.word	TIM_DMAError
 4823              		.section	.text.HAL_TIM_PWM_Start_DMA,"ax",%progbits
 4824              		.align	1
 4825              		.global	HAL_TIM_PWM_Start_DMA
 4826              		.syntax unified
 4827              		.code	16
 4828              		.thumb_func
 4829              		.fpu softvfp
 4831              	HAL_TIM_PWM_Start_DMA:
 4832              		@ args = 0, pretend = 0, frame = 0
 4833              		@ frame_needed = 0, uses_anonymous_args = 0
 4834 0000 10B5     		push	{r4, lr}
 4835 0002 FFF7FEFF 		bl	HAL_TIM_OC_Start_DMA
 4836              		@ sp needed
 4837 0006 10BD     		pop	{r4, pc}
 4839              		.section	.text.HAL_TIM_OC_Stop_DMA,"ax",%progbits
 4840              		.align	1
 4841              		.global	HAL_TIM_OC_Stop_DMA
 4842              		.syntax unified
 4843              		.code	16
 4844              		.thumb_func
 4845              		.fpu softvfp
 4847              	HAL_TIM_OC_Stop_DMA:
 4848              		@ args = 0, pretend = 0, frame = 0
 4849              		@ frame_needed = 0, uses_anonymous_args = 0
 4850 0000 10B5     		push	{r4, lr}
 4851 0002 0400     		movs	r4, r0
 4852 0004 0068     		ldr	r0, [r0]
 4853 0006 0829     		cmp	r1, #8
 4854 0008 3DD0     		beq	.L544
 4855 000a 2FD8     		bhi	.L545
 4856 000c 0029     		cmp	r1, #0
 4857 000e 32D0     		beq	.L546
 4858 0010 0429     		cmp	r1, #4
 4859 0012 35D0     		beq	.L547
 4860              	.L548:
 4861 0014 0022     		movs	r2, #0
ARM GAS  /tmp/cct6apLa.s 			page 83


 4862 0016 FFF7FEFF 		bl	TIM_CCxChannelCmd
 4863 001a 2368     		ldr	r3, [r4]
 4864 001c 1B4A     		ldr	r2, .L554
 4865 001e 1C49     		ldr	r1, .L554+4
 4866 0020 9342     		cmp	r3, r2
 4867 0022 08D0     		beq	.L550
 4868 0024 1B4A     		ldr	r2, .L554+8
 4869 0026 9342     		cmp	r3, r2
 4870 0028 05D0     		beq	.L550
 4871 002a 1B4A     		ldr	r2, .L554+12
 4872 002c 9342     		cmp	r3, r2
 4873 002e 02D0     		beq	.L550
 4874 0030 1A4A     		ldr	r2, .L554+16
 4875 0032 9342     		cmp	r3, r2
 4876 0034 0AD1     		bne	.L551
 4877              	.L550:
 4878 0036 1A6A     		ldr	r2, [r3, #32]
 4879 0038 0A42     		tst	r2, r1
 4880 003a 07D1     		bne	.L551
 4881 003c 186A     		ldr	r0, [r3, #32]
 4882 003e 184A     		ldr	r2, .L554+20
 4883 0040 1042     		tst	r0, r2
 4884 0042 03D1     		bne	.L551
 4885 0044 5A6C     		ldr	r2, [r3, #68]
 4886 0046 1748     		ldr	r0, .L554+24
 4887 0048 0240     		ands	r2, r0
 4888 004a 5A64     		str	r2, [r3, #68]
 4889              	.L551:
 4890 004c 1A6A     		ldr	r2, [r3, #32]
 4891 004e 0A42     		tst	r2, r1
 4892 0050 07D1     		bne	.L552
 4893 0052 196A     		ldr	r1, [r3, #32]
 4894 0054 124A     		ldr	r2, .L554+20
 4895 0056 1142     		tst	r1, r2
 4896 0058 03D1     		bne	.L552
 4897 005a 0121     		movs	r1, #1
 4898 005c 1A68     		ldr	r2, [r3]
 4899 005e 8A43     		bics	r2, r1
 4900 0060 1A60     		str	r2, [r3]
 4901              	.L552:
 4902 0062 0123     		movs	r3, #1
 4903              		@ sp needed
 4904 0064 3D34     		adds	r4, r4, #61
 4905 0066 0020     		movs	r0, #0
 4906 0068 2370     		strb	r3, [r4]
 4907 006a 10BD     		pop	{r4, pc}
 4908              	.L545:
 4909 006c 0C29     		cmp	r1, #12
 4910 006e D1D1     		bne	.L548
 4911 0070 C368     		ldr	r3, [r0, #12]
 4912 0072 0D4A     		ldr	r2, .L554+28
 4913 0074 01E0     		b	.L553
 4914              	.L546:
 4915 0076 C368     		ldr	r3, [r0, #12]
 4916 0078 0C4A     		ldr	r2, .L554+32
 4917              	.L553:
 4918 007a 1340     		ands	r3, r2
ARM GAS  /tmp/cct6apLa.s 			page 84


 4919 007c C360     		str	r3, [r0, #12]
 4920 007e C9E7     		b	.L548
 4921              	.L547:
 4922 0080 C368     		ldr	r3, [r0, #12]
 4923 0082 0B4A     		ldr	r2, .L554+36
 4924 0084 F9E7     		b	.L553
 4925              	.L544:
 4926 0086 C368     		ldr	r3, [r0, #12]
 4927 0088 0A4A     		ldr	r2, .L554+40
 4928 008a F6E7     		b	.L553
 4929              	.L555:
 4930              		.align	2
 4931              	.L554:
 4932 008c 002C0140 		.word	1073818624
 4933 0090 11110000 		.word	4369
 4934 0094 00400140 		.word	1073823744
 4935 0098 00440140 		.word	1073824768
 4936 009c 00480140 		.word	1073825792
 4937 00a0 44040000 		.word	1092
 4938 00a4 FF7FFFFF 		.word	-32769
 4939 00a8 FFEFFFFF 		.word	-4097
 4940 00ac FFFDFFFF 		.word	-513
 4941 00b0 FFFBFFFF 		.word	-1025
 4942 00b4 FFF7FFFF 		.word	-2049
 4944              		.section	.text.HAL_TIM_PWM_Stop_DMA,"ax",%progbits
 4945              		.align	1
 4946              		.global	HAL_TIM_PWM_Stop_DMA
 4947              		.syntax unified
 4948              		.code	16
 4949              		.thumb_func
 4950              		.fpu softvfp
 4952              	HAL_TIM_PWM_Stop_DMA:
 4953              		@ args = 0, pretend = 0, frame = 0
 4954              		@ frame_needed = 0, uses_anonymous_args = 0
 4955 0000 10B5     		push	{r4, lr}
 4956 0002 FFF7FEFF 		bl	HAL_TIM_OC_Stop_DMA
 4957              		@ sp needed
 4958 0006 10BD     		pop	{r4, pc}
 4960              		.section	.text.HAL_TIM_PWM_Stop,"ax",%progbits
 4961              		.align	1
 4962              		.global	HAL_TIM_PWM_Stop
 4963              		.syntax unified
 4964              		.code	16
 4965              		.thumb_func
 4966              		.fpu softvfp
 4968              	HAL_TIM_PWM_Stop:
 4969              		@ args = 0, pretend = 0, frame = 0
 4970              		@ frame_needed = 0, uses_anonymous_args = 0
 4971 0000 10B5     		push	{r4, lr}
 4972 0002 0400     		movs	r4, r0
 4973 0004 0022     		movs	r2, #0
 4974 0006 0068     		ldr	r0, [r0]
 4975 0008 FFF7FEFF 		bl	TIM_CCxChannelCmd
 4976 000c 2368     		ldr	r3, [r4]
 4977 000e 144A     		ldr	r2, .L561
 4978 0010 1449     		ldr	r1, .L561+4
 4979 0012 9342     		cmp	r3, r2
ARM GAS  /tmp/cct6apLa.s 			page 85


 4980 0014 08D0     		beq	.L558
 4981 0016 144A     		ldr	r2, .L561+8
 4982 0018 9342     		cmp	r3, r2
 4983 001a 05D0     		beq	.L558
 4984 001c 134A     		ldr	r2, .L561+12
 4985 001e 9342     		cmp	r3, r2
 4986 0020 02D0     		beq	.L558
 4987 0022 134A     		ldr	r2, .L561+16
 4988 0024 9342     		cmp	r3, r2
 4989 0026 0AD1     		bne	.L559
 4990              	.L558:
 4991 0028 1A6A     		ldr	r2, [r3, #32]
 4992 002a 0A42     		tst	r2, r1
 4993 002c 07D1     		bne	.L559
 4994 002e 186A     		ldr	r0, [r3, #32]
 4995 0030 104A     		ldr	r2, .L561+20
 4996 0032 1042     		tst	r0, r2
 4997 0034 03D1     		bne	.L559
 4998 0036 5A6C     		ldr	r2, [r3, #68]
 4999 0038 0F48     		ldr	r0, .L561+24
 5000 003a 0240     		ands	r2, r0
 5001 003c 5A64     		str	r2, [r3, #68]
 5002              	.L559:
 5003 003e 1A6A     		ldr	r2, [r3, #32]
 5004 0040 0A42     		tst	r2, r1
 5005 0042 07D1     		bne	.L560
 5006 0044 196A     		ldr	r1, [r3, #32]
 5007 0046 0B4A     		ldr	r2, .L561+20
 5008 0048 1142     		tst	r1, r2
 5009 004a 03D1     		bne	.L560
 5010 004c 0121     		movs	r1, #1
 5011 004e 1A68     		ldr	r2, [r3]
 5012 0050 8A43     		bics	r2, r1
 5013 0052 1A60     		str	r2, [r3]
 5014              	.L560:
 5015 0054 0123     		movs	r3, #1
 5016              		@ sp needed
 5017 0056 3D34     		adds	r4, r4, #61
 5018 0058 0020     		movs	r0, #0
 5019 005a 2370     		strb	r3, [r4]
 5020 005c 10BD     		pop	{r4, pc}
 5021              	.L562:
 5022 005e C046     		.align	2
 5023              	.L561:
 5024 0060 002C0140 		.word	1073818624
 5025 0064 11110000 		.word	4369
 5026 0068 00400140 		.word	1073823744
 5027 006c 00440140 		.word	1073824768
 5028 0070 00480140 		.word	1073825792
 5029 0074 44040000 		.word	1092
 5030 0078 FF7FFFFF 		.word	-32769
 5032              		.section	.text.HAL_TIM_IC_Start,"ax",%progbits
 5033              		.align	1
 5034              		.global	HAL_TIM_IC_Start
 5035              		.syntax unified
 5036              		.code	16
 5037              		.thumb_func
ARM GAS  /tmp/cct6apLa.s 			page 86


 5038              		.fpu softvfp
 5040              	HAL_TIM_IC_Start:
 5041              		@ args = 0, pretend = 0, frame = 0
 5042              		@ frame_needed = 0, uses_anonymous_args = 0
 5043 0000 10B5     		push	{r4, lr}
 5044 0002 0400     		movs	r4, r0
 5045              		@ sp needed
 5046 0004 0122     		movs	r2, #1
 5047 0006 0068     		ldr	r0, [r0]
 5048 0008 FFF7FEFF 		bl	TIM_CCxChannelCmd
 5049 000c 0123     		movs	r3, #1
 5050 000e 2268     		ldr	r2, [r4]
 5051 0010 0020     		movs	r0, #0
 5052 0012 1168     		ldr	r1, [r2]
 5053 0014 0B43     		orrs	r3, r1
 5054 0016 1360     		str	r3, [r2]
 5055 0018 10BD     		pop	{r4, pc}
 5057              		.section	.text.HAL_TIM_IC_Stop,"ax",%progbits
 5058              		.align	1
 5059              		.global	HAL_TIM_IC_Stop
 5060              		.syntax unified
 5061              		.code	16
 5062              		.thumb_func
 5063              		.fpu softvfp
 5065              	HAL_TIM_IC_Stop:
 5066              		@ args = 0, pretend = 0, frame = 0
 5067              		@ frame_needed = 0, uses_anonymous_args = 0
 5068 0000 10B5     		push	{r4, lr}
 5069 0002 0400     		movs	r4, r0
 5070 0004 0022     		movs	r2, #0
 5071 0006 0068     		ldr	r0, [r0]
 5072 0008 FFF7FEFF 		bl	TIM_CCxChannelCmd
 5073 000c 2368     		ldr	r3, [r4]
 5074 000e 074A     		ldr	r2, .L566
 5075 0010 196A     		ldr	r1, [r3, #32]
 5076 0012 1142     		tst	r1, r2
 5077 0014 07D1     		bne	.L565
 5078 0016 196A     		ldr	r1, [r3, #32]
 5079 0018 054A     		ldr	r2, .L566+4
 5080 001a 1142     		tst	r1, r2
 5081 001c 03D1     		bne	.L565
 5082 001e 0121     		movs	r1, #1
 5083 0020 1A68     		ldr	r2, [r3]
 5084 0022 8A43     		bics	r2, r1
 5085 0024 1A60     		str	r2, [r3]
 5086              	.L565:
 5087 0026 0020     		movs	r0, #0
 5088              		@ sp needed
 5089 0028 10BD     		pop	{r4, pc}
 5090              	.L567:
 5091 002a C046     		.align	2
 5092              	.L566:
 5093 002c 11110000 		.word	4369
 5094 0030 44040000 		.word	1092
 5096              		.section	.text.HAL_TIM_IC_Start_IT,"ax",%progbits
 5097              		.align	1
 5098              		.global	HAL_TIM_IC_Start_IT
ARM GAS  /tmp/cct6apLa.s 			page 87


 5099              		.syntax unified
 5100              		.code	16
 5101              		.thumb_func
 5102              		.fpu softvfp
 5104              	HAL_TIM_IC_Start_IT:
 5105              		@ args = 0, pretend = 0, frame = 0
 5106              		@ frame_needed = 0, uses_anonymous_args = 0
 5107 0000 10B5     		push	{r4, lr}
 5108 0002 0400     		movs	r4, r0
 5109 0004 0068     		ldr	r0, [r0]
 5110 0006 0829     		cmp	r1, #8
 5111 0008 17D0     		beq	.L569
 5112 000a 0DD8     		bhi	.L570
 5113 000c 0029     		cmp	r1, #0
 5114 000e 10D0     		beq	.L571
 5115 0010 0429     		cmp	r1, #4
 5116 0012 12D0     		beq	.L569
 5117              	.L573:
 5118 0014 0122     		movs	r2, #1
 5119              		@ sp needed
 5120 0016 FFF7FEFF 		bl	TIM_CCxChannelCmd
 5121 001a 0123     		movs	r3, #1
 5122 001c 2268     		ldr	r2, [r4]
 5123 001e 0020     		movs	r0, #0
 5124 0020 1168     		ldr	r1, [r2]
 5125 0022 0B43     		orrs	r3, r1
 5126 0024 1360     		str	r3, [r2]
 5127 0026 10BD     		pop	{r4, pc}
 5128              	.L570:
 5129 0028 0C29     		cmp	r1, #12
 5130 002a F3D1     		bne	.L573
 5131 002c 1023     		movs	r3, #16
 5132 002e C268     		ldr	r2, [r0, #12]
 5133 0030 01E0     		b	.L575
 5134              	.L571:
 5135 0032 0223     		movs	r3, #2
 5136 0034 C268     		ldr	r2, [r0, #12]
 5137              	.L575:
 5138 0036 1343     		orrs	r3, r2
 5139 0038 01E0     		b	.L576
 5140              	.L569:
 5141 003a C368     		ldr	r3, [r0, #12]
 5142 003c 0B43     		orrs	r3, r1
 5143              	.L576:
 5144 003e C360     		str	r3, [r0, #12]
 5145 0040 E8E7     		b	.L573
 5147              		.section	.text.HAL_TIM_IC_Stop_IT,"ax",%progbits
 5148              		.align	1
 5149              		.global	HAL_TIM_IC_Stop_IT
 5150              		.syntax unified
 5151              		.code	16
 5152              		.thumb_func
 5153              		.fpu softvfp
 5155              	HAL_TIM_IC_Stop_IT:
 5156              		@ args = 0, pretend = 0, frame = 0
 5157              		@ frame_needed = 0, uses_anonymous_args = 0
 5158 0000 10B5     		push	{r4, lr}
ARM GAS  /tmp/cct6apLa.s 			page 88


 5159 0002 0400     		movs	r4, r0
 5160 0004 0068     		ldr	r0, [r0]
 5161 0006 0829     		cmp	r1, #8
 5162 0008 1FD0     		beq	.L578
 5163 000a 15D8     		bhi	.L579
 5164 000c 0029     		cmp	r1, #0
 5165 000e 18D0     		beq	.L580
 5166 0010 0429     		cmp	r1, #4
 5167 0012 1AD0     		beq	.L578
 5168              	.L582:
 5169 0014 0022     		movs	r2, #0
 5170 0016 FFF7FEFF 		bl	TIM_CCxChannelCmd
 5171 001a 2368     		ldr	r3, [r4]
 5172 001c 0D4A     		ldr	r2, .L587
 5173 001e 196A     		ldr	r1, [r3, #32]
 5174 0020 1142     		tst	r1, r2
 5175 0022 07D1     		bne	.L584
 5176 0024 196A     		ldr	r1, [r3, #32]
 5177 0026 0C4A     		ldr	r2, .L587+4
 5178 0028 1142     		tst	r1, r2
 5179 002a 03D1     		bne	.L584
 5180 002c 0121     		movs	r1, #1
 5181 002e 1A68     		ldr	r2, [r3]
 5182 0030 8A43     		bics	r2, r1
 5183 0032 1A60     		str	r2, [r3]
 5184              	.L584:
 5185 0034 0020     		movs	r0, #0
 5186              		@ sp needed
 5187 0036 10BD     		pop	{r4, pc}
 5188              	.L579:
 5189 0038 0C29     		cmp	r1, #12
 5190 003a EBD1     		bne	.L582
 5191 003c 1022     		movs	r2, #16
 5192 003e C368     		ldr	r3, [r0, #12]
 5193 0040 01E0     		b	.L585
 5194              	.L580:
 5195 0042 0222     		movs	r2, #2
 5196 0044 C368     		ldr	r3, [r0, #12]
 5197              	.L585:
 5198 0046 9343     		bics	r3, r2
 5199 0048 01E0     		b	.L586
 5200              	.L578:
 5201 004a C368     		ldr	r3, [r0, #12]
 5202 004c 8B43     		bics	r3, r1
 5203              	.L586:
 5204 004e C360     		str	r3, [r0, #12]
 5205 0050 E0E7     		b	.L582
 5206              	.L588:
 5207 0052 C046     		.align	2
 5208              	.L587:
 5209 0054 11110000 		.word	4369
 5210 0058 44040000 		.word	1092
 5212              		.section	.text.HAL_TIM_IC_Start_DMA,"ax",%progbits
 5213              		.align	1
 5214              		.global	HAL_TIM_IC_Start_DMA
 5215              		.syntax unified
 5216              		.code	16
ARM GAS  /tmp/cct6apLa.s 			page 89


 5217              		.thumb_func
 5218              		.fpu softvfp
 5220              	HAL_TIM_IC_Start_DMA:
 5221              		@ args = 0, pretend = 0, frame = 0
 5222              		@ frame_needed = 0, uses_anonymous_args = 0
 5223 0000 70B5     		push	{r4, r5, r6, lr}
 5224 0002 0E00     		movs	r6, r1
 5225 0004 0100     		movs	r1, r0
 5226 0006 3D31     		adds	r1, r1, #61
 5227 0008 0D78     		ldrb	r5, [r1]
 5228 000a 0400     		movs	r4, r0
 5229 000c E8B2     		uxtb	r0, r5
 5230 000e 022D     		cmp	r5, #2
 5231 0010 1CD0     		beq	.L590
 5232 0012 0D78     		ldrb	r5, [r1]
 5233 0014 E8B2     		uxtb	r0, r5
 5234 0016 012D     		cmp	r5, #1
 5235 0018 05D1     		bne	.L591
 5236 001a 002A     		cmp	r2, #0
 5237 001c 01D1     		bne	.L592
 5238 001e 002B     		cmp	r3, #0
 5239 0020 14D1     		bne	.L590
 5240              	.L592:
 5241 0022 0220     		movs	r0, #2
 5242 0024 0870     		strb	r0, [r1]
 5243              	.L591:
 5244 0026 2568     		ldr	r5, [r4]
 5245 0028 082E     		cmp	r6, #8
 5246 002a 3ED0     		beq	.L593
 5247 002c 0FD8     		bhi	.L594
 5248 002e 002E     		cmp	r6, #0
 5249 0030 1DD0     		beq	.L595
 5250 0032 042E     		cmp	r6, #4
 5251 0034 2BD0     		beq	.L596
 5252              	.L597:
 5253 0036 0122     		movs	r2, #1
 5254 0038 3100     		movs	r1, r6
 5255 003a 2068     		ldr	r0, [r4]
 5256 003c FFF7FEFF 		bl	TIM_CCxChannelCmd
 5257 0040 0123     		movs	r3, #1
 5258 0042 0020     		movs	r0, #0
 5259 0044 2268     		ldr	r2, [r4]
 5260 0046 1168     		ldr	r1, [r2]
 5261 0048 0B43     		orrs	r3, r1
 5262 004a 1360     		str	r3, [r2]
 5263              	.L590:
 5264              		@ sp needed
 5265 004c 70BD     		pop	{r4, r5, r6, pc}
 5266              	.L594:
 5267 004e 0C2E     		cmp	r6, #12
 5268 0050 F1D1     		bne	.L597
 5269 0052 206B     		ldr	r0, [r4, #48]
 5270 0054 1C49     		ldr	r1, .L603
 5271 0056 8162     		str	r1, [r0, #40]
 5272 0058 1C49     		ldr	r1, .L603+4
 5273 005a 0163     		str	r1, [r0, #48]
 5274 005c 2900     		movs	r1, r5
ARM GAS  /tmp/cct6apLa.s 			page 90


 5275 005e 4031     		adds	r1, r1, #64
 5276 0060 FFF7FEFF 		bl	HAL_DMA_Start_IT
 5277 0064 8023     		movs	r3, #128
 5278 0066 2268     		ldr	r2, [r4]
 5279 0068 5B01     		lsls	r3, r3, #5
 5280 006a D168     		ldr	r1, [r2, #12]
 5281 006c 0CE0     		b	.L602
 5282              	.L595:
 5283 006e 606A     		ldr	r0, [r4, #36]
 5284 0070 1549     		ldr	r1, .L603
 5285 0072 8162     		str	r1, [r0, #40]
 5286 0074 1549     		ldr	r1, .L603+4
 5287 0076 0163     		str	r1, [r0, #48]
 5288 0078 2900     		movs	r1, r5
 5289 007a 3431     		adds	r1, r1, #52
 5290 007c FFF7FEFF 		bl	HAL_DMA_Start_IT
 5291 0080 8023     		movs	r3, #128
 5292 0082 2268     		ldr	r2, [r4]
 5293 0084 9B00     		lsls	r3, r3, #2
 5294 0086 D168     		ldr	r1, [r2, #12]
 5295              	.L602:
 5296 0088 0B43     		orrs	r3, r1
 5297 008a D360     		str	r3, [r2, #12]
 5298 008c D3E7     		b	.L597
 5299              	.L596:
 5300 008e A06A     		ldr	r0, [r4, #40]
 5301 0090 0D49     		ldr	r1, .L603
 5302 0092 8162     		str	r1, [r0, #40]
 5303 0094 0D49     		ldr	r1, .L603+4
 5304 0096 0163     		str	r1, [r0, #48]
 5305 0098 2900     		movs	r1, r5
 5306 009a 3831     		adds	r1, r1, #56
 5307 009c FFF7FEFF 		bl	HAL_DMA_Start_IT
 5308 00a0 8023     		movs	r3, #128
 5309 00a2 2268     		ldr	r2, [r4]
 5310 00a4 DB00     		lsls	r3, r3, #3
 5311 00a6 D168     		ldr	r1, [r2, #12]
 5312 00a8 EEE7     		b	.L602
 5313              	.L593:
 5314 00aa E06A     		ldr	r0, [r4, #44]
 5315 00ac 0649     		ldr	r1, .L603
 5316 00ae 8162     		str	r1, [r0, #40]
 5317 00b0 0649     		ldr	r1, .L603+4
 5318 00b2 0163     		str	r1, [r0, #48]
 5319 00b4 2900     		movs	r1, r5
 5320 00b6 3C31     		adds	r1, r1, #60
 5321 00b8 FFF7FEFF 		bl	HAL_DMA_Start_IT
 5322 00bc 8023     		movs	r3, #128
 5323 00be 2268     		ldr	r2, [r4]
 5324 00c0 1B01     		lsls	r3, r3, #4
 5325 00c2 D168     		ldr	r1, [r2, #12]
 5326 00c4 E0E7     		b	.L602
 5327              	.L604:
 5328 00c6 C046     		.align	2
 5329              	.L603:
 5330 00c8 00000000 		.word	TIM_DMACaptureCplt
 5331 00cc 00000000 		.word	TIM_DMAError
ARM GAS  /tmp/cct6apLa.s 			page 91


 5333              		.section	.text.HAL_TIM_IC_Stop_DMA,"ax",%progbits
 5334              		.align	1
 5335              		.global	HAL_TIM_IC_Stop_DMA
 5336              		.syntax unified
 5337              		.code	16
 5338              		.thumb_func
 5339              		.fpu softvfp
 5341              	HAL_TIM_IC_Stop_DMA:
 5342              		@ args = 0, pretend = 0, frame = 0
 5343              		@ frame_needed = 0, uses_anonymous_args = 0
 5344 0000 10B5     		push	{r4, lr}
 5345 0002 0400     		movs	r4, r0
 5346 0004 0068     		ldr	r0, [r0]
 5347 0006 0829     		cmp	r1, #8
 5348 0008 26D0     		beq	.L606
 5349 000a 18D8     		bhi	.L607
 5350 000c 0029     		cmp	r1, #0
 5351 000e 1BD0     		beq	.L608
 5352 0010 0429     		cmp	r1, #4
 5353 0012 1ED0     		beq	.L609
 5354              	.L610:
 5355 0014 0022     		movs	r2, #0
 5356 0016 FFF7FEFF 		bl	TIM_CCxChannelCmd
 5357 001a 2368     		ldr	r3, [r4]
 5358 001c 104A     		ldr	r2, .L614
 5359 001e 196A     		ldr	r1, [r3, #32]
 5360 0020 1142     		tst	r1, r2
 5361 0022 07D1     		bne	.L612
 5362 0024 196A     		ldr	r1, [r3, #32]
 5363 0026 0F4A     		ldr	r2, .L614+4
 5364 0028 1142     		tst	r1, r2
 5365 002a 03D1     		bne	.L612
 5366 002c 0121     		movs	r1, #1
 5367 002e 1A68     		ldr	r2, [r3]
 5368 0030 8A43     		bics	r2, r1
 5369 0032 1A60     		str	r2, [r3]
 5370              	.L612:
 5371 0034 0123     		movs	r3, #1
 5372              		@ sp needed
 5373 0036 3D34     		adds	r4, r4, #61
 5374 0038 0020     		movs	r0, #0
 5375 003a 2370     		strb	r3, [r4]
 5376 003c 10BD     		pop	{r4, pc}
 5377              	.L607:
 5378 003e 0C29     		cmp	r1, #12
 5379 0040 E8D1     		bne	.L610
 5380 0042 C368     		ldr	r3, [r0, #12]
 5381 0044 084A     		ldr	r2, .L614+8
 5382 0046 01E0     		b	.L613
 5383              	.L608:
 5384 0048 C368     		ldr	r3, [r0, #12]
 5385 004a 084A     		ldr	r2, .L614+12
 5386              	.L613:
 5387 004c 1340     		ands	r3, r2
 5388 004e C360     		str	r3, [r0, #12]
 5389 0050 E0E7     		b	.L610
 5390              	.L609:
ARM GAS  /tmp/cct6apLa.s 			page 92


 5391 0052 C368     		ldr	r3, [r0, #12]
 5392 0054 064A     		ldr	r2, .L614+16
 5393 0056 F9E7     		b	.L613
 5394              	.L606:
 5395 0058 C368     		ldr	r3, [r0, #12]
 5396 005a 064A     		ldr	r2, .L614+20
 5397 005c F6E7     		b	.L613
 5398              	.L615:
 5399 005e C046     		.align	2
 5400              	.L614:
 5401 0060 11110000 		.word	4369
 5402 0064 44040000 		.word	1092
 5403 0068 FFEFFFFF 		.word	-4097
 5404 006c FFFDFFFF 		.word	-513
 5405 0070 FFFBFFFF 		.word	-1025
 5406 0074 FFF7FFFF 		.word	-2049
 5408              		.ident	"GCC: (Arch Repository) 10.1.0"
ARM GAS  /tmp/cct6apLa.s 			page 93

