ARM GAS  /tmp/ccqIdrKp.s 			page 1


   1              		.cpu cortex-m0
   2              		.eabi_attribute 20, 1
   3              		.eabi_attribute 21, 1
   4              		.eabi_attribute 23, 3
   5              		.eabi_attribute 24, 1
   6              		.eabi_attribute 25, 1
   7              		.eabi_attribute 26, 1
   8              		.eabi_attribute 30, 4
   9              		.eabi_attribute 34, 0
  10              		.eabi_attribute 18, 4
  11              		.file	"stm32f0xx_hal_pwr.c"
  12              		.text
  13              		.section	.text.HAL_PWR_DeInit,"ax",%progbits
  14              		.align	1
  15              		.global	HAL_PWR_DeInit
  16              		.arch armv6s-m
  17              		.syntax unified
  18              		.code	16
  19              		.thumb_func
  20              		.fpu softvfp
  22              	HAL_PWR_DeInit:
  23              		@ args = 0, pretend = 0, frame = 0
  24              		@ frame_needed = 0, uses_anonymous_args = 0
  25              		@ link register save eliminated.
  26 0000 8022     		movs	r2, #128
  27              		@ sp needed
  28 0002 054B     		ldr	r3, .L2
  29 0004 5205     		lsls	r2, r2, #21
  30 0006 1969     		ldr	r1, [r3, #16]
  31 0008 0A43     		orrs	r2, r1
  32 000a 1A61     		str	r2, [r3, #16]
  33 000c 1A69     		ldr	r2, [r3, #16]
  34 000e 0349     		ldr	r1, .L2+4
  35 0010 0A40     		ands	r2, r1
  36 0012 1A61     		str	r2, [r3, #16]
  37 0014 7047     		bx	lr
  38              	.L3:
  39 0016 C046     		.align	2
  40              	.L2:
  41 0018 00100240 		.word	1073876992
  42 001c FFFFFFEF 		.word	-268435457
  44              		.section	.text.HAL_PWR_EnableBkUpAccess,"ax",%progbits
  45              		.align	1
  46              		.global	HAL_PWR_EnableBkUpAccess
  47              		.syntax unified
  48              		.code	16
  49              		.thumb_func
  50              		.fpu softvfp
  52              	HAL_PWR_EnableBkUpAccess:
  53              		@ args = 0, pretend = 0, frame = 0
  54              		@ frame_needed = 0, uses_anonymous_args = 0
  55              		@ link register save eliminated.
  56 0000 8023     		movs	r3, #128
  57              		@ sp needed
  58 0002 034A     		ldr	r2, .L5
  59 0004 5B00     		lsls	r3, r3, #1
  60 0006 1168     		ldr	r1, [r2]
ARM GAS  /tmp/ccqIdrKp.s 			page 2


  61 0008 0B43     		orrs	r3, r1
  62 000a 1360     		str	r3, [r2]
  63 000c 7047     		bx	lr
  64              	.L6:
  65 000e C046     		.align	2
  66              	.L5:
  67 0010 00700040 		.word	1073770496
  69              		.section	.text.HAL_PWR_DisableBkUpAccess,"ax",%progbits
  70              		.align	1
  71              		.global	HAL_PWR_DisableBkUpAccess
  72              		.syntax unified
  73              		.code	16
  74              		.thumb_func
  75              		.fpu softvfp
  77              	HAL_PWR_DisableBkUpAccess:
  78              		@ args = 0, pretend = 0, frame = 0
  79              		@ frame_needed = 0, uses_anonymous_args = 0
  80              		@ link register save eliminated.
  81 0000 024A     		ldr	r2, .L8
  82 0002 0349     		ldr	r1, .L8+4
  83 0004 1368     		ldr	r3, [r2]
  84              		@ sp needed
  85 0006 0B40     		ands	r3, r1
  86 0008 1360     		str	r3, [r2]
  87 000a 7047     		bx	lr
  88              	.L9:
  89              		.align	2
  90              	.L8:
  91 000c 00700040 		.word	1073770496
  92 0010 FFFEFFFF 		.word	-257
  94              		.section	.text.HAL_PWR_EnableWakeUpPin,"ax",%progbits
  95              		.align	1
  96              		.global	HAL_PWR_EnableWakeUpPin
  97              		.syntax unified
  98              		.code	16
  99              		.thumb_func
 100              		.fpu softvfp
 102              	HAL_PWR_EnableWakeUpPin:
 103              		@ args = 0, pretend = 0, frame = 0
 104              		@ frame_needed = 0, uses_anonymous_args = 0
 105              		@ link register save eliminated.
 106 0000 024A     		ldr	r2, .L11
 107              		@ sp needed
 108 0002 5368     		ldr	r3, [r2, #4]
 109 0004 0343     		orrs	r3, r0
 110 0006 5360     		str	r3, [r2, #4]
 111 0008 7047     		bx	lr
 112              	.L12:
 113 000a C046     		.align	2
 114              	.L11:
 115 000c 00700040 		.word	1073770496
 117              		.section	.text.HAL_PWR_DisableWakeUpPin,"ax",%progbits
 118              		.align	1
 119              		.global	HAL_PWR_DisableWakeUpPin
 120              		.syntax unified
 121              		.code	16
 122              		.thumb_func
ARM GAS  /tmp/ccqIdrKp.s 			page 3


 123              		.fpu softvfp
 125              	HAL_PWR_DisableWakeUpPin:
 126              		@ args = 0, pretend = 0, frame = 0
 127              		@ frame_needed = 0, uses_anonymous_args = 0
 128              		@ link register save eliminated.
 129 0000 024A     		ldr	r2, .L14
 130              		@ sp needed
 131 0002 5368     		ldr	r3, [r2, #4]
 132 0004 8343     		bics	r3, r0
 133 0006 5360     		str	r3, [r2, #4]
 134 0008 7047     		bx	lr
 135              	.L15:
 136 000a C046     		.align	2
 137              	.L14:
 138 000c 00700040 		.word	1073770496
 140              		.section	.text.HAL_PWR_EnterSLEEPMode,"ax",%progbits
 141              		.align	1
 142              		.global	HAL_PWR_EnterSLEEPMode
 143              		.syntax unified
 144              		.code	16
 145              		.thumb_func
 146              		.fpu softvfp
 148              	HAL_PWR_EnterSLEEPMode:
 149              		@ args = 0, pretend = 0, frame = 0
 150              		@ frame_needed = 0, uses_anonymous_args = 0
 151              		@ link register save eliminated.
 152 0000 0420     		movs	r0, #4
 153 0002 064A     		ldr	r2, .L19
 154 0004 1369     		ldr	r3, [r2, #16]
 155 0006 8343     		bics	r3, r0
 156 0008 1361     		str	r3, [r2, #16]
 157 000a 0129     		cmp	r1, #1
 158 000c 01D1     		bne	.L17
 159              		.syntax divided
 160              	@ 385 "Drivers/CMSIS/Include/cmsis_gcc.h" 1
 161 000e 30BF     		wfi
 162              	@ 0 "" 2
 163              		.thumb
 164              		.syntax unified
 165              	.L16:
 166              		@ sp needed
 167 0010 7047     		bx	lr
 168              	.L17:
 169              		.syntax divided
 170              	@ 406 "Drivers/CMSIS/Include/cmsis_gcc.h" 1
 171 0012 40BF     		sev
 172              	@ 0 "" 2
 173              	@ 396 "Drivers/CMSIS/Include/cmsis_gcc.h" 1
 174 0014 20BF     		wfe
 175              	@ 0 "" 2
 176              	@ 396 "Drivers/CMSIS/Include/cmsis_gcc.h" 1
 177 0016 20BF     		wfe
 178              	@ 0 "" 2
 179              		.thumb
 180              		.syntax unified
 181 0018 FAE7     		b	.L16
 182              	.L20:
ARM GAS  /tmp/ccqIdrKp.s 			page 4


 183 001a C046     		.align	2
 184              	.L19:
 185 001c 00ED00E0 		.word	-536810240
 187              		.section	.text.HAL_PWR_EnterSTOPMode,"ax",%progbits
 188              		.align	1
 189              		.global	HAL_PWR_EnterSTOPMode
 190              		.syntax unified
 191              		.code	16
 192              		.thumb_func
 193              		.fpu softvfp
 195              	HAL_PWR_EnterSTOPMode:
 196              		@ args = 0, pretend = 0, frame = 0
 197              		@ frame_needed = 0, uses_anonymous_args = 0
 198 0000 10B5     		push	{r4, lr}
 199 0002 0324     		movs	r4, #3
 200 0004 0A4A     		ldr	r2, .L24
 201 0006 1368     		ldr	r3, [r2]
 202 0008 A343     		bics	r3, r4
 203 000a 0343     		orrs	r3, r0
 204 000c 1360     		str	r3, [r2]
 205 000e 0422     		movs	r2, #4
 206 0010 084B     		ldr	r3, .L24+4
 207 0012 1869     		ldr	r0, [r3, #16]
 208 0014 0243     		orrs	r2, r0
 209 0016 1A61     		str	r2, [r3, #16]
 210 0018 0129     		cmp	r1, #1
 211 001a 05D1     		bne	.L22
 212              		.syntax divided
 213              	@ 385 "Drivers/CMSIS/Include/cmsis_gcc.h" 1
 214 001c 30BF     		wfi
 215              	@ 0 "" 2
 216              		.thumb
 217              		.syntax unified
 218              	.L23:
 219              		@ sp needed
 220 001e 0421     		movs	r1, #4
 221 0020 1A69     		ldr	r2, [r3, #16]
 222 0022 8A43     		bics	r2, r1
 223 0024 1A61     		str	r2, [r3, #16]
 224 0026 10BD     		pop	{r4, pc}
 225              	.L22:
 226              		.syntax divided
 227              	@ 406 "Drivers/CMSIS/Include/cmsis_gcc.h" 1
 228 0028 40BF     		sev
 229              	@ 0 "" 2
 230              	@ 396 "Drivers/CMSIS/Include/cmsis_gcc.h" 1
 231 002a 20BF     		wfe
 232              	@ 0 "" 2
 233              	@ 396 "Drivers/CMSIS/Include/cmsis_gcc.h" 1
 234 002c 20BF     		wfe
 235              	@ 0 "" 2
 236              		.thumb
 237              		.syntax unified
 238 002e F6E7     		b	.L23
 239              	.L25:
 240              		.align	2
 241              	.L24:
ARM GAS  /tmp/ccqIdrKp.s 			page 5


 242 0030 00700040 		.word	1073770496
 243 0034 00ED00E0 		.word	-536810240
 245              		.section	.text.HAL_PWR_EnterSTANDBYMode,"ax",%progbits
 246              		.align	1
 247              		.global	HAL_PWR_EnterSTANDBYMode
 248              		.syntax unified
 249              		.code	16
 250              		.thumb_func
 251              		.fpu softvfp
 253              	HAL_PWR_EnterSTANDBYMode:
 254              		@ args = 0, pretend = 0, frame = 0
 255              		@ frame_needed = 0, uses_anonymous_args = 0
 256              		@ link register save eliminated.
 257 0000 0223     		movs	r3, #2
 258 0002 054A     		ldr	r2, .L27
 259 0004 1168     		ldr	r1, [r2]
 260 0006 0B43     		orrs	r3, r1
 261 0008 1360     		str	r3, [r2]
 262 000a 0423     		movs	r3, #4
 263 000c 034A     		ldr	r2, .L27+4
 264 000e 1169     		ldr	r1, [r2, #16]
 265 0010 0B43     		orrs	r3, r1
 266 0012 1361     		str	r3, [r2, #16]
 267              		.syntax divided
 268              	@ 385 "Drivers/CMSIS/Include/cmsis_gcc.h" 1
 269 0014 30BF     		wfi
 270              	@ 0 "" 2
 271              		.thumb
 272              		.syntax unified
 273              		@ sp needed
 274 0016 7047     		bx	lr
 275              	.L28:
 276              		.align	2
 277              	.L27:
 278 0018 00700040 		.word	1073770496
 279 001c 00ED00E0 		.word	-536810240
 281              		.section	.text.HAL_PWR_EnableSleepOnExit,"ax",%progbits
 282              		.align	1
 283              		.global	HAL_PWR_EnableSleepOnExit
 284              		.syntax unified
 285              		.code	16
 286              		.thumb_func
 287              		.fpu softvfp
 289              	HAL_PWR_EnableSleepOnExit:
 290              		@ args = 0, pretend = 0, frame = 0
 291              		@ frame_needed = 0, uses_anonymous_args = 0
 292              		@ link register save eliminated.
 293 0000 0223     		movs	r3, #2
 294              		@ sp needed
 295 0002 024A     		ldr	r2, .L30
 296 0004 1169     		ldr	r1, [r2, #16]
 297 0006 0B43     		orrs	r3, r1
 298 0008 1361     		str	r3, [r2, #16]
 299 000a 7047     		bx	lr
 300              	.L31:
 301              		.align	2
 302              	.L30:
ARM GAS  /tmp/ccqIdrKp.s 			page 6


 303 000c 00ED00E0 		.word	-536810240
 305              		.section	.text.HAL_PWR_DisableSleepOnExit,"ax",%progbits
 306              		.align	1
 307              		.global	HAL_PWR_DisableSleepOnExit
 308              		.syntax unified
 309              		.code	16
 310              		.thumb_func
 311              		.fpu softvfp
 313              	HAL_PWR_DisableSleepOnExit:
 314              		@ args = 0, pretend = 0, frame = 0
 315              		@ frame_needed = 0, uses_anonymous_args = 0
 316              		@ link register save eliminated.
 317 0000 0221     		movs	r1, #2
 318              		@ sp needed
 319 0002 024A     		ldr	r2, .L33
 320 0004 1369     		ldr	r3, [r2, #16]
 321 0006 8B43     		bics	r3, r1
 322 0008 1361     		str	r3, [r2, #16]
 323 000a 7047     		bx	lr
 324              	.L34:
 325              		.align	2
 326              	.L33:
 327 000c 00ED00E0 		.word	-536810240
 329              		.section	.text.HAL_PWR_EnableSEVOnPend,"ax",%progbits
 330              		.align	1
 331              		.global	HAL_PWR_EnableSEVOnPend
 332              		.syntax unified
 333              		.code	16
 334              		.thumb_func
 335              		.fpu softvfp
 337              	HAL_PWR_EnableSEVOnPend:
 338              		@ args = 0, pretend = 0, frame = 0
 339              		@ frame_needed = 0, uses_anonymous_args = 0
 340              		@ link register save eliminated.
 341 0000 1023     		movs	r3, #16
 342              		@ sp needed
 343 0002 024A     		ldr	r2, .L36
 344 0004 1169     		ldr	r1, [r2, #16]
 345 0006 0B43     		orrs	r3, r1
 346 0008 1361     		str	r3, [r2, #16]
 347 000a 7047     		bx	lr
 348              	.L37:
 349              		.align	2
 350              	.L36:
 351 000c 00ED00E0 		.word	-536810240
 353              		.section	.text.HAL_PWR_DisableSEVOnPend,"ax",%progbits
 354              		.align	1
 355              		.global	HAL_PWR_DisableSEVOnPend
 356              		.syntax unified
 357              		.code	16
 358              		.thumb_func
 359              		.fpu softvfp
 361              	HAL_PWR_DisableSEVOnPend:
 362              		@ args = 0, pretend = 0, frame = 0
 363              		@ frame_needed = 0, uses_anonymous_args = 0
 364              		@ link register save eliminated.
 365 0000 1021     		movs	r1, #16
ARM GAS  /tmp/ccqIdrKp.s 			page 7


 366              		@ sp needed
 367 0002 024A     		ldr	r2, .L39
 368 0004 1369     		ldr	r3, [r2, #16]
 369 0006 8B43     		bics	r3, r1
 370 0008 1361     		str	r3, [r2, #16]
 371 000a 7047     		bx	lr
 372              	.L40:
 373              		.align	2
 374              	.L39:
 375 000c 00ED00E0 		.word	-536810240
 377              		.ident	"GCC: (Arch Repository) 10.1.0"
ARM GAS  /tmp/ccqIdrKp.s 			page 8

