ARM GAS  /tmp/ccd9Qx9c.s 			page 1


   1              		.cpu cortex-m0
   2              		.eabi_attribute 20, 1
   3              		.eabi_attribute 21, 1
   4              		.eabi_attribute 23, 3
   5              		.eabi_attribute 24, 1
   6              		.eabi_attribute 25, 1
   7              		.eabi_attribute 26, 1
   8              		.eabi_attribute 30, 4
   9              		.eabi_attribute 34, 0
  10              		.eabi_attribute 18, 4
  11              		.file	"stm32f0xx_hal_pwr_ex.c"
  12              		.text
  13              		.section	.text.HAL_PWR_ConfigPVD,"ax",%progbits
  14              		.align	1
  15              		.global	HAL_PWR_ConfigPVD
  16              		.arch armv6s-m
  17              		.syntax unified
  18              		.code	16
  19              		.thumb_func
  20              		.fpu softvfp
  22              	HAL_PWR_ConfigPVD:
  23              		@ args = 0, pretend = 0, frame = 0
  24              		@ frame_needed = 0, uses_anonymous_args = 0
  25              		@ link register save eliminated.
  26 0000 E021     		movs	r1, #224
  27 0002 194A     		ldr	r2, .L18
  28 0004 1368     		ldr	r3, [r2]
  29 0006 8B43     		bics	r3, r1
  30 0008 0168     		ldr	r1, [r0]
  31 000a 0B43     		orrs	r3, r1
  32 000c 1360     		str	r3, [r2]
  33 000e 174B     		ldr	r3, .L18+4
  34 0010 174A     		ldr	r2, .L18+8
  35 0012 5968     		ldr	r1, [r3, #4]
  36 0014 1140     		ands	r1, r2
  37 0016 5960     		str	r1, [r3, #4]
  38 0018 1968     		ldr	r1, [r3]
  39 001a 1140     		ands	r1, r2
  40 001c 1960     		str	r1, [r3]
  41 001e 9968     		ldr	r1, [r3, #8]
  42 0020 1140     		ands	r1, r2
  43 0022 9960     		str	r1, [r3, #8]
  44 0024 D968     		ldr	r1, [r3, #12]
  45 0026 0A40     		ands	r2, r1
  46 0028 8021     		movs	r1, #128
  47 002a DA60     		str	r2, [r3, #12]
  48 002c 4268     		ldr	r2, [r0, #4]
  49 002e 4902     		lsls	r1, r1, #9
  50 0030 0A42     		tst	r2, r1
  51 0032 02D0     		beq	.L2
  52 0034 1868     		ldr	r0, [r3]
  53 0036 0143     		orrs	r1, r0
  54 0038 1960     		str	r1, [r3]
  55              	.L2:
  56 003a 9103     		lsls	r1, r2, #14
  57 003c 04D5     		bpl	.L3
  58 003e 8021     		movs	r1, #128
ARM GAS  /tmp/ccd9Qx9c.s 			page 2


  59 0040 5868     		ldr	r0, [r3, #4]
  60 0042 4902     		lsls	r1, r1, #9
  61 0044 0143     		orrs	r1, r0
  62 0046 5960     		str	r1, [r3, #4]
  63              	.L3:
  64 0048 D107     		lsls	r1, r2, #31
  65 004a 04D5     		bpl	.L4
  66 004c 8021     		movs	r1, #128
  67 004e 9868     		ldr	r0, [r3, #8]
  68 0050 4902     		lsls	r1, r1, #9
  69 0052 0143     		orrs	r1, r0
  70 0054 9960     		str	r1, [r3, #8]
  71              	.L4:
  72 0056 9207     		lsls	r2, r2, #30
  73 0058 04D5     		bpl	.L1
  74 005a 8022     		movs	r2, #128
  75 005c D968     		ldr	r1, [r3, #12]
  76 005e 5202     		lsls	r2, r2, #9
  77 0060 0A43     		orrs	r2, r1
  78 0062 DA60     		str	r2, [r3, #12]
  79              	.L1:
  80              		@ sp needed
  81 0064 7047     		bx	lr
  82              	.L19:
  83 0066 C046     		.align	2
  84              	.L18:
  85 0068 00700040 		.word	1073770496
  86 006c 00040140 		.word	1073808384
  87 0070 FFFFFEFF 		.word	-65537
  89              		.section	.text.HAL_PWR_EnablePVD,"ax",%progbits
  90              		.align	1
  91              		.global	HAL_PWR_EnablePVD
  92              		.syntax unified
  93              		.code	16
  94              		.thumb_func
  95              		.fpu softvfp
  97              	HAL_PWR_EnablePVD:
  98              		@ args = 0, pretend = 0, frame = 0
  99              		@ frame_needed = 0, uses_anonymous_args = 0
 100              		@ link register save eliminated.
 101 0000 1023     		movs	r3, #16
 102              		@ sp needed
 103 0002 024A     		ldr	r2, .L21
 104 0004 1168     		ldr	r1, [r2]
 105 0006 0B43     		orrs	r3, r1
 106 0008 1360     		str	r3, [r2]
 107 000a 7047     		bx	lr
 108              	.L22:
 109              		.align	2
 110              	.L21:
 111 000c 00700040 		.word	1073770496
 113              		.section	.text.HAL_PWR_DisablePVD,"ax",%progbits
 114              		.align	1
 115              		.global	HAL_PWR_DisablePVD
 116              		.syntax unified
 117              		.code	16
 118              		.thumb_func
ARM GAS  /tmp/ccd9Qx9c.s 			page 3


 119              		.fpu softvfp
 121              	HAL_PWR_DisablePVD:
 122              		@ args = 0, pretend = 0, frame = 0
 123              		@ frame_needed = 0, uses_anonymous_args = 0
 124              		@ link register save eliminated.
 125 0000 1021     		movs	r1, #16
 126              		@ sp needed
 127 0002 024A     		ldr	r2, .L24
 128 0004 1368     		ldr	r3, [r2]
 129 0006 8B43     		bics	r3, r1
 130 0008 1360     		str	r3, [r2]
 131 000a 7047     		bx	lr
 132              	.L25:
 133              		.align	2
 134              	.L24:
 135 000c 00700040 		.word	1073770496
 137              		.section	.text.HAL_PWR_PVDCallback,"ax",%progbits
 138              		.align	1
 139              		.weak	HAL_PWR_PVDCallback
 140              		.syntax unified
 141              		.code	16
 142              		.thumb_func
 143              		.fpu softvfp
 145              	HAL_PWR_PVDCallback:
 146              		@ args = 0, pretend = 0, frame = 0
 147              		@ frame_needed = 0, uses_anonymous_args = 0
 148              		@ link register save eliminated.
 149              		@ sp needed
 150 0000 7047     		bx	lr
 152              		.section	.text.HAL_PWR_PVD_IRQHandler,"ax",%progbits
 153              		.align	1
 154              		.global	HAL_PWR_PVD_IRQHandler
 155              		.syntax unified
 156              		.code	16
 157              		.thumb_func
 158              		.fpu softvfp
 160              	HAL_PWR_PVD_IRQHandler:
 161              		@ args = 0, pretend = 0, frame = 0
 162              		@ frame_needed = 0, uses_anonymous_args = 0
 163 0000 70B5     		push	{r4, r5, r6, lr}
 164 0002 8025     		movs	r5, #128
 165 0004 044C     		ldr	r4, .L32
 166 0006 6D02     		lsls	r5, r5, #9
 167 0008 6369     		ldr	r3, [r4, #20]
 168 000a 2B42     		tst	r3, r5
 169 000c 02D0     		beq	.L27
 170 000e FFF7FEFF 		bl	HAL_PWR_PVDCallback
 171 0012 6561     		str	r5, [r4, #20]
 172              	.L27:
 173              		@ sp needed
 174 0014 70BD     		pop	{r4, r5, r6, pc}
 175              	.L33:
 176 0016 C046     		.align	2
 177              	.L32:
 178 0018 00040140 		.word	1073808384
 180              		.section	.text.HAL_PWREx_EnableVddio2Monitor,"ax",%progbits
 181              		.align	1
ARM GAS  /tmp/ccd9Qx9c.s 			page 4


 182              		.global	HAL_PWREx_EnableVddio2Monitor
 183              		.syntax unified
 184              		.code	16
 185              		.thumb_func
 186              		.fpu softvfp
 188              	HAL_PWREx_EnableVddio2Monitor:
 189              		@ args = 0, pretend = 0, frame = 0
 190              		@ frame_needed = 0, uses_anonymous_args = 0
 191              		@ link register save eliminated.
 192 0000 8022     		movs	r2, #128
 193              		@ sp needed
 194 0002 044B     		ldr	r3, .L35
 195 0004 1206     		lsls	r2, r2, #24
 196 0006 1968     		ldr	r1, [r3]
 197 0008 1143     		orrs	r1, r2
 198 000a 1960     		str	r1, [r3]
 199 000c D968     		ldr	r1, [r3, #12]
 200 000e 0A43     		orrs	r2, r1
 201 0010 DA60     		str	r2, [r3, #12]
 202 0012 7047     		bx	lr
 203              	.L36:
 204              		.align	2
 205              	.L35:
 206 0014 00040140 		.word	1073808384
 208              		.section	.text.HAL_PWREx_DisableVddio2Monitor,"ax",%progbits
 209              		.align	1
 210              		.global	HAL_PWREx_DisableVddio2Monitor
 211              		.syntax unified
 212              		.code	16
 213              		.thumb_func
 214              		.fpu softvfp
 216              	HAL_PWREx_DisableVddio2Monitor:
 217              		@ args = 0, pretend = 0, frame = 0
 218              		@ frame_needed = 0, uses_anonymous_args = 0
 219              		@ link register save eliminated.
 220 0000 064B     		ldr	r3, .L38
 221              		@ sp needed
 222 0002 1A68     		ldr	r2, [r3]
 223 0004 5200     		lsls	r2, r2, #1
 224 0006 5208     		lsrs	r2, r2, #1
 225 0008 1A60     		str	r2, [r3]
 226 000a DA68     		ldr	r2, [r3, #12]
 227 000c 5200     		lsls	r2, r2, #1
 228 000e 5208     		lsrs	r2, r2, #1
 229 0010 DA60     		str	r2, [r3, #12]
 230 0012 9A68     		ldr	r2, [r3, #8]
 231 0014 5200     		lsls	r2, r2, #1
 232 0016 5208     		lsrs	r2, r2, #1
 233 0018 9A60     		str	r2, [r3, #8]
 234 001a 7047     		bx	lr
 235              	.L39:
 236              		.align	2
 237              	.L38:
 238 001c 00040140 		.word	1073808384
 240              		.section	.text.HAL_PWREx_Vddio2MonitorCallback,"ax",%progbits
 241              		.align	1
 242              		.weak	HAL_PWREx_Vddio2MonitorCallback
ARM GAS  /tmp/ccd9Qx9c.s 			page 5


 243              		.syntax unified
 244              		.code	16
 245              		.thumb_func
 246              		.fpu softvfp
 248              	HAL_PWREx_Vddio2MonitorCallback:
 249              		@ args = 0, pretend = 0, frame = 0
 250              		@ frame_needed = 0, uses_anonymous_args = 0
 251              		@ link register save eliminated.
 252              		@ sp needed
 253 0000 7047     		bx	lr
 255              		.section	.text.HAL_PWREx_Vddio2Monitor_IRQHandler,"ax",%progbits
 256              		.align	1
 257              		.global	HAL_PWREx_Vddio2Monitor_IRQHandler
 258              		.syntax unified
 259              		.code	16
 260              		.thumb_func
 261              		.fpu softvfp
 263              	HAL_PWREx_Vddio2Monitor_IRQHandler:
 264              		@ args = 0, pretend = 0, frame = 0
 265              		@ frame_needed = 0, uses_anonymous_args = 0
 266 0000 10B5     		push	{r4, lr}
 267 0002 054C     		ldr	r4, .L43
 268 0004 6369     		ldr	r3, [r4, #20]
 269 0006 002B     		cmp	r3, #0
 270 0008 04DA     		bge	.L41
 271 000a FFF7FEFF 		bl	HAL_PWREx_Vddio2MonitorCallback
 272 000e 8023     		movs	r3, #128
 273 0010 1B06     		lsls	r3, r3, #24
 274 0012 6361     		str	r3, [r4, #20]
 275              	.L41:
 276              		@ sp needed
 277 0014 10BD     		pop	{r4, pc}
 278              	.L44:
 279 0016 C046     		.align	2
 280              	.L43:
 281 0018 00040140 		.word	1073808384
 283              		.ident	"GCC: (Arch Repository) 10.1.0"
ARM GAS  /tmp/ccd9Qx9c.s 			page 6

