ARM GAS  /tmp/ccxlrIOP.s 			page 1


   1              		.cpu cortex-m0
   2              		.eabi_attribute 20, 1
   3              		.eabi_attribute 21, 1
   4              		.eabi_attribute 23, 3
   5              		.eabi_attribute 24, 1
   6              		.eabi_attribute 25, 1
   7              		.eabi_attribute 26, 1
   8              		.eabi_attribute 30, 4
   9              		.eabi_attribute 34, 0
  10              		.eabi_attribute 18, 4
  11              		.file	"stm32f0xx_hal_rcc_ex.c"
  12              		.text
  13              		.section	.text.HAL_RCCEx_PeriphCLKConfig,"ax",%progbits
  14              		.align	1
  15              		.global	HAL_RCCEx_PeriphCLKConfig
  16              		.arch armv6s-m
  17              		.syntax unified
  18              		.code	16
  19              		.thumb_func
  20              		.fpu softvfp
  22              	HAL_RCCEx_PeriphCLKConfig:
  23              		@ args = 0, pretend = 0, frame = 16
  24              		@ frame_needed = 0, uses_anonymous_args = 0
  25 0000 F0B5     		push	{r4, r5, r6, r7, lr}
  26 0002 0368     		ldr	r3, [r0]
  27 0004 0500     		movs	r5, r0
  28 0006 85B0     		sub	sp, sp, #20
  29 0008 DB03     		lsls	r3, r3, #15
  30 000a 2AD5     		bpl	.L3
  31 000c 8022     		movs	r2, #128
  32 000e 0021     		movs	r1, #0
  33 0010 454C     		ldr	r4, .L40
  34 0012 5205     		lsls	r2, r2, #21
  35 0014 E369     		ldr	r3, [r4, #28]
  36 0016 0091     		str	r1, [sp]
  37 0018 1342     		tst	r3, r2
  38 001a 08D1     		bne	.L4
  39 001c E369     		ldr	r3, [r4, #28]
  40 001e 1343     		orrs	r3, r2
  41 0020 E361     		str	r3, [r4, #28]
  42 0022 E369     		ldr	r3, [r4, #28]
  43 0024 1340     		ands	r3, r2
  44 0026 0393     		str	r3, [sp, #12]
  45 0028 039B     		ldr	r3, [sp, #12]
  46 002a 0123     		movs	r3, #1
  47 002c 0093     		str	r3, [sp]
  48              	.L4:
  49 002e 8027     		movs	r7, #128
  50 0030 3E4E     		ldr	r6, .L40+4
  51 0032 7F00     		lsls	r7, r7, #1
  52 0034 3368     		ldr	r3, [r6]
  53 0036 3B42     		tst	r3, r7
  54 0038 43D0     		beq	.L5
  55              	.L11:
  56 003a 226A     		ldr	r2, [r4, #32]
  57 003c C023     		movs	r3, #192
  58 003e 1100     		movs	r1, r2
ARM GAS  /tmp/ccxlrIOP.s 			page 2


  59 0040 9B00     		lsls	r3, r3, #2
  60 0042 3B4E     		ldr	r6, .L40+8
  61 0044 1940     		ands	r1, r3
  62 0046 1A42     		tst	r2, r3
  63 0048 4DD1     		bne	.L6
  64              	.L7:
  65 004a 236A     		ldr	r3, [r4, #32]
  66 004c 1E40     		ands	r6, r3
  67 004e 6B68     		ldr	r3, [r5, #4]
  68 0050 1E43     		orrs	r6, r3
  69 0052 009B     		ldr	r3, [sp]
  70 0054 2662     		str	r6, [r4, #32]
  71 0056 012B     		cmp	r3, #1
  72 0058 03D1     		bne	.L3
  73 005a E369     		ldr	r3, [r4, #28]
  74 005c 354A     		ldr	r2, .L40+12
  75 005e 1340     		ands	r3, r2
  76 0060 E361     		str	r3, [r4, #28]
  77              	.L3:
  78 0062 2B68     		ldr	r3, [r5]
  79 0064 DA07     		lsls	r2, r3, #31
  80 0066 06D5     		bpl	.L17
  81 0068 0320     		movs	r0, #3
  82 006a 2F49     		ldr	r1, .L40
  83 006c 0A6B     		ldr	r2, [r1, #48]
  84 006e 8243     		bics	r2, r0
  85 0070 A868     		ldr	r0, [r5, #8]
  86 0072 0243     		orrs	r2, r0
  87 0074 0A63     		str	r2, [r1, #48]
  88              	.L17:
  89 0076 9A07     		lsls	r2, r3, #30
  90 0078 06D5     		bpl	.L18
  91 007a 2B49     		ldr	r1, .L40
  92 007c 2E48     		ldr	r0, .L40+16
  93 007e 0A6B     		ldr	r2, [r1, #48]
  94 0080 0240     		ands	r2, r0
  95 0082 E868     		ldr	r0, [r5, #12]
  96 0084 0243     		orrs	r2, r0
  97 0086 0A63     		str	r2, [r1, #48]
  98              	.L18:
  99 0088 9A06     		lsls	r2, r3, #26
 100 008a 06D5     		bpl	.L19
 101 008c 1020     		movs	r0, #16
 102 008e 2649     		ldr	r1, .L40
 103 0090 0A6B     		ldr	r2, [r1, #48]
 104 0092 8243     		bics	r2, r0
 105 0094 2869     		ldr	r0, [r5, #16]
 106 0096 0243     		orrs	r2, r0
 107 0098 0A63     		str	r2, [r1, #48]
 108              	.L19:
 109 009a 9A03     		lsls	r2, r3, #14
 110 009c 06D5     		bpl	.L20
 111 009e 8020     		movs	r0, #128
 112 00a0 2149     		ldr	r1, .L40
 113 00a2 0A6B     		ldr	r2, [r1, #48]
 114 00a4 8243     		bics	r2, r0
 115 00a6 A869     		ldr	r0, [r5, #24]
ARM GAS  /tmp/ccxlrIOP.s 			page 3


 116 00a8 0243     		orrs	r2, r0
 117 00aa 0A63     		str	r2, [r1, #48]
 118              	.L20:
 119 00ac 0020     		movs	r0, #0
 120 00ae 5B05     		lsls	r3, r3, #21
 121 00b0 17D5     		bpl	.L9
 122 00b2 4021     		movs	r1, #64
 123 00b4 1C4A     		ldr	r2, .L40
 124 00b6 136B     		ldr	r3, [r2, #48]
 125 00b8 8B43     		bics	r3, r1
 126 00ba 6969     		ldr	r1, [r5, #20]
 127 00bc 0B43     		orrs	r3, r1
 128 00be 1363     		str	r3, [r2, #48]
 129 00c0 0FE0     		b	.L9
 130              	.L5:
 131 00c2 3368     		ldr	r3, [r6]
 132 00c4 3B43     		orrs	r3, r7
 133 00c6 3360     		str	r3, [r6]
 134 00c8 FFF7FEFF 		bl	HAL_GetTick
 135 00cc 0190     		str	r0, [sp, #4]
 136              	.L8:
 137 00ce 3368     		ldr	r3, [r6]
 138 00d0 3B42     		tst	r3, r7
 139 00d2 B2D1     		bne	.L11
 140 00d4 FFF7FEFF 		bl	HAL_GetTick
 141 00d8 019B     		ldr	r3, [sp, #4]
 142 00da C01A     		subs	r0, r0, r3
 143 00dc 6428     		cmp	r0, #100
 144 00de F6D9     		bls	.L8
 145              	.L15:
 146 00e0 0320     		movs	r0, #3
 147              	.L9:
 148 00e2 05B0     		add	sp, sp, #20
 149              		@ sp needed
 150 00e4 F0BD     		pop	{r4, r5, r6, r7, pc}
 151              	.L6:
 152 00e6 6A68     		ldr	r2, [r5, #4]
 153 00e8 1340     		ands	r3, r2
 154 00ea 8B42     		cmp	r3, r1
 155 00ec ADD0     		beq	.L7
 156 00ee 8023     		movs	r3, #128
 157 00f0 226A     		ldr	r2, [r4, #32]
 158 00f2 206A     		ldr	r0, [r4, #32]
 159 00f4 1100     		movs	r1, r2
 160 00f6 5B02     		lsls	r3, r3, #9
 161 00f8 0343     		orrs	r3, r0
 162 00fa 2362     		str	r3, [r4, #32]
 163 00fc 236A     		ldr	r3, [r4, #32]
 164 00fe 0F48     		ldr	r0, .L40+20
 165 0100 3140     		ands	r1, r6
 166 0102 0340     		ands	r3, r0
 167 0104 2362     		str	r3, [r4, #32]
 168 0106 2162     		str	r1, [r4, #32]
 169 0108 D307     		lsls	r3, r2, #31
 170 010a 9ED5     		bpl	.L7
 171 010c FFF7FEFF 		bl	HAL_GetTick
 172 0110 0700     		movs	r7, r0
ARM GAS  /tmp/ccxlrIOP.s 			page 4


 173              	.L14:
 174 0112 0222     		movs	r2, #2
 175 0114 236A     		ldr	r3, [r4, #32]
 176 0116 1342     		tst	r3, r2
 177 0118 97D1     		bne	.L7
 178 011a FFF7FEFF 		bl	HAL_GetTick
 179 011e 084B     		ldr	r3, .L40+24
 180 0120 C01B     		subs	r0, r0, r7
 181 0122 9842     		cmp	r0, r3
 182 0124 F5D9     		bls	.L14
 183 0126 DBE7     		b	.L15
 184              	.L41:
 185              		.align	2
 186              	.L40:
 187 0128 00100240 		.word	1073876992
 188 012c 00700040 		.word	1073770496
 189 0130 FFFCFFFF 		.word	-769
 190 0134 FFFFFFEF 		.word	-268435457
 191 0138 FFFFFCFF 		.word	-196609
 192 013c FFFFFEFF 		.word	-65537
 193 0140 88130000 		.word	5000
 195              		.section	.text.HAL_RCCEx_GetPeriphCLKConfig,"ax",%progbits
 196              		.align	1
 197              		.global	HAL_RCCEx_GetPeriphCLKConfig
 198              		.syntax unified
 199              		.code	16
 200              		.thumb_func
 201              		.fpu softvfp
 203              	HAL_RCCEx_GetPeriphCLKConfig:
 204              		@ args = 0, pretend = 0, frame = 0
 205              		@ frame_needed = 0, uses_anonymous_args = 0
 206              		@ link register save eliminated.
 207 0000 C021     		movs	r1, #192
 208              		@ sp needed
 209 0002 0E4B     		ldr	r3, .L43
 210 0004 8900     		lsls	r1, r1, #2
 211 0006 1A6A     		ldr	r2, [r3, #32]
 212 0008 0A40     		ands	r2, r1
 213 000a 0321     		movs	r1, #3
 214 000c 4260     		str	r2, [r0, #4]
 215 000e 1A6B     		ldr	r2, [r3, #48]
 216 0010 0A40     		ands	r2, r1
 217 0012 8260     		str	r2, [r0, #8]
 218 0014 1A6B     		ldr	r2, [r3, #48]
 219 0016 0D31     		adds	r1, r1, #13
 220 0018 0A40     		ands	r2, r1
 221 001a C021     		movs	r1, #192
 222 001c 0261     		str	r2, [r0, #16]
 223 001e 1A6B     		ldr	r2, [r3, #48]
 224 0020 8902     		lsls	r1, r1, #10
 225 0022 0A40     		ands	r2, r1
 226 0024 8021     		movs	r1, #128
 227 0026 C260     		str	r2, [r0, #12]
 228 0028 1A6B     		ldr	r2, [r3, #48]
 229 002a 0A40     		ands	r2, r1
 230 002c 8261     		str	r2, [r0, #24]
 231 002e 044A     		ldr	r2, .L43+4
ARM GAS  /tmp/ccxlrIOP.s 			page 5


 232 0030 0260     		str	r2, [r0]
 233 0032 4022     		movs	r2, #64
 234 0034 1B6B     		ldr	r3, [r3, #48]
 235 0036 1340     		ands	r3, r2
 236 0038 4361     		str	r3, [r0, #20]
 237 003a 7047     		bx	lr
 238              	.L44:
 239              		.align	2
 240              	.L43:
 241 003c 00100240 		.word	1073876992
 242 0040 23040300 		.word	197667
 244              		.global	__aeabi_uidiv
 245              		.global	__aeabi_idiv
 246              		.section	.text.HAL_RCCEx_GetPeriphCLKFreq,"ax",%progbits
 247              		.align	1
 248              		.global	HAL_RCCEx_GetPeriphCLKFreq
 249              		.syntax unified
 250              		.code	16
 251              		.thumb_func
 252              		.fpu softvfp
 254              	HAL_RCCEx_GetPeriphCLKFreq:
 255              		@ args = 0, pretend = 0, frame = 0
 256              		@ frame_needed = 0, uses_anonymous_args = 0
 257 0000 8022     		movs	r2, #128
 258 0002 F8B5     		push	{r3, r4, r5, r6, r7, lr}
 259 0004 D200     		lsls	r2, r2, #3
 260 0006 0300     		movs	r3, r0
 261 0008 9042     		cmp	r0, r2
 262 000a 00D1     		bne	.LCB280
 263 000c 9EE0     		b	.L46	@long jump
 264              	.LCB280:
 265 000e 09D8     		bhi	.L47
 266 0010 0228     		cmp	r0, #2
 267 0012 00D1     		bne	.LCB284
 268 0014 6EE0     		b	.L48	@long jump
 269              	.LCB284:
 270 0016 2028     		cmp	r0, #32
 271 0018 00D1     		bne	.LCB286
 272 001a 83E0     		b	.L49	@long jump
 273              	.LCB286:
 274 001c 0128     		cmp	r0, #1
 275 001e 4ED0     		beq	.L50
 276              	.L107:
 277 0020 0020     		movs	r0, #0
 278              	.L45:
 279              		@ sp needed
 280 0022 F8BD     		pop	{r3, r4, r5, r6, r7, pc}
 281              	.L47:
 282 0024 8025     		movs	r5, #128
 283 0026 6D02     		lsls	r5, r5, #9
 284 0028 A842     		cmp	r0, r5
 285 002a 1ED0     		beq	.L52
 286 002c 8022     		movs	r2, #128
 287 002e 9202     		lsls	r2, r2, #10
 288 0030 9042     		cmp	r0, r2
 289 0032 F5D1     		bne	.L107
 290 0034 484A     		ldr	r2, .L122
ARM GAS  /tmp/ccxlrIOP.s 			page 6


 291 0036 116B     		ldr	r1, [r2, #48]
 292 0038 0906     		lsls	r1, r1, #24
 293 003a 7FD5     		bpl	.L62
 294 003c 1168     		ldr	r1, [r2]
 295 003e 8023     		movs	r3, #128
 296 0040 0800     		movs	r0, r1
 297 0042 9B04     		lsls	r3, r3, #18
 298 0044 1840     		ands	r0, r3
 299 0046 1942     		tst	r1, r3
 300 0048 EBD0     		beq	.L45
 301 004a 0F27     		movs	r7, #15
 302 004c C026     		movs	r6, #192
 303 004e 5068     		ldr	r0, [r2, #4]
 304 0050 5368     		ldr	r3, [r2, #4]
 305 0052 D16A     		ldr	r1, [r2, #44]
 306 0054 800C     		lsrs	r0, r0, #18
 307 0056 7602     		lsls	r6, r6, #9
 308 0058 3840     		ands	r0, r7
 309 005a 3940     		ands	r1, r7
 310 005c 3340     		ands	r3, r6
 311 005e 841C     		adds	r4, r0, #2
 312 0060 0131     		adds	r1, r1, #1
 313 0062 AB42     		cmp	r3, r5
 314 0064 63D1     		bne	.L63
 315              	.L64:
 316 0066 3D48     		ldr	r0, .L122+4
 317 0068 64E0     		b	.L110
 318              	.L52:
 319 006a C021     		movs	r1, #192
 320 006c 8020     		movs	r0, #128
 321 006e 3A4A     		ldr	r2, .L122
 322 0070 8900     		lsls	r1, r1, #2
 323 0072 136A     		ldr	r3, [r2, #32]
 324 0074 4000     		lsls	r0, r0, #1
 325 0076 0B40     		ands	r3, r1
 326 0078 8342     		cmp	r3, r0
 327 007a 08D1     		bne	.L54
 328 007c 126A     		ldr	r2, [r2, #32]
 329              	.L121:
 330 007e 0223     		movs	r3, #2
 331              	.L117:
 332 0080 1000     		movs	r0, r2
 333 0082 1840     		ands	r0, r3
 334 0084 1A42     		tst	r2, r3
 335 0086 CCD0     		beq	.L45
 336 0088 8020     		movs	r0, #128
 337 008a 0002     		lsls	r0, r0, #8
 338 008c C9E7     		b	.L45
 339              	.L54:
 340 008e 8020     		movs	r0, #128
 341 0090 8000     		lsls	r0, r0, #2
 342 0092 8342     		cmp	r3, r0
 343 0094 07D1     		bne	.L55
 344 0096 526A     		ldr	r2, [r2, #36]
 345 0098 0223     		movs	r3, #2
 346 009a 1000     		movs	r0, r2
 347 009c 1840     		ands	r0, r3
ARM GAS  /tmp/ccxlrIOP.s 			page 7


 348 009e 1A42     		tst	r2, r3
 349 00a0 BFD0     		beq	.L45
 350 00a2 2F48     		ldr	r0, .L122+8
 351 00a4 BDE7     		b	.L45
 352              	.L55:
 353 00a6 0020     		movs	r0, #0
 354 00a8 8B42     		cmp	r3, r1
 355 00aa BAD1     		bne	.L45
 356 00ac 1268     		ldr	r2, [r2]
 357 00ae 8023     		movs	r3, #128
 358 00b0 1000     		movs	r0, r2
 359 00b2 9B02     		lsls	r3, r3, #10
 360 00b4 1840     		ands	r0, r3
 361 00b6 1A42     		tst	r2, r3
 362 00b8 B3D0     		beq	.L45
 363 00ba 2A48     		ldr	r0, .L122+12
 364 00bc B1E7     		b	.L45
 365              	.L50:
 366 00be 264B     		ldr	r3, .L122
 367 00c0 0321     		movs	r1, #3
 368 00c2 186B     		ldr	r0, [r3, #48]
 369 00c4 0200     		movs	r2, r0
 370 00c6 0A40     		ands	r2, r1
 371 00c8 0842     		tst	r0, r1
 372 00ca 02D1     		bne	.L56
 373              	.L59:
 374 00cc FFF7FEFF 		bl	HAL_RCC_GetPCLK1Freq
 375 00d0 A7E7     		b	.L45
 376              	.L56:
 377 00d2 032A     		cmp	r2, #3
 378 00d4 07D1     		bne	.L57
 379              	.L120:
 380 00d6 1A68     		ldr	r2, [r3]
 381 00d8 0223     		movs	r3, #2
 382              	.L112:
 383 00da 1000     		movs	r0, r2
 384 00dc 1840     		ands	r0, r3
 385 00de 1A42     		tst	r2, r3
 386 00e0 9FD0     		beq	.L45
 387 00e2 1E48     		ldr	r0, .L122+4
 388 00e4 9DE7     		b	.L45
 389              	.L57:
 390 00e6 012A     		cmp	r2, #1
 391 00e8 02D1     		bne	.L58
 392              	.L61:
 393 00ea FFF7FEFF 		bl	HAL_RCC_GetSysClockFreq
 394 00ee 98E7     		b	.L45
 395              	.L58:
 396 00f0 1A6A     		ldr	r2, [r3, #32]
 397 00f2 C4E7     		b	.L121
 398              	.L48:
 399 00f4 184A     		ldr	r2, .L122
 400 00f6 C020     		movs	r0, #192
 401 00f8 146B     		ldr	r4, [r2, #48]
 402 00fa 8002     		lsls	r0, r0, #10
 403 00fc 2100     		movs	r1, r4
 404 00fe 0140     		ands	r1, r0
ARM GAS  /tmp/ccxlrIOP.s 			page 8


 405 0100 0442     		tst	r4, r0
 406 0102 E3D0     		beq	.L59
 407 0104 8142     		cmp	r1, r0
 408 0106 01D1     		bne	.L60
 409              	.L114:
 410 0108 1268     		ldr	r2, [r2]
 411 010a E6E7     		b	.L112
 412              	.L60:
 413 010c 8020     		movs	r0, #128
 414 010e 4002     		lsls	r0, r0, #9
 415 0110 8142     		cmp	r1, r0
 416 0112 EAD0     		beq	.L61
 417 0114 8024     		movs	r4, #128
 418 0116 0020     		movs	r0, #0
 419 0118 A402     		lsls	r4, r4, #10
 420 011a A142     		cmp	r1, r4
 421 011c 00D0     		beq	.LCB466
 422 011e 80E7     		b	.L45	@long jump
 423              	.LCB466:
 424              	.L65:
 425 0120 126A     		ldr	r2, [r2, #32]
 426 0122 ADE7     		b	.L117
 427              	.L49:
 428 0124 0C4B     		ldr	r3, .L122
 429 0126 1A6B     		ldr	r2, [r3, #48]
 430 0128 D206     		lsls	r2, r2, #27
 431 012a DED4     		bmi	.L61
 432 012c D3E7     		b	.L120
 433              	.L63:
 434 012e B342     		cmp	r3, r6
 435 0130 99D1     		bne	.L64
 436 0132 0D48     		ldr	r0, .L122+16
 437              	.L110:
 438 0134 FFF7FEFF 		bl	__aeabi_uidiv
 439 0138 6043     		muls	r0, r4
 440 013a 72E7     		b	.L45
 441              	.L62:
 442 013c 526B     		ldr	r2, [r2, #52]
 443 013e 1000     		movs	r0, r2
 444 0140 1840     		ands	r0, r3
 445 0142 1A42     		tst	r2, r3
 446 0144 00D1     		bne	.LCB499
 447 0146 6CE7     		b	.L45	@long jump
 448              	.LCB499:
 449 0148 0748     		ldr	r0, .L122+16
 450 014a 6AE7     		b	.L45
 451              	.L46:
 452 014c 024A     		ldr	r2, .L122
 453 014e 0223     		movs	r3, #2
 454 0150 116B     		ldr	r1, [r2, #48]
 455 0152 4906     		lsls	r1, r1, #25
 456 0154 E4D4     		bmi	.L65
 457 0156 D7E7     		b	.L114
 458              	.L123:
 459              		.align	2
 460              	.L122:
 461 0158 00100240 		.word	1073876992
ARM GAS  /tmp/ccxlrIOP.s 			page 9


 462 015c 00127A00 		.word	8000000
 463 0160 409C0000 		.word	40000
 464 0164 90D00300 		.word	250000
 465 0168 006CDC02 		.word	48000000
 467              		.section	.text.HAL_RCCEx_CRSConfig,"ax",%progbits
 468              		.align	1
 469              		.global	HAL_RCCEx_CRSConfig
 470              		.syntax unified
 471              		.code	16
 472              		.thumb_func
 473              		.fpu softvfp
 475              	HAL_RCCEx_CRSConfig:
 476              		@ args = 0, pretend = 0, frame = 0
 477              		@ frame_needed = 0, uses_anonymous_args = 0
 478 0000 8022     		movs	r2, #128
 479 0002 114B     		ldr	r3, .L125
 480 0004 1205     		lsls	r2, r2, #20
 481 0006 1969     		ldr	r1, [r3, #16]
 482 0008 10B5     		push	{r4, lr}
 483 000a 0A43     		orrs	r2, r1
 484 000c 1A61     		str	r2, [r3, #16]
 485 000e 1A69     		ldr	r2, [r3, #16]
 486 0010 0E49     		ldr	r1, .L125+4
 487              		@ sp needed
 488 0012 0A40     		ands	r2, r1
 489 0014 1A61     		str	r2, [r3, #16]
 490 0016 4268     		ldr	r2, [r0, #4]
 491 0018 0368     		ldr	r3, [r0]
 492 001a 0D49     		ldr	r1, .L125+8
 493 001c 1343     		orrs	r3, r2
 494 001e 8268     		ldr	r2, [r0, #8]
 495 0020 1343     		orrs	r3, r2
 496 0022 C268     		ldr	r2, [r0, #12]
 497 0024 1343     		orrs	r3, r2
 498 0026 0269     		ldr	r2, [r0, #16]
 499 0028 1204     		lsls	r2, r2, #16
 500 002a 1343     		orrs	r3, r2
 501 002c 094A     		ldr	r2, .L125+12
 502 002e 5360     		str	r3, [r2, #4]
 503 0030 1468     		ldr	r4, [r2]
 504 0032 4369     		ldr	r3, [r0, #20]
 505 0034 2140     		ands	r1, r4
 506 0036 1B02     		lsls	r3, r3, #8
 507 0038 0B43     		orrs	r3, r1
 508 003a 1360     		str	r3, [r2]
 509 003c 6023     		movs	r3, #96
 510 003e 1168     		ldr	r1, [r2]
 511 0040 0B43     		orrs	r3, r1
 512 0042 1360     		str	r3, [r2]
 513 0044 10BD     		pop	{r4, pc}
 514              	.L126:
 515 0046 C046     		.align	2
 516              	.L125:
 517 0048 00100240 		.word	1073876992
 518 004c FFFFFFF7 		.word	-134217729
 519 0050 FFC0FFFF 		.word	-16129
 520 0054 006C0040 		.word	1073769472
ARM GAS  /tmp/ccxlrIOP.s 			page 10


 522              		.section	.text.HAL_RCCEx_CRSSoftwareSynchronizationGenerate,"ax",%progbits
 523              		.align	1
 524              		.global	HAL_RCCEx_CRSSoftwareSynchronizationGenerate
 525              		.syntax unified
 526              		.code	16
 527              		.thumb_func
 528              		.fpu softvfp
 530              	HAL_RCCEx_CRSSoftwareSynchronizationGenerate:
 531              		@ args = 0, pretend = 0, frame = 0
 532              		@ frame_needed = 0, uses_anonymous_args = 0
 533              		@ link register save eliminated.
 534 0000 8023     		movs	r3, #128
 535              		@ sp needed
 536 0002 024A     		ldr	r2, .L128
 537 0004 1168     		ldr	r1, [r2]
 538 0006 0B43     		orrs	r3, r1
 539 0008 1360     		str	r3, [r2]
 540 000a 7047     		bx	lr
 541              	.L129:
 542              		.align	2
 543              	.L128:
 544 000c 006C0040 		.word	1073769472
 546              		.section	.text.HAL_RCCEx_CRSGetSynchronizationInfo,"ax",%progbits
 547              		.align	1
 548              		.global	HAL_RCCEx_CRSGetSynchronizationInfo
 549              		.syntax unified
 550              		.code	16
 551              		.thumb_func
 552              		.fpu softvfp
 554              	HAL_RCCEx_CRSGetSynchronizationInfo:
 555              		@ args = 0, pretend = 0, frame = 0
 556              		@ frame_needed = 0, uses_anonymous_args = 0
 557              		@ link register save eliminated.
 558 0000 084A     		ldr	r2, .L131
 559              		@ sp needed
 560 0002 5368     		ldr	r3, [r2, #4]
 561 0004 9BB2     		uxth	r3, r3
 562 0006 0360     		str	r3, [r0]
 563 0008 1368     		ldr	r3, [r2]
 564 000a 9B04     		lsls	r3, r3, #18
 565 000c 9B0E     		lsrs	r3, r3, #26
 566 000e 4360     		str	r3, [r0, #4]
 567 0010 9368     		ldr	r3, [r2, #8]
 568 0012 1B0C     		lsrs	r3, r3, #16
 569 0014 8360     		str	r3, [r0, #8]
 570 0016 9368     		ldr	r3, [r2, #8]
 571 0018 8022     		movs	r2, #128
 572 001a 1202     		lsls	r2, r2, #8
 573 001c 1340     		ands	r3, r2
 574 001e C360     		str	r3, [r0, #12]
 575 0020 7047     		bx	lr
 576              	.L132:
 577 0022 C046     		.align	2
 578              	.L131:
 579 0024 006C0040 		.word	1073769472
 581              		.section	.text.HAL_RCCEx_CRSWaitSynchronization,"ax",%progbits
 582              		.align	1
ARM GAS  /tmp/ccxlrIOP.s 			page 11


 583              		.global	HAL_RCCEx_CRSWaitSynchronization
 584              		.syntax unified
 585              		.code	16
 586              		.thumb_func
 587              		.fpu softvfp
 589              	HAL_RCCEx_CRSWaitSynchronization:
 590              		@ args = 0, pretend = 0, frame = 0
 591              		@ frame_needed = 0, uses_anonymous_args = 0
 592 0000 F8B5     		push	{r3, r4, r5, r6, r7, lr}
 593 0002 0400     		movs	r4, r0
 594 0004 FFF7FEFF 		bl	HAL_GetTick
 595 0008 0226     		movs	r6, #2
 596 000a 0500     		movs	r5, r0
 597 000c 0827     		movs	r7, #8
 598              	.L141:
 599 000e 0020     		movs	r0, #0
 600 0010 631C     		adds	r3, r4, #1
 601 0012 08D0     		beq	.L134
 602 0014 0130     		adds	r0, r0, #1
 603 0016 002C     		cmp	r4, #0
 604 0018 05D0     		beq	.L134
 605 001a FFF7FEFF 		bl	HAL_GetTick
 606 001e 401B     		subs	r0, r0, r5
 607 0020 8442     		cmp	r4, r0
 608 0022 8041     		sbcs	r0, r0, r0
 609 0024 4042     		rsbs	r0, r0, #0
 610              	.L134:
 611 0026 0122     		movs	r2, #1
 612 0028 134B     		ldr	r3, .L165
 613 002a 9968     		ldr	r1, [r3, #8]
 614 002c 1142     		tst	r1, r2
 615 002e 01D0     		beq	.L135
 616 0030 3043     		orrs	r0, r6
 617 0032 DA60     		str	r2, [r3, #12]
 618              	.L135:
 619 0034 9A68     		ldr	r2, [r3, #8]
 620 0036 3242     		tst	r2, r6
 621 0038 02D0     		beq	.L136
 622 003a 0422     		movs	r2, #4
 623 003c DE60     		str	r6, [r3, #12]
 624 003e 1043     		orrs	r0, r2
 625              	.L136:
 626 0040 9A68     		ldr	r2, [r3, #8]
 627 0042 5205     		lsls	r2, r2, #21
 628 0044 03D5     		bpl	.L137
 629 0046 2022     		movs	r2, #32
 630 0048 1043     		orrs	r0, r2
 631 004a 1C3A     		subs	r2, r2, #28
 632 004c DA60     		str	r2, [r3, #12]
 633              	.L137:
 634 004e 9A68     		ldr	r2, [r3, #8]
 635 0050 D205     		lsls	r2, r2, #23
 636 0052 02D5     		bpl	.L138
 637 0054 0422     		movs	r2, #4
 638 0056 3843     		orrs	r0, r7
 639 0058 DA60     		str	r2, [r3, #12]
 640              	.L138:
ARM GAS  /tmp/ccxlrIOP.s 			page 12


 641 005a 9A68     		ldr	r2, [r3, #8]
 642 005c 9205     		lsls	r2, r2, #22
 643 005e 03D5     		bpl	.L139
 644 0060 1022     		movs	r2, #16
 645 0062 1043     		orrs	r0, r2
 646 0064 0C3A     		subs	r2, r2, #12
 647 0066 DA60     		str	r2, [r3, #12]
 648              	.L139:
 649 0068 9A68     		ldr	r2, [r3, #8]
 650 006a 3A42     		tst	r2, r7
 651 006c 00D0     		beq	.L140
 652 006e DF60     		str	r7, [r3, #12]
 653              	.L140:
 654 0070 0028     		cmp	r0, #0
 655 0072 CCD0     		beq	.L141
 656              		@ sp needed
 657 0074 F8BD     		pop	{r3, r4, r5, r6, r7, pc}
 658              	.L166:
 659 0076 C046     		.align	2
 660              	.L165:
 661 0078 006C0040 		.word	1073769472
 663              		.section	.text.HAL_RCCEx_CRS_SyncOkCallback,"ax",%progbits
 664              		.align	1
 665              		.weak	HAL_RCCEx_CRS_SyncOkCallback
 666              		.syntax unified
 667              		.code	16
 668              		.thumb_func
 669              		.fpu softvfp
 671              	HAL_RCCEx_CRS_SyncOkCallback:
 672              		@ args = 0, pretend = 0, frame = 0
 673              		@ frame_needed = 0, uses_anonymous_args = 0
 674              		@ link register save eliminated.
 675              		@ sp needed
 676 0000 7047     		bx	lr
 678              		.section	.text.HAL_RCCEx_CRS_SyncWarnCallback,"ax",%progbits
 679              		.align	1
 680              		.weak	HAL_RCCEx_CRS_SyncWarnCallback
 681              		.syntax unified
 682              		.code	16
 683              		.thumb_func
 684              		.fpu softvfp
 686              	HAL_RCCEx_CRS_SyncWarnCallback:
 687              		@ args = 0, pretend = 0, frame = 0
 688              		@ frame_needed = 0, uses_anonymous_args = 0
 689              		@ link register save eliminated.
 690              		@ sp needed
 691 0000 7047     		bx	lr
 693              		.section	.text.HAL_RCCEx_CRS_ExpectedSyncCallback,"ax",%progbits
 694              		.align	1
 695              		.weak	HAL_RCCEx_CRS_ExpectedSyncCallback
 696              		.syntax unified
 697              		.code	16
 698              		.thumb_func
 699              		.fpu softvfp
 701              	HAL_RCCEx_CRS_ExpectedSyncCallback:
 702              		@ args = 0, pretend = 0, frame = 0
 703              		@ frame_needed = 0, uses_anonymous_args = 0
ARM GAS  /tmp/ccxlrIOP.s 			page 13


 704              		@ link register save eliminated.
 705              		@ sp needed
 706 0000 7047     		bx	lr
 708              		.section	.text.HAL_RCCEx_CRS_ErrorCallback,"ax",%progbits
 709              		.align	1
 710              		.weak	HAL_RCCEx_CRS_ErrorCallback
 711              		.syntax unified
 712              		.code	16
 713              		.thumb_func
 714              		.fpu softvfp
 716              	HAL_RCCEx_CRS_ErrorCallback:
 717              		@ args = 0, pretend = 0, frame = 0
 718              		@ frame_needed = 0, uses_anonymous_args = 0
 719              		@ link register save eliminated.
 720              		@ sp needed
 721 0000 7047     		bx	lr
 723              		.section	.text.HAL_RCCEx_CRS_IRQHandler,"ax",%progbits
 724              		.align	1
 725              		.global	HAL_RCCEx_CRS_IRQHandler
 726              		.syntax unified
 727              		.code	16
 728              		.thumb_func
 729              		.fpu softvfp
 731              	HAL_RCCEx_CRS_IRQHandler:
 732              		@ args = 0, pretend = 0, frame = 0
 733              		@ frame_needed = 0, uses_anonymous_args = 0
 734 0000 0120     		movs	r0, #1
 735 0002 1B4A     		ldr	r2, .L212
 736 0004 10B5     		push	{r4, lr}
 737 0006 9368     		ldr	r3, [r2, #8]
 738 0008 1168     		ldr	r1, [r2]
 739 000a 0342     		tst	r3, r0
 740 000c 05D0     		beq	.L172
 741 000e 0142     		tst	r1, r0
 742 0010 03D0     		beq	.L172
 743 0012 D060     		str	r0, [r2, #12]
 744 0014 FFF7FEFF 		bl	HAL_RCCEx_CRS_SyncOkCallback
 745              	.L171:
 746              		@ sp needed
 747 0018 10BD     		pop	{r4, pc}
 748              	.L172:
 749 001a 0220     		movs	r0, #2
 750 001c 0342     		tst	r3, r0
 751 001e 05D0     		beq	.L174
 752 0020 0142     		tst	r1, r0
 753 0022 03D0     		beq	.L174
 754 0024 D060     		str	r0, [r2, #12]
 755 0026 FFF7FEFF 		bl	HAL_RCCEx_CRS_SyncWarnCallback
 756 002a F5E7     		b	.L171
 757              	.L174:
 758 002c 0820     		movs	r0, #8
 759 002e 0342     		tst	r3, r0
 760 0030 05D0     		beq	.L175
 761 0032 0142     		tst	r1, r0
 762 0034 03D0     		beq	.L175
 763 0036 D060     		str	r0, [r2, #12]
 764 0038 FFF7FEFF 		bl	HAL_RCCEx_CRS_ExpectedSyncCallback
ARM GAS  /tmp/ccxlrIOP.s 			page 14


 765 003c ECE7     		b	.L171
 766              	.L175:
 767 003e 0420     		movs	r0, #4
 768 0040 0342     		tst	r3, r0
 769 0042 E9D0     		beq	.L171
 770 0044 0142     		tst	r1, r0
 771 0046 E7D0     		beq	.L171
 772 0048 8021     		movs	r1, #128
 773 004a 1800     		movs	r0, r3
 774 004c 4900     		lsls	r1, r1, #1
 775 004e 0840     		ands	r0, r1
 776 0050 0B42     		tst	r3, r1
 777 0052 00D0     		beq	.L176
 778 0054 0820     		movs	r0, #8
 779              	.L176:
 780 0056 9905     		lsls	r1, r3, #22
 781 0058 01D5     		bpl	.L177
 782 005a 1021     		movs	r1, #16
 783 005c 0843     		orrs	r0, r1
 784              	.L177:
 785 005e 5B05     		lsls	r3, r3, #21
 786 0060 01D5     		bpl	.L178
 787 0062 2023     		movs	r3, #32
 788 0064 1843     		orrs	r0, r3
 789              	.L178:
 790 0066 0423     		movs	r3, #4
 791 0068 D360     		str	r3, [r2, #12]
 792 006a FFF7FEFF 		bl	HAL_RCCEx_CRS_ErrorCallback
 793 006e D3E7     		b	.L171
 794              	.L213:
 795              		.align	2
 796              	.L212:
 797 0070 006C0040 		.word	1073769472
 799              		.ident	"GCC: (Arch Repository) 10.1.0"
ARM GAS  /tmp/ccxlrIOP.s 			page 15

