ARM GAS  /tmp/ccIZfff1.s 			page 1


   1              		.cpu cortex-m0
   2              		.eabi_attribute 20, 1
   3              		.eabi_attribute 21, 1
   4              		.eabi_attribute 23, 3
   5              		.eabi_attribute 24, 1
   6              		.eabi_attribute 25, 1
   7              		.eabi_attribute 26, 1
   8              		.eabi_attribute 30, 1
   9              		.eabi_attribute 34, 0
  10              		.eabi_attribute 18, 4
  11              		.file	"stm32f0xx_it.c"
  12              		.text
  13              	.Ltext0:
  14              		.cfi_sections	.debug_frame
  15              		.section	.text.NMI_Handler,"ax",%progbits
  16              		.align	1
  17              		.global	NMI_Handler
  18              		.syntax unified
  19              		.code	16
  20              		.thumb_func
  21              		.fpu softvfp
  23              	NMI_Handler:
  24              	.LFB37:
  25              		.file 1 "Src/stm32f0xx_it.c"
   1:Src/stm32f0xx_it.c **** 
   2:Src/stm32f0xx_it.c **** /*
   3:Src/stm32f0xx_it.c ****  * Otter-Iron  -  Stm32f072 based soldering iron.
   4:Src/stm32f0xx_it.c ****  * Copyright (C) 2019 Jan Henrik Hemsing
   5:Src/stm32f0xx_it.c ****  *
   6:Src/stm32f0xx_it.c ****  * This program is free software: you can redistribute it and/or modify it
   7:Src/stm32f0xx_it.c ****  * under the terms of the GNU General Public License as published by the Free
   8:Src/stm32f0xx_it.c ****  * Software Foundation, either version 3 of the License, or (at your option)
   9:Src/stm32f0xx_it.c ****  * any later version.
  10:Src/stm32f0xx_it.c ****  *
  11:Src/stm32f0xx_it.c ****  * This program is distributed in the hope that it will be useful, but WITHOUT
  12:Src/stm32f0xx_it.c ****  * ANY WARRANTY; without even the implied warranty of  MERCHANTABILITY or
  13:Src/stm32f0xx_it.c ****  * FITNESS FOR A PARTICULAR PURPOSE. See the GNU General Public License for
  14:Src/stm32f0xx_it.c ****  * more details.
  15:Src/stm32f0xx_it.c ****  *
  16:Src/stm32f0xx_it.c ****  * You should have received a copy of the GNU General Public License along with
  17:Src/stm32f0xx_it.c ****  * this program.  If not, see <http://www.gnu.org/licenses/>.
  18:Src/stm32f0xx_it.c ****  */
  19:Src/stm32f0xx_it.c **** 
  20:Src/stm32f0xx_it.c **** #include "main.h"
  21:Src/stm32f0xx_it.c **** #include "stm32f0xx_it.h"
  22:Src/stm32f0xx_it.c **** 
  23:Src/stm32f0xx_it.c **** extern PCD_HandleTypeDef hpcd;
  24:Src/stm32f0xx_it.c **** extern USBD_HandleTypeDef USBD_Device;
  25:Src/stm32f0xx_it.c **** 
  26:Src/stm32f0xx_it.c **** extern ADC_HandleTypeDef hadc;
  27:Src/stm32f0xx_it.c **** extern DMA_HandleTypeDef hdma_adc;
  28:Src/stm32f0xx_it.c **** 
  29:Src/stm32f0xx_it.c **** extern TIM_HandleTypeDef htim1;
  30:Src/stm32f0xx_it.c **** extern TIM_HandleTypeDef htim3;
  31:Src/stm32f0xx_it.c **** 
  32:Src/stm32f0xx_it.c **** extern void reg(void);
  33:Src/stm32f0xx_it.c **** 
ARM GAS  /tmp/ccIZfff1.s 			page 2


  34:Src/stm32f0xx_it.c **** void NMI_Handler(void)
  35:Src/stm32f0xx_it.c **** {
  26              		.loc 1 35 0
  27              		.cfi_startproc
  28              		@ args = 0, pretend = 0, frame = 0
  29              		@ frame_needed = 0, uses_anonymous_args = 0
  30              		@ link register save eliminated.
  36:Src/stm32f0xx_it.c **** 
  37:Src/stm32f0xx_it.c **** }
  31              		.loc 1 37 0
  32              		@ sp needed
  33 0000 7047     		bx	lr
  34              		.cfi_endproc
  35              	.LFE37:
  37              		.section	.text.HardFault_Handler,"ax",%progbits
  38              		.align	1
  39              		.global	HardFault_Handler
  40              		.syntax unified
  41              		.code	16
  42              		.thumb_func
  43              		.fpu softvfp
  45              	HardFault_Handler:
  46              	.LFB38:
  38:Src/stm32f0xx_it.c **** 
  39:Src/stm32f0xx_it.c **** void HardFault_Handler(void)
  40:Src/stm32f0xx_it.c **** {
  47              		.loc 1 40 0
  48              		.cfi_startproc
  49              		@ Volatile: function does not return.
  50              		@ args = 0, pretend = 0, frame = 0
  51              		@ frame_needed = 0, uses_anonymous_args = 0
  52              		@ link register save eliminated.
  53              	.L3:
  54 0000 FEE7     		b	.L3
  55              		.cfi_endproc
  56              	.LFE38:
  58              		.section	.text.SVC_Handler,"ax",%progbits
  59              		.align	1
  60              		.global	SVC_Handler
  61              		.syntax unified
  62              		.code	16
  63              		.thumb_func
  64              		.fpu softvfp
  66              	SVC_Handler:
  67              	.LFB39:
  41:Src/stm32f0xx_it.c ****   while (1)
  42:Src/stm32f0xx_it.c ****   {
  43:Src/stm32f0xx_it.c ****   }
  44:Src/stm32f0xx_it.c **** }
  45:Src/stm32f0xx_it.c **** 
  46:Src/stm32f0xx_it.c **** void SVC_Handler(void)
  47:Src/stm32f0xx_it.c **** {
  68              		.loc 1 47 0
  69              		.cfi_startproc
  70              		@ args = 0, pretend = 0, frame = 0
  71              		@ frame_needed = 0, uses_anonymous_args = 0
  72              		@ link register save eliminated.
ARM GAS  /tmp/ccIZfff1.s 			page 3


  48:Src/stm32f0xx_it.c **** }
  73              		.loc 1 48 0
  74              		@ sp needed
  75 0000 7047     		bx	lr
  76              		.cfi_endproc
  77              	.LFE39:
  79              		.section	.text.PendSV_Handler,"ax",%progbits
  80              		.align	1
  81              		.global	PendSV_Handler
  82              		.syntax unified
  83              		.code	16
  84              		.thumb_func
  85              		.fpu softvfp
  87              	PendSV_Handler:
  88              	.LFB40:
  49:Src/stm32f0xx_it.c **** 
  50:Src/stm32f0xx_it.c **** void PendSV_Handler(void)
  51:Src/stm32f0xx_it.c **** {
  89              		.loc 1 51 0
  90              		.cfi_startproc
  91              		@ args = 0, pretend = 0, frame = 0
  92              		@ frame_needed = 0, uses_anonymous_args = 0
  93              		@ link register save eliminated.
  52:Src/stm32f0xx_it.c **** }
  94              		.loc 1 52 0
  95              		@ sp needed
  96 0000 7047     		bx	lr
  97              		.cfi_endproc
  98              	.LFE40:
 100              		.section	.text.SysTick_Handler,"ax",%progbits
 101              		.align	1
 102              		.global	SysTick_Handler
 103              		.syntax unified
 104              		.code	16
 105              		.thumb_func
 106              		.fpu softvfp
 108              	SysTick_Handler:
 109              	.LFB41:
  53:Src/stm32f0xx_it.c **** 
  54:Src/stm32f0xx_it.c **** void SysTick_Handler(void)
  55:Src/stm32f0xx_it.c **** {
 110              		.loc 1 55 0
 111              		.cfi_startproc
 112              		@ args = 0, pretend = 0, frame = 0
 113              		@ frame_needed = 0, uses_anonymous_args = 0
 114 0000 10B5     		push	{r4, lr}
 115              	.LCFI0:
 116              		.cfi_def_cfa_offset 8
 117              		.cfi_offset 4, -8
 118              		.cfi_offset 14, -4
  56:Src/stm32f0xx_it.c ****   HAL_IncTick();
 119              		.loc 1 56 0
 120 0002 FFF7FEFF 		bl	HAL_IncTick
 121              	.LVL0:
  57:Src/stm32f0xx_it.c **** }
 122              		.loc 1 57 0
 123              		@ sp needed
ARM GAS  /tmp/ccIZfff1.s 			page 4


 124 0006 10BD     		pop	{r4, pc}
 125              		.cfi_endproc
 126              	.LFE41:
 128              		.section	.text.USB_IRQHandler,"ax",%progbits
 129              		.align	1
 130              		.global	USB_IRQHandler
 131              		.syntax unified
 132              		.code	16
 133              		.thumb_func
 134              		.fpu softvfp
 136              	USB_IRQHandler:
 137              	.LFB42:
  58:Src/stm32f0xx_it.c **** 
  59:Src/stm32f0xx_it.c **** void USB_IRQHandler(void)
  60:Src/stm32f0xx_it.c **** {
 138              		.loc 1 60 0
 139              		.cfi_startproc
 140              		@ args = 0, pretend = 0, frame = 0
 141              		@ frame_needed = 0, uses_anonymous_args = 0
 142 0000 10B5     		push	{r4, lr}
 143              	.LCFI1:
 144              		.cfi_def_cfa_offset 8
 145              		.cfi_offset 4, -8
 146              		.cfi_offset 14, -4
  61:Src/stm32f0xx_it.c ****   HAL_PCD_IRQHandler(&hpcd);
 147              		.loc 1 61 0
 148 0002 0248     		ldr	r0, .L8
 149 0004 FFF7FEFF 		bl	HAL_PCD_IRQHandler
 150              	.LVL1:
  62:Src/stm32f0xx_it.c **** }
 151              		.loc 1 62 0
 152              		@ sp needed
 153 0008 10BD     		pop	{r4, pc}
 154              	.L9:
 155 000a C046     		.align	2
 156              	.L8:
 157 000c 00000000 		.word	hpcd
 158              		.cfi_endproc
 159              	.LFE42:
 161              		.section	.text.ADC1_COMP_IRQHandler,"ax",%progbits
 162              		.align	1
 163              		.global	ADC1_COMP_IRQHandler
 164              		.syntax unified
 165              		.code	16
 166              		.thumb_func
 167              		.fpu softvfp
 169              	ADC1_COMP_IRQHandler:
 170              	.LFB43:
  63:Src/stm32f0xx_it.c **** 
  64:Src/stm32f0xx_it.c **** void ADC1_COMP_IRQHandler(void)
  65:Src/stm32f0xx_it.c **** {
 171              		.loc 1 65 0
 172              		.cfi_startproc
 173              		@ args = 0, pretend = 0, frame = 0
 174              		@ frame_needed = 0, uses_anonymous_args = 0
 175 0000 10B5     		push	{r4, lr}
 176              	.LCFI2:
ARM GAS  /tmp/ccIZfff1.s 			page 5


 177              		.cfi_def_cfa_offset 8
 178              		.cfi_offset 4, -8
 179              		.cfi_offset 14, -4
  66:Src/stm32f0xx_it.c ****   HAL_ADC_IRQHandler(&hadc);
 180              		.loc 1 66 0
 181 0002 0248     		ldr	r0, .L11
 182 0004 FFF7FEFF 		bl	HAL_ADC_IRQHandler
 183              	.LVL2:
  67:Src/stm32f0xx_it.c **** }
 184              		.loc 1 67 0
 185              		@ sp needed
 186 0008 10BD     		pop	{r4, pc}
 187              	.L12:
 188 000a C046     		.align	2
 189              	.L11:
 190 000c 00000000 		.word	hadc
 191              		.cfi_endproc
 192              	.LFE43:
 194              		.section	.text.DMA1_Channel1_IRQHandler,"ax",%progbits
 195              		.align	1
 196              		.global	DMA1_Channel1_IRQHandler
 197              		.syntax unified
 198              		.code	16
 199              		.thumb_func
 200              		.fpu softvfp
 202              	DMA1_Channel1_IRQHandler:
 203              	.LFB44:
  68:Src/stm32f0xx_it.c **** 
  69:Src/stm32f0xx_it.c **** void DMA1_Channel1_IRQHandler(void)
  70:Src/stm32f0xx_it.c **** {
 204              		.loc 1 70 0
 205              		.cfi_startproc
 206              		@ args = 0, pretend = 0, frame = 0
 207              		@ frame_needed = 0, uses_anonymous_args = 0
 208 0000 10B5     		push	{r4, lr}
 209              	.LCFI3:
 210              		.cfi_def_cfa_offset 8
 211              		.cfi_offset 4, -8
 212              		.cfi_offset 14, -4
  71:Src/stm32f0xx_it.c ****   HAL_DMA_IRQHandler(&hdma_adc);
 213              		.loc 1 71 0
 214 0002 0348     		ldr	r0, .L14
 215 0004 FFF7FEFF 		bl	HAL_DMA_IRQHandler
 216              	.LVL3:
  72:Src/stm32f0xx_it.c ****   reg();
 217              		.loc 1 72 0
 218 0008 FFF7FEFF 		bl	reg
 219              	.LVL4:
  73:Src/stm32f0xx_it.c **** }
 220              		.loc 1 73 0
 221              		@ sp needed
 222 000c 10BD     		pop	{r4, pc}
 223              	.L15:
 224 000e C046     		.align	2
 225              	.L14:
 226 0010 00000000 		.word	hdma_adc
 227              		.cfi_endproc
ARM GAS  /tmp/ccIZfff1.s 			page 6


 228              	.LFE44:
 230              		.section	.text.TIM1_BRK_UP_TRG_COM_IRQHandler,"ax",%progbits
 231              		.align	1
 232              		.global	TIM1_BRK_UP_TRG_COM_IRQHandler
 233              		.syntax unified
 234              		.code	16
 235              		.thumb_func
 236              		.fpu softvfp
 238              	TIM1_BRK_UP_TRG_COM_IRQHandler:
 239              	.LFB45:
  74:Src/stm32f0xx_it.c **** 
  75:Src/stm32f0xx_it.c **** void TIM1_BRK_UP_TRG_COM_IRQHandler(void)
  76:Src/stm32f0xx_it.c **** {
 240              		.loc 1 76 0
 241              		.cfi_startproc
 242              		@ args = 0, pretend = 0, frame = 0
 243              		@ frame_needed = 0, uses_anonymous_args = 0
 244 0000 10B5     		push	{r4, lr}
 245              	.LCFI4:
 246              		.cfi_def_cfa_offset 8
 247              		.cfi_offset 4, -8
 248              		.cfi_offset 14, -4
  77:Src/stm32f0xx_it.c ****   HAL_TIM_IRQHandler(&htim1);
 249              		.loc 1 77 0
 250 0002 0248     		ldr	r0, .L17
 251 0004 FFF7FEFF 		bl	HAL_TIM_IRQHandler
 252              	.LVL5:
  78:Src/stm32f0xx_it.c **** }
 253              		.loc 1 78 0
 254              		@ sp needed
 255 0008 10BD     		pop	{r4, pc}
 256              	.L18:
 257 000a C046     		.align	2
 258              	.L17:
 259 000c 00000000 		.word	htim1
 260              		.cfi_endproc
 261              	.LFE45:
 263              		.section	.text.TIM1_CC_IRQHandler,"ax",%progbits
 264              		.align	1
 265              		.global	TIM1_CC_IRQHandler
 266              		.syntax unified
 267              		.code	16
 268              		.thumb_func
 269              		.fpu softvfp
 271              	TIM1_CC_IRQHandler:
 272              	.LFB46:
  79:Src/stm32f0xx_it.c **** 
  80:Src/stm32f0xx_it.c **** void TIM1_CC_IRQHandler(void)
  81:Src/stm32f0xx_it.c **** {
 273              		.loc 1 81 0
 274              		.cfi_startproc
 275              		@ args = 0, pretend = 0, frame = 0
 276              		@ frame_needed = 0, uses_anonymous_args = 0
 277 0000 10B5     		push	{r4, lr}
 278              	.LCFI5:
 279              		.cfi_def_cfa_offset 8
 280              		.cfi_offset 4, -8
ARM GAS  /tmp/ccIZfff1.s 			page 7


 281              		.cfi_offset 14, -4
  82:Src/stm32f0xx_it.c ****   HAL_TIM_IRQHandler(&htim1);
 282              		.loc 1 82 0
 283 0002 0248     		ldr	r0, .L20
 284 0004 FFF7FEFF 		bl	HAL_TIM_IRQHandler
 285              	.LVL6:
  83:Src/stm32f0xx_it.c **** }
 286              		.loc 1 83 0
 287              		@ sp needed
 288 0008 10BD     		pop	{r4, pc}
 289              	.L21:
 290 000a C046     		.align	2
 291              	.L20:
 292 000c 00000000 		.word	htim1
 293              		.cfi_endproc
 294              	.LFE46:
 296              		.section	.text.TIM3_IRQHandler,"ax",%progbits
 297              		.align	1
 298              		.global	TIM3_IRQHandler
 299              		.syntax unified
 300              		.code	16
 301              		.thumb_func
 302              		.fpu softvfp
 304              	TIM3_IRQHandler:
 305              	.LFB47:
  84:Src/stm32f0xx_it.c **** 
  85:Src/stm32f0xx_it.c **** void TIM3_IRQHandler(void)
  86:Src/stm32f0xx_it.c **** {
 306              		.loc 1 86 0
 307              		.cfi_startproc
 308              		@ args = 0, pretend = 0, frame = 0
 309              		@ frame_needed = 0, uses_anonymous_args = 0
 310 0000 10B5     		push	{r4, lr}
 311              	.LCFI6:
 312              		.cfi_def_cfa_offset 8
 313              		.cfi_offset 4, -8
 314              		.cfi_offset 14, -4
  87:Src/stm32f0xx_it.c ****   HAL_TIM_IRQHandler(&htim3);
 315              		.loc 1 87 0
 316 0002 0248     		ldr	r0, .L23
 317 0004 FFF7FEFF 		bl	HAL_TIM_IRQHandler
 318              	.LVL7:
  88:Src/stm32f0xx_it.c **** }
 319              		.loc 1 88 0
 320              		@ sp needed
 321 0008 10BD     		pop	{r4, pc}
 322              	.L24:
 323 000a C046     		.align	2
 324              	.L23:
 325 000c 00000000 		.word	htim3
 326              		.cfi_endproc
 327              	.LFE47:
 329              		.comm	UserTxBuffer,512,4
 330              		.comm	UserRxBuffer,512,4
 331              		.text
 332              	.Letext0:
 333              		.file 2 "/usr/include/newlib/machine/_default_types.h"
ARM GAS  /tmp/ccIZfff1.s 			page 8


 334              		.file 3 "/usr/include/newlib/sys/_stdint.h"
 335              		.file 4 "Drivers/CMSIS/Device/ST/STM32F0xx/Include/system_stm32f0xx.h"
 336              		.file 5 "Drivers/CMSIS/Device/ST/STM32F0xx/Include/stm32f072xb.h"
 337              		.file 6 "/usr/include/newlib/sys/lock.h"
 338              		.file 7 "/usr/include/newlib/sys/_types.h"
 339              		.file 8 "/usr/lib/gcc/arm-none-eabi/7.3.1/include/stddef.h"
 340              		.file 9 "/usr/include/newlib/sys/reent.h"
 341              		.file 10 "Drivers/STM32F0xx_HAL_Driver/Inc/stm32f0xx_hal_def.h"
 342              		.file 11 "Drivers/STM32F0xx_HAL_Driver/Inc/stm32f0xx_hal_dma.h"
 343              		.file 12 "Drivers/STM32F0xx_HAL_Driver/Inc/stm32f0xx_hal_adc.h"
 344              		.file 13 "Drivers/STM32F0xx_HAL_Driver/Inc/stm32f0xx_hal_pcd.h"
 345              		.file 14 "Drivers/STM32F0xx_HAL_Driver/Inc/stm32f0xx_hal_tim.h"
 346              		.file 15 "/usr/include/newlib/stdlib.h"
 347              		.file 16 "Middlewares/ST/STM32_USB_Device_Library/Core/Inc/usbd_def.h"
 348              		.file 17 "Inc/usbd_desc.h"
 349              		.file 18 "Middlewares/ST/STM32_USB_Device_Library/Class/CDC/Inc/usbd_cdc.h"
 350              		.file 19 "Inc/usbd_cdc_interface.h"
 351              		.file 20 "Drivers/STM32F0xx_HAL_Driver/Inc/stm32f0xx_hal.h"
ARM GAS  /tmp/ccIZfff1.s 			page 9


DEFINED SYMBOLS
                            *ABS*:0000000000000000 stm32f0xx_it.c
     /tmp/ccIZfff1.s:16     .text.NMI_Handler:0000000000000000 $t
     /tmp/ccIZfff1.s:23     .text.NMI_Handler:0000000000000000 NMI_Handler
     /tmp/ccIZfff1.s:38     .text.HardFault_Handler:0000000000000000 $t
     /tmp/ccIZfff1.s:45     .text.HardFault_Handler:0000000000000000 HardFault_Handler
     /tmp/ccIZfff1.s:59     .text.SVC_Handler:0000000000000000 $t
     /tmp/ccIZfff1.s:66     .text.SVC_Handler:0000000000000000 SVC_Handler
     /tmp/ccIZfff1.s:80     .text.PendSV_Handler:0000000000000000 $t
     /tmp/ccIZfff1.s:87     .text.PendSV_Handler:0000000000000000 PendSV_Handler
     /tmp/ccIZfff1.s:101    .text.SysTick_Handler:0000000000000000 $t
     /tmp/ccIZfff1.s:108    .text.SysTick_Handler:0000000000000000 SysTick_Handler
     /tmp/ccIZfff1.s:129    .text.USB_IRQHandler:0000000000000000 $t
     /tmp/ccIZfff1.s:136    .text.USB_IRQHandler:0000000000000000 USB_IRQHandler
     /tmp/ccIZfff1.s:157    .text.USB_IRQHandler:000000000000000c $d
     /tmp/ccIZfff1.s:162    .text.ADC1_COMP_IRQHandler:0000000000000000 $t
     /tmp/ccIZfff1.s:169    .text.ADC1_COMP_IRQHandler:0000000000000000 ADC1_COMP_IRQHandler
     /tmp/ccIZfff1.s:190    .text.ADC1_COMP_IRQHandler:000000000000000c $d
     /tmp/ccIZfff1.s:195    .text.DMA1_Channel1_IRQHandler:0000000000000000 $t
     /tmp/ccIZfff1.s:202    .text.DMA1_Channel1_IRQHandler:0000000000000000 DMA1_Channel1_IRQHandler
     /tmp/ccIZfff1.s:226    .text.DMA1_Channel1_IRQHandler:0000000000000010 $d
     /tmp/ccIZfff1.s:231    .text.TIM1_BRK_UP_TRG_COM_IRQHandler:0000000000000000 $t
     /tmp/ccIZfff1.s:238    .text.TIM1_BRK_UP_TRG_COM_IRQHandler:0000000000000000 TIM1_BRK_UP_TRG_COM_IRQHandler
     /tmp/ccIZfff1.s:259    .text.TIM1_BRK_UP_TRG_COM_IRQHandler:000000000000000c $d
     /tmp/ccIZfff1.s:264    .text.TIM1_CC_IRQHandler:0000000000000000 $t
     /tmp/ccIZfff1.s:271    .text.TIM1_CC_IRQHandler:0000000000000000 TIM1_CC_IRQHandler
     /tmp/ccIZfff1.s:292    .text.TIM1_CC_IRQHandler:000000000000000c $d
     /tmp/ccIZfff1.s:297    .text.TIM3_IRQHandler:0000000000000000 $t
     /tmp/ccIZfff1.s:304    .text.TIM3_IRQHandler:0000000000000000 TIM3_IRQHandler
     /tmp/ccIZfff1.s:325    .text.TIM3_IRQHandler:000000000000000c $d
                            *COM*:0000000000000200 UserTxBuffer
                            *COM*:0000000000000200 UserRxBuffer

UNDEFINED SYMBOLS
HAL_IncTick
HAL_PCD_IRQHandler
hpcd
HAL_ADC_IRQHandler
hadc
HAL_DMA_IRQHandler
reg
hdma_adc
HAL_TIM_IRQHandler
htim1
htim3
