ARM GAS  /tmp/ccOEO5Xe.s 			page 1


   1              		.cpu cortex-m0
   2              		.eabi_attribute 20, 1
   3              		.eabi_attribute 21, 1
   4              		.eabi_attribute 23, 3
   5              		.eabi_attribute 24, 1
   6              		.eabi_attribute 25, 1
   7              		.eabi_attribute 26, 1
   8              		.eabi_attribute 30, 4
   9              		.eabi_attribute 34, 0
  10              		.eabi_attribute 18, 4
  11              		.file	"stm32f0xx_hal_adc_ex.c"
  12              		.text
  13              		.section	.text.HAL_ADCEx_Calibration_Start,"ax",%progbits
  14              		.align	1
  15              		.global	HAL_ADCEx_Calibration_Start
  16              		.arch armv6s-m
  17              		.syntax unified
  18              		.code	16
  19              		.thumb_func
  20              		.fpu softvfp
  22              	HAL_ADCEx_Calibration_Start:
  23              		@ args = 0, pretend = 0, frame = 0
  24              		@ frame_needed = 0, uses_anonymous_args = 0
  25 0000 F8B5     		push	{r3, r4, r5, r6, r7, lr}
  26 0002 0600     		movs	r6, r0
  27 0004 4036     		adds	r6, r6, #64
  28 0006 3378     		ldrb	r3, [r6]
  29 0008 0400     		movs	r4, r0
  30 000a 0220     		movs	r0, #2
  31 000c 012B     		cmp	r3, #1
  32 000e 42D0     		beq	.L2
  33 0010 0123     		movs	r3, #1
  34 0012 0321     		movs	r1, #3
  35 0014 3370     		strb	r3, [r6]
  36 0016 2368     		ldr	r3, [r4]
  37 0018 9A68     		ldr	r2, [r3, #8]
  38 001a 0A40     		ands	r2, r1
  39 001c 012A     		cmp	r2, #1
  40 001e 05D1     		bne	.L3
  41 0020 1968     		ldr	r1, [r3]
  42 0022 1142     		tst	r1, r2
  43 0024 38D1     		bne	.L4
  44 0026 DA68     		ldr	r2, [r3, #12]
  45 0028 1204     		lsls	r2, r2, #16
  46 002a 35D4     		bmi	.L4
  47              	.L3:
  48 002c 626C     		ldr	r2, [r4, #68]
  49 002e 1D49     		ldr	r1, .L10
  50 0030 1140     		ands	r1, r2
  51 0032 0222     		movs	r2, #2
  52 0034 0A43     		orrs	r2, r1
  53 0036 0321     		movs	r1, #3
  54 0038 6264     		str	r2, [r4, #68]
  55 003a DD68     		ldr	r5, [r3, #12]
  56 003c DA68     		ldr	r2, [r3, #12]
  57 003e 8A43     		bics	r2, r1
  58 0040 DA60     		str	r2, [r3, #12]
ARM GAS  /tmp/ccOEO5Xe.s 			page 2


  59 0042 8022     		movs	r2, #128
  60 0044 9968     		ldr	r1, [r3, #8]
  61 0046 1206     		lsls	r2, r2, #24
  62 0048 0A43     		orrs	r2, r1
  63 004a 9A60     		str	r2, [r3, #8]
  64 004c FFF7FEFF 		bl	HAL_GetTick
  65 0050 0700     		movs	r7, r0
  66              	.L5:
  67 0052 2368     		ldr	r3, [r4]
  68 0054 9A68     		ldr	r2, [r3, #8]
  69 0056 002A     		cmp	r2, #0
  70 0058 0EDB     		blt	.L6
  71 005a 0322     		movs	r2, #3
  72 005c D968     		ldr	r1, [r3, #12]
  73 005e 1540     		ands	r5, r2
  74 0060 0D43     		orrs	r5, r1
  75 0062 DD60     		str	r5, [r3, #12]
  76 0064 636C     		ldr	r3, [r4, #68]
  77 0066 0020     		movs	r0, #0
  78 0068 9343     		bics	r3, r2
  79 006a 1A00     		movs	r2, r3
  80 006c 0123     		movs	r3, #1
  81 006e 1343     		orrs	r3, r2
  82 0070 6364     		str	r3, [r4, #68]
  83              	.L7:
  84 0072 0023     		movs	r3, #0
  85 0074 3370     		strb	r3, [r6]
  86 0076 0EE0     		b	.L2
  87              	.L6:
  88 0078 FFF7FEFF 		bl	HAL_GetTick
  89 007c C01B     		subs	r0, r0, r7
  90 007e 0228     		cmp	r0, #2
  91 0080 E7D9     		bls	.L5
  92 0082 1222     		movs	r2, #18
  93 0084 636C     		ldr	r3, [r4, #68]
  94 0086 0120     		movs	r0, #1
  95 0088 9343     		bics	r3, r2
  96 008a 1A00     		movs	r2, r3
  97 008c 1023     		movs	r3, #16
  98 008e 1343     		orrs	r3, r2
  99 0090 6364     		str	r3, [r4, #68]
 100 0092 0023     		movs	r3, #0
 101 0094 3370     		strb	r3, [r6]
 102              	.L2:
 103              		@ sp needed
 104 0096 F8BD     		pop	{r3, r4, r5, r6, r7, pc}
 105              	.L4:
 106 0098 2023     		movs	r3, #32
 107 009a 626C     		ldr	r2, [r4, #68]
 108 009c 0120     		movs	r0, #1
 109 009e 1343     		orrs	r3, r2
 110 00a0 6364     		str	r3, [r4, #68]
 111 00a2 E6E7     		b	.L7
 112              	.L11:
 113              		.align	2
 114              	.L10:
 115 00a4 FDFEFFFF 		.word	-259
ARM GAS  /tmp/ccOEO5Xe.s 			page 3


 117              		.ident	"GCC: (Arch Repository) 10.1.0"
ARM GAS  /tmp/ccOEO5Xe.s 			page 4


DEFINED SYMBOLS
                            *ABS*:0000000000000000 stm32f0xx_hal_adc_ex.c
     /tmp/ccOEO5Xe.s:14     .text.HAL_ADCEx_Calibration_Start:0000000000000000 $t
     /tmp/ccOEO5Xe.s:22     .text.HAL_ADCEx_Calibration_Start:0000000000000000 HAL_ADCEx_Calibration_Start
     /tmp/ccOEO5Xe.s:115    .text.HAL_ADCEx_Calibration_Start:00000000000000a4 $d

UNDEFINED SYMBOLS
HAL_GetTick
