ARM GAS  /tmp/ccVjkAXM.s 			page 1


   1              		.cpu cortex-m0
   2              		.eabi_attribute 20, 1
   3              		.eabi_attribute 21, 1
   4              		.eabi_attribute 23, 3
   5              		.eabi_attribute 24, 1
   6              		.eabi_attribute 25, 1
   7              		.eabi_attribute 26, 1
   8              		.eabi_attribute 30, 4
   9              		.eabi_attribute 34, 0
  10              		.eabi_attribute 18, 4
  11              		.file	"stm32f0xx_hal_msp.c"
  12              		.text
  13              		.section	.text.HAL_MspInit,"ax",%progbits
  14              		.align	1
  15              		.global	HAL_MspInit
  16              		.arch armv6s-m
  17              		.syntax unified
  18              		.code	16
  19              		.thumb_func
  20              		.fpu softvfp
  22              	HAL_MspInit:
  23              		@ args = 0, pretend = 0, frame = 8
  24              		@ frame_needed = 0, uses_anonymous_args = 0
  25              		@ link register save eliminated.
  26 0000 0120     		movs	r0, #1
  27 0002 0A4B     		ldr	r3, .L2
  28 0004 82B0     		sub	sp, sp, #8
  29 0006 9969     		ldr	r1, [r3, #24]
  30 0008 0143     		orrs	r1, r0
  31 000a 9961     		str	r1, [r3, #24]
  32 000c 8021     		movs	r1, #128
  33 000e 9A69     		ldr	r2, [r3, #24]
  34 0010 4905     		lsls	r1, r1, #21
  35 0012 0240     		ands	r2, r0
  36 0014 0092     		str	r2, [sp]
  37 0016 009A     		ldr	r2, [sp]
  38 0018 DA69     		ldr	r2, [r3, #28]
  39 001a 0A43     		orrs	r2, r1
  40 001c DA61     		str	r2, [r3, #28]
  41 001e DB69     		ldr	r3, [r3, #28]
  42 0020 0B40     		ands	r3, r1
  43 0022 0193     		str	r3, [sp, #4]
  44 0024 019B     		ldr	r3, [sp, #4]
  45 0026 02B0     		add	sp, sp, #8
  46              		@ sp needed
  47 0028 7047     		bx	lr
  48              	.L3:
  49 002a C046     		.align	2
  50              	.L2:
  51 002c 00100240 		.word	1073876992
  53              		.section	.text.HAL_ADC_MspInit,"ax",%progbits
  54              		.align	1
  55              		.global	HAL_ADC_MspInit
  56              		.syntax unified
  57              		.code	16
  58              		.thumb_func
  59              		.fpu softvfp
ARM GAS  /tmp/ccVjkAXM.s 			page 2


  61              	HAL_ADC_MspInit:
  62              		@ args = 0, pretend = 0, frame = 32
  63              		@ frame_needed = 0, uses_anonymous_args = 0
  64 0000 30B5     		push	{r4, r5, lr}
  65 0002 0500     		movs	r5, r0
  66 0004 89B0     		sub	sp, sp, #36
  67 0006 1422     		movs	r2, #20
  68 0008 0021     		movs	r1, #0
  69 000a 03A8     		add	r0, sp, #12
  70 000c FFF7FEFF 		bl	memset
  71 0010 1C4B     		ldr	r3, .L6
  72 0012 2A68     		ldr	r2, [r5]
  73 0014 9A42     		cmp	r2, r3
  74 0016 32D1     		bne	.L4
  75 0018 8020     		movs	r0, #128
  76 001a 1B4B     		ldr	r3, .L6+4
  77 001c 8000     		lsls	r0, r0, #2
  78 001e 9969     		ldr	r1, [r3, #24]
  79 0020 0143     		orrs	r1, r0
  80 0022 9961     		str	r1, [r3, #24]
  81 0024 8021     		movs	r1, #128
  82 0026 9A69     		ldr	r2, [r3, #24]
  83 0028 8902     		lsls	r1, r1, #10
  84 002a 0240     		ands	r2, r0
  85 002c 0192     		str	r2, [sp, #4]
  86 002e 019A     		ldr	r2, [sp, #4]
  87 0030 5A69     		ldr	r2, [r3, #20]
  88 0032 9020     		movs	r0, #144
  89 0034 0A43     		orrs	r2, r1
  90 0036 5A61     		str	r2, [r3, #20]
  91 0038 5B69     		ldr	r3, [r3, #20]
  92 003a C005     		lsls	r0, r0, #23
  93 003c 0B40     		ands	r3, r1
  94 003e 0293     		str	r3, [sp, #8]
  95 0040 029B     		ldr	r3, [sp, #8]
  96 0042 2723     		movs	r3, #39
  97 0044 03A9     		add	r1, sp, #12
  98 0046 0393     		str	r3, [sp, #12]
  99 0048 243B     		subs	r3, r3, #36
 100 004a 0493     		str	r3, [sp, #16]
 101 004c FFF7FEFF 		bl	HAL_GPIO_Init
 102 0050 0E4C     		ldr	r4, .L6+8
 103 0052 0F4B     		ldr	r3, .L6+12
 104 0054 2000     		movs	r0, r4
 105 0056 2360     		str	r3, [r4]
 106 0058 0023     		movs	r3, #0
 107 005a 6360     		str	r3, [r4, #4]
 108 005c A360     		str	r3, [r4, #8]
 109 005e 8033     		adds	r3, r3, #128
 110 0060 E360     		str	r3, [r4, #12]
 111 0062 8033     		adds	r3, r3, #128
 112 0064 2361     		str	r3, [r4, #16]
 113 0066 8023     		movs	r3, #128
 114 0068 DB00     		lsls	r3, r3, #3
 115 006a 6361     		str	r3, [r4, #20]
 116 006c 2023     		movs	r3, #32
 117 006e A361     		str	r3, [r4, #24]
ARM GAS  /tmp/ccVjkAXM.s 			page 3


 118 0070 8023     		movs	r3, #128
 119 0072 9B01     		lsls	r3, r3, #6
 120 0074 E361     		str	r3, [r4, #28]
 121 0076 FFF7FEFF 		bl	HAL_DMA_Init
 122 007a EC63     		str	r4, [r5, #60]
 123 007c 6562     		str	r5, [r4, #36]
 124              	.L4:
 125 007e 09B0     		add	sp, sp, #36
 126              		@ sp needed
 127 0080 30BD     		pop	{r4, r5, pc}
 128              	.L7:
 129 0082 C046     		.align	2
 130              	.L6:
 131 0084 00240140 		.word	1073816576
 132 0088 00100240 		.word	1073876992
 133 008c 00000000 		.word	hdma_adc
 134 0090 08000240 		.word	1073872904
 136              		.section	.text.HAL_ADC_MspDeInit,"ax",%progbits
 137              		.align	1
 138              		.global	HAL_ADC_MspDeInit
 139              		.syntax unified
 140              		.code	16
 141              		.thumb_func
 142              		.fpu softvfp
 144              	HAL_ADC_MspDeInit:
 145              		@ args = 0, pretend = 0, frame = 0
 146              		@ frame_needed = 0, uses_anonymous_args = 0
 147 0000 094B     		ldr	r3, .L10
 148 0002 0268     		ldr	r2, [r0]
 149 0004 10B5     		push	{r4, lr}
 150 0006 0400     		movs	r4, r0
 151 0008 9A42     		cmp	r2, r3
 152 000a 0CD1     		bne	.L8
 153 000c 9020     		movs	r0, #144
 154 000e 074A     		ldr	r2, .L10+4
 155 0010 0749     		ldr	r1, .L10+8
 156 0012 9369     		ldr	r3, [r2, #24]
 157 0014 C005     		lsls	r0, r0, #23
 158 0016 0B40     		ands	r3, r1
 159 0018 9361     		str	r3, [r2, #24]
 160 001a 2721     		movs	r1, #39
 161 001c FFF7FEFF 		bl	HAL_GPIO_DeInit
 162 0020 E06B     		ldr	r0, [r4, #60]
 163 0022 FFF7FEFF 		bl	HAL_DMA_DeInit
 164              	.L8:
 165              		@ sp needed
 166 0026 10BD     		pop	{r4, pc}
 167              	.L11:
 168              		.align	2
 169              	.L10:
 170 0028 00240140 		.word	1073816576
 171 002c 00100240 		.word	1073876992
 172 0030 FFFDFFFF 		.word	-513
 174              		.section	.text.HAL_I2C_MspInit,"ax",%progbits
 175              		.align	1
 176              		.global	HAL_I2C_MspInit
 177              		.syntax unified
ARM GAS  /tmp/ccVjkAXM.s 			page 4


 178              		.code	16
 179              		.thumb_func
 180              		.fpu softvfp
 182              	HAL_I2C_MspInit:
 183              		@ args = 0, pretend = 0, frame = 40
 184              		@ frame_needed = 0, uses_anonymous_args = 0
 185 0000 10B5     		push	{r4, lr}
 186 0002 0400     		movs	r4, r0
 187 0004 8AB0     		sub	sp, sp, #40
 188 0006 1422     		movs	r2, #20
 189 0008 0021     		movs	r1, #0
 190 000a 05A8     		add	r0, sp, #20
 191 000c FFF7FEFF 		bl	memset
 192 0010 2368     		ldr	r3, [r4]
 193 0012 254A     		ldr	r2, .L15
 194 0014 9342     		cmp	r3, r2
 195 0016 21D1     		bne	.L13
 196 0018 8021     		movs	r1, #128
 197 001a 244C     		ldr	r4, .L15+4
 198 001c C902     		lsls	r1, r1, #11
 199 001e 6269     		ldr	r2, [r4, #20]
 200 0020 2348     		ldr	r0, .L15+8
 201 0022 0A43     		orrs	r2, r1
 202 0024 6261     		str	r2, [r4, #20]
 203 0026 6369     		ldr	r3, [r4, #20]
 204 0028 0322     		movs	r2, #3
 205 002a 0B40     		ands	r3, r1
 206 002c 0193     		str	r3, [sp, #4]
 207 002e 019B     		ldr	r3, [sp, #4]
 208 0030 C023     		movs	r3, #192
 209 0032 0593     		str	r3, [sp, #20]
 210 0034 AE3B     		subs	r3, r3, #174
 211 0036 0693     		str	r3, [sp, #24]
 212 0038 05A9     		add	r1, sp, #20
 213 003a 113B     		subs	r3, r3, #17
 214 003c 0793     		str	r3, [sp, #28]
 215 003e 0892     		str	r2, [sp, #32]
 216 0040 0993     		str	r3, [sp, #36]
 217 0042 FFF7FEFF 		bl	HAL_GPIO_Init
 218 0046 8021     		movs	r1, #128
 219 0048 E269     		ldr	r2, [r4, #28]
 220 004a 8903     		lsls	r1, r1, #14
 221 004c 0A43     		orrs	r2, r1
 222 004e E261     		str	r2, [r4, #28]
 223 0050 E369     		ldr	r3, [r4, #28]
 224 0052 0B40     		ands	r3, r1
 225 0054 0293     		str	r3, [sp, #8]
 226 0056 029B     		ldr	r3, [sp, #8]
 227              	.L12:
 228 0058 0AB0     		add	sp, sp, #40
 229              		@ sp needed
 230 005a 10BD     		pop	{r4, pc}
 231              	.L13:
 232 005c 154A     		ldr	r2, .L15+12
 233 005e 9342     		cmp	r3, r2
 234 0060 FAD1     		bne	.L12
 235 0062 8021     		movs	r1, #128
ARM GAS  /tmp/ccVjkAXM.s 			page 5


 236 0064 114C     		ldr	r4, .L15+4
 237 0066 C902     		lsls	r1, r1, #11
 238 0068 6269     		ldr	r2, [r4, #20]
 239 006a 1148     		ldr	r0, .L15+8
 240 006c 0A43     		orrs	r2, r1
 241 006e 6261     		str	r2, [r4, #20]
 242 0070 6369     		ldr	r3, [r4, #20]
 243 0072 0322     		movs	r2, #3
 244 0074 0B40     		ands	r3, r1
 245 0076 0393     		str	r3, [sp, #12]
 246 0078 039B     		ldr	r3, [sp, #12]
 247 007a C023     		movs	r3, #192
 248 007c 1B01     		lsls	r3, r3, #4
 249 007e 0593     		str	r3, [sp, #20]
 250 0080 1223     		movs	r3, #18
 251 0082 05A9     		add	r1, sp, #20
 252 0084 0693     		str	r3, [sp, #24]
 253 0086 113B     		subs	r3, r3, #17
 254 0088 0793     		str	r3, [sp, #28]
 255 008a 0892     		str	r2, [sp, #32]
 256 008c 0993     		str	r3, [sp, #36]
 257 008e FFF7FEFF 		bl	HAL_GPIO_Init
 258 0092 8021     		movs	r1, #128
 259 0094 E269     		ldr	r2, [r4, #28]
 260 0096 C903     		lsls	r1, r1, #15
 261 0098 0A43     		orrs	r2, r1
 262 009a E261     		str	r2, [r4, #28]
 263 009c E369     		ldr	r3, [r4, #28]
 264 009e 0B40     		ands	r3, r1
 265 00a0 0493     		str	r3, [sp, #16]
 266 00a2 049B     		ldr	r3, [sp, #16]
 267 00a4 D8E7     		b	.L12
 268              	.L16:
 269 00a6 C046     		.align	2
 270              	.L15:
 271 00a8 00540040 		.word	1073763328
 272 00ac 00100240 		.word	1073876992
 273 00b0 00040048 		.word	1207960576
 274 00b4 00580040 		.word	1073764352
 276              		.section	.text.HAL_I2C_MspDeInit,"ax",%progbits
 277              		.align	1
 278              		.global	HAL_I2C_MspDeInit
 279              		.syntax unified
 280              		.code	16
 281              		.thumb_func
 282              		.fpu softvfp
 284              	HAL_I2C_MspDeInit:
 285              		@ args = 0, pretend = 0, frame = 0
 286              		@ frame_needed = 0, uses_anonymous_args = 0
 287 0000 0368     		ldr	r3, [r0]
 288 0002 0C4A     		ldr	r2, .L21
 289 0004 10B5     		push	{r4, lr}
 290 0006 9342     		cmp	r3, r2
 291 0008 09D1     		bne	.L18
 292 000a 0B4A     		ldr	r2, .L21+4
 293 000c 0B49     		ldr	r1, .L21+8
 294 000e D369     		ldr	r3, [r2, #28]
ARM GAS  /tmp/ccVjkAXM.s 			page 6


 295 0010 0B40     		ands	r3, r1
 296 0012 C021     		movs	r1, #192
 297 0014 D361     		str	r3, [r2, #28]
 298              	.L20:
 299 0016 0A48     		ldr	r0, .L21+12
 300 0018 FFF7FEFF 		bl	HAL_GPIO_DeInit
 301              	.L17:
 302              		@ sp needed
 303 001c 10BD     		pop	{r4, pc}
 304              	.L18:
 305 001e 094A     		ldr	r2, .L21+16
 306 0020 9342     		cmp	r3, r2
 307 0022 FBD1     		bne	.L17
 308 0024 044A     		ldr	r2, .L21+4
 309 0026 0849     		ldr	r1, .L21+20
 310 0028 D369     		ldr	r3, [r2, #28]
 311 002a 0B40     		ands	r3, r1
 312 002c C021     		movs	r1, #192
 313 002e D361     		str	r3, [r2, #28]
 314 0030 0901     		lsls	r1, r1, #4
 315 0032 F0E7     		b	.L20
 316              	.L22:
 317              		.align	2
 318              	.L21:
 319 0034 00540040 		.word	1073763328
 320 0038 00100240 		.word	1073876992
 321 003c FFFFDFFF 		.word	-2097153
 322 0040 00040048 		.word	1207960576
 323 0044 00580040 		.word	1073764352
 324 0048 FFFFBFFF 		.word	-4194305
 326              		.section	.text.HAL_TIM_PWM_MspInit,"ax",%progbits
 327              		.align	1
 328              		.global	HAL_TIM_PWM_MspInit
 329              		.syntax unified
 330              		.code	16
 331              		.thumb_func
 332              		.fpu softvfp
 334              	HAL_TIM_PWM_MspInit:
 335              		@ args = 0, pretend = 0, frame = 8
 336              		@ frame_needed = 0, uses_anonymous_args = 0
 337 0000 07B5     		push	{r0, r1, r2, lr}
 338 0002 0F4B     		ldr	r3, .L25
 339 0004 0268     		ldr	r2, [r0]
 340 0006 9A42     		cmp	r2, r3
 341 0008 19D1     		bne	.L23
 342 000a 8020     		movs	r0, #128
 343 000c 0D4A     		ldr	r2, .L25+4
 344 000e 0001     		lsls	r0, r0, #4
 345 0010 9169     		ldr	r1, [r2, #24]
 346 0012 0143     		orrs	r1, r0
 347 0014 9161     		str	r1, [r2, #24]
 348 0016 9369     		ldr	r3, [r2, #24]
 349 0018 0022     		movs	r2, #0
 350 001a 0340     		ands	r3, r0
 351 001c 1100     		movs	r1, r2
 352 001e 0D20     		movs	r0, #13
 353 0020 0193     		str	r3, [sp, #4]
ARM GAS  /tmp/ccVjkAXM.s 			page 7


 354 0022 019B     		ldr	r3, [sp, #4]
 355 0024 FFF7FEFF 		bl	HAL_NVIC_SetPriority
 356 0028 0D20     		movs	r0, #13
 357 002a FFF7FEFF 		bl	HAL_NVIC_EnableIRQ
 358 002e 0022     		movs	r2, #0
 359 0030 0E20     		movs	r0, #14
 360 0032 1100     		movs	r1, r2
 361 0034 FFF7FEFF 		bl	HAL_NVIC_SetPriority
 362 0038 0E20     		movs	r0, #14
 363 003a FFF7FEFF 		bl	HAL_NVIC_EnableIRQ
 364              	.L23:
 365              		@ sp needed
 366 003e 07BD     		pop	{r0, r1, r2, pc}
 367              	.L26:
 368              		.align	2
 369              	.L25:
 370 0040 002C0140 		.word	1073818624
 371 0044 00100240 		.word	1073876992
 373              		.section	.text.HAL_TIM_MspPostInit,"ax",%progbits
 374              		.align	1
 375              		.global	HAL_TIM_MspPostInit
 376              		.syntax unified
 377              		.code	16
 378              		.thumb_func
 379              		.fpu softvfp
 381              	HAL_TIM_MspPostInit:
 382              		@ args = 0, pretend = 0, frame = 32
 383              		@ frame_needed = 0, uses_anonymous_args = 0
 384 0000 10B5     		push	{r4, lr}
 385 0002 0400     		movs	r4, r0
 386 0004 88B0     		sub	sp, sp, #32
 387 0006 1422     		movs	r2, #20
 388 0008 0021     		movs	r1, #0
 389 000a 03A8     		add	r0, sp, #12
 390 000c FFF7FEFF 		bl	memset
 391 0010 114B     		ldr	r3, .L29
 392 0012 2268     		ldr	r2, [r4]
 393 0014 9A42     		cmp	r2, r3
 394 0016 1DD1     		bne	.L27
 395 0018 8020     		movs	r0, #128
 396 001a 104B     		ldr	r3, .L29+4
 397 001c 0001     		lsls	r0, r0, #4
 398 001e 9969     		ldr	r1, [r3, #24]
 399 0020 0143     		orrs	r1, r0
 400 0022 9961     		str	r1, [r3, #24]
 401 0024 8021     		movs	r1, #128
 402 0026 9A69     		ldr	r2, [r3, #24]
 403 0028 8902     		lsls	r1, r1, #10
 404 002a 0240     		ands	r2, r0
 405 002c 0192     		str	r2, [sp, #4]
 406 002e 019A     		ldr	r2, [sp, #4]
 407 0030 5A69     		ldr	r2, [r3, #20]
 408 0032 9020     		movs	r0, #144
 409 0034 0A43     		orrs	r2, r1
 410 0036 5A61     		str	r2, [r3, #20]
 411 0038 5B69     		ldr	r3, [r3, #20]
 412 003a C005     		lsls	r0, r0, #23
ARM GAS  /tmp/ccVjkAXM.s 			page 8


 413 003c 0B40     		ands	r3, r1
 414 003e 0293     		str	r3, [sp, #8]
 415 0040 029B     		ldr	r3, [sp, #8]
 416 0042 8023     		movs	r3, #128
 417 0044 5B00     		lsls	r3, r3, #1
 418 0046 0393     		str	r3, [sp, #12]
 419 0048 03A9     		add	r1, sp, #12
 420 004a FE3B     		subs	r3, r3, #254
 421 004c 0493     		str	r3, [sp, #16]
 422 004e 0793     		str	r3, [sp, #28]
 423 0050 FFF7FEFF 		bl	HAL_GPIO_Init
 424              	.L27:
 425 0054 08B0     		add	sp, sp, #32
 426              		@ sp needed
 427 0056 10BD     		pop	{r4, pc}
 428              	.L30:
 429              		.align	2
 430              	.L29:
 431 0058 002C0140 		.word	1073818624
 432 005c 00100240 		.word	1073876992
 434              		.section	.text.HAL_TIM_PWM_MspDeInit,"ax",%progbits
 435              		.align	1
 436              		.global	HAL_TIM_PWM_MspDeInit
 437              		.syntax unified
 438              		.code	16
 439              		.thumb_func
 440              		.fpu softvfp
 442              	HAL_TIM_PWM_MspDeInit:
 443              		@ args = 0, pretend = 0, frame = 0
 444              		@ frame_needed = 0, uses_anonymous_args = 0
 445 0000 084B     		ldr	r3, .L33
 446 0002 0268     		ldr	r2, [r0]
 447 0004 10B5     		push	{r4, lr}
 448 0006 9A42     		cmp	r2, r3
 449 0008 0AD1     		bne	.L31
 450 000a 074A     		ldr	r2, .L33+4
 451 000c 0749     		ldr	r1, .L33+8
 452 000e 9369     		ldr	r3, [r2, #24]
 453 0010 0D20     		movs	r0, #13
 454 0012 0B40     		ands	r3, r1
 455 0014 9361     		str	r3, [r2, #24]
 456 0016 FFF7FEFF 		bl	HAL_NVIC_DisableIRQ
 457 001a 0E20     		movs	r0, #14
 458 001c FFF7FEFF 		bl	HAL_NVIC_DisableIRQ
 459              	.L31:
 460              		@ sp needed
 461 0020 10BD     		pop	{r4, pc}
 462              	.L34:
 463 0022 C046     		.align	2
 464              	.L33:
 465 0024 002C0140 		.word	1073818624
 466 0028 00100240 		.word	1073876992
 467 002c FFF7FFFF 		.word	-2049
 469              		.ident	"GCC: (Arch Repository) 10.1.0"
ARM GAS  /tmp/ccVjkAXM.s 			page 9

