ARM GAS  /tmp/ccbvx2rw.s 			page 1


   1              		.cpu cortex-m0
   2              		.eabi_attribute 20, 1
   3              		.eabi_attribute 21, 1
   4              		.eabi_attribute 23, 3
   5              		.eabi_attribute 24, 1
   6              		.eabi_attribute 25, 1
   7              		.eabi_attribute 26, 1
   8              		.eabi_attribute 30, 4
   9              		.eabi_attribute 34, 0
  10              		.eabi_attribute 18, 4
  11              		.file	"stm32f0xx_hal.c"
  12              		.text
  13              		.section	.text.HAL_MspInit,"ax",%progbits
  14              		.align	1
  15              		.weak	HAL_MspInit
  16              		.arch armv6s-m
  17              		.syntax unified
  18              		.code	16
  19              		.thumb_func
  20              		.fpu softvfp
  22              	HAL_MspInit:
  23              		@ args = 0, pretend = 0, frame = 0
  24              		@ frame_needed = 0, uses_anonymous_args = 0
  25              		@ link register save eliminated.
  26              		@ sp needed
  27 0000 7047     		bx	lr
  29              		.section	.text.HAL_MspDeInit,"ax",%progbits
  30              		.align	1
  31              		.weak	HAL_MspDeInit
  32              		.syntax unified
  33              		.code	16
  34              		.thumb_func
  35              		.fpu softvfp
  37              	HAL_MspDeInit:
  38              		@ args = 0, pretend = 0, frame = 0
  39              		@ frame_needed = 0, uses_anonymous_args = 0
  40              		@ link register save eliminated.
  41              		@ sp needed
  42 0000 7047     		bx	lr
  44              		.section	.text.HAL_DeInit,"ax",%progbits
  45              		.align	1
  46              		.global	HAL_DeInit
  47              		.syntax unified
  48              		.code	16
  49              		.thumb_func
  50              		.fpu softvfp
  52              	HAL_DeInit:
  53              		@ args = 0, pretend = 0, frame = 0
  54              		@ frame_needed = 0, uses_anonymous_args = 0
  55 0000 0122     		movs	r2, #1
  56 0002 10B5     		push	{r4, lr}
  57 0004 0024     		movs	r4, #0
  58              		@ sp needed
  59 0006 064B     		ldr	r3, .L4
  60 0008 5242     		rsbs	r2, r2, #0
  61 000a 1A61     		str	r2, [r3, #16]
  62 000c 1C61     		str	r4, [r3, #16]
ARM GAS  /tmp/ccbvx2rw.s 			page 2


  63 000e DA60     		str	r2, [r3, #12]
  64 0010 DC60     		str	r4, [r3, #12]
  65 0012 9A62     		str	r2, [r3, #40]
  66 0014 9C62     		str	r4, [r3, #40]
  67 0016 FFF7FEFF 		bl	HAL_MspDeInit
  68 001a 2000     		movs	r0, r4
  69 001c 10BD     		pop	{r4, pc}
  70              	.L5:
  71 001e C046     		.align	2
  72              	.L4:
  73 0020 00100240 		.word	1073876992
  75              		.global	__aeabi_uidiv
  76              		.section	.text.HAL_InitTick,"ax",%progbits
  77              		.align	1
  78              		.weak	HAL_InitTick
  79              		.syntax unified
  80              		.code	16
  81              		.thumb_func
  82              		.fpu softvfp
  84              	HAL_InitTick:
  85              		@ args = 0, pretend = 0, frame = 0
  86              		@ frame_needed = 0, uses_anonymous_args = 0
  87 0000 10B5     		push	{r4, lr}
  88 0002 0400     		movs	r4, r0
  89              		@ sp needed
  90 0004 FFF7FEFF 		bl	HAL_RCC_GetHCLKFreq
  91 0008 FA21     		movs	r1, #250
  92 000a 8900     		lsls	r1, r1, #2
  93 000c FFF7FEFF 		bl	__aeabi_uidiv
  94 0010 FFF7FEFF 		bl	HAL_SYSTICK_Config
  95 0014 0120     		movs	r0, #1
  96 0016 0022     		movs	r2, #0
  97 0018 2100     		movs	r1, r4
  98 001a 4042     		rsbs	r0, r0, #0
  99 001c FFF7FEFF 		bl	HAL_NVIC_SetPriority
 100 0020 0020     		movs	r0, #0
 101 0022 10BD     		pop	{r4, pc}
 103              		.section	.text.HAL_Init,"ax",%progbits
 104              		.align	1
 105              		.global	HAL_Init
 106              		.syntax unified
 107              		.code	16
 108              		.thumb_func
 109              		.fpu softvfp
 111              	HAL_Init:
 112              		@ args = 0, pretend = 0, frame = 0
 113              		@ frame_needed = 0, uses_anonymous_args = 0
 114 0000 1023     		movs	r3, #16
 115 0002 064A     		ldr	r2, .L8
 116 0004 10B5     		push	{r4, lr}
 117 0006 1168     		ldr	r1, [r2]
 118 0008 0020     		movs	r0, #0
 119              		@ sp needed
 120 000a 0B43     		orrs	r3, r1
 121 000c 1360     		str	r3, [r2]
 122 000e FFF7FEFF 		bl	HAL_InitTick
 123 0012 FFF7FEFF 		bl	HAL_MspInit
ARM GAS  /tmp/ccbvx2rw.s 			page 3


 124 0016 0020     		movs	r0, #0
 125 0018 10BD     		pop	{r4, pc}
 126              	.L9:
 127 001a C046     		.align	2
 128              	.L8:
 129 001c 00200240 		.word	1073881088
 131              		.section	.text.HAL_IncTick,"ax",%progbits
 132              		.align	1
 133              		.weak	HAL_IncTick
 134              		.syntax unified
 135              		.code	16
 136              		.thumb_func
 137              		.fpu softvfp
 139              	HAL_IncTick:
 140              		@ args = 0, pretend = 0, frame = 0
 141              		@ frame_needed = 0, uses_anonymous_args = 0
 142              		@ link register save eliminated.
 143 0000 024A     		ldr	r2, .L11
 144              		@ sp needed
 145 0002 1368     		ldr	r3, [r2]
 146 0004 0133     		adds	r3, r3, #1
 147 0006 1360     		str	r3, [r2]
 148 0008 7047     		bx	lr
 149              	.L12:
 150 000a C046     		.align	2
 151              	.L11:
 152 000c 00000000 		.word	.LANCHOR0
 154              		.section	.text.HAL_GetTick,"ax",%progbits
 155              		.align	1
 156              		.weak	HAL_GetTick
 157              		.syntax unified
 158              		.code	16
 159              		.thumb_func
 160              		.fpu softvfp
 162              	HAL_GetTick:
 163              		@ args = 0, pretend = 0, frame = 0
 164              		@ frame_needed = 0, uses_anonymous_args = 0
 165              		@ link register save eliminated.
 166 0000 014B     		ldr	r3, .L14
 167              		@ sp needed
 168 0002 1868     		ldr	r0, [r3]
 169 0004 7047     		bx	lr
 170              	.L15:
 171 0006 C046     		.align	2
 172              	.L14:
 173 0008 00000000 		.word	.LANCHOR0
 175              		.section	.text.HAL_Delay,"ax",%progbits
 176              		.align	1
 177              		.weak	HAL_Delay
 178              		.syntax unified
 179              		.code	16
 180              		.thumb_func
 181              		.fpu softvfp
 183              	HAL_Delay:
 184              		@ args = 0, pretend = 0, frame = 8
 185              		@ frame_needed = 0, uses_anonymous_args = 0
 186 0000 37B5     		push	{r0, r1, r2, r4, r5, lr}
ARM GAS  /tmp/ccbvx2rw.s 			page 4


 187 0002 0190     		str	r0, [sp, #4]
 188 0004 FFF7FEFF 		bl	HAL_GetTick
 189 0008 019C     		ldr	r4, [sp, #4]
 190 000a 0500     		movs	r5, r0
 191 000c 631C     		adds	r3, r4, #1
 192 000e 5A1E     		subs	r2, r3, #1
 193 0010 9341     		sbcs	r3, r3, r2
 194 0012 E418     		adds	r4, r4, r3
 195              	.L18:
 196 0014 FFF7FEFF 		bl	HAL_GetTick
 197 0018 401B     		subs	r0, r0, r5
 198 001a A042     		cmp	r0, r4
 199 001c FAD3     		bcc	.L18
 200              		@ sp needed
 201 001e 37BD     		pop	{r0, r1, r2, r4, r5, pc}
 203              		.section	.text.HAL_SuspendTick,"ax",%progbits
 204              		.align	1
 205              		.weak	HAL_SuspendTick
 206              		.syntax unified
 207              		.code	16
 208              		.thumb_func
 209              		.fpu softvfp
 211              	HAL_SuspendTick:
 212              		@ args = 0, pretend = 0, frame = 0
 213              		@ frame_needed = 0, uses_anonymous_args = 0
 214              		@ link register save eliminated.
 215 0000 0221     		movs	r1, #2
 216              		@ sp needed
 217 0002 024A     		ldr	r2, .L23
 218 0004 1368     		ldr	r3, [r2]
 219 0006 8B43     		bics	r3, r1
 220 0008 1360     		str	r3, [r2]
 221 000a 7047     		bx	lr
 222              	.L24:
 223              		.align	2
 224              	.L23:
 225 000c 10E000E0 		.word	-536813552
 227              		.section	.text.HAL_ResumeTick,"ax",%progbits
 228              		.align	1
 229              		.weak	HAL_ResumeTick
 230              		.syntax unified
 231              		.code	16
 232              		.thumb_func
 233              		.fpu softvfp
 235              	HAL_ResumeTick:
 236              		@ args = 0, pretend = 0, frame = 0
 237              		@ frame_needed = 0, uses_anonymous_args = 0
 238              		@ link register save eliminated.
 239 0000 0223     		movs	r3, #2
 240              		@ sp needed
 241 0002 024A     		ldr	r2, .L26
 242 0004 1168     		ldr	r1, [r2]
 243 0006 0B43     		orrs	r3, r1
 244 0008 1360     		str	r3, [r2]
 245 000a 7047     		bx	lr
 246              	.L27:
 247              		.align	2
ARM GAS  /tmp/ccbvx2rw.s 			page 5


 248              	.L26:
 249 000c 10E000E0 		.word	-536813552
 251              		.section	.text.HAL_GetHalVersion,"ax",%progbits
 252              		.align	1
 253              		.global	HAL_GetHalVersion
 254              		.syntax unified
 255              		.code	16
 256              		.thumb_func
 257              		.fpu softvfp
 259              	HAL_GetHalVersion:
 260              		@ args = 0, pretend = 0, frame = 0
 261              		@ frame_needed = 0, uses_anonymous_args = 0
 262              		@ link register save eliminated.
 263 0000 0048     		ldr	r0, .L29
 264              		@ sp needed
 265 0002 7047     		bx	lr
 266              	.L30:
 267              		.align	2
 268              	.L29:
 269 0004 00020701 		.word	17236480
 271              		.section	.text.HAL_GetREVID,"ax",%progbits
 272              		.align	1
 273              		.global	HAL_GetREVID
 274              		.syntax unified
 275              		.code	16
 276              		.thumb_func
 277              		.fpu softvfp
 279              	HAL_GetREVID:
 280              		@ args = 0, pretend = 0, frame = 0
 281              		@ frame_needed = 0, uses_anonymous_args = 0
 282              		@ link register save eliminated.
 283 0000 014B     		ldr	r3, .L32
 284              		@ sp needed
 285 0002 1868     		ldr	r0, [r3]
 286 0004 000C     		lsrs	r0, r0, #16
 287 0006 7047     		bx	lr
 288              	.L33:
 289              		.align	2
 290              	.L32:
 291 0008 00580140 		.word	1073829888
 293              		.section	.text.HAL_GetDEVID,"ax",%progbits
 294              		.align	1
 295              		.global	HAL_GetDEVID
 296              		.syntax unified
 297              		.code	16
 298              		.thumb_func
 299              		.fpu softvfp
 301              	HAL_GetDEVID:
 302              		@ args = 0, pretend = 0, frame = 0
 303              		@ frame_needed = 0, uses_anonymous_args = 0
 304              		@ link register save eliminated.
 305 0000 024B     		ldr	r3, .L35
 306              		@ sp needed
 307 0002 1868     		ldr	r0, [r3]
 308 0004 0005     		lsls	r0, r0, #20
 309 0006 000D     		lsrs	r0, r0, #20
 310 0008 7047     		bx	lr
ARM GAS  /tmp/ccbvx2rw.s 			page 6


 311              	.L36:
 312 000a C046     		.align	2
 313              	.L35:
 314 000c 00580140 		.word	1073829888
 316              		.section	.text.HAL_GetUIDw0,"ax",%progbits
 317              		.align	1
 318              		.global	HAL_GetUIDw0
 319              		.syntax unified
 320              		.code	16
 321              		.thumb_func
 322              		.fpu softvfp
 324              	HAL_GetUIDw0:
 325              		@ args = 0, pretend = 0, frame = 0
 326              		@ frame_needed = 0, uses_anonymous_args = 0
 327              		@ link register save eliminated.
 328 0000 014B     		ldr	r3, .L38
 329              		@ sp needed
 330 0002 1868     		ldr	r0, [r3]
 331 0004 7047     		bx	lr
 332              	.L39:
 333 0006 C046     		.align	2
 334              	.L38:
 335 0008 ACF7FF1F 		.word	536868780
 337              		.section	.text.HAL_GetUIDw1,"ax",%progbits
 338              		.align	1
 339              		.global	HAL_GetUIDw1
 340              		.syntax unified
 341              		.code	16
 342              		.thumb_func
 343              		.fpu softvfp
 345              	HAL_GetUIDw1:
 346              		@ args = 0, pretend = 0, frame = 0
 347              		@ frame_needed = 0, uses_anonymous_args = 0
 348              		@ link register save eliminated.
 349 0000 014B     		ldr	r3, .L41
 350              		@ sp needed
 351 0002 1868     		ldr	r0, [r3]
 352 0004 7047     		bx	lr
 353              	.L42:
 354 0006 C046     		.align	2
 355              	.L41:
 356 0008 B0F7FF1F 		.word	536868784
 358              		.section	.text.HAL_GetUIDw2,"ax",%progbits
 359              		.align	1
 360              		.global	HAL_GetUIDw2
 361              		.syntax unified
 362              		.code	16
 363              		.thumb_func
 364              		.fpu softvfp
 366              	HAL_GetUIDw2:
 367              		@ args = 0, pretend = 0, frame = 0
 368              		@ frame_needed = 0, uses_anonymous_args = 0
 369              		@ link register save eliminated.
 370 0000 014B     		ldr	r3, .L44
 371              		@ sp needed
 372 0002 1868     		ldr	r0, [r3]
 373 0004 7047     		bx	lr
ARM GAS  /tmp/ccbvx2rw.s 			page 7


 374              	.L45:
 375 0006 C046     		.align	2
 376              	.L44:
 377 0008 B4F7FF1F 		.word	536868788
 379              		.section	.text.HAL_DBGMCU_EnableDBGStopMode,"ax",%progbits
 380              		.align	1
 381              		.global	HAL_DBGMCU_EnableDBGStopMode
 382              		.syntax unified
 383              		.code	16
 384              		.thumb_func
 385              		.fpu softvfp
 387              	HAL_DBGMCU_EnableDBGStopMode:
 388              		@ args = 0, pretend = 0, frame = 0
 389              		@ frame_needed = 0, uses_anonymous_args = 0
 390              		@ link register save eliminated.
 391 0000 0223     		movs	r3, #2
 392              		@ sp needed
 393 0002 024A     		ldr	r2, .L47
 394 0004 5168     		ldr	r1, [r2, #4]
 395 0006 0B43     		orrs	r3, r1
 396 0008 5360     		str	r3, [r2, #4]
 397 000a 7047     		bx	lr
 398              	.L48:
 399              		.align	2
 400              	.L47:
 401 000c 00580140 		.word	1073829888
 403              		.section	.text.HAL_DBGMCU_DisableDBGStopMode,"ax",%progbits
 404              		.align	1
 405              		.global	HAL_DBGMCU_DisableDBGStopMode
 406              		.syntax unified
 407              		.code	16
 408              		.thumb_func
 409              		.fpu softvfp
 411              	HAL_DBGMCU_DisableDBGStopMode:
 412              		@ args = 0, pretend = 0, frame = 0
 413              		@ frame_needed = 0, uses_anonymous_args = 0
 414              		@ link register save eliminated.
 415 0000 0221     		movs	r1, #2
 416              		@ sp needed
 417 0002 024A     		ldr	r2, .L50
 418 0004 5368     		ldr	r3, [r2, #4]
 419 0006 8B43     		bics	r3, r1
 420 0008 5360     		str	r3, [r2, #4]
 421 000a 7047     		bx	lr
 422              	.L51:
 423              		.align	2
 424              	.L50:
 425 000c 00580140 		.word	1073829888
 427              		.section	.text.HAL_DBGMCU_EnableDBGStandbyMode,"ax",%progbits
 428              		.align	1
 429              		.global	HAL_DBGMCU_EnableDBGStandbyMode
 430              		.syntax unified
 431              		.code	16
 432              		.thumb_func
 433              		.fpu softvfp
 435              	HAL_DBGMCU_EnableDBGStandbyMode:
 436              		@ args = 0, pretend = 0, frame = 0
ARM GAS  /tmp/ccbvx2rw.s 			page 8


 437              		@ frame_needed = 0, uses_anonymous_args = 0
 438              		@ link register save eliminated.
 439 0000 0423     		movs	r3, #4
 440              		@ sp needed
 441 0002 024A     		ldr	r2, .L53
 442 0004 5168     		ldr	r1, [r2, #4]
 443 0006 0B43     		orrs	r3, r1
 444 0008 5360     		str	r3, [r2, #4]
 445 000a 7047     		bx	lr
 446              	.L54:
 447              		.align	2
 448              	.L53:
 449 000c 00580140 		.word	1073829888
 451              		.section	.text.HAL_DBGMCU_DisableDBGStandbyMode,"ax",%progbits
 452              		.align	1
 453              		.global	HAL_DBGMCU_DisableDBGStandbyMode
 454              		.syntax unified
 455              		.code	16
 456              		.thumb_func
 457              		.fpu softvfp
 459              	HAL_DBGMCU_DisableDBGStandbyMode:
 460              		@ args = 0, pretend = 0, frame = 0
 461              		@ frame_needed = 0, uses_anonymous_args = 0
 462              		@ link register save eliminated.
 463 0000 0421     		movs	r1, #4
 464              		@ sp needed
 465 0002 024A     		ldr	r2, .L56
 466 0004 5368     		ldr	r3, [r2, #4]
 467 0006 8B43     		bics	r3, r1
 468 0008 5360     		str	r3, [r2, #4]
 469 000a 7047     		bx	lr
 470              	.L57:
 471              		.align	2
 472              	.L56:
 473 000c 00580140 		.word	1073829888
 475              		.global	uwTick
 476              		.section	.bss.uwTick,"aw",%nobits
 477              		.align	2
 478              		.set	.LANCHOR0,. + 0
 481              	uwTick:
 482 0000 00000000 		.space	4
 483              		.ident	"GCC: (Arch Repository) 10.1.0"
ARM GAS  /tmp/ccbvx2rw.s 			page 9


DEFINED SYMBOLS
                            *ABS*:0000000000000000 stm32f0xx_hal.c
     /tmp/ccbvx2rw.s:14     .text.HAL_MspInit:0000000000000000 $t
     /tmp/ccbvx2rw.s:22     .text.HAL_MspInit:0000000000000000 HAL_MspInit
     /tmp/ccbvx2rw.s:30     .text.HAL_MspDeInit:0000000000000000 $t
     /tmp/ccbvx2rw.s:37     .text.HAL_MspDeInit:0000000000000000 HAL_MspDeInit
     /tmp/ccbvx2rw.s:45     .text.HAL_DeInit:0000000000000000 $t
     /tmp/ccbvx2rw.s:52     .text.HAL_DeInit:0000000000000000 HAL_DeInit
     /tmp/ccbvx2rw.s:73     .text.HAL_DeInit:0000000000000020 $d
     /tmp/ccbvx2rw.s:77     .text.HAL_InitTick:0000000000000000 $t
     /tmp/ccbvx2rw.s:84     .text.HAL_InitTick:0000000000000000 HAL_InitTick
     /tmp/ccbvx2rw.s:104    .text.HAL_Init:0000000000000000 $t
     /tmp/ccbvx2rw.s:111    .text.HAL_Init:0000000000000000 HAL_Init
     /tmp/ccbvx2rw.s:129    .text.HAL_Init:000000000000001c $d
     /tmp/ccbvx2rw.s:132    .text.HAL_IncTick:0000000000000000 $t
     /tmp/ccbvx2rw.s:139    .text.HAL_IncTick:0000000000000000 HAL_IncTick
     /tmp/ccbvx2rw.s:152    .text.HAL_IncTick:000000000000000c $d
     /tmp/ccbvx2rw.s:155    .text.HAL_GetTick:0000000000000000 $t
     /tmp/ccbvx2rw.s:162    .text.HAL_GetTick:0000000000000000 HAL_GetTick
     /tmp/ccbvx2rw.s:173    .text.HAL_GetTick:0000000000000008 $d
     /tmp/ccbvx2rw.s:176    .text.HAL_Delay:0000000000000000 $t
     /tmp/ccbvx2rw.s:183    .text.HAL_Delay:0000000000000000 HAL_Delay
     /tmp/ccbvx2rw.s:204    .text.HAL_SuspendTick:0000000000000000 $t
     /tmp/ccbvx2rw.s:211    .text.HAL_SuspendTick:0000000000000000 HAL_SuspendTick
     /tmp/ccbvx2rw.s:225    .text.HAL_SuspendTick:000000000000000c $d
     /tmp/ccbvx2rw.s:228    .text.HAL_ResumeTick:0000000000000000 $t
     /tmp/ccbvx2rw.s:235    .text.HAL_ResumeTick:0000000000000000 HAL_ResumeTick
     /tmp/ccbvx2rw.s:249    .text.HAL_ResumeTick:000000000000000c $d
     /tmp/ccbvx2rw.s:252    .text.HAL_GetHalVersion:0000000000000000 $t
     /tmp/ccbvx2rw.s:259    .text.HAL_GetHalVersion:0000000000000000 HAL_GetHalVersion
     /tmp/ccbvx2rw.s:269    .text.HAL_GetHalVersion:0000000000000004 $d
     /tmp/ccbvx2rw.s:272    .text.HAL_GetREVID:0000000000000000 $t
     /tmp/ccbvx2rw.s:279    .text.HAL_GetREVID:0000000000000000 HAL_GetREVID
     /tmp/ccbvx2rw.s:291    .text.HAL_GetREVID:0000000000000008 $d
     /tmp/ccbvx2rw.s:294    .text.HAL_GetDEVID:0000000000000000 $t
     /tmp/ccbvx2rw.s:301    .text.HAL_GetDEVID:0000000000000000 HAL_GetDEVID
     /tmp/ccbvx2rw.s:314    .text.HAL_GetDEVID:000000000000000c $d
     /tmp/ccbvx2rw.s:317    .text.HAL_GetUIDw0:0000000000000000 $t
     /tmp/ccbvx2rw.s:324    .text.HAL_GetUIDw0:0000000000000000 HAL_GetUIDw0
     /tmp/ccbvx2rw.s:335    .text.HAL_GetUIDw0:0000000000000008 $d
     /tmp/ccbvx2rw.s:338    .text.HAL_GetUIDw1:0000000000000000 $t
     /tmp/ccbvx2rw.s:345    .text.HAL_GetUIDw1:0000000000000000 HAL_GetUIDw1
     /tmp/ccbvx2rw.s:356    .text.HAL_GetUIDw1:0000000000000008 $d
     /tmp/ccbvx2rw.s:359    .text.HAL_GetUIDw2:0000000000000000 $t
     /tmp/ccbvx2rw.s:366    .text.HAL_GetUIDw2:0000000000000000 HAL_GetUIDw2
     /tmp/ccbvx2rw.s:377    .text.HAL_GetUIDw2:0000000000000008 $d
     /tmp/ccbvx2rw.s:380    .text.HAL_DBGMCU_EnableDBGStopMode:0000000000000000 $t
     /tmp/ccbvx2rw.s:387    .text.HAL_DBGMCU_EnableDBGStopMode:0000000000000000 HAL_DBGMCU_EnableDBGStopMode
     /tmp/ccbvx2rw.s:401    .text.HAL_DBGMCU_EnableDBGStopMode:000000000000000c $d
     /tmp/ccbvx2rw.s:404    .text.HAL_DBGMCU_DisableDBGStopMode:0000000000000000 $t
     /tmp/ccbvx2rw.s:411    .text.HAL_DBGMCU_DisableDBGStopMode:0000000000000000 HAL_DBGMCU_DisableDBGStopMode
     /tmp/ccbvx2rw.s:425    .text.HAL_DBGMCU_DisableDBGStopMode:000000000000000c $d
     /tmp/ccbvx2rw.s:428    .text.HAL_DBGMCU_EnableDBGStandbyMode:0000000000000000 $t
     /tmp/ccbvx2rw.s:435    .text.HAL_DBGMCU_EnableDBGStandbyMode:0000000000000000 HAL_DBGMCU_EnableDBGStandbyMode
     /tmp/ccbvx2rw.s:449    .text.HAL_DBGMCU_EnableDBGStandbyMode:000000000000000c $d
     /tmp/ccbvx2rw.s:452    .text.HAL_DBGMCU_DisableDBGStandbyMode:0000000000000000 $t
     /tmp/ccbvx2rw.s:459    .text.HAL_DBGMCU_DisableDBGStandbyMode:0000000000000000 HAL_DBGMCU_DisableDBGStandbyMode
ARM GAS  /tmp/ccbvx2rw.s 			page 10


     /tmp/ccbvx2rw.s:473    .text.HAL_DBGMCU_DisableDBGStandbyMode:000000000000000c $d
     /tmp/ccbvx2rw.s:481    .bss.uwTick:0000000000000000 uwTick
     /tmp/ccbvx2rw.s:477    .bss.uwTick:0000000000000000 $d

UNDEFINED SYMBOLS
__aeabi_uidiv
HAL_RCC_GetHCLKFreq
HAL_SYSTICK_Config
HAL_NVIC_SetPriority
