ARM GAS  /tmp/ccBfV7WO.s 			page 1


   1              		.cpu cortex-m0
   2              		.eabi_attribute 20, 1
   3              		.eabi_attribute 21, 1
   4              		.eabi_attribute 23, 3
   5              		.eabi_attribute 24, 1
   6              		.eabi_attribute 25, 1
   7              		.eabi_attribute 26, 1
   8              		.eabi_attribute 30, 4
   9              		.eabi_attribute 34, 0
  10              		.eabi_attribute 18, 4
  11              		.file	"stm32f0xx_hal_gpio.c"
  12              		.text
  13              		.section	.text.HAL_GPIO_Init,"ax",%progbits
  14              		.align	1
  15              		.global	HAL_GPIO_Init
  16              		.arch armv6s-m
  17              		.syntax unified
  18              		.code	16
  19              		.thumb_func
  20              		.fpu softvfp
  22              	HAL_GPIO_Init:
  23              		@ args = 0, pretend = 0, frame = 32
  24              		@ frame_needed = 0, uses_anonymous_args = 0
  25 0000 584A     		ldr	r2, .L26
  26 0002 F0B5     		push	{r4, r5, r6, r7, lr}
  27 0004 8218     		adds	r2, r0, r2
  28 0006 541E     		subs	r4, r2, #1
  29 0008 A241     		sbcs	r2, r2, r4
  30 000a 0023     		movs	r3, #0
  31 000c 89B0     		sub	sp, sp, #36
  32 000e 0432     		adds	r2, r2, #4
  33 0010 0291     		str	r1, [sp, #8]
  34 0012 0592     		str	r2, [sp, #20]
  35              	.L2:
  36 0014 029A     		ldr	r2, [sp, #8]
  37 0016 1268     		ldr	r2, [r2]
  38 0018 1400     		movs	r4, r2
  39 001a DC40     		lsrs	r4, r4, r3
  40 001c 01D1     		bne	.L17
  41 001e 09B0     		add	sp, sp, #36
  42              		@ sp needed
  43 0020 F0BD     		pop	{r4, r5, r6, r7, pc}
  44              	.L17:
  45 0022 0124     		movs	r4, #1
  46 0024 9C40     		lsls	r4, r4, r3
  47 0026 A446     		mov	ip, r4
  48 0028 6146     		mov	r1, ip
  49 002a 1440     		ands	r4, r2
  50 002c 0194     		str	r4, [sp, #4]
  51 002e 0A42     		tst	r2, r1
  52 0030 00D1     		bne	.LCB41
  53 0032 95E0     		b	.L4	@long jump
  54              	.LCB41:
  55 0034 029A     		ldr	r2, [sp, #8]
  56 0036 5468     		ldr	r4, [r2, #4]
  57 0038 1022     		movs	r2, #16
  58 003a 2500     		movs	r5, r4
ARM GAS  /tmp/ccBfV7WO.s 			page 2


  59 003c 9543     		bics	r5, r2
  60 003e 0395     		str	r5, [sp, #12]
  61 0040 022D     		cmp	r5, #2
  62 0042 0ED1     		bne	.L5
  63 0044 0725     		movs	r5, #7
  64 0046 0F27     		movs	r7, #15
  65 0048 1D40     		ands	r5, r3
  66 004a AD00     		lsls	r5, r5, #2
  67 004c AF40     		lsls	r7, r7, r5
  68 004e DA08     		lsrs	r2, r3, #3
  69 0050 9200     		lsls	r2, r2, #2
  70 0052 8218     		adds	r2, r0, r2
  71 0054 166A     		ldr	r6, [r2, #32]
  72 0056 0299     		ldr	r1, [sp, #8]
  73 0058 BE43     		bics	r6, r7
  74 005a 0F69     		ldr	r7, [r1, #16]
  75 005c AF40     		lsls	r7, r7, r5
  76 005e 3E43     		orrs	r6, r7
  77 0060 1662     		str	r6, [r2, #32]
  78              	.L5:
  79 0062 0268     		ldr	r2, [r0]
  80 0064 5D00     		lsls	r5, r3, #1
  81 0066 1100     		movs	r1, r2
  82 0068 0322     		movs	r2, #3
  83 006a 1600     		movs	r6, r2
  84 006c AE40     		lsls	r6, r6, r5
  85 006e 2240     		ands	r2, r4
  86 0070 B143     		bics	r1, r6
  87 0072 AA40     		lsls	r2, r2, r5
  88 0074 F743     		mvns	r7, r6
  89 0076 0E00     		movs	r6, r1
  90 0078 1643     		orrs	r6, r2
  91 007a 039A     		ldr	r2, [sp, #12]
  92 007c 0660     		str	r6, [r0]
  93 007e 013A     		subs	r2, r2, #1
  94 0080 012A     		cmp	r2, #1
  95 0082 0ED8     		bhi	.L6
  96 0084 029A     		ldr	r2, [sp, #8]
  97 0086 8668     		ldr	r6, [r0, #8]
  98 0088 D268     		ldr	r2, [r2, #12]
  99 008a 3E40     		ands	r6, r7
 100 008c AA40     		lsls	r2, r2, r5
 101 008e 3243     		orrs	r2, r6
 102 0090 8260     		str	r2, [r0, #8]
 103 0092 6246     		mov	r2, ip
 104 0094 4668     		ldr	r6, [r0, #4]
 105 0096 9643     		bics	r6, r2
 106 0098 E206     		lsls	r2, r4, #27
 107 009a D20F     		lsrs	r2, r2, #31
 108 009c 9A40     		lsls	r2, r2, r3
 109 009e 3243     		orrs	r2, r6
 110 00a0 4260     		str	r2, [r0, #4]
 111              	.L6:
 112 00a2 C268     		ldr	r2, [r0, #12]
 113 00a4 0299     		ldr	r1, [sp, #8]
 114 00a6 3A40     		ands	r2, r7
 115 00a8 8F68     		ldr	r7, [r1, #8]
ARM GAS  /tmp/ccBfV7WO.s 			page 3


 116 00aa AF40     		lsls	r7, r7, r5
 117 00ac 1743     		orrs	r7, r2
 118 00ae C760     		str	r7, [r0, #12]
 119 00b0 E200     		lsls	r2, r4, #3
 120 00b2 55D5     		bpl	.L4
 121 00b4 0126     		movs	r6, #1
 122 00b6 2C4A     		ldr	r2, .L26+4
 123 00b8 0327     		movs	r7, #3
 124 00ba 9569     		ldr	r5, [r2, #24]
 125 00bc 3543     		orrs	r5, r6
 126 00be 9561     		str	r5, [r2, #24]
 127 00c0 9269     		ldr	r2, [r2, #24]
 128 00c2 9D08     		lsrs	r5, r3, #2
 129 00c4 3240     		ands	r2, r6
 130 00c6 0792     		str	r2, [sp, #28]
 131 00c8 079A     		ldr	r2, [sp, #28]
 132 00ca 284A     		ldr	r2, .L26+8
 133 00cc AD00     		lsls	r5, r5, #2
 134 00ce AD18     		adds	r5, r5, r2
 135 00d0 AA68     		ldr	r2, [r5, #8]
 136 00d2 9446     		mov	ip, r2
 137 00d4 1A00     		movs	r2, r3
 138 00d6 3A40     		ands	r2, r7
 139 00d8 9200     		lsls	r2, r2, #2
 140 00da 0392     		str	r2, [sp, #12]
 141 00dc 0F22     		movs	r2, #15
 142 00de 0399     		ldr	r1, [sp, #12]
 143 00e0 8A40     		lsls	r2, r2, r1
 144 00e2 6146     		mov	r1, ip
 145 00e4 9143     		bics	r1, r2
 146 00e6 9022     		movs	r2, #144
 147 00e8 D205     		lsls	r2, r2, #23
 148 00ea 9446     		mov	ip, r2
 149 00ec 0491     		str	r1, [sp, #16]
 150 00ee 0022     		movs	r2, #0
 151 00f0 6045     		cmp	r0, ip
 152 00f2 0DD0     		beq	.L8
 153 00f4 1E4A     		ldr	r2, .L26+12
 154 00f6 9446     		mov	ip, r2
 155 00f8 3200     		movs	r2, r6
 156 00fa 6045     		cmp	r0, ip
 157 00fc 08D0     		beq	.L8
 158 00fe 1D4E     		ldr	r6, .L26+16
 159 0100 9218     		adds	r2, r2, r2
 160 0102 B042     		cmp	r0, r6
 161 0104 04D0     		beq	.L8
 162 0106 1C4E     		ldr	r6, .L26+20
 163 0108 3A00     		movs	r2, r7
 164 010a B042     		cmp	r0, r6
 165 010c 00D0     		beq	.L8
 166 010e 059A     		ldr	r2, [sp, #20]
 167              	.L8:
 168 0110 0399     		ldr	r1, [sp, #12]
 169 0112 8A40     		lsls	r2, r2, r1
 170 0114 0499     		ldr	r1, [sp, #16]
 171 0116 0A43     		orrs	r2, r1
 172 0118 0199     		ldr	r1, [sp, #4]
ARM GAS  /tmp/ccBfV7WO.s 			page 4


 173 011a AA60     		str	r2, [r5, #8]
 174 011c 0E00     		movs	r6, r1
 175 011e 174A     		ldr	r2, .L26+24
 176 0120 CD43     		mvns	r5, r1
 177 0122 1768     		ldr	r7, [r2]
 178 0124 3E43     		orrs	r6, r7
 179 0126 E103     		lsls	r1, r4, #15
 180 0128 01D4     		bmi	.L10
 181 012a 3E00     		movs	r6, r7
 182 012c 2E40     		ands	r6, r5
 183              	.L10:
 184 012e 1660     		str	r6, [r2]
 185 0130 5768     		ldr	r7, [r2, #4]
 186 0132 019E     		ldr	r6, [sp, #4]
 187 0134 3E43     		orrs	r6, r7
 188 0136 A103     		lsls	r1, r4, #14
 189 0138 01D4     		bmi	.L12
 190 013a 3E00     		movs	r6, r7
 191 013c 2E40     		ands	r6, r5
 192              	.L12:
 193 013e 5660     		str	r6, [r2, #4]
 194 0140 9768     		ldr	r7, [r2, #8]
 195 0142 019E     		ldr	r6, [sp, #4]
 196 0144 3E43     		orrs	r6, r7
 197 0146 E102     		lsls	r1, r4, #11
 198 0148 01D4     		bmi	.L14
 199 014a 3E00     		movs	r6, r7
 200 014c 2E40     		ands	r6, r5
 201              	.L14:
 202 014e 9660     		str	r6, [r2, #8]
 203 0150 D668     		ldr	r6, [r2, #12]
 204 0152 019F     		ldr	r7, [sp, #4]
 205 0154 3743     		orrs	r7, r6
 206 0156 A102     		lsls	r1, r4, #10
 207 0158 01D4     		bmi	.L16
 208 015a 2E40     		ands	r6, r5
 209 015c 3700     		movs	r7, r6
 210              	.L16:
 211 015e D760     		str	r7, [r2, #12]
 212              	.L4:
 213 0160 0133     		adds	r3, r3, #1
 214 0162 57E7     		b	.L2
 215              	.L27:
 216              		.align	2
 217              	.L26:
 218 0164 00F0FFB7 		.word	-1207963648
 219 0168 00100240 		.word	1073876992
 220 016c 00000140 		.word	1073807360
 221 0170 00040048 		.word	1207960576
 222 0174 00080048 		.word	1207961600
 223 0178 000C0048 		.word	1207962624
 224 017c 00040140 		.word	1073808384
 226              		.section	.text.HAL_GPIO_DeInit,"ax",%progbits
 227              		.align	1
 228              		.global	HAL_GPIO_DeInit
 229              		.syntax unified
 230              		.code	16
ARM GAS  /tmp/ccBfV7WO.s 			page 5


 231              		.thumb_func
 232              		.fpu softvfp
 234              	HAL_GPIO_DeInit:
 235              		@ args = 0, pretend = 0, frame = 16
 236              		@ frame_needed = 0, uses_anonymous_args = 0
 237 0000 F0B5     		push	{r4, r5, r6, r7, lr}
 238 0002 364A     		ldr	r2, .L40
 239 0004 85B0     		sub	sp, sp, #20
 240 0006 8218     		adds	r2, r0, r2
 241 0008 0191     		str	r1, [sp, #4]
 242 000a 511E     		subs	r1, r2, #1
 243 000c 8A41     		sbcs	r2, r2, r1
 244 000e 0023     		movs	r3, #0
 245 0010 0432     		adds	r2, r2, #4
 246 0012 0392     		str	r2, [sp, #12]
 247              	.L29:
 248 0014 019A     		ldr	r2, [sp, #4]
 249 0016 DA40     		lsrs	r2, r2, r3
 250 0018 01D1     		bne	.L34
 251 001a 05B0     		add	sp, sp, #20
 252              		@ sp needed
 253 001c F0BD     		pop	{r4, r5, r6, r7, pc}
 254              	.L34:
 255 001e 0127     		movs	r7, #1
 256 0020 9F40     		lsls	r7, r7, r3
 257 0022 019D     		ldr	r5, [sp, #4]
 258 0024 019A     		ldr	r2, [sp, #4]
 259 0026 3D40     		ands	r5, r7
 260 0028 3A42     		tst	r2, r7
 261 002a 54D0     		beq	.L31
 262 002c 0326     		movs	r6, #3
 263 002e 5900     		lsls	r1, r3, #1
 264 0030 8E40     		lsls	r6, r6, r1
 265 0032 0F21     		movs	r1, #15
 266 0034 0268     		ldr	r2, [r0]
 267 0036 0724     		movs	r4, #7
 268 0038 B243     		bics	r2, r6
 269 003a 0260     		str	r2, [r0]
 270 003c DA08     		lsrs	r2, r3, #3
 271 003e 9200     		lsls	r2, r2, #2
 272 0040 8218     		adds	r2, r0, r2
 273 0042 0292     		str	r2, [sp, #8]
 274 0044 126A     		ldr	r2, [r2, #32]
 275 0046 1C40     		ands	r4, r3
 276 0048 9446     		mov	ip, r2
 277 004a 0A00     		movs	r2, r1
 278 004c A400     		lsls	r4, r4, #2
 279 004e A240     		lsls	r2, r2, r4
 280 0050 1400     		movs	r4, r2
 281 0052 6246     		mov	r2, ip
 282 0054 A243     		bics	r2, r4
 283 0056 1400     		movs	r4, r2
 284 0058 029A     		ldr	r2, [sp, #8]
 285 005a 1462     		str	r4, [r2, #32]
 286 005c 8268     		ldr	r2, [r0, #8]
 287 005e 204C     		ldr	r4, .L40+4
 288 0060 B243     		bics	r2, r6
ARM GAS  /tmp/ccBfV7WO.s 			page 6


 289 0062 8260     		str	r2, [r0, #8]
 290 0064 4268     		ldr	r2, [r0, #4]
 291 0066 BA43     		bics	r2, r7
 292 0068 4260     		str	r2, [r0, #4]
 293 006a C268     		ldr	r2, [r0, #12]
 294 006c B243     		bics	r2, r6
 295 006e C260     		str	r2, [r0, #12]
 296 0070 9A08     		lsrs	r2, r3, #2
 297 0072 9200     		lsls	r2, r2, #2
 298 0074 1219     		adds	r2, r2, r4
 299 0076 0324     		movs	r4, #3
 300 0078 1C40     		ands	r4, r3
 301 007a A400     		lsls	r4, r4, #2
 302 007c A140     		lsls	r1, r1, r4
 303 007e 9668     		ldr	r6, [r2, #8]
 304 0080 0F00     		movs	r7, r1
 305 0082 0E40     		ands	r6, r1
 306 0084 9021     		movs	r1, #144
 307 0086 C905     		lsls	r1, r1, #23
 308 0088 8C46     		mov	ip, r1
 309 008a 0021     		movs	r1, #0
 310 008c 6045     		cmp	r0, ip
 311 008e 0FD0     		beq	.L32
 312 0090 1449     		ldr	r1, .L40+8
 313 0092 8C46     		mov	ip, r1
 314 0094 0121     		movs	r1, #1
 315 0096 6045     		cmp	r0, ip
 316 0098 0AD0     		beq	.L32
 317 009a 1349     		ldr	r1, .L40+12
 318 009c 8C46     		mov	ip, r1
 319 009e 0221     		movs	r1, #2
 320 00a0 6045     		cmp	r0, ip
 321 00a2 05D0     		beq	.L32
 322 00a4 1149     		ldr	r1, .L40+16
 323 00a6 8C46     		mov	ip, r1
 324 00a8 0321     		movs	r1, #3
 325 00aa 6045     		cmp	r0, ip
 326 00ac 00D0     		beq	.L32
 327 00ae 0399     		ldr	r1, [sp, #12]
 328              	.L32:
 329 00b0 A140     		lsls	r1, r1, r4
 330 00b2 B142     		cmp	r1, r6
 331 00b4 0FD1     		bne	.L31
 332 00b6 9168     		ldr	r1, [r2, #8]
 333 00b8 B943     		bics	r1, r7
 334 00ba 9160     		str	r1, [r2, #8]
 335 00bc 0C4A     		ldr	r2, .L40+20
 336 00be 1168     		ldr	r1, [r2]
 337 00c0 A943     		bics	r1, r5
 338 00c2 1160     		str	r1, [r2]
 339 00c4 5168     		ldr	r1, [r2, #4]
 340 00c6 A943     		bics	r1, r5
 341 00c8 5160     		str	r1, [r2, #4]
 342 00ca 9168     		ldr	r1, [r2, #8]
 343 00cc A943     		bics	r1, r5
 344 00ce 9160     		str	r1, [r2, #8]
 345 00d0 D168     		ldr	r1, [r2, #12]
ARM GAS  /tmp/ccBfV7WO.s 			page 7


 346 00d2 A943     		bics	r1, r5
 347 00d4 D160     		str	r1, [r2, #12]
 348              	.L31:
 349 00d6 0133     		adds	r3, r3, #1
 350 00d8 9CE7     		b	.L29
 351              	.L41:
 352 00da C046     		.align	2
 353              	.L40:
 354 00dc 00F0FFB7 		.word	-1207963648
 355 00e0 00000140 		.word	1073807360
 356 00e4 00040048 		.word	1207960576
 357 00e8 00080048 		.word	1207961600
 358 00ec 000C0048 		.word	1207962624
 359 00f0 00040140 		.word	1073808384
 361              		.section	.text.HAL_GPIO_ReadPin,"ax",%progbits
 362              		.align	1
 363              		.global	HAL_GPIO_ReadPin
 364              		.syntax unified
 365              		.code	16
 366              		.thumb_func
 367              		.fpu softvfp
 369              	HAL_GPIO_ReadPin:
 370              		@ args = 0, pretend = 0, frame = 0
 371              		@ frame_needed = 0, uses_anonymous_args = 0
 372              		@ link register save eliminated.
 373 0000 0069     		ldr	r0, [r0, #16]
 374              		@ sp needed
 375 0002 0840     		ands	r0, r1
 376 0004 431E     		subs	r3, r0, #1
 377 0006 9841     		sbcs	r0, r0, r3
 378 0008 C0B2     		uxtb	r0, r0
 379 000a 7047     		bx	lr
 381              		.section	.text.HAL_GPIO_WritePin,"ax",%progbits
 382              		.align	1
 383              		.global	HAL_GPIO_WritePin
 384              		.syntax unified
 385              		.code	16
 386              		.thumb_func
 387              		.fpu softvfp
 389              	HAL_GPIO_WritePin:
 390              		@ args = 0, pretend = 0, frame = 0
 391              		@ frame_needed = 0, uses_anonymous_args = 0
 392              		@ link register save eliminated.
 393 0000 002A     		cmp	r2, #0
 394 0002 01D0     		beq	.L44
 395 0004 8161     		str	r1, [r0, #24]
 396              	.L43:
 397              		@ sp needed
 398 0006 7047     		bx	lr
 399              	.L44:
 400 0008 8162     		str	r1, [r0, #40]
 401 000a FCE7     		b	.L43
 403              		.section	.text.HAL_GPIO_TogglePin,"ax",%progbits
 404              		.align	1
 405              		.global	HAL_GPIO_TogglePin
 406              		.syntax unified
 407              		.code	16
ARM GAS  /tmp/ccBfV7WO.s 			page 8


 408              		.thumb_func
 409              		.fpu softvfp
 411              	HAL_GPIO_TogglePin:
 412              		@ args = 0, pretend = 0, frame = 0
 413              		@ frame_needed = 0, uses_anonymous_args = 0
 414              		@ link register save eliminated.
 415 0000 4369     		ldr	r3, [r0, #20]
 416              		@ sp needed
 417 0002 5940     		eors	r1, r3
 418 0004 4161     		str	r1, [r0, #20]
 419 0006 7047     		bx	lr
 421              		.section	.text.HAL_GPIO_LockPin,"ax",%progbits
 422              		.align	1
 423              		.global	HAL_GPIO_LockPin
 424              		.syntax unified
 425              		.code	16
 426              		.thumb_func
 427              		.fpu softvfp
 429              	HAL_GPIO_LockPin:
 430              		@ args = 0, pretend = 0, frame = 8
 431              		@ frame_needed = 0, uses_anonymous_args = 0
 432              		@ link register save eliminated.
 433 0000 8023     		movs	r3, #128
 434 0002 82B0     		sub	sp, sp, #8
 435 0004 5B02     		lsls	r3, r3, #9
 436 0006 0193     		str	r3, [sp, #4]
 437 0008 019B     		ldr	r3, [sp, #4]
 438 000a 0B43     		orrs	r3, r1
 439 000c 0193     		str	r3, [sp, #4]
 440 000e 019B     		ldr	r3, [sp, #4]
 441 0010 C361     		str	r3, [r0, #28]
 442 0012 C161     		str	r1, [r0, #28]
 443 0014 019B     		ldr	r3, [sp, #4]
 444 0016 C361     		str	r3, [r0, #28]
 445 0018 C369     		ldr	r3, [r0, #28]
 446 001a 0193     		str	r3, [sp, #4]
 447 001c C369     		ldr	r3, [r0, #28]
 448 001e 0120     		movs	r0, #1
 449 0020 1B0C     		lsrs	r3, r3, #16
 450 0022 9843     		bics	r0, r3
 451 0024 02B0     		add	sp, sp, #8
 452              		@ sp needed
 453 0026 7047     		bx	lr
 455              		.section	.text.HAL_GPIO_EXTI_Callback,"ax",%progbits
 456              		.align	1
 457              		.weak	HAL_GPIO_EXTI_Callback
 458              		.syntax unified
 459              		.code	16
 460              		.thumb_func
 461              		.fpu softvfp
 463              	HAL_GPIO_EXTI_Callback:
 464              		@ args = 0, pretend = 0, frame = 0
 465              		@ frame_needed = 0, uses_anonymous_args = 0
 466              		@ link register save eliminated.
 467              		@ sp needed
 468 0000 7047     		bx	lr
 470              		.section	.text.HAL_GPIO_EXTI_IRQHandler,"ax",%progbits
ARM GAS  /tmp/ccBfV7WO.s 			page 9


 471              		.align	1
 472              		.global	HAL_GPIO_EXTI_IRQHandler
 473              		.syntax unified
 474              		.code	16
 475              		.thumb_func
 476              		.fpu softvfp
 478              	HAL_GPIO_EXTI_IRQHandler:
 479              		@ args = 0, pretend = 0, frame = 0
 480              		@ frame_needed = 0, uses_anonymous_args = 0
 481 0000 044B     		ldr	r3, .L54
 482 0002 10B5     		push	{r4, lr}
 483 0004 5A69     		ldr	r2, [r3, #20]
 484 0006 1042     		tst	r0, r2
 485 0008 02D0     		beq	.L49
 486 000a 5861     		str	r0, [r3, #20]
 487 000c FFF7FEFF 		bl	HAL_GPIO_EXTI_Callback
 488              	.L49:
 489              		@ sp needed
 490 0010 10BD     		pop	{r4, pc}
 491              	.L55:
 492 0012 C046     		.align	2
 493              	.L54:
 494 0014 00040140 		.word	1073808384
 496              		.ident	"GCC: (Arch Repository) 10.1.0"
ARM GAS  /tmp/ccBfV7WO.s 			page 10


DEFINED SYMBOLS
                            *ABS*:0000000000000000 stm32f0xx_hal_gpio.c
     /tmp/ccBfV7WO.s:14     .text.HAL_GPIO_Init:0000000000000000 $t
     /tmp/ccBfV7WO.s:22     .text.HAL_GPIO_Init:0000000000000000 HAL_GPIO_Init
     /tmp/ccBfV7WO.s:218    .text.HAL_GPIO_Init:0000000000000164 $d
     /tmp/ccBfV7WO.s:227    .text.HAL_GPIO_DeInit:0000000000000000 $t
     /tmp/ccBfV7WO.s:234    .text.HAL_GPIO_DeInit:0000000000000000 HAL_GPIO_DeInit
     /tmp/ccBfV7WO.s:354    .text.HAL_GPIO_DeInit:00000000000000dc $d
     /tmp/ccBfV7WO.s:362    .text.HAL_GPIO_ReadPin:0000000000000000 $t
     /tmp/ccBfV7WO.s:369    .text.HAL_GPIO_ReadPin:0000000000000000 HAL_GPIO_ReadPin
     /tmp/ccBfV7WO.s:382    .text.HAL_GPIO_WritePin:0000000000000000 $t
     /tmp/ccBfV7WO.s:389    .text.HAL_GPIO_WritePin:0000000000000000 HAL_GPIO_WritePin
     /tmp/ccBfV7WO.s:404    .text.HAL_GPIO_TogglePin:0000000000000000 $t
     /tmp/ccBfV7WO.s:411    .text.HAL_GPIO_TogglePin:0000000000000000 HAL_GPIO_TogglePin
     /tmp/ccBfV7WO.s:422    .text.HAL_GPIO_LockPin:0000000000000000 $t
     /tmp/ccBfV7WO.s:429    .text.HAL_GPIO_LockPin:0000000000000000 HAL_GPIO_LockPin
     /tmp/ccBfV7WO.s:456    .text.HAL_GPIO_EXTI_Callback:0000000000000000 $t
     /tmp/ccBfV7WO.s:463    .text.HAL_GPIO_EXTI_Callback:0000000000000000 HAL_GPIO_EXTI_Callback
     /tmp/ccBfV7WO.s:471    .text.HAL_GPIO_EXTI_IRQHandler:0000000000000000 $t
     /tmp/ccBfV7WO.s:478    .text.HAL_GPIO_EXTI_IRQHandler:0000000000000000 HAL_GPIO_EXTI_IRQHandler
     /tmp/ccBfV7WO.s:494    .text.HAL_GPIO_EXTI_IRQHandler:0000000000000014 $d

NO UNDEFINED SYMBOLS
