ARM GAS  /tmp/cchjT0Ct.s 			page 1


   1              		.cpu cortex-m0
   2              		.eabi_attribute 20, 1
   3              		.eabi_attribute 21, 1
   4              		.eabi_attribute 23, 3
   5              		.eabi_attribute 24, 1
   6              		.eabi_attribute 25, 1
   7              		.eabi_attribute 26, 1
   8              		.eabi_attribute 30, 4
   9              		.eabi_attribute 34, 0
  10              		.eabi_attribute 18, 4
  11              		.file	"stm32f0xx_hal_i2c.c"
  12              		.text
  13              		.section	.text.I2C_Flush_TXDR,"ax",%progbits
  14              		.align	1
  15              		.arch armv6s-m
  16              		.syntax unified
  17              		.code	16
  18              		.thumb_func
  19              		.fpu softvfp
  21              	I2C_Flush_TXDR:
  22              		@ args = 0, pretend = 0, frame = 0
  23              		@ frame_needed = 0, uses_anonymous_args = 0
  24              		@ link register save eliminated.
  25 0000 0368     		ldr	r3, [r0]
  26 0002 9A69     		ldr	r2, [r3, #24]
  27 0004 9207     		lsls	r2, r2, #30
  28 0006 01D5     		bpl	.L2
  29 0008 0022     		movs	r2, #0
  30 000a 9A62     		str	r2, [r3, #40]
  31              	.L2:
  32 000c 0122     		movs	r2, #1
  33 000e 9969     		ldr	r1, [r3, #24]
  34 0010 1142     		tst	r1, r2
  35 0012 02D1     		bne	.L1
  36 0014 9969     		ldr	r1, [r3, #24]
  37 0016 0A43     		orrs	r2, r1
  38 0018 9A61     		str	r2, [r3, #24]
  39              	.L1:
  40              		@ sp needed
  41 001a 7047     		bx	lr
  43              		.section	.text.I2C_DMASlaveTransmitCplt,"ax",%progbits
  44              		.align	1
  45              		.syntax unified
  46              		.code	16
  47              		.thumb_func
  48              		.fpu softvfp
  50              	I2C_DMASlaveTransmitCplt:
  51              		@ args = 0, pretend = 0, frame = 0
  52              		@ frame_needed = 0, uses_anonymous_args = 0
  53              		@ link register save eliminated.
  54              		@ sp needed
  55 0000 7047     		bx	lr
  57              		.section	.text.I2C_TransferConfig,"ax",%progbits
  58              		.align	1
  59              		.syntax unified
  60              		.code	16
  61              		.thumb_func
ARM GAS  /tmp/cchjT0Ct.s 			page 2


  62              		.fpu softvfp
  64              	I2C_TransferConfig:
  65              		@ args = 4, pretend = 0, frame = 0
  66              		@ frame_needed = 0, uses_anonymous_args = 0
  67 0000 0068     		ldr	r0, [r0]
  68 0002 30B5     		push	{r4, r5, lr}
  69 0004 4568     		ldr	r5, [r0, #4]
  70 0006 064C     		ldr	r4, .L9
  71 0008 1204     		lsls	r2, r2, #16
  72 000a 2C40     		ands	r4, r5
  73 000c 039D     		ldr	r5, [sp, #12]
  74 000e 8905     		lsls	r1, r1, #22
  75 0010 2B43     		orrs	r3, r5
  76 0012 1A43     		orrs	r2, r3
  77 0014 890D     		lsrs	r1, r1, #22
  78 0016 0A43     		orrs	r2, r1
  79 0018 2243     		orrs	r2, r4
  80 001a 4260     		str	r2, [r0, #4]
  81              		@ sp needed
  82 001c 30BD     		pop	{r4, r5, pc}
  83              	.L10:
  84 001e C046     		.align	2
  85              	.L9:
  86 0020 009800FC 		.word	-67069952
  88              		.section	.text.I2C_WaitOnFlagUntilTimeout,"ax",%progbits
  89              		.align	1
  90              		.syntax unified
  91              		.code	16
  92              		.thumb_func
  93              		.fpu softvfp
  95              	I2C_WaitOnFlagUntilTimeout:
  96              		@ args = 4, pretend = 0, frame = 0
  97              		@ frame_needed = 0, uses_anonymous_args = 0
  98 0000 F8B5     		push	{r3, r4, r5, r6, r7, lr}
  99 0002 0400     		movs	r4, r0
 100 0004 0E00     		movs	r6, r1
 101 0006 1700     		movs	r7, r2
 102 0008 1D00     		movs	r5, r3
 103              	.L12:
 104 000a 2268     		ldr	r2, [r4]
 105              	.L13:
 106 000c 9369     		ldr	r3, [r2, #24]
 107 000e 3340     		ands	r3, r6
 108 0010 9B1B     		subs	r3, r3, r6
 109 0012 5942     		rsbs	r1, r3, #0
 110 0014 4B41     		adcs	r3, r3, r1
 111 0016 BB42     		cmp	r3, r7
 112 0018 01D0     		beq	.L17
 113 001a 0020     		movs	r0, #0
 114 001c 0EE0     		b	.L15
 115              	.L17:
 116 001e 6B1C     		adds	r3, r5, #1
 117 0020 F4D0     		beq	.L13
 118 0022 002D     		cmp	r5, #0
 119 0024 0BD1     		bne	.L14
 120              	.L16:
 121 0026 2300     		movs	r3, r4
ARM GAS  /tmp/cchjT0Ct.s 			page 3


 122 0028 2022     		movs	r2, #32
 123 002a 4133     		adds	r3, r3, #65
 124 002c 1A70     		strb	r2, [r3]
 125 002e 2200     		movs	r2, r4
 126 0030 0023     		movs	r3, #0
 127 0032 0320     		movs	r0, #3
 128 0034 4232     		adds	r2, r2, #66
 129 0036 4034     		adds	r4, r4, #64
 130 0038 1370     		strb	r3, [r2]
 131 003a 2370     		strb	r3, [r4]
 132              	.L15:
 133              		@ sp needed
 134 003c F8BD     		pop	{r3, r4, r5, r6, r7, pc}
 135              	.L14:
 136 003e FFF7FEFF 		bl	HAL_GetTick
 137 0042 069B     		ldr	r3, [sp, #24]
 138 0044 C01A     		subs	r0, r0, r3
 139 0046 A842     		cmp	r0, r5
 140 0048 DFD9     		bls	.L12
 141 004a ECE7     		b	.L16
 143              		.section	.text.I2C_IsAcknowledgeFailed,"ax",%progbits
 144              		.align	1
 145              		.syntax unified
 146              		.code	16
 147              		.thumb_func
 148              		.fpu softvfp
 150              	I2C_IsAcknowledgeFailed:
 151              		@ args = 0, pretend = 0, frame = 0
 152              		@ frame_needed = 0, uses_anonymous_args = 0
 153 0000 F8B5     		push	{r3, r4, r5, r6, r7, lr}
 154 0002 0368     		ldr	r3, [r0]
 155 0004 1600     		movs	r6, r2
 156 0006 9A69     		ldr	r2, [r3, #24]
 157 0008 0400     		movs	r4, r0
 158 000a 1023     		movs	r3, #16
 159 000c 1000     		movs	r0, r2
 160 000e 0D00     		movs	r5, r1
 161 0010 2027     		movs	r7, #32
 162 0012 1840     		ands	r0, r3
 163 0014 1A42     		tst	r2, r3
 164 0016 15D1     		bne	.L21
 165              	.L22:
 166              		@ sp needed
 167 0018 F8BD     		pop	{r3, r4, r5, r6, r7, pc}
 168              	.L25:
 169 001a 6A1C     		adds	r2, r5, #1
 170 001c 13D0     		beq	.L23
 171 001e 002D     		cmp	r5, #0
 172 0020 04D0     		beq	.L24
 173 0022 FFF7FEFF 		bl	HAL_GetTick
 174 0026 801B     		subs	r0, r0, r6
 175 0028 8542     		cmp	r5, r0
 176 002a 0BD2     		bcs	.L21
 177              	.L24:
 178 002c 2300     		movs	r3, r4
 179 002e 2022     		movs	r2, #32
 180 0030 4133     		adds	r3, r3, #65
ARM GAS  /tmp/cchjT0Ct.s 			page 4


 181 0032 1A70     		strb	r2, [r3]
 182 0034 2200     		movs	r2, r4
 183 0036 0023     		movs	r3, #0
 184 0038 4232     		adds	r2, r2, #66
 185 003a 4034     		adds	r4, r4, #64
 186 003c 1370     		strb	r3, [r2]
 187 003e 0320     		movs	r0, #3
 188 0040 2370     		strb	r3, [r4]
 189 0042 E9E7     		b	.L22
 190              	.L21:
 191 0044 2368     		ldr	r3, [r4]
 192              	.L23:
 193 0046 9A69     		ldr	r2, [r3, #24]
 194 0048 3A42     		tst	r2, r7
 195 004a E6D0     		beq	.L25
 196 004c 1022     		movs	r2, #16
 197 004e 2000     		movs	r0, r4
 198 0050 DA61     		str	r2, [r3, #28]
 199 0052 DF61     		str	r7, [r3, #28]
 200 0054 FFF7FEFF 		bl	I2C_Flush_TXDR
 201 0058 2268     		ldr	r2, [r4]
 202 005a 0849     		ldr	r1, .L34
 203 005c 5368     		ldr	r3, [r2, #4]
 204 005e 0120     		movs	r0, #1
 205 0060 0B40     		ands	r3, r1
 206 0062 5360     		str	r3, [r2, #4]
 207 0064 0423     		movs	r3, #4
 208 0066 6364     		str	r3, [r4, #68]
 209 0068 2300     		movs	r3, r4
 210 006a 2200     		movs	r2, r4
 211 006c 4133     		adds	r3, r3, #65
 212 006e 1F70     		strb	r7, [r3]
 213 0070 0023     		movs	r3, #0
 214 0072 4232     		adds	r2, r2, #66
 215 0074 4034     		adds	r4, r4, #64
 216 0076 1370     		strb	r3, [r2]
 217 0078 2370     		strb	r3, [r4]
 218 007a CDE7     		b	.L22
 219              	.L35:
 220              		.align	2
 221              	.L34:
 222 007c 00E800FE 		.word	-33495040
 224              		.section	.text.I2C_WaitOnTXISFlagUntilTimeout,"ax",%progbits
 225              		.align	1
 226              		.syntax unified
 227              		.code	16
 228              		.thumb_func
 229              		.fpu softvfp
 231              	I2C_WaitOnTXISFlagUntilTimeout:
 232              		@ args = 0, pretend = 0, frame = 0
 233              		@ frame_needed = 0, uses_anonymous_args = 0
 234 0000 F8B5     		push	{r3, r4, r5, r6, r7, lr}
 235 0002 0400     		movs	r4, r0
 236 0004 0D00     		movs	r5, r1
 237 0006 1600     		movs	r6, r2
 238 0008 0227     		movs	r7, #2
 239              	.L39:
ARM GAS  /tmp/cchjT0Ct.s 			page 5


 240 000a 2368     		ldr	r3, [r4]
 241 000c 9B69     		ldr	r3, [r3, #24]
 242 000e 3B42     		tst	r3, r7
 243 0010 01D0     		beq	.L42
 244 0012 0020     		movs	r0, #0
 245 0014 18E0     		b	.L38
 246              	.L42:
 247 0016 3200     		movs	r2, r6
 248 0018 2900     		movs	r1, r5
 249 001a 2000     		movs	r0, r4
 250 001c FFF7FEFF 		bl	I2C_IsAcknowledgeFailed
 251 0020 0028     		cmp	r0, #0
 252 0022 18D1     		bne	.L43
 253 0024 6B1C     		adds	r3, r5, #1
 254 0026 F0D0     		beq	.L39
 255 0028 002D     		cmp	r5, #0
 256 002a 0ED1     		bne	.L40
 257              	.L41:
 258 002c 2022     		movs	r2, #32
 259 002e 636C     		ldr	r3, [r4, #68]
 260 0030 0320     		movs	r0, #3
 261 0032 1343     		orrs	r3, r2
 262 0034 6364     		str	r3, [r4, #68]
 263 0036 2300     		movs	r3, r4
 264 0038 4133     		adds	r3, r3, #65
 265 003a 1A70     		strb	r2, [r3]
 266 003c 2200     		movs	r2, r4
 267 003e 0023     		movs	r3, #0
 268 0040 4232     		adds	r2, r2, #66
 269 0042 4034     		adds	r4, r4, #64
 270 0044 1370     		strb	r3, [r2]
 271 0046 2370     		strb	r3, [r4]
 272              	.L38:
 273              		@ sp needed
 274 0048 F8BD     		pop	{r3, r4, r5, r6, r7, pc}
 275              	.L40:
 276 004a FFF7FEFF 		bl	HAL_GetTick
 277 004e 801B     		subs	r0, r0, r6
 278 0050 A842     		cmp	r0, r5
 279 0052 DAD9     		bls	.L39
 280 0054 EAE7     		b	.L41
 281              	.L43:
 282 0056 0120     		movs	r0, #1
 283 0058 F6E7     		b	.L38
 285              		.section	.text.I2C_WaitOnRXNEFlagUntilTimeout,"ax",%progbits
 286              		.align	1
 287              		.syntax unified
 288              		.code	16
 289              		.thumb_func
 290              		.fpu softvfp
 292              	I2C_WaitOnRXNEFlagUntilTimeout:
 293              		@ args = 0, pretend = 0, frame = 0
 294              		@ frame_needed = 0, uses_anonymous_args = 0
 295 0000 F8B5     		push	{r3, r4, r5, r6, r7, lr}
 296 0002 0400     		movs	r4, r0
 297 0004 0D00     		movs	r5, r1
 298 0006 1600     		movs	r6, r2
ARM GAS  /tmp/cchjT0Ct.s 			page 6


 299 0008 2027     		movs	r7, #32
 300              	.L47:
 301 000a 0422     		movs	r2, #4
 302 000c 2368     		ldr	r3, [r4]
 303 000e 9B69     		ldr	r3, [r3, #24]
 304 0010 1342     		tst	r3, r2
 305 0012 01D0     		beq	.L52
 306 0014 0020     		movs	r0, #0
 307 0016 25E0     		b	.L48
 308              	.L52:
 309 0018 3200     		movs	r2, r6
 310 001a 2900     		movs	r1, r5
 311 001c 2000     		movs	r0, r4
 312 001e FFF7FEFF 		bl	I2C_IsAcknowledgeFailed
 313 0022 0028     		cmp	r0, #0
 314 0024 0FD1     		bne	.L53
 315 0026 2368     		ldr	r3, [r4]
 316 0028 9A69     		ldr	r2, [r3, #24]
 317 002a 3A42     		tst	r2, r7
 318 002c 0DD0     		beq	.L49
 319 002e DF61     		str	r7, [r3, #28]
 320 0030 5A68     		ldr	r2, [r3, #4]
 321 0032 1049     		ldr	r1, .L54
 322 0034 0A40     		ands	r2, r1
 323 0036 5A60     		str	r2, [r3, #4]
 324 0038 2300     		movs	r3, r4
 325 003a 6064     		str	r0, [r4, #68]
 326 003c 4133     		adds	r3, r3, #65
 327 003e 4034     		adds	r4, r4, #64
 328 0040 1F70     		strb	r7, [r3]
 329 0042 5870     		strb	r0, [r3, #1]
 330 0044 2070     		strb	r0, [r4]
 331              	.L53:
 332 0046 0120     		movs	r0, #1
 333 0048 0CE0     		b	.L48
 334              	.L49:
 335 004a 002D     		cmp	r5, #0
 336 004c 0BD1     		bne	.L50
 337              	.L51:
 338 004e 2022     		movs	r2, #32
 339 0050 636C     		ldr	r3, [r4, #68]
 340 0052 0320     		movs	r0, #3
 341 0054 1343     		orrs	r3, r2
 342 0056 6364     		str	r3, [r4, #68]
 343 0058 2300     		movs	r3, r4
 344 005a 4133     		adds	r3, r3, #65
 345 005c 1A70     		strb	r2, [r3]
 346 005e 0023     		movs	r3, #0
 347 0060 4034     		adds	r4, r4, #64
 348 0062 2370     		strb	r3, [r4]
 349              	.L48:
 350              		@ sp needed
 351 0064 F8BD     		pop	{r3, r4, r5, r6, r7, pc}
 352              	.L50:
 353 0066 FFF7FEFF 		bl	HAL_GetTick
 354 006a 801B     		subs	r0, r0, r6
 355 006c A842     		cmp	r0, r5
ARM GAS  /tmp/cchjT0Ct.s 			page 7


 356 006e CCD9     		bls	.L47
 357 0070 EDE7     		b	.L51
 358              	.L55:
 359 0072 C046     		.align	2
 360              	.L54:
 361 0074 00E800FE 		.word	-33495040
 363              		.section	.text.I2C_RequestMemoryWrite,"ax",%progbits
 364              		.align	1
 365              		.syntax unified
 366              		.code	16
 367              		.thumb_func
 368              		.fpu softvfp
 370              	I2C_RequestMemoryWrite:
 371              		@ args = 8, pretend = 0, frame = 0
 372              		@ frame_needed = 0, uses_anonymous_args = 0
 373 0000 F7B5     		push	{r0, r1, r2, r4, r5, r6, r7, lr}
 374 0002 1500     		movs	r5, r2
 375 0004 1E00     		movs	r6, r3
 376 0006 DAB2     		uxtb	r2, r3
 377 0008 8023     		movs	r3, #128
 378 000a 9B01     		lsls	r3, r3, #6
 379 000c 0093     		str	r3, [sp]
 380 000e 8023     		movs	r3, #128
 381 0010 0400     		movs	r4, r0
 382 0012 089F     		ldr	r7, [sp, #32]
 383 0014 5B04     		lsls	r3, r3, #17
 384 0016 FFF7FEFF 		bl	I2C_TransferConfig
 385 001a 3900     		movs	r1, r7
 386 001c 2000     		movs	r0, r4
 387 001e 099A     		ldr	r2, [sp, #36]
 388 0020 FFF7FEFF 		bl	I2C_WaitOnTXISFlagUntilTimeout
 389 0024 0028     		cmp	r0, #0
 390 0026 05D0     		beq	.L57
 391              	.L70:
 392 0028 636C     		ldr	r3, [r4, #68]
 393 002a 0120     		movs	r0, #1
 394 002c 042B     		cmp	r3, #4
 395 002e 00D0     		beq	.L59
 396              	.L63:
 397 0030 0320     		movs	r0, #3
 398              	.L59:
 399              		@ sp needed
 400 0032 FEBD     		pop	{r1, r2, r3, r4, r5, r6, r7, pc}
 401              	.L57:
 402 0034 2368     		ldr	r3, [r4]
 403 0036 012E     		cmp	r6, #1
 404 0038 0CD1     		bne	.L60
 405              	.L71:
 406 003a EDB2     		uxtb	r5, r5
 407 003c 9D62     		str	r5, [r3, #40]
 408 003e 099B     		ldr	r3, [sp, #36]
 409 0040 0022     		movs	r2, #0
 410 0042 0093     		str	r3, [sp]
 411 0044 8021     		movs	r1, #128
 412 0046 3B00     		movs	r3, r7
 413 0048 2000     		movs	r0, r4
 414 004a FFF7FEFF 		bl	I2C_WaitOnFlagUntilTimeout
ARM GAS  /tmp/cchjT0Ct.s 			page 8


 415 004e 0028     		cmp	r0, #0
 416 0050 EFD0     		beq	.L59
 417 0052 EDE7     		b	.L63
 418              	.L60:
 419 0054 2A0A     		lsrs	r2, r5, #8
 420 0056 9A62     		str	r2, [r3, #40]
 421 0058 3900     		movs	r1, r7
 422 005a 2000     		movs	r0, r4
 423 005c 099A     		ldr	r2, [sp, #36]
 424 005e FFF7FEFF 		bl	I2C_WaitOnTXISFlagUntilTimeout
 425 0062 0028     		cmp	r0, #0
 426 0064 E0D1     		bne	.L70
 427 0066 2368     		ldr	r3, [r4]
 428 0068 E7E7     		b	.L71
 430              		.section	.text.I2C_RequestMemoryRead,"ax",%progbits
 431              		.align	1
 432              		.syntax unified
 433              		.code	16
 434              		.thumb_func
 435              		.fpu softvfp
 437              	I2C_RequestMemoryRead:
 438              		@ args = 8, pretend = 0, frame = 0
 439              		@ frame_needed = 0, uses_anonymous_args = 0
 440 0000 F7B5     		push	{r0, r1, r2, r4, r5, r6, r7, lr}
 441 0002 1500     		movs	r5, r2
 442 0004 1E00     		movs	r6, r3
 443 0006 DAB2     		uxtb	r2, r3
 444 0008 8023     		movs	r3, #128
 445 000a 0400     		movs	r4, r0
 446 000c 089F     		ldr	r7, [sp, #32]
 447 000e 9B01     		lsls	r3, r3, #6
 448 0010 0093     		str	r3, [sp]
 449 0012 0023     		movs	r3, #0
 450 0014 FFF7FEFF 		bl	I2C_TransferConfig
 451 0018 3900     		movs	r1, r7
 452 001a 2000     		movs	r0, r4
 453 001c 099A     		ldr	r2, [sp, #36]
 454 001e FFF7FEFF 		bl	I2C_WaitOnTXISFlagUntilTimeout
 455 0022 0028     		cmp	r0, #0
 456 0024 05D0     		beq	.L73
 457              	.L86:
 458 0026 636C     		ldr	r3, [r4, #68]
 459 0028 0120     		movs	r0, #1
 460 002a 042B     		cmp	r3, #4
 461 002c 00D0     		beq	.L75
 462              	.L79:
 463 002e 0320     		movs	r0, #3
 464              	.L75:
 465              		@ sp needed
 466 0030 FEBD     		pop	{r1, r2, r3, r4, r5, r6, r7, pc}
 467              	.L73:
 468 0032 2368     		ldr	r3, [r4]
 469 0034 012E     		cmp	r6, #1
 470 0036 0CD1     		bne	.L76
 471              	.L87:
 472 0038 EDB2     		uxtb	r5, r5
 473 003a 9D62     		str	r5, [r3, #40]
ARM GAS  /tmp/cchjT0Ct.s 			page 9


 474 003c 099B     		ldr	r3, [sp, #36]
 475 003e 0022     		movs	r2, #0
 476 0040 0093     		str	r3, [sp]
 477 0042 4021     		movs	r1, #64
 478 0044 3B00     		movs	r3, r7
 479 0046 2000     		movs	r0, r4
 480 0048 FFF7FEFF 		bl	I2C_WaitOnFlagUntilTimeout
 481 004c 0028     		cmp	r0, #0
 482 004e EFD0     		beq	.L75
 483 0050 EDE7     		b	.L79
 484              	.L76:
 485 0052 2A0A     		lsrs	r2, r5, #8
 486 0054 9A62     		str	r2, [r3, #40]
 487 0056 3900     		movs	r1, r7
 488 0058 2000     		movs	r0, r4
 489 005a 099A     		ldr	r2, [sp, #36]
 490 005c FFF7FEFF 		bl	I2C_WaitOnTXISFlagUntilTimeout
 491 0060 0028     		cmp	r0, #0
 492 0062 E0D1     		bne	.L86
 493 0064 2368     		ldr	r3, [r4]
 494 0066 E7E7     		b	.L87
 496              		.section	.text.I2C_WaitOnSTOPFlagUntilTimeout,"ax",%progbits
 497              		.align	1
 498              		.syntax unified
 499              		.code	16
 500              		.thumb_func
 501              		.fpu softvfp
 503              	I2C_WaitOnSTOPFlagUntilTimeout:
 504              		@ args = 0, pretend = 0, frame = 0
 505              		@ frame_needed = 0, uses_anonymous_args = 0
 506 0000 F8B5     		push	{r3, r4, r5, r6, r7, lr}
 507 0002 0400     		movs	r4, r0
 508 0004 0D00     		movs	r5, r1
 509 0006 1600     		movs	r6, r2
 510 0008 2027     		movs	r7, #32
 511              	.L89:
 512 000a 2368     		ldr	r3, [r4]
 513 000c 9B69     		ldr	r3, [r3, #24]
 514 000e 3B42     		tst	r3, r7
 515 0010 01D0     		beq	.L93
 516 0012 0020     		movs	r0, #0
 517 0014 16E0     		b	.L90
 518              	.L93:
 519 0016 3200     		movs	r2, r6
 520 0018 2900     		movs	r1, r5
 521 001a 2000     		movs	r0, r4
 522 001c FFF7FEFF 		bl	I2C_IsAcknowledgeFailed
 523 0020 0028     		cmp	r0, #0
 524 0022 16D1     		bne	.L94
 525 0024 002D     		cmp	r5, #0
 526 0026 0ED1     		bne	.L91
 527              	.L92:
 528 0028 2022     		movs	r2, #32
 529 002a 636C     		ldr	r3, [r4, #68]
 530 002c 0320     		movs	r0, #3
 531 002e 1343     		orrs	r3, r2
 532 0030 6364     		str	r3, [r4, #68]
ARM GAS  /tmp/cchjT0Ct.s 			page 10


 533 0032 2300     		movs	r3, r4
 534 0034 4133     		adds	r3, r3, #65
 535 0036 1A70     		strb	r2, [r3]
 536 0038 2200     		movs	r2, r4
 537 003a 0023     		movs	r3, #0
 538 003c 4232     		adds	r2, r2, #66
 539 003e 4034     		adds	r4, r4, #64
 540 0040 1370     		strb	r3, [r2]
 541 0042 2370     		strb	r3, [r4]
 542              	.L90:
 543              		@ sp needed
 544 0044 F8BD     		pop	{r3, r4, r5, r6, r7, pc}
 545              	.L91:
 546 0046 FFF7FEFF 		bl	HAL_GetTick
 547 004a 801B     		subs	r0, r0, r6
 548 004c A842     		cmp	r0, r5
 549 004e DCD9     		bls	.L89
 550 0050 EAE7     		b	.L92
 551              	.L94:
 552 0052 0120     		movs	r0, #1
 553 0054 F6E7     		b	.L90
 555              		.section	.text.I2C_Disable_IRQ.isra.0,"ax",%progbits
 556              		.align	1
 557              		.syntax unified
 558              		.code	16
 559              		.thumb_func
 560              		.fpu softvfp
 562              	I2C_Disable_IRQ.isra.0:
 563              		@ args = 0, pretend = 0, frame = 0
 564              		@ frame_needed = 0, uses_anonymous_args = 0
 565 0000 0023     		movs	r3, #0
 566 0002 10B5     		push	{r4, lr}
 567 0004 CA07     		lsls	r2, r1, #31
 568 0006 08D5     		bpl	.L96
 569 0008 0300     		movs	r3, r0
 570 000a 4133     		adds	r3, r3, #65
 571 000c 1A78     		ldrb	r2, [r3]
 572 000e 2823     		movs	r3, #40
 573 0010 1A40     		ands	r2, r3
 574 0012 1A33     		adds	r3, r3, #26
 575 0014 282A     		cmp	r2, #40
 576 0016 00D0     		beq	.L96
 577 0018 B033     		adds	r3, r3, #176
 578              	.L96:
 579 001a 8A07     		lsls	r2, r1, #30
 580 001c 08D5     		bpl	.L97
 581 001e 0200     		movs	r2, r0
 582 0020 2824     		movs	r4, #40
 583 0022 4132     		adds	r2, r2, #65
 584 0024 1278     		ldrb	r2, [r2]
 585 0026 2240     		ands	r2, r4
 586 0028 A242     		cmp	r2, r4
 587 002a 0AD1     		bne	.L98
 588 002c 4422     		movs	r2, #68
 589              	.L109:
 590 002e 1343     		orrs	r3, r2
 591              	.L97:
ARM GAS  /tmp/cchjT0Ct.s 			page 11


 592 0030 4A07     		lsls	r2, r1, #29
 593 0032 01D5     		bpl	.L99
 594 0034 B822     		movs	r2, #184
 595 0036 1343     		orrs	r3, r2
 596              	.L99:
 597 0038 0168     		ldr	r1, [r0]
 598              		@ sp needed
 599 003a 0A68     		ldr	r2, [r1]
 600 003c 9A43     		bics	r2, r3
 601 003e 0A60     		str	r2, [r1]
 602 0040 10BD     		pop	{r4, pc}
 603              	.L98:
 604 0042 F422     		movs	r2, #244
 605 0044 F3E7     		b	.L109
 607              		.section	.text.I2C_Enable_IRQ.isra.0,"ax",%progbits
 608              		.align	1
 609              		.syntax unified
 610              		.code	16
 611              		.thumb_func
 612              		.fpu softvfp
 614              	I2C_Enable_IRQ.isra.0:
 615              		@ args = 0, pretend = 0, frame = 0
 616              		@ frame_needed = 0, uses_anonymous_args = 0
 617 0000 0422     		movs	r2, #4
 618 0002 10B5     		push	{r4, lr}
 619 0004 436B     		ldr	r3, [r0, #52]
 620 0006 174C     		ldr	r4, .L130
 621 0008 0A40     		ands	r2, r1
 622 000a A342     		cmp	r3, r4
 623 000c 02D0     		beq	.L111
 624 000e 164C     		ldr	r4, .L130+4
 625 0010 A342     		cmp	r3, r4
 626 0012 14D1     		bne	.L112
 627              	.L111:
 628 0014 0023     		movs	r3, #0
 629 0016 9A42     		cmp	r2, r3
 630 0018 00D0     		beq	.L113
 631 001a B833     		adds	r3, r3, #184
 632              	.L113:
 633 001c 1122     		movs	r2, #17
 634 001e 0A40     		ands	r2, r1
 635 0020 112A     		cmp	r2, #17
 636 0022 01D1     		bne	.L114
 637 0024 7F32     		adds	r2, r2, #127
 638 0026 1343     		orrs	r3, r2
 639              	.L114:
 640 0028 1222     		movs	r2, #18
 641 002a 1140     		ands	r1, r2
 642 002c 9142     		cmp	r1, r2
 643 002e 01D1     		bne	.L115
 644 0030 4E32     		adds	r2, r2, #78
 645              	.L129:
 646 0032 1343     		orrs	r3, r2
 647              	.L115:
 648 0034 0168     		ldr	r1, [r0]
 649              		@ sp needed
 650 0036 0A68     		ldr	r2, [r1]
ARM GAS  /tmp/cchjT0Ct.s 			page 12


 651 0038 1343     		orrs	r3, r2
 652 003a 0B60     		str	r3, [r1]
 653 003c 10BD     		pop	{r4, pc}
 654              	.L112:
 655 003e 0023     		movs	r3, #0
 656 0040 9A42     		cmp	r2, r3
 657 0042 00D0     		beq	.L116
 658 0044 B833     		adds	r3, r3, #184
 659              	.L116:
 660 0046 CA07     		lsls	r2, r1, #31
 661 0048 01D5     		bpl	.L117
 662 004a F222     		movs	r2, #242
 663 004c 1343     		orrs	r3, r2
 664              	.L117:
 665 004e 8A07     		lsls	r2, r1, #30
 666 0050 01D5     		bpl	.L118
 667 0052 F422     		movs	r2, #244
 668 0054 1343     		orrs	r3, r2
 669              	.L118:
 670 0056 1222     		movs	r2, #18
 671 0058 1140     		ands	r1, r2
 672 005a 9142     		cmp	r1, r2
 673 005c EAD1     		bne	.L115
 674 005e 0E32     		adds	r2, r2, #14
 675 0060 E7E7     		b	.L129
 676              	.L131:
 677 0062 C046     		.align	2
 678              	.L130:
 679 0064 00000000 		.word	I2C_Master_ISR_DMA
 680 0068 00000000 		.word	I2C_Slave_ISR_DMA
 682              		.section	.text.I2C_DMAMasterReceiveCplt,"ax",%progbits
 683              		.align	1
 684              		.syntax unified
 685              		.code	16
 686              		.thumb_func
 687              		.fpu softvfp
 689              	I2C_DMAMasterReceiveCplt:
 690              		@ args = 0, pretend = 0, frame = 0
 691              		@ frame_needed = 0, uses_anonymous_args = 0
 692 0000 10B5     		push	{r4, lr}
 693 0002 446A     		ldr	r4, [r0, #36]
 694 0004 0E4A     		ldr	r2, .L138
 695 0006 2168     		ldr	r1, [r4]
 696 0008 0B68     		ldr	r3, [r1]
 697 000a 1340     		ands	r3, r2
 698 000c 0B60     		str	r3, [r1]
 699 000e 638D     		ldrh	r3, [r4, #42]
 700 0010 002B     		cmp	r3, #0
 701 0012 04D1     		bne	.L133
 702              	.L137:
 703              		@ sp needed
 704 0014 1221     		movs	r1, #18
 705 0016 2000     		movs	r0, r4
 706 0018 FFF7FEFF 		bl	I2C_Enable_IRQ.isra.0
 707 001c 10BD     		pop	{r4, pc}
 708              	.L133:
 709 001e 636A     		ldr	r3, [r4, #36]
ARM GAS  /tmp/cchjT0Ct.s 			page 13


 710 0020 228D     		ldrh	r2, [r4, #40]
 711 0022 608D     		ldrh	r0, [r4, #42]
 712 0024 9A18     		adds	r2, r3, r2
 713 0026 FF23     		movs	r3, #255
 714 0028 6262     		str	r2, [r4, #36]
 715 002a 9842     		cmp	r0, r3
 716 002c 01D8     		bhi	.L135
 717 002e 638D     		ldrh	r3, [r4, #42]
 718 0030 9BB2     		uxth	r3, r3
 719              	.L135:
 720 0032 E06B     		ldr	r0, [r4, #60]
 721 0034 2385     		strh	r3, [r4, #40]
 722 0036 2431     		adds	r1, r1, #36
 723 0038 FFF7FEFF 		bl	HAL_DMA_Start_IT
 724 003c EAE7     		b	.L137
 725              	.L139:
 726 003e C046     		.align	2
 727              	.L138:
 728 0040 FF7FFFFF 		.word	-32769
 730              		.section	.text.I2C_DMAMasterTransmitCplt,"ax",%progbits
 731              		.align	1
 732              		.syntax unified
 733              		.code	16
 734              		.thumb_func
 735              		.fpu softvfp
 737              	I2C_DMAMasterTransmitCplt:
 738              		@ args = 0, pretend = 0, frame = 0
 739              		@ frame_needed = 0, uses_anonymous_args = 0
 740 0000 10B5     		push	{r4, lr}
 741 0002 446A     		ldr	r4, [r0, #36]
 742 0004 0E49     		ldr	r1, .L146
 743 0006 2268     		ldr	r2, [r4]
 744 0008 1368     		ldr	r3, [r2]
 745 000a 0B40     		ands	r3, r1
 746 000c 1360     		str	r3, [r2]
 747 000e 638D     		ldrh	r3, [r4, #42]
 748 0010 002B     		cmp	r3, #0
 749 0012 04D1     		bne	.L141
 750              	.L145:
 751              		@ sp needed
 752 0014 1221     		movs	r1, #18
 753 0016 2000     		movs	r0, r4
 754 0018 FFF7FEFF 		bl	I2C_Enable_IRQ.isra.0
 755 001c 10BD     		pop	{r4, pc}
 756              	.L141:
 757 001e 636A     		ldr	r3, [r4, #36]
 758 0020 218D     		ldrh	r1, [r4, #40]
 759 0022 608D     		ldrh	r0, [r4, #42]
 760 0024 5918     		adds	r1, r3, r1
 761 0026 FF23     		movs	r3, #255
 762 0028 6162     		str	r1, [r4, #36]
 763 002a 9842     		cmp	r0, r3
 764 002c 01D8     		bhi	.L143
 765 002e 638D     		ldrh	r3, [r4, #42]
 766 0030 9BB2     		uxth	r3, r3
 767              	.L143:
 768 0032 A06B     		ldr	r0, [r4, #56]
ARM GAS  /tmp/cchjT0Ct.s 			page 14


 769 0034 2385     		strh	r3, [r4, #40]
 770 0036 2832     		adds	r2, r2, #40
 771 0038 FFF7FEFF 		bl	HAL_DMA_Start_IT
 772 003c EAE7     		b	.L145
 773              	.L147:
 774 003e C046     		.align	2
 775              	.L146:
 776 0040 FFBFFFFF 		.word	-16385
 778              		.section	.text.I2C_DMASlaveReceiveCplt,"ax",%progbits
 779              		.align	1
 780              		.syntax unified
 781              		.code	16
 782              		.thumb_func
 783              		.fpu softvfp
 785              	I2C_DMASlaveReceiveCplt:
 786              		@ args = 0, pretend = 0, frame = 0
 787              		@ frame_needed = 0, uses_anonymous_args = 0
 788              		@ link register save eliminated.
 789              		@ sp needed
 790 0000 7047     		bx	lr
 792              		.section	.text.HAL_I2C_MspInit,"ax",%progbits
 793              		.align	1
 794              		.weak	HAL_I2C_MspInit
 795              		.syntax unified
 796              		.code	16
 797              		.thumb_func
 798              		.fpu softvfp
 800              	HAL_I2C_MspInit:
 801              		@ args = 0, pretend = 0, frame = 0
 802              		@ frame_needed = 0, uses_anonymous_args = 0
 803              		@ link register save eliminated.
 804              		@ sp needed
 805 0000 7047     		bx	lr
 807              		.section	.text.HAL_I2C_Init,"ax",%progbits
 808              		.align	1
 809              		.global	HAL_I2C_Init
 810              		.syntax unified
 811              		.code	16
 812              		.thumb_func
 813              		.fpu softvfp
 815              	HAL_I2C_Init:
 816              		@ args = 0, pretend = 0, frame = 0
 817              		@ frame_needed = 0, uses_anonymous_args = 0
 818 0000 70B5     		push	{r4, r5, r6, lr}
 819 0002 0400     		movs	r4, r0
 820 0004 0120     		movs	r0, #1
 821 0006 002C     		cmp	r4, #0
 822 0008 3FD0     		beq	.L151
 823 000a 2500     		movs	r5, r4
 824 000c 4135     		adds	r5, r5, #65
 825 000e 2B78     		ldrb	r3, [r5]
 826 0010 DAB2     		uxtb	r2, r3
 827 0012 002B     		cmp	r3, #0
 828 0014 05D1     		bne	.L152
 829 0016 2300     		movs	r3, r4
 830 0018 4033     		adds	r3, r3, #64
 831 001a 2000     		movs	r0, r4
ARM GAS  /tmp/cchjT0Ct.s 			page 15


 832 001c 1A70     		strb	r2, [r3]
 833 001e FFF7FEFF 		bl	HAL_I2C_MspInit
 834              	.L152:
 835 0022 2423     		movs	r3, #36
 836 0024 0121     		movs	r1, #1
 837 0026 2B70     		strb	r3, [r5]
 838 0028 2368     		ldr	r3, [r4]
 839 002a 1D48     		ldr	r0, .L156
 840 002c 1A68     		ldr	r2, [r3]
 841 002e A668     		ldr	r6, [r4, #8]
 842 0030 8A43     		bics	r2, r1
 843 0032 1A60     		str	r2, [r3]
 844 0034 6168     		ldr	r1, [r4, #4]
 845 0036 1B4A     		ldr	r2, .L156+4
 846 0038 0A40     		ands	r2, r1
 847 003a 1A61     		str	r2, [r3, #16]
 848 003c 9A68     		ldr	r2, [r3, #8]
 849 003e 0240     		ands	r2, r0
 850 0040 9A60     		str	r2, [r3, #8]
 851 0042 E268     		ldr	r2, [r4, #12]
 852 0044 012A     		cmp	r2, #1
 853 0046 21D1     		bne	.L153
 854 0048 8021     		movs	r1, #128
 855 004a 0902     		lsls	r1, r1, #8
 856 004c 3143     		orrs	r1, r6
 857 004e 9960     		str	r1, [r3, #8]
 858              	.L154:
 859 0050 5A68     		ldr	r2, [r3, #4]
 860 0052 1549     		ldr	r1, .L156+8
 861 0054 1143     		orrs	r1, r2
 862 0056 5960     		str	r1, [r3, #4]
 863 0058 DA68     		ldr	r2, [r3, #12]
 864 005a 6169     		ldr	r1, [r4, #20]
 865 005c 0240     		ands	r2, r0
 866 005e DA60     		str	r2, [r3, #12]
 867 0060 2269     		ldr	r2, [r4, #16]
 868 0062 0020     		movs	r0, #0
 869 0064 0A43     		orrs	r2, r1
 870 0066 A169     		ldr	r1, [r4, #24]
 871 0068 0902     		lsls	r1, r1, #8
 872 006a 0A43     		orrs	r2, r1
 873 006c DA60     		str	r2, [r3, #12]
 874 006e 216A     		ldr	r1, [r4, #32]
 875 0070 E269     		ldr	r2, [r4, #28]
 876 0072 0A43     		orrs	r2, r1
 877 0074 1A60     		str	r2, [r3]
 878 0076 0122     		movs	r2, #1
 879 0078 1968     		ldr	r1, [r3]
 880 007a 0A43     		orrs	r2, r1
 881 007c 1A60     		str	r2, [r3]
 882 007e 2023     		movs	r3, #32
 883 0080 6064     		str	r0, [r4, #68]
 884 0082 2B70     		strb	r3, [r5]
 885 0084 2063     		str	r0, [r4, #48]
 886 0086 4234     		adds	r4, r4, #66
 887 0088 2070     		strb	r0, [r4]
 888              	.L151:
ARM GAS  /tmp/cchjT0Ct.s 			page 16


 889              		@ sp needed
 890 008a 70BD     		pop	{r4, r5, r6, pc}
 891              	.L153:
 892 008c 8421     		movs	r1, #132
 893 008e 0902     		lsls	r1, r1, #8
 894 0090 3143     		orrs	r1, r6
 895 0092 9960     		str	r1, [r3, #8]
 896 0094 022A     		cmp	r2, #2
 897 0096 DBD1     		bne	.L154
 898 0098 8022     		movs	r2, #128
 899 009a 1201     		lsls	r2, r2, #4
 900 009c 5A60     		str	r2, [r3, #4]
 901 009e D7E7     		b	.L154
 902              	.L157:
 903              		.align	2
 904              	.L156:
 905 00a0 FF7FFFFF 		.word	-32769
 906 00a4 FFFFFFF0 		.word	-251658241
 907 00a8 00800002 		.word	33587200
 909              		.section	.text.HAL_I2C_MspDeInit,"ax",%progbits
 910              		.align	1
 911              		.weak	HAL_I2C_MspDeInit
 912              		.syntax unified
 913              		.code	16
 914              		.thumb_func
 915              		.fpu softvfp
 917              	HAL_I2C_MspDeInit:
 918              		@ args = 0, pretend = 0, frame = 0
 919              		@ frame_needed = 0, uses_anonymous_args = 0
 920              		@ link register save eliminated.
 921              		@ sp needed
 922 0000 7047     		bx	lr
 924              		.section	.text.HAL_I2C_DeInit,"ax",%progbits
 925              		.align	1
 926              		.global	HAL_I2C_DeInit
 927              		.syntax unified
 928              		.code	16
 929              		.thumb_func
 930              		.fpu softvfp
 932              	HAL_I2C_DeInit:
 933              		@ args = 0, pretend = 0, frame = 0
 934              		@ frame_needed = 0, uses_anonymous_args = 0
 935 0000 70B5     		push	{r4, r5, r6, lr}
 936 0002 0400     		movs	r4, r0
 937 0004 0120     		movs	r0, #1
 938 0006 002C     		cmp	r4, #0
 939 0008 13D0     		beq	.L160
 940 000a 2500     		movs	r5, r4
 941 000c 2423     		movs	r3, #36
 942 000e 4135     		adds	r5, r5, #65
 943 0010 2B70     		strb	r3, [r5]
 944 0012 2268     		ldr	r2, [r4]
 945 0014 1368     		ldr	r3, [r2]
 946 0016 8343     		bics	r3, r0
 947 0018 1360     		str	r3, [r2]
 948 001a 2000     		movs	r0, r4
 949 001c FFF7FEFF 		bl	HAL_I2C_MspDeInit
ARM GAS  /tmp/cchjT0Ct.s 			page 17


 950 0020 0020     		movs	r0, #0
 951 0022 2300     		movs	r3, r4
 952 0024 6064     		str	r0, [r4, #68]
 953 0026 4233     		adds	r3, r3, #66
 954 0028 2870     		strb	r0, [r5]
 955 002a 2063     		str	r0, [r4, #48]
 956 002c 4034     		adds	r4, r4, #64
 957 002e 1870     		strb	r0, [r3]
 958 0030 2070     		strb	r0, [r4]
 959              	.L160:
 960              		@ sp needed
 961 0032 70BD     		pop	{r4, r5, r6, pc}
 963              		.section	.text.HAL_I2C_Master_Transmit,"ax",%progbits
 964              		.align	1
 965              		.global	HAL_I2C_Master_Transmit
 966              		.syntax unified
 967              		.code	16
 968              		.thumb_func
 969              		.fpu softvfp
 971              	HAL_I2C_Master_Transmit:
 972              		@ args = 4, pretend = 0, frame = 16
 973              		@ frame_needed = 0, uses_anonymous_args = 0
 974 0000 F0B5     		push	{r4, r5, r6, r7, lr}
 975 0002 87B0     		sub	sp, sp, #28
 976 0004 0593     		str	r3, [sp, #20]
 977 0006 0300     		movs	r3, r0
 978 0008 4133     		adds	r3, r3, #65
 979 000a 0492     		str	r2, [sp, #16]
 980 000c 0393     		str	r3, [sp, #12]
 981 000e 1B78     		ldrb	r3, [r3]
 982 0010 0400     		movs	r4, r0
 983 0012 0F00     		movs	r7, r1
 984 0014 0220     		movs	r0, #2
 985 0016 202B     		cmp	r3, #32
 986 0018 57D1     		bne	.L163
 987 001a 2300     		movs	r3, r4
 988 001c 4033     		adds	r3, r3, #64
 989 001e 1A78     		ldrb	r2, [r3]
 990 0020 012A     		cmp	r2, #1
 991 0022 52D0     		beq	.L163
 992 0024 0126     		movs	r6, #1
 993 0026 1E70     		strb	r6, [r3]
 994 0028 FFF7FEFF 		bl	HAL_GetTick
 995 002c 8021     		movs	r1, #128
 996 002e 0500     		movs	r5, r0
 997 0030 0090     		str	r0, [sp]
 998 0032 1923     		movs	r3, #25
 999 0034 3200     		movs	r2, r6
 1000 0036 2000     		movs	r0, r4
 1001 0038 0902     		lsls	r1, r1, #8
 1002 003a FFF7FEFF 		bl	I2C_WaitOnFlagUntilTimeout
 1003 003e 0028     		cmp	r0, #0
 1004 0040 42D1     		bne	.L164
 1005 0042 2123     		movs	r3, #33
 1006 0044 2600     		movs	r6, r4
 1007 0046 039A     		ldr	r2, [sp, #12]
 1008 0048 4236     		adds	r6, r6, #66
ARM GAS  /tmp/cchjT0Ct.s 			page 18


 1009 004a 1370     		strb	r3, [r2]
 1010 004c 113B     		subs	r3, r3, #17
 1011 004e 3370     		strb	r3, [r6]
 1012 0050 049B     		ldr	r3, [sp, #16]
 1013 0052 6064     		str	r0, [r4, #68]
 1014 0054 6362     		str	r3, [r4, #36]
 1015 0056 059B     		ldr	r3, [sp, #20]
 1016 0058 6063     		str	r0, [r4, #52]
 1017 005a 6385     		strh	r3, [r4, #42]
 1018 005c 8023     		movs	r3, #128
 1019 005e 628D     		ldrh	r2, [r4, #42]
 1020 0060 9B01     		lsls	r3, r3, #6
 1021 0062 FF2A     		cmp	r2, #255
 1022 0064 20D9     		bls	.L165
 1023 0066 FF22     		movs	r2, #255
 1024 0068 2285     		strh	r2, [r4, #40]
 1025 006a 0093     		str	r3, [sp]
 1026 006c 8023     		movs	r3, #128
 1027 006e 5B04     		lsls	r3, r3, #17
 1028              	.L185:
 1029 0070 3900     		movs	r1, r7
 1030 0072 2000     		movs	r0, r4
 1031 0074 FFF7FEFF 		bl	I2C_TransferConfig
 1032              	.L167:
 1033 0078 638D     		ldrh	r3, [r4, #42]
 1034 007a 2A00     		movs	r2, r5
 1035 007c 2000     		movs	r0, r4
 1036 007e 0C99     		ldr	r1, [sp, #48]
 1037 0080 002B     		cmp	r3, #0
 1038 0082 19D1     		bne	.L171
 1039 0084 FFF7FEFF 		bl	I2C_WaitOnSTOPFlagUntilTimeout
 1040 0088 0028     		cmp	r0, #0
 1041 008a 19D1     		bne	.L183
 1042 008c 2021     		movs	r1, #32
 1043 008e 2368     		ldr	r3, [r4]
 1044 0090 244D     		ldr	r5, .L186
 1045 0092 D961     		str	r1, [r3, #28]
 1046 0094 5A68     		ldr	r2, [r3, #4]
 1047 0096 2A40     		ands	r2, r5
 1048 0098 5A60     		str	r2, [r3, #4]
 1049 009a 2300     		movs	r3, r4
 1050 009c 4034     		adds	r4, r4, #64
 1051 009e 4133     		adds	r3, r3, #65
 1052 00a0 1970     		strb	r1, [r3]
 1053 00a2 3070     		strb	r0, [r6]
 1054 00a4 2070     		strb	r0, [r4]
 1055 00a6 10E0     		b	.L163
 1056              	.L165:
 1057 00a8 628D     		ldrh	r2, [r4, #42]
 1058 00aa 92B2     		uxth	r2, r2
 1059 00ac 2285     		strh	r2, [r4, #40]
 1060 00ae D2B2     		uxtb	r2, r2
 1061 00b0 0093     		str	r3, [sp]
 1062              	.L184:
 1063 00b2 8023     		movs	r3, #128
 1064 00b4 9B04     		lsls	r3, r3, #18
 1065 00b6 DBE7     		b	.L185
ARM GAS  /tmp/cchjT0Ct.s 			page 19


 1066              	.L171:
 1067 00b8 FFF7FEFF 		bl	I2C_WaitOnTXISFlagUntilTimeout
 1068 00bc 0028     		cmp	r0, #0
 1069 00be 06D0     		beq	.L168
 1070              	.L183:
 1071 00c0 636C     		ldr	r3, [r4, #68]
 1072 00c2 0120     		movs	r0, #1
 1073 00c4 042B     		cmp	r3, #4
 1074 00c6 00D0     		beq	.L163
 1075              	.L164:
 1076 00c8 0320     		movs	r0, #3
 1077              	.L163:
 1078 00ca 07B0     		add	sp, sp, #28
 1079              		@ sp needed
 1080 00cc F0BD     		pop	{r4, r5, r6, r7, pc}
 1081              	.L168:
 1082 00ce 636A     		ldr	r3, [r4, #36]
 1083 00d0 5A1C     		adds	r2, r3, #1
 1084 00d2 6262     		str	r2, [r4, #36]
 1085 00d4 1B78     		ldrb	r3, [r3]
 1086 00d6 2268     		ldr	r2, [r4]
 1087 00d8 9362     		str	r3, [r2, #40]
 1088 00da 638D     		ldrh	r3, [r4, #42]
 1089 00dc 228D     		ldrh	r2, [r4, #40]
 1090 00de 013B     		subs	r3, r3, #1
 1091 00e0 013A     		subs	r2, r2, #1
 1092 00e2 9BB2     		uxth	r3, r3
 1093 00e4 92B2     		uxth	r2, r2
 1094 00e6 6385     		strh	r3, [r4, #42]
 1095 00e8 2285     		strh	r2, [r4, #40]
 1096 00ea 002A     		cmp	r2, #0
 1097 00ec C4D1     		bne	.L167
 1098 00ee 638D     		ldrh	r3, [r4, #42]
 1099 00f0 002B     		cmp	r3, #0
 1100 00f2 C1D0     		beq	.L167
 1101 00f4 8021     		movs	r1, #128
 1102 00f6 2000     		movs	r0, r4
 1103 00f8 0C9B     		ldr	r3, [sp, #48]
 1104 00fa 0095     		str	r5, [sp]
 1105 00fc FFF7FEFF 		bl	I2C_WaitOnFlagUntilTimeout
 1106 0100 0028     		cmp	r0, #0
 1107 0102 E1D1     		bne	.L164
 1108 0104 638D     		ldrh	r3, [r4, #42]
 1109 0106 FF2B     		cmp	r3, #255
 1110 0108 06D9     		bls	.L170
 1111 010a FF23     		movs	r3, #255
 1112 010c 2385     		strh	r3, [r4, #40]
 1113 010e 8023     		movs	r3, #128
 1114 0110 FF22     		movs	r2, #255
 1115 0112 0090     		str	r0, [sp]
 1116 0114 5B04     		lsls	r3, r3, #17
 1117 0116 ABE7     		b	.L185
 1118              	.L170:
 1119 0118 628D     		ldrh	r2, [r4, #42]
 1120 011a 92B2     		uxth	r2, r2
 1121 011c 2285     		strh	r2, [r4, #40]
 1122 011e D2B2     		uxtb	r2, r2
ARM GAS  /tmp/cchjT0Ct.s 			page 20


 1123 0120 0090     		str	r0, [sp]
 1124 0122 C6E7     		b	.L184
 1125              	.L187:
 1126              		.align	2
 1127              	.L186:
 1128 0124 00E800FE 		.word	-33495040
 1130              		.section	.text.HAL_I2C_Master_Receive,"ax",%progbits
 1131              		.align	1
 1132              		.global	HAL_I2C_Master_Receive
 1133              		.syntax unified
 1134              		.code	16
 1135              		.thumb_func
 1136              		.fpu softvfp
 1138              	HAL_I2C_Master_Receive:
 1139              		@ args = 4, pretend = 0, frame = 16
 1140              		@ frame_needed = 0, uses_anonymous_args = 0
 1141 0000 F0B5     		push	{r4, r5, r6, r7, lr}
 1142 0002 87B0     		sub	sp, sp, #28
 1143 0004 0593     		str	r3, [sp, #20]
 1144 0006 0300     		movs	r3, r0
 1145 0008 4133     		adds	r3, r3, #65
 1146 000a 0492     		str	r2, [sp, #16]
 1147 000c 0393     		str	r3, [sp, #12]
 1148 000e 1B78     		ldrb	r3, [r3]
 1149 0010 0400     		movs	r4, r0
 1150 0012 0F00     		movs	r7, r1
 1151 0014 0220     		movs	r0, #2
 1152 0016 202B     		cmp	r3, #32
 1153 0018 57D1     		bne	.L189
 1154 001a 2300     		movs	r3, r4
 1155 001c 4033     		adds	r3, r3, #64
 1156 001e 1A78     		ldrb	r2, [r3]
 1157 0020 012A     		cmp	r2, #1
 1158 0022 52D0     		beq	.L189
 1159 0024 0126     		movs	r6, #1
 1160 0026 1E70     		strb	r6, [r3]
 1161 0028 FFF7FEFF 		bl	HAL_GetTick
 1162 002c 8021     		movs	r1, #128
 1163 002e 0500     		movs	r5, r0
 1164 0030 0090     		str	r0, [sp]
 1165 0032 1923     		movs	r3, #25
 1166 0034 3200     		movs	r2, r6
 1167 0036 2000     		movs	r0, r4
 1168 0038 0902     		lsls	r1, r1, #8
 1169 003a FFF7FEFF 		bl	I2C_WaitOnFlagUntilTimeout
 1170 003e 0028     		cmp	r0, #0
 1171 0040 42D1     		bne	.L190
 1172 0042 2223     		movs	r3, #34
 1173 0044 2600     		movs	r6, r4
 1174 0046 039A     		ldr	r2, [sp, #12]
 1175 0048 4236     		adds	r6, r6, #66
 1176 004a 1370     		strb	r3, [r2]
 1177 004c 123B     		subs	r3, r3, #18
 1178 004e 3370     		strb	r3, [r6]
 1179 0050 049B     		ldr	r3, [sp, #16]
 1180 0052 6064     		str	r0, [r4, #68]
 1181 0054 6362     		str	r3, [r4, #36]
ARM GAS  /tmp/cchjT0Ct.s 			page 21


 1182 0056 059B     		ldr	r3, [sp, #20]
 1183 0058 6063     		str	r0, [r4, #52]
 1184 005a 6385     		strh	r3, [r4, #42]
 1185 005c 9023     		movs	r3, #144
 1186 005e 628D     		ldrh	r2, [r4, #42]
 1187 0060 9B01     		lsls	r3, r3, #6
 1188 0062 FF2A     		cmp	r2, #255
 1189 0064 20D9     		bls	.L191
 1190 0066 FF22     		movs	r2, #255
 1191 0068 2285     		strh	r2, [r4, #40]
 1192 006a 0093     		str	r3, [sp]
 1193 006c 8023     		movs	r3, #128
 1194 006e 5B04     		lsls	r3, r3, #17
 1195              	.L211:
 1196 0070 3900     		movs	r1, r7
 1197 0072 2000     		movs	r0, r4
 1198 0074 FFF7FEFF 		bl	I2C_TransferConfig
 1199              	.L193:
 1200 0078 638D     		ldrh	r3, [r4, #42]
 1201 007a 2A00     		movs	r2, r5
 1202 007c 2000     		movs	r0, r4
 1203 007e 0C99     		ldr	r1, [sp, #48]
 1204 0080 002B     		cmp	r3, #0
 1205 0082 19D1     		bne	.L197
 1206 0084 FFF7FEFF 		bl	I2C_WaitOnSTOPFlagUntilTimeout
 1207 0088 0028     		cmp	r0, #0
 1208 008a 19D1     		bne	.L209
 1209 008c 2021     		movs	r1, #32
 1210 008e 2368     		ldr	r3, [r4]
 1211 0090 244D     		ldr	r5, .L212
 1212 0092 D961     		str	r1, [r3, #28]
 1213 0094 5A68     		ldr	r2, [r3, #4]
 1214 0096 2A40     		ands	r2, r5
 1215 0098 5A60     		str	r2, [r3, #4]
 1216 009a 2300     		movs	r3, r4
 1217 009c 4034     		adds	r4, r4, #64
 1218 009e 4133     		adds	r3, r3, #65
 1219 00a0 1970     		strb	r1, [r3]
 1220 00a2 3070     		strb	r0, [r6]
 1221 00a4 2070     		strb	r0, [r4]
 1222 00a6 10E0     		b	.L189
 1223              	.L191:
 1224 00a8 628D     		ldrh	r2, [r4, #42]
 1225 00aa 92B2     		uxth	r2, r2
 1226 00ac 2285     		strh	r2, [r4, #40]
 1227 00ae D2B2     		uxtb	r2, r2
 1228 00b0 0093     		str	r3, [sp]
 1229              	.L210:
 1230 00b2 8023     		movs	r3, #128
 1231 00b4 9B04     		lsls	r3, r3, #18
 1232 00b6 DBE7     		b	.L211
 1233              	.L197:
 1234 00b8 FFF7FEFF 		bl	I2C_WaitOnRXNEFlagUntilTimeout
 1235 00bc 0028     		cmp	r0, #0
 1236 00be 06D0     		beq	.L194
 1237              	.L209:
 1238 00c0 636C     		ldr	r3, [r4, #68]
ARM GAS  /tmp/cchjT0Ct.s 			page 22


 1239 00c2 0120     		movs	r0, #1
 1240 00c4 042B     		cmp	r3, #4
 1241 00c6 00D0     		beq	.L189
 1242              	.L190:
 1243 00c8 0320     		movs	r0, #3
 1244              	.L189:
 1245 00ca 07B0     		add	sp, sp, #28
 1246              		@ sp needed
 1247 00cc F0BD     		pop	{r4, r5, r6, r7, pc}
 1248              	.L194:
 1249 00ce 2368     		ldr	r3, [r4]
 1250 00d0 5A6A     		ldr	r2, [r3, #36]
 1251 00d2 636A     		ldr	r3, [r4, #36]
 1252 00d4 591C     		adds	r1, r3, #1
 1253 00d6 6162     		str	r1, [r4, #36]
 1254 00d8 1A70     		strb	r2, [r3]
 1255 00da 228D     		ldrh	r2, [r4, #40]
 1256 00dc 638D     		ldrh	r3, [r4, #42]
 1257 00de 013A     		subs	r2, r2, #1
 1258 00e0 013B     		subs	r3, r3, #1
 1259 00e2 92B2     		uxth	r2, r2
 1260 00e4 9BB2     		uxth	r3, r3
 1261 00e6 2285     		strh	r2, [r4, #40]
 1262 00e8 6385     		strh	r3, [r4, #42]
 1263 00ea 002A     		cmp	r2, #0
 1264 00ec C4D1     		bne	.L193
 1265 00ee 638D     		ldrh	r3, [r4, #42]
 1266 00f0 002B     		cmp	r3, #0
 1267 00f2 C1D0     		beq	.L193
 1268 00f4 8021     		movs	r1, #128
 1269 00f6 2000     		movs	r0, r4
 1270 00f8 0C9B     		ldr	r3, [sp, #48]
 1271 00fa 0095     		str	r5, [sp]
 1272 00fc FFF7FEFF 		bl	I2C_WaitOnFlagUntilTimeout
 1273 0100 0028     		cmp	r0, #0
 1274 0102 E1D1     		bne	.L190
 1275 0104 638D     		ldrh	r3, [r4, #42]
 1276 0106 FF2B     		cmp	r3, #255
 1277 0108 06D9     		bls	.L196
 1278 010a FF23     		movs	r3, #255
 1279 010c 2385     		strh	r3, [r4, #40]
 1280 010e 8023     		movs	r3, #128
 1281 0110 FF22     		movs	r2, #255
 1282 0112 0090     		str	r0, [sp]
 1283 0114 5B04     		lsls	r3, r3, #17
 1284 0116 ABE7     		b	.L211
 1285              	.L196:
 1286 0118 628D     		ldrh	r2, [r4, #42]
 1287 011a 92B2     		uxth	r2, r2
 1288 011c 2285     		strh	r2, [r4, #40]
 1289 011e D2B2     		uxtb	r2, r2
 1290 0120 0090     		str	r0, [sp]
 1291 0122 C6E7     		b	.L210
 1292              	.L213:
 1293              		.align	2
 1294              	.L212:
 1295 0124 00E800FE 		.word	-33495040
ARM GAS  /tmp/cchjT0Ct.s 			page 23


 1297              		.section	.text.HAL_I2C_Slave_Transmit,"ax",%progbits
 1298              		.align	1
 1299              		.global	HAL_I2C_Slave_Transmit
 1300              		.syntax unified
 1301              		.code	16
 1302              		.thumb_func
 1303              		.fpu softvfp
 1305              	HAL_I2C_Slave_Transmit:
 1306              		@ args = 0, pretend = 0, frame = 16
 1307              		@ frame_needed = 0, uses_anonymous_args = 0
 1308 0000 F0B5     		push	{r4, r5, r6, r7, lr}
 1309 0002 1D00     		movs	r5, r3
 1310 0004 0300     		movs	r3, r0
 1311 0006 87B0     		sub	sp, sp, #28
 1312 0008 4133     		adds	r3, r3, #65
 1313 000a 0492     		str	r2, [sp, #16]
 1314 000c 0393     		str	r3, [sp, #12]
 1315 000e 1B78     		ldrb	r3, [r3]
 1316 0010 0400     		movs	r4, r0
 1317 0012 DAB2     		uxtb	r2, r3
 1318 0014 0F00     		movs	r7, r1
 1319 0016 0220     		movs	r0, #2
 1320 0018 0592     		str	r2, [sp, #20]
 1321 001a 202B     		cmp	r3, #32
 1322 001c 02D1     		bne	.L215
 1323 001e 0029     		cmp	r1, #0
 1324 0020 02D1     		bne	.L216
 1325              	.L217:
 1326 0022 0120     		movs	r0, #1
 1327              	.L215:
 1328 0024 07B0     		add	sp, sp, #28
 1329              		@ sp needed
 1330 0026 F0BD     		pop	{r4, r5, r6, r7, pc}
 1331              	.L216:
 1332 0028 049B     		ldr	r3, [sp, #16]
 1333 002a 002B     		cmp	r3, #0
 1334 002c F9D0     		beq	.L217
 1335 002e 2300     		movs	r3, r4
 1336 0030 4033     		adds	r3, r3, #64
 1337 0032 1A78     		ldrb	r2, [r3]
 1338 0034 0220     		movs	r0, #2
 1339 0036 012A     		cmp	r2, #1
 1340 0038 F4D0     		beq	.L215
 1341 003a 0122     		movs	r2, #1
 1342 003c 1A70     		strb	r2, [r3]
 1343 003e FFF7FEFF 		bl	HAL_GetTick
 1344 0042 2123     		movs	r3, #33
 1345 0044 039A     		ldr	r2, [sp, #12]
 1346 0046 0600     		movs	r6, r0
 1347 0048 1370     		strb	r3, [r2]
 1348 004a 2300     		movs	r3, r4
 1349 004c 059A     		ldr	r2, [sp, #20]
 1350 004e 4233     		adds	r3, r3, #66
 1351 0050 1A70     		strb	r2, [r3]
 1352 0052 0022     		movs	r2, #0
 1353 0054 049B     		ldr	r3, [sp, #16]
 1354 0056 2168     		ldr	r1, [r4]
ARM GAS  /tmp/cchjT0Ct.s 			page 24


 1355 0058 6264     		str	r2, [r4, #68]
 1356 005a 6385     		strh	r3, [r4, #42]
 1357 005c 4B68     		ldr	r3, [r1, #4]
 1358 005e 3D48     		ldr	r0, .L243
 1359 0060 6263     		str	r2, [r4, #52]
 1360 0062 0340     		ands	r3, r0
 1361 0064 6762     		str	r7, [r4, #36]
 1362 0066 2000     		movs	r0, r4
 1363 0068 4B60     		str	r3, [r1, #4]
 1364 006a 2B00     		movs	r3, r5
 1365 006c 0821     		movs	r1, #8
 1366 006e 0096     		str	r6, [sp]
 1367 0070 FFF7FEFF 		bl	I2C_WaitOnFlagUntilTimeout
 1368 0074 2368     		ldr	r3, [r4]
 1369 0076 021E     		subs	r2, r0, #0
 1370 0078 06D0     		beq	.L218
 1371              	.L241:
 1372 007a 8022     		movs	r2, #128
 1373 007c 5968     		ldr	r1, [r3, #4]
 1374 007e 1202     		lsls	r2, r2, #8
 1375 0080 0A43     		orrs	r2, r1
 1376 0082 5A60     		str	r2, [r3, #4]
 1377              	.L242:
 1378 0084 0320     		movs	r0, #3
 1379 0086 CDE7     		b	.L215
 1380              	.L218:
 1381 0088 0827     		movs	r7, #8
 1382 008a DF61     		str	r7, [r3, #28]
 1383 008c E368     		ldr	r3, [r4, #12]
 1384 008e 022B     		cmp	r3, #2
 1385 0090 09D1     		bne	.L219
 1386 0092 2B00     		movs	r3, r5
 1387 0094 3900     		movs	r1, r7
 1388 0096 2000     		movs	r0, r4
 1389 0098 0096     		str	r6, [sp]
 1390 009a FFF7FEFF 		bl	I2C_WaitOnFlagUntilTimeout
 1391 009e 2368     		ldr	r3, [r4]
 1392 00a0 0028     		cmp	r0, #0
 1393 00a2 EAD1     		bne	.L241
 1394 00a4 DF61     		str	r7, [r3, #28]
 1395              	.L219:
 1396 00a6 8021     		movs	r1, #128
 1397 00a8 2B00     		movs	r3, r5
 1398 00aa 0022     		movs	r2, #0
 1399 00ac 2000     		movs	r0, r4
 1400 00ae 0096     		str	r6, [sp]
 1401 00b0 4902     		lsls	r1, r1, #9
 1402 00b2 FFF7FEFF 		bl	I2C_WaitOnFlagUntilTimeout
 1403 00b6 0028     		cmp	r0, #0
 1404 00b8 1DD0     		beq	.L221
 1405 00ba 8023     		movs	r3, #128
 1406 00bc 2268     		ldr	r2, [r4]
 1407 00be 1B02     		lsls	r3, r3, #8
 1408 00c0 5168     		ldr	r1, [r2, #4]
 1409 00c2 0B43     		orrs	r3, r1
 1410 00c4 5360     		str	r3, [r2, #4]
 1411 00c6 DDE7     		b	.L242
ARM GAS  /tmp/cchjT0Ct.s 			page 25


 1412              	.L223:
 1413 00c8 FFF7FEFF 		bl	I2C_WaitOnTXISFlagUntilTimeout
 1414 00cc 2368     		ldr	r3, [r4]
 1415 00ce 0028     		cmp	r0, #0
 1416 00d0 08D0     		beq	.L222
 1417 00d2 8022     		movs	r2, #128
 1418 00d4 5968     		ldr	r1, [r3, #4]
 1419 00d6 1202     		lsls	r2, r2, #8
 1420 00d8 0A43     		orrs	r2, r1
 1421 00da 5A60     		str	r2, [r3, #4]
 1422 00dc 636C     		ldr	r3, [r4, #68]
 1423 00de 042B     		cmp	r3, #4
 1424 00e0 D0D1     		bne	.L242
 1425 00e2 9EE7     		b	.L217
 1426              	.L222:
 1427 00e4 626A     		ldr	r2, [r4, #36]
 1428 00e6 511C     		adds	r1, r2, #1
 1429 00e8 6162     		str	r1, [r4, #36]
 1430 00ea 1278     		ldrb	r2, [r2]
 1431 00ec 9A62     		str	r2, [r3, #40]
 1432 00ee 638D     		ldrh	r3, [r4, #42]
 1433 00f0 013B     		subs	r3, r3, #1
 1434 00f2 9BB2     		uxth	r3, r3
 1435 00f4 6385     		strh	r3, [r4, #42]
 1436              	.L221:
 1437 00f6 638D     		ldrh	r3, [r4, #42]
 1438 00f8 3200     		movs	r2, r6
 1439 00fa 2900     		movs	r1, r5
 1440 00fc 2000     		movs	r0, r4
 1441 00fe 9FB2     		uxth	r7, r3
 1442 0100 002B     		cmp	r3, #0
 1443 0102 E1D1     		bne	.L223
 1444 0104 FFF7FEFF 		bl	I2C_WaitOnSTOPFlagUntilTimeout
 1445 0108 2368     		ldr	r3, [r4]
 1446 010a 0028     		cmp	r0, #0
 1447 010c 08D0     		beq	.L224
 1448 010e 8022     		movs	r2, #128
 1449 0110 5968     		ldr	r1, [r3, #4]
 1450 0112 1202     		lsls	r2, r2, #8
 1451 0114 0A43     		orrs	r2, r1
 1452 0116 5A60     		str	r2, [r3, #4]
 1453 0118 626C     		ldr	r2, [r4, #68]
 1454 011a 042A     		cmp	r2, #4
 1455 011c B2D1     		bne	.L242
 1456 011e 6764     		str	r7, [r4, #68]
 1457              	.L224:
 1458 0120 8027     		movs	r7, #128
 1459 0122 2022     		movs	r2, #32
 1460 0124 3F02     		lsls	r7, r7, #8
 1461 0126 DA61     		str	r2, [r3, #28]
 1462 0128 3900     		movs	r1, r7
 1463 012a 2B00     		movs	r3, r5
 1464 012c 1F3A     		subs	r2, r2, #31
 1465 012e 2000     		movs	r0, r4
 1466 0130 0096     		str	r6, [sp]
 1467 0132 FFF7FEFF 		bl	I2C_WaitOnFlagUntilTimeout
 1468 0136 2368     		ldr	r3, [r4]
ARM GAS  /tmp/cchjT0Ct.s 			page 26


 1469 0138 5A68     		ldr	r2, [r3, #4]
 1470 013a 1743     		orrs	r7, r2
 1471 013c 5F60     		str	r7, [r3, #4]
 1472 013e 0028     		cmp	r0, #0
 1473 0140 A0D1     		bne	.L242
 1474 0142 2022     		movs	r2, #32
 1475 0144 039B     		ldr	r3, [sp, #12]
 1476 0146 1A70     		strb	r2, [r3]
 1477 0148 2300     		movs	r3, r4
 1478 014a 4034     		adds	r4, r4, #64
 1479 014c 4233     		adds	r3, r3, #66
 1480 014e 1870     		strb	r0, [r3]
 1481 0150 2070     		strb	r0, [r4]
 1482 0152 67E7     		b	.L215
 1483              	.L244:
 1484              		.align	2
 1485              	.L243:
 1486 0154 FF7FFFFF 		.word	-32769
 1488              		.section	.text.HAL_I2C_Slave_Receive,"ax",%progbits
 1489              		.align	1
 1490              		.global	HAL_I2C_Slave_Receive
 1491              		.syntax unified
 1492              		.code	16
 1493              		.thumb_func
 1494              		.fpu softvfp
 1496              	HAL_I2C_Slave_Receive:
 1497              		@ args = 0, pretend = 0, frame = 24
 1498              		@ frame_needed = 0, uses_anonymous_args = 0
 1499 0000 F0B5     		push	{r4, r5, r6, r7, lr}
 1500 0002 1F00     		movs	r7, r3
 1501 0004 0300     		movs	r3, r0
 1502 0006 89B0     		sub	sp, sp, #36
 1503 0008 4133     		adds	r3, r3, #65
 1504 000a 0592     		str	r2, [sp, #20]
 1505 000c 0491     		str	r1, [sp, #16]
 1506 000e 0393     		str	r3, [sp, #12]
 1507 0010 1B78     		ldrb	r3, [r3]
 1508 0012 0400     		movs	r4, r0
 1509 0014 DAB2     		uxtb	r2, r3
 1510 0016 0220     		movs	r0, #2
 1511 0018 0792     		str	r2, [sp, #28]
 1512 001a 202B     		cmp	r3, #32
 1513 001c 31D1     		bne	.L246
 1514 001e 0029     		cmp	r1, #0
 1515 0020 5DD0     		beq	.L247
 1516 0022 059B     		ldr	r3, [sp, #20]
 1517 0024 002B     		cmp	r3, #0
 1518 0026 5AD0     		beq	.L247
 1519 0028 2300     		movs	r3, r4
 1520 002a 4033     		adds	r3, r3, #64
 1521 002c 1A78     		ldrb	r2, [r3]
 1522 002e 012A     		cmp	r2, #1
 1523 0030 27D0     		beq	.L246
 1524 0032 0125     		movs	r5, #1
 1525 0034 1D70     		strb	r5, [r3]
 1526 0036 FFF7FEFF 		bl	HAL_GetTick
 1527 003a 2223     		movs	r3, #34
ARM GAS  /tmp/cchjT0Ct.s 			page 27


 1528 003c 039A     		ldr	r2, [sp, #12]
 1529 003e 0600     		movs	r6, r0
 1530 0040 1370     		strb	r3, [r2]
 1531 0042 2300     		movs	r3, r4
 1532 0044 079A     		ldr	r2, [sp, #28]
 1533 0046 4233     		adds	r3, r3, #66
 1534 0048 1A70     		strb	r2, [r3]
 1535 004a 0022     		movs	r2, #0
 1536 004c 0693     		str	r3, [sp, #24]
 1537 004e 049B     		ldr	r3, [sp, #16]
 1538 0050 2168     		ldr	r1, [r4]
 1539 0052 6362     		str	r3, [r4, #36]
 1540 0054 059B     		ldr	r3, [sp, #20]
 1541 0056 6264     		str	r2, [r4, #68]
 1542 0058 6385     		strh	r3, [r4, #42]
 1543 005a 4B68     		ldr	r3, [r1, #4]
 1544 005c 3B48     		ldr	r0, .L277
 1545 005e 6263     		str	r2, [r4, #52]
 1546 0060 0340     		ands	r3, r0
 1547 0062 4B60     		str	r3, [r1, #4]
 1548 0064 2000     		movs	r0, r4
 1549 0066 3B00     		movs	r3, r7
 1550 0068 0821     		movs	r1, #8
 1551 006a 0096     		str	r6, [sp]
 1552 006c FFF7FEFF 		bl	I2C_WaitOnFlagUntilTimeout
 1553 0070 2368     		ldr	r3, [r4]
 1554 0072 0028     		cmp	r0, #0
 1555 0074 07D0     		beq	.L248
 1556 0076 8022     		movs	r2, #128
 1557 0078 5968     		ldr	r1, [r3, #4]
 1558 007a 1202     		lsls	r2, r2, #8
 1559 007c 0A43     		orrs	r2, r1
 1560 007e 5A60     		str	r2, [r3, #4]
 1561              	.L276:
 1562 0080 0320     		movs	r0, #3
 1563              	.L246:
 1564 0082 09B0     		add	sp, sp, #36
 1565              		@ sp needed
 1566 0084 F0BD     		pop	{r4, r5, r6, r7, pc}
 1567              	.L248:
 1568 0086 0822     		movs	r2, #8
 1569 0088 8021     		movs	r1, #128
 1570 008a DA61     		str	r2, [r3, #28]
 1571 008c 2000     		movs	r0, r4
 1572 008e 3B00     		movs	r3, r7
 1573 0090 2A00     		movs	r2, r5
 1574 0092 0096     		str	r6, [sp]
 1575 0094 4902     		lsls	r1, r1, #9
 1576 0096 FFF7FEFF 		bl	I2C_WaitOnFlagUntilTimeout
 1577 009a 0028     		cmp	r0, #0
 1578 009c 2AD0     		beq	.L249
 1579 009e 8023     		movs	r3, #128
 1580 00a0 2268     		ldr	r2, [r4]
 1581 00a2 1B02     		lsls	r3, r3, #8
 1582 00a4 5168     		ldr	r1, [r2, #4]
 1583 00a6 0B43     		orrs	r3, r1
 1584 00a8 5360     		str	r3, [r2, #4]
ARM GAS  /tmp/cchjT0Ct.s 			page 28


 1585 00aa E9E7     		b	.L276
 1586              	.L253:
 1587 00ac FFF7FEFF 		bl	I2C_WaitOnRXNEFlagUntilTimeout
 1588 00b0 2368     		ldr	r3, [r4]
 1589 00b2 0028     		cmp	r0, #0
 1590 00b4 15D0     		beq	.L250
 1591 00b6 8022     		movs	r2, #128
 1592 00b8 5968     		ldr	r1, [r3, #4]
 1593 00ba 1202     		lsls	r2, r2, #8
 1594 00bc 0A43     		orrs	r2, r1
 1595 00be 5A60     		str	r2, [r3, #4]
 1596 00c0 9A69     		ldr	r2, [r3, #24]
 1597 00c2 5207     		lsls	r2, r2, #29
 1598 00c4 08D5     		bpl	.L251
 1599 00c6 5A6A     		ldr	r2, [r3, #36]
 1600 00c8 636A     		ldr	r3, [r4, #36]
 1601 00ca 591C     		adds	r1, r3, #1
 1602 00cc 6162     		str	r1, [r4, #36]
 1603 00ce 1A70     		strb	r2, [r3]
 1604 00d0 638D     		ldrh	r3, [r4, #42]
 1605 00d2 013B     		subs	r3, r3, #1
 1606 00d4 9BB2     		uxth	r3, r3
 1607 00d6 6385     		strh	r3, [r4, #42]
 1608              	.L251:
 1609 00d8 636C     		ldr	r3, [r4, #68]
 1610 00da 202B     		cmp	r3, #32
 1611 00dc D0D0     		beq	.L276
 1612              	.L247:
 1613 00de 0120     		movs	r0, #1
 1614 00e0 CFE7     		b	.L246
 1615              	.L250:
 1616 00e2 5A6A     		ldr	r2, [r3, #36]
 1617 00e4 636A     		ldr	r3, [r4, #36]
 1618 00e6 591C     		adds	r1, r3, #1
 1619 00e8 6162     		str	r1, [r4, #36]
 1620 00ea 1A70     		strb	r2, [r3]
 1621 00ec 638D     		ldrh	r3, [r4, #42]
 1622 00ee 013B     		subs	r3, r3, #1
 1623 00f0 9BB2     		uxth	r3, r3
 1624 00f2 6385     		strh	r3, [r4, #42]
 1625              	.L249:
 1626 00f4 638D     		ldrh	r3, [r4, #42]
 1627 00f6 3200     		movs	r2, r6
 1628 00f8 3900     		movs	r1, r7
 1629 00fa 2000     		movs	r0, r4
 1630 00fc 002B     		cmp	r3, #0
 1631 00fe D5D1     		bne	.L253
 1632 0100 FFF7FEFF 		bl	I2C_WaitOnSTOPFlagUntilTimeout
 1633 0104 8025     		movs	r5, #128
 1634 0106 2368     		ldr	r3, [r4]
 1635 0108 2D02     		lsls	r5, r5, #8
 1636 010a 0028     		cmp	r0, #0
 1637 010c 06D0     		beq	.L254
 1638 010e 5A68     		ldr	r2, [r3, #4]
 1639 0110 1543     		orrs	r5, r2
 1640 0112 5D60     		str	r5, [r3, #4]
 1641 0114 636C     		ldr	r3, [r4, #68]
ARM GAS  /tmp/cchjT0Ct.s 			page 29


 1642 0116 042B     		cmp	r3, #4
 1643 0118 B2D1     		bne	.L276
 1644 011a E0E7     		b	.L247
 1645              	.L254:
 1646 011c 2022     		movs	r2, #32
 1647 011e 2900     		movs	r1, r5
 1648 0120 DA61     		str	r2, [r3, #28]
 1649 0122 2000     		movs	r0, r4
 1650 0124 3B00     		movs	r3, r7
 1651 0126 1F3A     		subs	r2, r2, #31
 1652 0128 0096     		str	r6, [sp]
 1653 012a FFF7FEFF 		bl	I2C_WaitOnFlagUntilTimeout
 1654 012e 2368     		ldr	r3, [r4]
 1655 0130 5A68     		ldr	r2, [r3, #4]
 1656 0132 1543     		orrs	r5, r2
 1657 0134 5D60     		str	r5, [r3, #4]
 1658 0136 0028     		cmp	r0, #0
 1659 0138 A2D1     		bne	.L276
 1660 013a 2022     		movs	r2, #32
 1661 013c 039B     		ldr	r3, [sp, #12]
 1662 013e 4034     		adds	r4, r4, #64
 1663 0140 1A70     		strb	r2, [r3]
 1664 0142 069B     		ldr	r3, [sp, #24]
 1665 0144 1870     		strb	r0, [r3]
 1666 0146 2070     		strb	r0, [r4]
 1667 0148 9BE7     		b	.L246
 1668              	.L278:
 1669 014a C046     		.align	2
 1670              	.L277:
 1671 014c FF7FFFFF 		.word	-32769
 1673              		.section	.text.HAL_I2C_Master_Transmit_IT,"ax",%progbits
 1674              		.align	1
 1675              		.global	HAL_I2C_Master_Transmit_IT
 1676              		.syntax unified
 1677              		.code	16
 1678              		.thumb_func
 1679              		.fpu softvfp
 1681              	HAL_I2C_Master_Transmit_IT:
 1682              		@ args = 0, pretend = 0, frame = 8
 1683              		@ frame_needed = 0, uses_anonymous_args = 0
 1684 0000 F0B5     		push	{r4, r5, r6, r7, lr}
 1685 0002 0600     		movs	r6, r0
 1686 0004 85B0     		sub	sp, sp, #20
 1687 0006 0393     		str	r3, [sp, #12]
 1688 0008 4136     		adds	r6, r6, #65
 1689 000a 3578     		ldrb	r5, [r6]
 1690 000c 0400     		movs	r4, r0
 1691 000e 0220     		movs	r0, #2
 1692 0010 202D     		cmp	r5, #32
 1693 0012 35D1     		bne	.L280
 1694 0014 2068     		ldr	r0, [r4]
 1695 0016 8025     		movs	r5, #128
 1696 0018 8069     		ldr	r0, [r0, #24]
 1697 001a 2D02     		lsls	r5, r5, #8
 1698 001c 8446     		mov	ip, r0
 1699 001e 0700     		movs	r7, r0
 1700 0020 6346     		mov	r3, ip
ARM GAS  /tmp/cchjT0Ct.s 			page 30


 1701 0022 0220     		movs	r0, #2
 1702 0024 2F40     		ands	r7, r5
 1703 0026 2B42     		tst	r3, r5
 1704 0028 2AD1     		bne	.L280
 1705 002a 2500     		movs	r5, r4
 1706 002c 4035     		adds	r5, r5, #64
 1707 002e 2B78     		ldrb	r3, [r5]
 1708 0030 012B     		cmp	r3, #1
 1709 0032 25D0     		beq	.L280
 1710 0034 0138     		subs	r0, r0, #1
 1711 0036 2870     		strb	r0, [r5]
 1712 0038 2030     		adds	r0, r0, #32
 1713 003a 3070     		strb	r0, [r6]
 1714 003c 2000     		movs	r0, r4
 1715 003e 1026     		movs	r6, #16
 1716 0040 039B     		ldr	r3, [sp, #12]
 1717 0042 4230     		adds	r0, r0, #66
 1718 0044 0670     		strb	r6, [r0]
 1719 0046 6764     		str	r7, [r4, #68]
 1720 0048 6385     		strh	r3, [r4, #42]
 1721 004a 104B     		ldr	r3, .L286
 1722 004c 6262     		str	r2, [r4, #36]
 1723 004e E362     		str	r3, [r4, #44]
 1724 0050 0F4B     		ldr	r3, .L286+4
 1725 0052 6363     		str	r3, [r4, #52]
 1726 0054 638D     		ldrh	r3, [r4, #42]
 1727 0056 FF2B     		cmp	r3, #255
 1728 0058 14D8     		bhi	.L285
 1729 005a 8023     		movs	r3, #128
 1730 005c 628D     		ldrh	r2, [r4, #42]
 1731 005e 9B04     		lsls	r3, r3, #18
 1732 0060 92B2     		uxth	r2, r2
 1733              	.L281:
 1734 0062 8020     		movs	r0, #128
 1735 0064 0026     		movs	r6, #0
 1736 0066 8001     		lsls	r0, r0, #6
 1737 0068 2285     		strh	r2, [r4, #40]
 1738 006a 0090     		str	r0, [sp]
 1739 006c D2B2     		uxtb	r2, r2
 1740 006e 2000     		movs	r0, r4
 1741 0070 FFF7FEFF 		bl	I2C_TransferConfig
 1742 0074 2000     		movs	r0, r4
 1743 0076 0121     		movs	r1, #1
 1744 0078 2E70     		strb	r6, [r5]
 1745 007a FFF7FEFF 		bl	I2C_Enable_IRQ.isra.0
 1746 007e 3000     		movs	r0, r6
 1747              	.L280:
 1748 0080 05B0     		add	sp, sp, #20
 1749              		@ sp needed
 1750 0082 F0BD     		pop	{r4, r5, r6, r7, pc}
 1751              	.L285:
 1752 0084 8023     		movs	r3, #128
 1753 0086 FF22     		movs	r2, #255
 1754 0088 5B04     		lsls	r3, r3, #17
 1755 008a EAE7     		b	.L281
 1756              	.L287:
 1757              		.align	2
ARM GAS  /tmp/cchjT0Ct.s 			page 31


 1758              	.L286:
 1759 008c 0000FFFF 		.word	-65536
 1760 0090 00000000 		.word	I2C_Master_ISR_IT
 1762              		.section	.text.HAL_I2C_Master_Receive_IT,"ax",%progbits
 1763              		.align	1
 1764              		.global	HAL_I2C_Master_Receive_IT
 1765              		.syntax unified
 1766              		.code	16
 1767              		.thumb_func
 1768              		.fpu softvfp
 1770              	HAL_I2C_Master_Receive_IT:
 1771              		@ args = 0, pretend = 0, frame = 8
 1772              		@ frame_needed = 0, uses_anonymous_args = 0
 1773 0000 F0B5     		push	{r4, r5, r6, r7, lr}
 1774 0002 0600     		movs	r6, r0
 1775 0004 85B0     		sub	sp, sp, #20
 1776 0006 0393     		str	r3, [sp, #12]
 1777 0008 4136     		adds	r6, r6, #65
 1778 000a 3578     		ldrb	r5, [r6]
 1779 000c 0400     		movs	r4, r0
 1780 000e 0220     		movs	r0, #2
 1781 0010 202D     		cmp	r5, #32
 1782 0012 35D1     		bne	.L289
 1783 0014 2068     		ldr	r0, [r4]
 1784 0016 8025     		movs	r5, #128
 1785 0018 8069     		ldr	r0, [r0, #24]
 1786 001a 2D02     		lsls	r5, r5, #8
 1787 001c 8446     		mov	ip, r0
 1788 001e 0700     		movs	r7, r0
 1789 0020 6346     		mov	r3, ip
 1790 0022 0220     		movs	r0, #2
 1791 0024 2F40     		ands	r7, r5
 1792 0026 2B42     		tst	r3, r5
 1793 0028 2AD1     		bne	.L289
 1794 002a 2500     		movs	r5, r4
 1795 002c 4035     		adds	r5, r5, #64
 1796 002e 2B78     		ldrb	r3, [r5]
 1797 0030 012B     		cmp	r3, #1
 1798 0032 25D0     		beq	.L289
 1799 0034 0138     		subs	r0, r0, #1
 1800 0036 2870     		strb	r0, [r5]
 1801 0038 2130     		adds	r0, r0, #33
 1802 003a 3070     		strb	r0, [r6]
 1803 003c 2000     		movs	r0, r4
 1804 003e 1026     		movs	r6, #16
 1805 0040 039B     		ldr	r3, [sp, #12]
 1806 0042 4230     		adds	r0, r0, #66
 1807 0044 0670     		strb	r6, [r0]
 1808 0046 6764     		str	r7, [r4, #68]
 1809 0048 6385     		strh	r3, [r4, #42]
 1810 004a 104B     		ldr	r3, .L295
 1811 004c 6262     		str	r2, [r4, #36]
 1812 004e E362     		str	r3, [r4, #44]
 1813 0050 0F4B     		ldr	r3, .L295+4
 1814 0052 6363     		str	r3, [r4, #52]
 1815 0054 638D     		ldrh	r3, [r4, #42]
 1816 0056 FF2B     		cmp	r3, #255
ARM GAS  /tmp/cchjT0Ct.s 			page 32


 1817 0058 14D8     		bhi	.L294
 1818 005a 8023     		movs	r3, #128
 1819 005c 628D     		ldrh	r2, [r4, #42]
 1820 005e 9B04     		lsls	r3, r3, #18
 1821 0060 92B2     		uxth	r2, r2
 1822              	.L290:
 1823 0062 9020     		movs	r0, #144
 1824 0064 0026     		movs	r6, #0
 1825 0066 8001     		lsls	r0, r0, #6
 1826 0068 2285     		strh	r2, [r4, #40]
 1827 006a 0090     		str	r0, [sp]
 1828 006c D2B2     		uxtb	r2, r2
 1829 006e 2000     		movs	r0, r4
 1830 0070 FFF7FEFF 		bl	I2C_TransferConfig
 1831 0074 2000     		movs	r0, r4
 1832 0076 0221     		movs	r1, #2
 1833 0078 2E70     		strb	r6, [r5]
 1834 007a FFF7FEFF 		bl	I2C_Enable_IRQ.isra.0
 1835 007e 3000     		movs	r0, r6
 1836              	.L289:
 1837 0080 05B0     		add	sp, sp, #20
 1838              		@ sp needed
 1839 0082 F0BD     		pop	{r4, r5, r6, r7, pc}
 1840              	.L294:
 1841 0084 8023     		movs	r3, #128
 1842 0086 FF22     		movs	r2, #255
 1843 0088 5B04     		lsls	r3, r3, #17
 1844 008a EAE7     		b	.L290
 1845              	.L296:
 1846              		.align	2
 1847              	.L295:
 1848 008c 0000FFFF 		.word	-65536
 1849 0090 00000000 		.word	I2C_Master_ISR_IT
 1851              		.section	.text.HAL_I2C_Slave_Transmit_IT,"ax",%progbits
 1852              		.align	1
 1853              		.global	HAL_I2C_Slave_Transmit_IT
 1854              		.syntax unified
 1855              		.code	16
 1856              		.thumb_func
 1857              		.fpu softvfp
 1859              	HAL_I2C_Slave_Transmit_IT:
 1860              		@ args = 0, pretend = 0, frame = 0
 1861              		@ frame_needed = 0, uses_anonymous_args = 0
 1862 0000 F8B5     		push	{r3, r4, r5, r6, r7, lr}
 1863 0002 0300     		movs	r3, r0
 1864 0004 4133     		adds	r3, r3, #65
 1865 0006 1D78     		ldrb	r5, [r3]
 1866 0008 0224     		movs	r4, #2
 1867 000a EEB2     		uxtb	r6, r5
 1868 000c 202D     		cmp	r5, #32
 1869 000e 1AD1     		bne	.L298
 1870 0010 0500     		movs	r5, r0
 1871 0012 4035     		adds	r5, r5, #64
 1872 0014 2F78     		ldrb	r7, [r5]
 1873 0016 012F     		cmp	r7, #1
 1874 0018 15D0     		beq	.L298
 1875 001a 1F34     		adds	r4, r4, #31
ARM GAS  /tmp/cchjT0Ct.s 			page 33


 1876 001c 1C70     		strb	r4, [r3]
 1877 001e 0024     		movs	r4, #0
 1878 0020 5E70     		strb	r6, [r3, #1]
 1879 0022 0668     		ldr	r6, [r0]
 1880 0024 4464     		str	r4, [r0, #68]
 1881 0026 7368     		ldr	r3, [r6, #4]
 1882 0028 084F     		ldr	r7, .L301
 1883 002a 3B40     		ands	r3, r7
 1884 002c 7360     		str	r3, [r6, #4]
 1885 002e 4285     		strh	r2, [r0, #42]
 1886 0030 438D     		ldrh	r3, [r0, #42]
 1887 0032 4162     		str	r1, [r0, #36]
 1888 0034 0385     		strh	r3, [r0, #40]
 1889 0036 064B     		ldr	r3, .L301+4
 1890 0038 0521     		movs	r1, #5
 1891 003a C362     		str	r3, [r0, #44]
 1892 003c 054B     		ldr	r3, .L301+8
 1893 003e 4363     		str	r3, [r0, #52]
 1894 0040 2C70     		strb	r4, [r5]
 1895 0042 FFF7FEFF 		bl	I2C_Enable_IRQ.isra.0
 1896              	.L298:
 1897              		@ sp needed
 1898 0046 2000     		movs	r0, r4
 1899 0048 F8BD     		pop	{r3, r4, r5, r6, r7, pc}
 1900              	.L302:
 1901 004a C046     		.align	2
 1902              	.L301:
 1903 004c FF7FFFFF 		.word	-32769
 1904 0050 0000FFFF 		.word	-65536
 1905 0054 00000000 		.word	I2C_Slave_ISR_IT
 1907              		.section	.text.HAL_I2C_Slave_Receive_IT,"ax",%progbits
 1908              		.align	1
 1909              		.global	HAL_I2C_Slave_Receive_IT
 1910              		.syntax unified
 1911              		.code	16
 1912              		.thumb_func
 1913              		.fpu softvfp
 1915              	HAL_I2C_Slave_Receive_IT:
 1916              		@ args = 0, pretend = 0, frame = 0
 1917              		@ frame_needed = 0, uses_anonymous_args = 0
 1918 0000 F8B5     		push	{r3, r4, r5, r6, r7, lr}
 1919 0002 0300     		movs	r3, r0
 1920 0004 4133     		adds	r3, r3, #65
 1921 0006 1D78     		ldrb	r5, [r3]
 1922 0008 0224     		movs	r4, #2
 1923 000a EEB2     		uxtb	r6, r5
 1924 000c 202D     		cmp	r5, #32
 1925 000e 1AD1     		bne	.L304
 1926 0010 0500     		movs	r5, r0
 1927 0012 4035     		adds	r5, r5, #64
 1928 0014 2F78     		ldrb	r7, [r5]
 1929 0016 012F     		cmp	r7, #1
 1930 0018 15D0     		beq	.L304
 1931 001a 2034     		adds	r4, r4, #32
 1932 001c 1C70     		strb	r4, [r3]
 1933 001e 0024     		movs	r4, #0
 1934 0020 5E70     		strb	r6, [r3, #1]
ARM GAS  /tmp/cchjT0Ct.s 			page 34


 1935 0022 0668     		ldr	r6, [r0]
 1936 0024 4464     		str	r4, [r0, #68]
 1937 0026 7368     		ldr	r3, [r6, #4]
 1938 0028 084F     		ldr	r7, .L307
 1939 002a 3B40     		ands	r3, r7
 1940 002c 7360     		str	r3, [r6, #4]
 1941 002e 4285     		strh	r2, [r0, #42]
 1942 0030 438D     		ldrh	r3, [r0, #42]
 1943 0032 4162     		str	r1, [r0, #36]
 1944 0034 0385     		strh	r3, [r0, #40]
 1945 0036 064B     		ldr	r3, .L307+4
 1946 0038 0621     		movs	r1, #6
 1947 003a C362     		str	r3, [r0, #44]
 1948 003c 054B     		ldr	r3, .L307+8
 1949 003e 4363     		str	r3, [r0, #52]
 1950 0040 2C70     		strb	r4, [r5]
 1951 0042 FFF7FEFF 		bl	I2C_Enable_IRQ.isra.0
 1952              	.L304:
 1953              		@ sp needed
 1954 0046 2000     		movs	r0, r4
 1955 0048 F8BD     		pop	{r3, r4, r5, r6, r7, pc}
 1956              	.L308:
 1957 004a C046     		.align	2
 1958              	.L307:
 1959 004c FF7FFFFF 		.word	-32769
 1960 0050 0000FFFF 		.word	-65536
 1961 0054 00000000 		.word	I2C_Slave_ISR_IT
 1963              		.section	.text.HAL_I2C_Master_Transmit_DMA,"ax",%progbits
 1964              		.align	1
 1965              		.global	HAL_I2C_Master_Transmit_DMA
 1966              		.syntax unified
 1967              		.code	16
 1968              		.thumb_func
 1969              		.fpu softvfp
 1971              	HAL_I2C_Master_Transmit_DMA:
 1972              		@ args = 0, pretend = 0, frame = 8
 1973              		@ frame_needed = 0, uses_anonymous_args = 0
 1974 0000 9C46     		mov	ip, r3
 1975 0002 0300     		movs	r3, r0
 1976 0004 F0B5     		push	{r4, r5, r6, r7, lr}
 1977 0006 85B0     		sub	sp, sp, #20
 1978 0008 0291     		str	r1, [sp, #8]
 1979 000a 4133     		adds	r3, r3, #65
 1980 000c 1100     		movs	r1, r2
 1981 000e 1A78     		ldrb	r2, [r3]
 1982 0010 0400     		movs	r4, r0
 1983 0012 0220     		movs	r0, #2
 1984 0014 202A     		cmp	r2, #32
 1985 0016 4FD1     		bne	.L310
 1986 0018 2268     		ldr	r2, [r4]
 1987 001a 8025     		movs	r5, #128
 1988 001c 9769     		ldr	r7, [r2, #24]
 1989 001e 2D02     		lsls	r5, r5, #8
 1990 0020 3E00     		movs	r6, r7
 1991 0022 2E40     		ands	r6, r5
 1992 0024 2F42     		tst	r7, r5
 1993 0026 47D1     		bne	.L310
ARM GAS  /tmp/cchjT0Ct.s 			page 35


 1994 0028 2500     		movs	r5, r4
 1995 002a 4035     		adds	r5, r5, #64
 1996 002c 2F78     		ldrb	r7, [r5]
 1997 002e 012F     		cmp	r7, #1
 1998 0030 42D0     		beq	.L310
 1999 0032 0138     		subs	r0, r0, #1
 2000 0034 2870     		strb	r0, [r5]
 2001 0036 2030     		adds	r0, r0, #32
 2002 0038 1870     		strb	r0, [r3]
 2003 003a 1138     		subs	r0, r0, #17
 2004 003c 5870     		strb	r0, [r3, #1]
 2005 003e 6346     		mov	r3, ip
 2006 0040 6664     		str	r6, [r4, #68]
 2007 0042 6385     		strh	r3, [r4, #42]
 2008 0044 294B     		ldr	r3, .L317
 2009 0046 6162     		str	r1, [r4, #36]
 2010 0048 E362     		str	r3, [r4, #44]
 2011 004a 294B     		ldr	r3, .L317+4
 2012 004c 6363     		str	r3, [r4, #52]
 2013 004e 638D     		ldrh	r3, [r4, #42]
 2014 0050 FF2B     		cmp	r3, #255
 2015 0052 33D8     		bhi	.L316
 2016 0054 8027     		movs	r7, #128
 2017 0056 658D     		ldrh	r5, [r4, #42]
 2018 0058 BF04     		lsls	r7, r7, #18
 2019 005a ADB2     		uxth	r5, r5
 2020              	.L311:
 2021 005c 2300     		movs	r3, r4
 2022 005e 4033     		adds	r3, r3, #64
 2023 0060 2585     		strh	r5, [r4, #40]
 2024 0062 0393     		str	r3, [sp, #12]
 2025 0064 002D     		cmp	r5, #0
 2026 0066 2DD0     		beq	.L312
 2027 0068 0026     		movs	r6, #0
 2028 006a A06B     		ldr	r0, [r4, #56]
 2029 006c 214B     		ldr	r3, .L317+8
 2030 006e 2832     		adds	r2, r2, #40
 2031 0070 8362     		str	r3, [r0, #40]
 2032 0072 214B     		ldr	r3, .L317+12
 2033 0074 C662     		str	r6, [r0, #44]
 2034 0076 0363     		str	r3, [r0, #48]
 2035 0078 4663     		str	r6, [r0, #52]
 2036 007a 2B00     		movs	r3, r5
 2037 007c FFF7FEFF 		bl	HAL_DMA_Start_IT
 2038 0080 8023     		movs	r3, #128
 2039 0082 228D     		ldrh	r2, [r4, #40]
 2040 0084 9B01     		lsls	r3, r3, #6
 2041 0086 2000     		movs	r0, r4
 2042 0088 0299     		ldr	r1, [sp, #8]
 2043 008a D2B2     		uxtb	r2, r2
 2044 008c 0093     		str	r3, [sp]
 2045 008e 3B00     		movs	r3, r7
 2046 0090 FFF7FEFF 		bl	I2C_TransferConfig
 2047 0094 638D     		ldrh	r3, [r4, #42]
 2048 0096 228D     		ldrh	r2, [r4, #40]
 2049 0098 1121     		movs	r1, #17
 2050 009a 9B1A     		subs	r3, r3, r2
ARM GAS  /tmp/cchjT0Ct.s 			page 36


 2051 009c 9BB2     		uxth	r3, r3
 2052 009e 6385     		strh	r3, [r4, #42]
 2053 00a0 039B     		ldr	r3, [sp, #12]
 2054 00a2 2000     		movs	r0, r4
 2055 00a4 1E70     		strb	r6, [r3]
 2056 00a6 FFF7FEFF 		bl	I2C_Enable_IRQ.isra.0
 2057 00aa 8023     		movs	r3, #128
 2058 00ac 3000     		movs	r0, r6
 2059 00ae 2268     		ldr	r2, [r4]
 2060 00b0 DB01     		lsls	r3, r3, #7
 2061 00b2 1168     		ldr	r1, [r2]
 2062 00b4 0B43     		orrs	r3, r1
 2063 00b6 1360     		str	r3, [r2]
 2064              	.L310:
 2065 00b8 05B0     		add	sp, sp, #20
 2066              		@ sp needed
 2067 00ba F0BD     		pop	{r4, r5, r6, r7, pc}
 2068              	.L316:
 2069 00bc 8027     		movs	r7, #128
 2070 00be FF25     		movs	r5, #255
 2071 00c0 7F04     		lsls	r7, r7, #17
 2072 00c2 CBE7     		b	.L311
 2073              	.L312:
 2074 00c4 0D4B     		ldr	r3, .L317+16
 2075 00c6 2A00     		movs	r2, r5
 2076 00c8 6363     		str	r3, [r4, #52]
 2077 00ca 8023     		movs	r3, #128
 2078 00cc 9B01     		lsls	r3, r3, #6
 2079 00ce 0093     		str	r3, [sp]
 2080 00d0 8023     		movs	r3, #128
 2081 00d2 2000     		movs	r0, r4
 2082 00d4 0299     		ldr	r1, [sp, #8]
 2083 00d6 9B04     		lsls	r3, r3, #18
 2084 00d8 FFF7FEFF 		bl	I2C_TransferConfig
 2085 00dc 039B     		ldr	r3, [sp, #12]
 2086 00de 2000     		movs	r0, r4
 2087 00e0 0121     		movs	r1, #1
 2088 00e2 1D70     		strb	r5, [r3]
 2089 00e4 FFF7FEFF 		bl	I2C_Enable_IRQ.isra.0
 2090 00e8 2800     		movs	r0, r5
 2091 00ea E5E7     		b	.L310
 2092              	.L318:
 2093              		.align	2
 2094              	.L317:
 2095 00ec 0000FFFF 		.word	-65536
 2096 00f0 00000000 		.word	I2C_Master_ISR_DMA
 2097 00f4 00000000 		.word	I2C_DMAMasterTransmitCplt
 2098 00f8 00000000 		.word	I2C_DMAError
 2099 00fc 00000000 		.word	I2C_Master_ISR_IT
 2101              		.section	.text.HAL_I2C_Master_Receive_DMA,"ax",%progbits
 2102              		.align	1
 2103              		.global	HAL_I2C_Master_Receive_DMA
 2104              		.syntax unified
 2105              		.code	16
 2106              		.thumb_func
 2107              		.fpu softvfp
 2109              	HAL_I2C_Master_Receive_DMA:
ARM GAS  /tmp/cchjT0Ct.s 			page 37


 2110              		@ args = 0, pretend = 0, frame = 8
 2111              		@ frame_needed = 0, uses_anonymous_args = 0
 2112 0000 9C46     		mov	ip, r3
 2113 0002 0300     		movs	r3, r0
 2114 0004 F0B5     		push	{r4, r5, r6, r7, lr}
 2115 0006 85B0     		sub	sp, sp, #20
 2116 0008 0291     		str	r1, [sp, #8]
 2117 000a 4133     		adds	r3, r3, #65
 2118 000c 1978     		ldrb	r1, [r3]
 2119 000e 0400     		movs	r4, r0
 2120 0010 0220     		movs	r0, #2
 2121 0012 2029     		cmp	r1, #32
 2122 0014 4FD1     		bne	.L320
 2123 0016 2168     		ldr	r1, [r4]
 2124 0018 8025     		movs	r5, #128
 2125 001a 8F69     		ldr	r7, [r1, #24]
 2126 001c 2D02     		lsls	r5, r5, #8
 2127 001e 3E00     		movs	r6, r7
 2128 0020 2E40     		ands	r6, r5
 2129 0022 2F42     		tst	r7, r5
 2130 0024 47D1     		bne	.L320
 2131 0026 2500     		movs	r5, r4
 2132 0028 4035     		adds	r5, r5, #64
 2133 002a 2F78     		ldrb	r7, [r5]
 2134 002c 012F     		cmp	r7, #1
 2135 002e 42D0     		beq	.L320
 2136 0030 0138     		subs	r0, r0, #1
 2137 0032 2870     		strb	r0, [r5]
 2138 0034 2130     		adds	r0, r0, #33
 2139 0036 1870     		strb	r0, [r3]
 2140 0038 1238     		subs	r0, r0, #18
 2141 003a 5870     		strb	r0, [r3, #1]
 2142 003c 6346     		mov	r3, ip
 2143 003e 6664     		str	r6, [r4, #68]
 2144 0040 6385     		strh	r3, [r4, #42]
 2145 0042 2A4B     		ldr	r3, .L327
 2146 0044 6262     		str	r2, [r4, #36]
 2147 0046 E362     		str	r3, [r4, #44]
 2148 0048 294B     		ldr	r3, .L327+4
 2149 004a 6363     		str	r3, [r4, #52]
 2150 004c 638D     		ldrh	r3, [r4, #42]
 2151 004e FF2B     		cmp	r3, #255
 2152 0050 33D8     		bhi	.L326
 2153 0052 8027     		movs	r7, #128
 2154 0054 658D     		ldrh	r5, [r4, #42]
 2155 0056 BF04     		lsls	r7, r7, #18
 2156 0058 ADB2     		uxth	r5, r5
 2157              	.L321:
 2158 005a 2300     		movs	r3, r4
 2159 005c 4033     		adds	r3, r3, #64
 2160 005e 2585     		strh	r5, [r4, #40]
 2161 0060 0393     		str	r3, [sp, #12]
 2162 0062 002D     		cmp	r5, #0
 2163 0064 2DD0     		beq	.L322
 2164 0066 0026     		movs	r6, #0
 2165 0068 E06B     		ldr	r0, [r4, #60]
 2166 006a 224B     		ldr	r3, .L327+8
ARM GAS  /tmp/cchjT0Ct.s 			page 38


 2167 006c 2431     		adds	r1, r1, #36
 2168 006e 8362     		str	r3, [r0, #40]
 2169 0070 214B     		ldr	r3, .L327+12
 2170 0072 C662     		str	r6, [r0, #44]
 2171 0074 0363     		str	r3, [r0, #48]
 2172 0076 4663     		str	r6, [r0, #52]
 2173 0078 2B00     		movs	r3, r5
 2174 007a FFF7FEFF 		bl	HAL_DMA_Start_IT
 2175 007e 9023     		movs	r3, #144
 2176 0080 228D     		ldrh	r2, [r4, #40]
 2177 0082 9B01     		lsls	r3, r3, #6
 2178 0084 2000     		movs	r0, r4
 2179 0086 0299     		ldr	r1, [sp, #8]
 2180 0088 D2B2     		uxtb	r2, r2
 2181 008a 0093     		str	r3, [sp]
 2182 008c 3B00     		movs	r3, r7
 2183 008e FFF7FEFF 		bl	I2C_TransferConfig
 2184 0092 638D     		ldrh	r3, [r4, #42]
 2185 0094 228D     		ldrh	r2, [r4, #40]
 2186 0096 1121     		movs	r1, #17
 2187 0098 9B1A     		subs	r3, r3, r2
 2188 009a 9BB2     		uxth	r3, r3
 2189 009c 6385     		strh	r3, [r4, #42]
 2190 009e 039B     		ldr	r3, [sp, #12]
 2191 00a0 2000     		movs	r0, r4
 2192 00a2 1E70     		strb	r6, [r3]
 2193 00a4 FFF7FEFF 		bl	I2C_Enable_IRQ.isra.0
 2194 00a8 8023     		movs	r3, #128
 2195 00aa 3000     		movs	r0, r6
 2196 00ac 2268     		ldr	r2, [r4]
 2197 00ae 1B02     		lsls	r3, r3, #8
 2198 00b0 1168     		ldr	r1, [r2]
 2199 00b2 0B43     		orrs	r3, r1
 2200 00b4 1360     		str	r3, [r2]
 2201              	.L320:
 2202 00b6 05B0     		add	sp, sp, #20
 2203              		@ sp needed
 2204 00b8 F0BD     		pop	{r4, r5, r6, r7, pc}
 2205              	.L326:
 2206 00ba 8027     		movs	r7, #128
 2207 00bc FF25     		movs	r5, #255
 2208 00be 7F04     		lsls	r7, r7, #17
 2209 00c0 CBE7     		b	.L321
 2210              	.L322:
 2211 00c2 0E4B     		ldr	r3, .L327+16
 2212 00c4 2A00     		movs	r2, r5
 2213 00c6 6363     		str	r3, [r4, #52]
 2214 00c8 9023     		movs	r3, #144
 2215 00ca 9B01     		lsls	r3, r3, #6
 2216 00cc 0093     		str	r3, [sp]
 2217 00ce 8023     		movs	r3, #128
 2218 00d0 2000     		movs	r0, r4
 2219 00d2 0299     		ldr	r1, [sp, #8]
 2220 00d4 9B04     		lsls	r3, r3, #18
 2221 00d6 FFF7FEFF 		bl	I2C_TransferConfig
 2222 00da 039B     		ldr	r3, [sp, #12]
 2223 00dc 2000     		movs	r0, r4
ARM GAS  /tmp/cchjT0Ct.s 			page 39


 2224 00de 0121     		movs	r1, #1
 2225 00e0 1D70     		strb	r5, [r3]
 2226 00e2 FFF7FEFF 		bl	I2C_Enable_IRQ.isra.0
 2227 00e6 2800     		movs	r0, r5
 2228 00e8 E5E7     		b	.L320
 2229              	.L328:
 2230 00ea C046     		.align	2
 2231              	.L327:
 2232 00ec 0000FFFF 		.word	-65536
 2233 00f0 00000000 		.word	I2C_Master_ISR_DMA
 2234 00f4 00000000 		.word	I2C_DMAMasterReceiveCplt
 2235 00f8 00000000 		.word	I2C_DMAError
 2236 00fc 00000000 		.word	I2C_Master_ISR_IT
 2238              		.section	.text.HAL_I2C_Slave_Transmit_DMA,"ax",%progbits
 2239              		.align	1
 2240              		.global	HAL_I2C_Slave_Transmit_DMA
 2241              		.syntax unified
 2242              		.code	16
 2243              		.thumb_func
 2244              		.fpu softvfp
 2246              	HAL_I2C_Slave_Transmit_DMA:
 2247              		@ args = 0, pretend = 0, frame = 0
 2248              		@ frame_needed = 0, uses_anonymous_args = 0
 2249 0000 F8B5     		push	{r3, r4, r5, r6, r7, lr}
 2250 0002 0300     		movs	r3, r0
 2251 0004 4133     		adds	r3, r3, #65
 2252 0006 1D78     		ldrb	r5, [r3]
 2253 0008 0400     		movs	r4, r0
 2254 000a EFB2     		uxtb	r7, r5
 2255 000c 0220     		movs	r0, #2
 2256 000e 202D     		cmp	r5, #32
 2257 0010 36D1     		bne	.L330
 2258 0012 0138     		subs	r0, r0, #1
 2259 0014 0029     		cmp	r1, #0
 2260 0016 33D0     		beq	.L330
 2261 0018 002A     		cmp	r2, #0
 2262 001a 31D0     		beq	.L330
 2263 001c 2600     		movs	r6, r4
 2264 001e 4036     		adds	r6, r6, #64
 2265 0020 3578     		ldrb	r5, [r6]
 2266 0022 0130     		adds	r0, r0, #1
 2267 0024 012D     		cmp	r5, #1
 2268 0026 2BD0     		beq	.L330
 2269 0028 0025     		movs	r5, #0
 2270 002a 0138     		subs	r0, r0, #1
 2271 002c 3070     		strb	r0, [r6]
 2272 002e 2030     		adds	r0, r0, #32
 2273 0030 1870     		strb	r0, [r3]
 2274 0032 5F70     		strb	r7, [r3, #1]
 2275 0034 6564     		str	r5, [r4, #68]
 2276 0036 6285     		strh	r2, [r4, #42]
 2277 0038 124A     		ldr	r2, .L335
 2278 003a 638D     		ldrh	r3, [r4, #42]
 2279 003c E262     		str	r2, [r4, #44]
 2280 003e 124A     		ldr	r2, .L335+4
 2281 0040 A06B     		ldr	r0, [r4, #56]
 2282 0042 6263     		str	r2, [r4, #52]
ARM GAS  /tmp/cchjT0Ct.s 			page 40


 2283 0044 114A     		ldr	r2, .L335+8
 2284 0046 9BB2     		uxth	r3, r3
 2285 0048 6162     		str	r1, [r4, #36]
 2286 004a 2385     		strh	r3, [r4, #40]
 2287 004c 8262     		str	r2, [r0, #40]
 2288 004e 104A     		ldr	r2, .L335+12
 2289 0050 C562     		str	r5, [r0, #44]
 2290 0052 0263     		str	r2, [r0, #48]
 2291 0054 2268     		ldr	r2, [r4]
 2292 0056 4563     		str	r5, [r0, #52]
 2293 0058 2832     		adds	r2, r2, #40
 2294 005a FFF7FEFF 		bl	HAL_DMA_Start_IT
 2295 005e 2268     		ldr	r2, [r4]
 2296 0060 0C49     		ldr	r1, .L335+16
 2297 0062 5368     		ldr	r3, [r2, #4]
 2298 0064 2000     		movs	r0, r4
 2299 0066 0B40     		ands	r3, r1
 2300 0068 5360     		str	r3, [r2, #4]
 2301 006a 0421     		movs	r1, #4
 2302 006c 3570     		strb	r5, [r6]
 2303 006e FFF7FEFF 		bl	I2C_Enable_IRQ.isra.0
 2304 0072 8023     		movs	r3, #128
 2305 0074 2800     		movs	r0, r5
 2306 0076 2268     		ldr	r2, [r4]
 2307 0078 DB01     		lsls	r3, r3, #7
 2308 007a 1168     		ldr	r1, [r2]
 2309 007c 0B43     		orrs	r3, r1
 2310 007e 1360     		str	r3, [r2]
 2311              	.L330:
 2312              		@ sp needed
 2313 0080 F8BD     		pop	{r3, r4, r5, r6, r7, pc}
 2314              	.L336:
 2315 0082 C046     		.align	2
 2316              	.L335:
 2317 0084 0000FFFF 		.word	-65536
 2318 0088 00000000 		.word	I2C_Slave_ISR_DMA
 2319 008c 00000000 		.word	I2C_DMASlaveTransmitCplt
 2320 0090 00000000 		.word	I2C_DMAError
 2321 0094 FF7FFFFF 		.word	-32769
 2323              		.section	.text.HAL_I2C_Slave_Receive_DMA,"ax",%progbits
 2324              		.align	1
 2325              		.global	HAL_I2C_Slave_Receive_DMA
 2326              		.syntax unified
 2327              		.code	16
 2328              		.thumb_func
 2329              		.fpu softvfp
 2331              	HAL_I2C_Slave_Receive_DMA:
 2332              		@ args = 0, pretend = 0, frame = 0
 2333              		@ frame_needed = 0, uses_anonymous_args = 0
 2334 0000 F8B5     		push	{r3, r4, r5, r6, r7, lr}
 2335 0002 0300     		movs	r3, r0
 2336 0004 4133     		adds	r3, r3, #65
 2337 0006 0F00     		movs	r7, r1
 2338 0008 1978     		ldrb	r1, [r3]
 2339 000a 0400     		movs	r4, r0
 2340 000c CDB2     		uxtb	r5, r1
 2341 000e 0220     		movs	r0, #2
ARM GAS  /tmp/cchjT0Ct.s 			page 41


 2342 0010 2029     		cmp	r1, #32
 2343 0012 37D1     		bne	.L338
 2344 0014 0138     		subs	r0, r0, #1
 2345 0016 002F     		cmp	r7, #0
 2346 0018 34D0     		beq	.L338
 2347 001a 002A     		cmp	r2, #0
 2348 001c 32D0     		beq	.L338
 2349 001e 2600     		movs	r6, r4
 2350 0020 4036     		adds	r6, r6, #64
 2351 0022 3178     		ldrb	r1, [r6]
 2352 0024 0130     		adds	r0, r0, #1
 2353 0026 0129     		cmp	r1, #1
 2354 0028 2CD0     		beq	.L338
 2355 002a 0121     		movs	r1, #1
 2356 002c 3170     		strb	r1, [r6]
 2357 002e 2131     		adds	r1, r1, #33
 2358 0030 1970     		strb	r1, [r3]
 2359 0032 5D70     		strb	r5, [r3, #1]
 2360 0034 0025     		movs	r5, #0
 2361 0036 6564     		str	r5, [r4, #68]
 2362 0038 6285     		strh	r2, [r4, #42]
 2363 003a 134A     		ldr	r2, .L343
 2364 003c 638D     		ldrh	r3, [r4, #42]
 2365 003e E262     		str	r2, [r4, #44]
 2366 0040 124A     		ldr	r2, .L343+4
 2367 0042 E06B     		ldr	r0, [r4, #60]
 2368 0044 6263     		str	r2, [r4, #52]
 2369 0046 124A     		ldr	r2, .L343+8
 2370 0048 9BB2     		uxth	r3, r3
 2371 004a 2385     		strh	r3, [r4, #40]
 2372 004c 6762     		str	r7, [r4, #36]
 2373 004e 2168     		ldr	r1, [r4]
 2374 0050 8262     		str	r2, [r0, #40]
 2375 0052 104A     		ldr	r2, .L343+12
 2376 0054 2431     		adds	r1, r1, #36
 2377 0056 0263     		str	r2, [r0, #48]
 2378 0058 C562     		str	r5, [r0, #44]
 2379 005a 3A00     		movs	r2, r7
 2380 005c 4563     		str	r5, [r0, #52]
 2381 005e FFF7FEFF 		bl	HAL_DMA_Start_IT
 2382 0062 2268     		ldr	r2, [r4]
 2383 0064 0C49     		ldr	r1, .L343+16
 2384 0066 5368     		ldr	r3, [r2, #4]
 2385 0068 2000     		movs	r0, r4
 2386 006a 0B40     		ands	r3, r1
 2387 006c 5360     		str	r3, [r2, #4]
 2388 006e 0421     		movs	r1, #4
 2389 0070 3570     		strb	r5, [r6]
 2390 0072 FFF7FEFF 		bl	I2C_Enable_IRQ.isra.0
 2391 0076 8023     		movs	r3, #128
 2392 0078 2800     		movs	r0, r5
 2393 007a 2268     		ldr	r2, [r4]
 2394 007c 1B02     		lsls	r3, r3, #8
 2395 007e 1168     		ldr	r1, [r2]
 2396 0080 0B43     		orrs	r3, r1
 2397 0082 1360     		str	r3, [r2]
 2398              	.L338:
ARM GAS  /tmp/cchjT0Ct.s 			page 42


 2399              		@ sp needed
 2400 0084 F8BD     		pop	{r3, r4, r5, r6, r7, pc}
 2401              	.L344:
 2402 0086 C046     		.align	2
 2403              	.L343:
 2404 0088 0000FFFF 		.word	-65536
 2405 008c 00000000 		.word	I2C_Slave_ISR_DMA
 2406 0090 00000000 		.word	I2C_DMASlaveReceiveCplt
 2407 0094 00000000 		.word	I2C_DMAError
 2408 0098 FF7FFFFF 		.word	-32769
 2410              		.section	.text.HAL_I2C_Mem_Write,"ax",%progbits
 2411              		.align	1
 2412              		.global	HAL_I2C_Mem_Write
 2413              		.syntax unified
 2414              		.code	16
 2415              		.thumb_func
 2416              		.fpu softvfp
 2418              	HAL_I2C_Mem_Write:
 2419              		@ args = 12, pretend = 0, frame = 24
 2420              		@ frame_needed = 0, uses_anonymous_args = 0
 2421 0000 F0B5     		push	{r4, r5, r6, r7, lr}
 2422 0002 89B0     		sub	sp, sp, #36
 2423 0004 0793     		str	r3, [sp, #28]
 2424 0006 0EAB     		add	r3, sp, #56
 2425 0008 0692     		str	r2, [sp, #24]
 2426 000a 04CB     		ldmia	r3!, {r2}
 2427 000c 0400     		movs	r4, r0
 2428 000e 1B88     		ldrh	r3, [r3]
 2429 0010 0392     		str	r2, [sp, #12]
 2430 0012 0493     		str	r3, [sp, #16]
 2431 0014 0300     		movs	r3, r0
 2432 0016 4133     		adds	r3, r3, #65
 2433 0018 0593     		str	r3, [sp, #20]
 2434 001a 1B78     		ldrb	r3, [r3]
 2435 001c 0F00     		movs	r7, r1
 2436 001e 0220     		movs	r0, #2
 2437 0020 202B     		cmp	r3, #32
 2438 0022 02D1     		bne	.L346
 2439 0024 002A     		cmp	r2, #0
 2440 0026 02D1     		bne	.L347
 2441              	.L377:
 2442 0028 0120     		movs	r0, #1
 2443              	.L346:
 2444 002a 09B0     		add	sp, sp, #36
 2445              		@ sp needed
 2446 002c F0BD     		pop	{r4, r5, r6, r7, pc}
 2447              	.L347:
 2448 002e 049B     		ldr	r3, [sp, #16]
 2449 0030 002B     		cmp	r3, #0
 2450 0032 F9D0     		beq	.L377
 2451 0034 2300     		movs	r3, r4
 2452 0036 4033     		adds	r3, r3, #64
 2453 0038 0293     		str	r3, [sp, #8]
 2454 003a 1B78     		ldrb	r3, [r3]
 2455 003c 0220     		movs	r0, #2
 2456 003e 012B     		cmp	r3, #1
 2457 0040 F3D0     		beq	.L346
ARM GAS  /tmp/cchjT0Ct.s 			page 43


 2458 0042 0122     		movs	r2, #1
 2459 0044 029B     		ldr	r3, [sp, #8]
 2460 0046 1A70     		strb	r2, [r3]
 2461 0048 FFF7FEFF 		bl	HAL_GetTick
 2462 004c 8021     		movs	r1, #128
 2463 004e 0090     		str	r0, [sp]
 2464 0050 0500     		movs	r5, r0
 2465 0052 1923     		movs	r3, #25
 2466 0054 0122     		movs	r2, #1
 2467 0056 2000     		movs	r0, r4
 2468 0058 0902     		lsls	r1, r1, #8
 2469 005a FFF7FEFF 		bl	I2C_WaitOnFlagUntilTimeout
 2470 005e 061E     		subs	r6, r0, #0
 2471 0060 21D1     		bne	.L349
 2472 0062 2123     		movs	r3, #33
 2473 0064 059A     		ldr	r2, [sp, #20]
 2474 0066 3900     		movs	r1, r7
 2475 0068 1370     		strb	r3, [r2]
 2476 006a 2300     		movs	r3, r4
 2477 006c 4233     		adds	r3, r3, #66
 2478 006e 0593     		str	r3, [sp, #20]
 2479 0070 4023     		movs	r3, #64
 2480 0072 059A     		ldr	r2, [sp, #20]
 2481 0074 1370     		strb	r3, [r2]
 2482 0076 039B     		ldr	r3, [sp, #12]
 2483 0078 6064     		str	r0, [r4, #68]
 2484 007a 6362     		str	r3, [r4, #36]
 2485 007c 049B     		ldr	r3, [sp, #16]
 2486 007e 6063     		str	r0, [r4, #52]
 2487 0080 6385     		strh	r3, [r4, #42]
 2488 0082 109B     		ldr	r3, [sp, #64]
 2489 0084 2000     		movs	r0, r4
 2490 0086 0093     		str	r3, [sp]
 2491 0088 069A     		ldr	r2, [sp, #24]
 2492 008a 079B     		ldr	r3, [sp, #28]
 2493 008c 0195     		str	r5, [sp, #4]
 2494 008e FFF7FEFF 		bl	I2C_RequestMemoryWrite
 2495 0092 0028     		cmp	r0, #0
 2496 0094 09D0     		beq	.L350
 2497 0096 636C     		ldr	r3, [r4, #68]
 2498 0098 042B     		cmp	r3, #4
 2499 009a 02D1     		bne	.L351
 2500 009c 029B     		ldr	r3, [sp, #8]
 2501 009e 1E70     		strb	r6, [r3]
 2502 00a0 C2E7     		b	.L377
 2503              	.L351:
 2504 00a2 029B     		ldr	r3, [sp, #8]
 2505 00a4 1E70     		strb	r6, [r3]
 2506              	.L349:
 2507 00a6 0320     		movs	r0, #3
 2508 00a8 BFE7     		b	.L346
 2509              	.L350:
 2510 00aa 638D     		ldrh	r3, [r4, #42]
 2511 00ac FF2B     		cmp	r3, #255
 2512 00ae 15D9     		bls	.L352
 2513 00b0 FF22     		movs	r2, #255
 2514 00b2 8023     		movs	r3, #128
ARM GAS  /tmp/cchjT0Ct.s 			page 44


 2515 00b4 2285     		strh	r2, [r4, #40]
 2516 00b6 5B04     		lsls	r3, r3, #17
 2517 00b8 0090     		str	r0, [sp]
 2518              	.L375:
 2519 00ba 3900     		movs	r1, r7
 2520 00bc 2000     		movs	r0, r4
 2521 00be 8026     		movs	r6, #128
 2522 00c0 FFF7FEFF 		bl	I2C_TransferConfig
 2523 00c4 B604     		lsls	r6, r6, #18
 2524              	.L353:
 2525 00c6 2A00     		movs	r2, r5
 2526 00c8 2000     		movs	r0, r4
 2527 00ca 1099     		ldr	r1, [sp, #64]
 2528 00cc FFF7FEFF 		bl	I2C_WaitOnTXISFlagUntilTimeout
 2529 00d0 0028     		cmp	r0, #0
 2530 00d2 0BD0     		beq	.L355
 2531              	.L374:
 2532 00d4 636C     		ldr	r3, [r4, #68]
 2533 00d6 042B     		cmp	r3, #4
 2534 00d8 E5D1     		bne	.L349
 2535 00da A5E7     		b	.L377
 2536              	.L352:
 2537 00dc 8023     		movs	r3, #128
 2538 00de 628D     		ldrh	r2, [r4, #42]
 2539 00e0 9B04     		lsls	r3, r3, #18
 2540 00e2 92B2     		uxth	r2, r2
 2541 00e4 2285     		strh	r2, [r4, #40]
 2542 00e6 D2B2     		uxtb	r2, r2
 2543 00e8 0090     		str	r0, [sp]
 2544 00ea E6E7     		b	.L375
 2545              	.L355:
 2546 00ec 636A     		ldr	r3, [r4, #36]
 2547 00ee 5A1C     		adds	r2, r3, #1
 2548 00f0 6262     		str	r2, [r4, #36]
 2549 00f2 1B78     		ldrb	r3, [r3]
 2550 00f4 2268     		ldr	r2, [r4]
 2551 00f6 9362     		str	r3, [r2, #40]
 2552 00f8 638D     		ldrh	r3, [r4, #42]
 2553 00fa 228D     		ldrh	r2, [r4, #40]
 2554 00fc 013B     		subs	r3, r3, #1
 2555 00fe 013A     		subs	r2, r2, #1
 2556 0100 9BB2     		uxth	r3, r3
 2557 0102 92B2     		uxth	r2, r2
 2558 0104 6385     		strh	r3, [r4, #42]
 2559 0106 2285     		strh	r2, [r4, #40]
 2560 0108 002A     		cmp	r2, #0
 2561 010a 17D1     		bne	.L356
 2562 010c 638D     		ldrh	r3, [r4, #42]
 2563 010e 002B     		cmp	r3, #0
 2564 0110 14D0     		beq	.L356
 2565 0112 8021     		movs	r1, #128
 2566 0114 2000     		movs	r0, r4
 2567 0116 109B     		ldr	r3, [sp, #64]
 2568 0118 0095     		str	r5, [sp]
 2569 011a FFF7FEFF 		bl	I2C_WaitOnFlagUntilTimeout
 2570 011e 0028     		cmp	r0, #0
 2571 0120 C1D1     		bne	.L349
ARM GAS  /tmp/cchjT0Ct.s 			page 45


 2572 0122 638D     		ldrh	r3, [r4, #42]
 2573 0124 FF2B     		cmp	r3, #255
 2574 0126 22D9     		bls	.L357
 2575 0128 FF23     		movs	r3, #255
 2576 012a 2385     		strh	r3, [r4, #40]
 2577 012c 8023     		movs	r3, #128
 2578 012e FF22     		movs	r2, #255
 2579 0130 0090     		str	r0, [sp]
 2580 0132 5B04     		lsls	r3, r3, #17
 2581              	.L376:
 2582 0134 3900     		movs	r1, r7
 2583 0136 2000     		movs	r0, r4
 2584 0138 FFF7FEFF 		bl	I2C_TransferConfig
 2585              	.L356:
 2586 013c 638D     		ldrh	r3, [r4, #42]
 2587 013e 002B     		cmp	r3, #0
 2588 0140 C1D1     		bne	.L353
 2589 0142 2A00     		movs	r2, r5
 2590 0144 2000     		movs	r0, r4
 2591 0146 1099     		ldr	r1, [sp, #64]
 2592 0148 FFF7FEFF 		bl	I2C_WaitOnSTOPFlagUntilTimeout
 2593 014c 0028     		cmp	r0, #0
 2594 014e C1D1     		bne	.L374
 2595 0150 2021     		movs	r1, #32
 2596 0152 2368     		ldr	r3, [r4]
 2597 0154 094D     		ldr	r5, .L378
 2598 0156 D961     		str	r1, [r3, #28]
 2599 0158 5A68     		ldr	r2, [r3, #4]
 2600 015a 2A40     		ands	r2, r5
 2601 015c 5A60     		str	r2, [r3, #4]
 2602 015e 2300     		movs	r3, r4
 2603 0160 4133     		adds	r3, r3, #65
 2604 0162 1970     		strb	r1, [r3]
 2605 0164 059B     		ldr	r3, [sp, #20]
 2606 0166 4034     		adds	r4, r4, #64
 2607 0168 1870     		strb	r0, [r3]
 2608 016a 2070     		strb	r0, [r4]
 2609 016c 5DE7     		b	.L346
 2610              	.L357:
 2611 016e 628D     		ldrh	r2, [r4, #42]
 2612 0170 3300     		movs	r3, r6
 2613 0172 92B2     		uxth	r2, r2
 2614 0174 2285     		strh	r2, [r4, #40]
 2615 0176 D2B2     		uxtb	r2, r2
 2616 0178 0090     		str	r0, [sp]
 2617 017a DBE7     		b	.L376
 2618              	.L379:
 2619              		.align	2
 2620              	.L378:
 2621 017c 00E800FE 		.word	-33495040
 2623              		.section	.text.HAL_I2C_Mem_Read,"ax",%progbits
 2624              		.align	1
 2625              		.global	HAL_I2C_Mem_Read
 2626              		.syntax unified
 2627              		.code	16
 2628              		.thumb_func
 2629              		.fpu softvfp
ARM GAS  /tmp/cchjT0Ct.s 			page 46


 2631              	HAL_I2C_Mem_Read:
 2632              		@ args = 12, pretend = 0, frame = 24
 2633              		@ frame_needed = 0, uses_anonymous_args = 0
 2634 0000 F0B5     		push	{r4, r5, r6, r7, lr}
 2635 0002 89B0     		sub	sp, sp, #36
 2636 0004 0793     		str	r3, [sp, #28]
 2637 0006 0EAB     		add	r3, sp, #56
 2638 0008 0692     		str	r2, [sp, #24]
 2639 000a 04CB     		ldmia	r3!, {r2}
 2640 000c 0400     		movs	r4, r0
 2641 000e 1B88     		ldrh	r3, [r3]
 2642 0010 0392     		str	r2, [sp, #12]
 2643 0012 0493     		str	r3, [sp, #16]
 2644 0014 0300     		movs	r3, r0
 2645 0016 4133     		adds	r3, r3, #65
 2646 0018 0593     		str	r3, [sp, #20]
 2647 001a 1B78     		ldrb	r3, [r3]
 2648 001c 0E00     		movs	r6, r1
 2649 001e 0220     		movs	r0, #2
 2650 0020 202B     		cmp	r3, #32
 2651 0022 02D1     		bne	.L381
 2652 0024 002A     		cmp	r2, #0
 2653 0026 02D1     		bne	.L382
 2654              	.L407:
 2655 0028 0120     		movs	r0, #1
 2656              	.L381:
 2657 002a 09B0     		add	sp, sp, #36
 2658              		@ sp needed
 2659 002c F0BD     		pop	{r4, r5, r6, r7, pc}
 2660              	.L382:
 2661 002e 049B     		ldr	r3, [sp, #16]
 2662 0030 002B     		cmp	r3, #0
 2663 0032 F9D0     		beq	.L407
 2664 0034 2300     		movs	r3, r4
 2665 0036 4033     		adds	r3, r3, #64
 2666 0038 0293     		str	r3, [sp, #8]
 2667 003a 1B78     		ldrb	r3, [r3]
 2668 003c 0220     		movs	r0, #2
 2669 003e 012B     		cmp	r3, #1
 2670 0040 F3D0     		beq	.L381
 2671 0042 0122     		movs	r2, #1
 2672 0044 029B     		ldr	r3, [sp, #8]
 2673 0046 1A70     		strb	r2, [r3]
 2674 0048 FFF7FEFF 		bl	HAL_GetTick
 2675 004c 8021     		movs	r1, #128
 2676 004e 0090     		str	r0, [sp]
 2677 0050 0500     		movs	r5, r0
 2678 0052 1923     		movs	r3, #25
 2679 0054 0122     		movs	r2, #1
 2680 0056 2000     		movs	r0, r4
 2681 0058 0902     		lsls	r1, r1, #8
 2682 005a FFF7FEFF 		bl	I2C_WaitOnFlagUntilTimeout
 2683 005e 071E     		subs	r7, r0, #0
 2684 0060 21D1     		bne	.L384
 2685 0062 2223     		movs	r3, #34
 2686 0064 059A     		ldr	r2, [sp, #20]
 2687 0066 3100     		movs	r1, r6
ARM GAS  /tmp/cchjT0Ct.s 			page 47


 2688 0068 1370     		strb	r3, [r2]
 2689 006a 2300     		movs	r3, r4
 2690 006c 4233     		adds	r3, r3, #66
 2691 006e 0593     		str	r3, [sp, #20]
 2692 0070 4023     		movs	r3, #64
 2693 0072 059A     		ldr	r2, [sp, #20]
 2694 0074 1370     		strb	r3, [r2]
 2695 0076 039B     		ldr	r3, [sp, #12]
 2696 0078 6064     		str	r0, [r4, #68]
 2697 007a 6362     		str	r3, [r4, #36]
 2698 007c 049B     		ldr	r3, [sp, #16]
 2699 007e 6063     		str	r0, [r4, #52]
 2700 0080 6385     		strh	r3, [r4, #42]
 2701 0082 109B     		ldr	r3, [sp, #64]
 2702 0084 2000     		movs	r0, r4
 2703 0086 0093     		str	r3, [sp]
 2704 0088 069A     		ldr	r2, [sp, #24]
 2705 008a 079B     		ldr	r3, [sp, #28]
 2706 008c 0195     		str	r5, [sp, #4]
 2707 008e FFF7FEFF 		bl	I2C_RequestMemoryRead
 2708 0092 0028     		cmp	r0, #0
 2709 0094 09D0     		beq	.L385
 2710 0096 636C     		ldr	r3, [r4, #68]
 2711 0098 042B     		cmp	r3, #4
 2712 009a 02D1     		bne	.L386
 2713 009c 029B     		ldr	r3, [sp, #8]
 2714 009e 1F70     		strb	r7, [r3]
 2715 00a0 C2E7     		b	.L407
 2716              	.L386:
 2717 00a2 029B     		ldr	r3, [sp, #8]
 2718 00a4 1F70     		strb	r7, [r3]
 2719              	.L384:
 2720 00a6 0320     		movs	r0, #3
 2721 00a8 BFE7     		b	.L381
 2722              	.L385:
 2723 00aa 9023     		movs	r3, #144
 2724 00ac 628D     		ldrh	r2, [r4, #42]
 2725 00ae 9B01     		lsls	r3, r3, #6
 2726 00b0 FF2A     		cmp	r2, #255
 2727 00b2 49D9     		bls	.L387
 2728 00b4 FF22     		movs	r2, #255
 2729 00b6 2285     		strh	r2, [r4, #40]
 2730 00b8 0093     		str	r3, [sp]
 2731 00ba 8023     		movs	r3, #128
 2732 00bc 5B04     		lsls	r3, r3, #17
 2733              	.L405:
 2734 00be 3100     		movs	r1, r6
 2735 00c0 2000     		movs	r0, r4
 2736 00c2 8027     		movs	r7, #128
 2737 00c4 FFF7FEFF 		bl	I2C_TransferConfig
 2738 00c8 BF04     		lsls	r7, r7, #18
 2739              	.L388:
 2740 00ca 0022     		movs	r2, #0
 2741 00cc 0421     		movs	r1, #4
 2742 00ce 2000     		movs	r0, r4
 2743 00d0 109B     		ldr	r3, [sp, #64]
 2744 00d2 0095     		str	r5, [sp]
ARM GAS  /tmp/cchjT0Ct.s 			page 48


 2745 00d4 FFF7FEFF 		bl	I2C_WaitOnFlagUntilTimeout
 2746 00d8 0028     		cmp	r0, #0
 2747 00da E4D1     		bne	.L384
 2748 00dc 2368     		ldr	r3, [r4]
 2749 00de 5A6A     		ldr	r2, [r3, #36]
 2750 00e0 636A     		ldr	r3, [r4, #36]
 2751 00e2 591C     		adds	r1, r3, #1
 2752 00e4 6162     		str	r1, [r4, #36]
 2753 00e6 1A70     		strb	r2, [r3]
 2754 00e8 228D     		ldrh	r2, [r4, #40]
 2755 00ea 638D     		ldrh	r3, [r4, #42]
 2756 00ec 013A     		subs	r2, r2, #1
 2757 00ee 013B     		subs	r3, r3, #1
 2758 00f0 92B2     		uxth	r2, r2
 2759 00f2 9BB2     		uxth	r3, r3
 2760 00f4 2285     		strh	r2, [r4, #40]
 2761 00f6 6385     		strh	r3, [r4, #42]
 2762 00f8 002A     		cmp	r2, #0
 2763 00fa 17D1     		bne	.L390
 2764 00fc 638D     		ldrh	r3, [r4, #42]
 2765 00fe 002B     		cmp	r3, #0
 2766 0100 14D0     		beq	.L390
 2767 0102 8021     		movs	r1, #128
 2768 0104 2000     		movs	r0, r4
 2769 0106 109B     		ldr	r3, [sp, #64]
 2770 0108 0095     		str	r5, [sp]
 2771 010a FFF7FEFF 		bl	I2C_WaitOnFlagUntilTimeout
 2772 010e 0028     		cmp	r0, #0
 2773 0110 C9D1     		bne	.L384
 2774 0112 638D     		ldrh	r3, [r4, #42]
 2775 0114 FF2B     		cmp	r3, #255
 2776 0116 1FD9     		bls	.L391
 2777 0118 FF23     		movs	r3, #255
 2778 011a 2385     		strh	r3, [r4, #40]
 2779 011c 8023     		movs	r3, #128
 2780 011e FF22     		movs	r2, #255
 2781 0120 0090     		str	r0, [sp]
 2782 0122 5B04     		lsls	r3, r3, #17
 2783              	.L406:
 2784 0124 3100     		movs	r1, r6
 2785 0126 2000     		movs	r0, r4
 2786 0128 FFF7FEFF 		bl	I2C_TransferConfig
 2787              	.L390:
 2788 012c 638D     		ldrh	r3, [r4, #42]
 2789 012e 002B     		cmp	r3, #0
 2790 0130 CBD1     		bne	.L388
 2791 0132 2A00     		movs	r2, r5
 2792 0134 2000     		movs	r0, r4
 2793 0136 1099     		ldr	r1, [sp, #64]
 2794 0138 FFF7FEFF 		bl	I2C_WaitOnSTOPFlagUntilTimeout
 2795 013c 0028     		cmp	r0, #0
 2796 013e 12D0     		beq	.L392
 2797 0140 636C     		ldr	r3, [r4, #68]
 2798 0142 042B     		cmp	r3, #4
 2799 0144 AFD1     		bne	.L384
 2800 0146 6FE7     		b	.L407
 2801              	.L387:
ARM GAS  /tmp/cchjT0Ct.s 			page 49


 2802 0148 628D     		ldrh	r2, [r4, #42]
 2803 014a 92B2     		uxth	r2, r2
 2804 014c 2285     		strh	r2, [r4, #40]
 2805 014e 0093     		str	r3, [sp]
 2806 0150 8023     		movs	r3, #128
 2807 0152 D2B2     		uxtb	r2, r2
 2808 0154 9B04     		lsls	r3, r3, #18
 2809 0156 B2E7     		b	.L405
 2810              	.L391:
 2811 0158 628D     		ldrh	r2, [r4, #42]
 2812 015a 3B00     		movs	r3, r7
 2813 015c 92B2     		uxth	r2, r2
 2814 015e 2285     		strh	r2, [r4, #40]
 2815 0160 D2B2     		uxtb	r2, r2
 2816 0162 0090     		str	r0, [sp]
 2817 0164 DEE7     		b	.L406
 2818              	.L392:
 2819 0166 2021     		movs	r1, #32
 2820 0168 2368     		ldr	r3, [r4]
 2821 016a 064D     		ldr	r5, .L408
 2822 016c D961     		str	r1, [r3, #28]
 2823 016e 5A68     		ldr	r2, [r3, #4]
 2824 0170 2A40     		ands	r2, r5
 2825 0172 5A60     		str	r2, [r3, #4]
 2826 0174 2300     		movs	r3, r4
 2827 0176 4133     		adds	r3, r3, #65
 2828 0178 1970     		strb	r1, [r3]
 2829 017a 059B     		ldr	r3, [sp, #20]
 2830 017c 4034     		adds	r4, r4, #64
 2831 017e 1870     		strb	r0, [r3]
 2832 0180 2070     		strb	r0, [r4]
 2833 0182 52E7     		b	.L381
 2834              	.L409:
 2835              		.align	2
 2836              	.L408:
 2837 0184 00E800FE 		.word	-33495040
 2839              		.section	.text.HAL_I2C_Mem_Write_IT,"ax",%progbits
 2840              		.align	1
 2841              		.global	HAL_I2C_Mem_Write_IT
 2842              		.syntax unified
 2843              		.code	16
 2844              		.thumb_func
 2845              		.fpu softvfp
 2847              	HAL_I2C_Mem_Write_IT:
 2848              		@ args = 8, pretend = 0, frame = 24
 2849              		@ frame_needed = 0, uses_anonymous_args = 0
 2850 0000 F0B5     		push	{r4, r5, r6, r7, lr}
 2851 0002 0600     		movs	r6, r0
 2852 0004 89B0     		sub	sp, sp, #36
 2853 0006 0693     		str	r3, [sp, #24]
 2854 0008 0EAB     		add	r3, sp, #56
 2855 000a 80CB     		ldmia	r3!, {r7}
 2856 000c 0391     		str	r1, [sp, #12]
 2857 000e 1B88     		ldrh	r3, [r3]
 2858 0010 0592     		str	r2, [sp, #20]
 2859 0012 0493     		str	r3, [sp, #16]
 2860 0014 4136     		adds	r6, r6, #65
ARM GAS  /tmp/cchjT0Ct.s 			page 50


 2861 0016 3378     		ldrb	r3, [r6]
 2862 0018 0400     		movs	r4, r0
 2863 001a 0225     		movs	r5, #2
 2864 001c 202B     		cmp	r3, #32
 2865 001e 44D1     		bne	.L411
 2866 0020 013D     		subs	r5, r5, #1
 2867 0022 002F     		cmp	r7, #0
 2868 0024 41D0     		beq	.L411
 2869 0026 049B     		ldr	r3, [sp, #16]
 2870 0028 002B     		cmp	r3, #0
 2871 002a 3ED0     		beq	.L411
 2872 002c 0368     		ldr	r3, [r0]
 2873 002e 0135     		adds	r5, r5, #1
 2874 0030 9A69     		ldr	r2, [r3, #24]
 2875 0032 8023     		movs	r3, #128
 2876 0034 1100     		movs	r1, r2
 2877 0036 1B02     		lsls	r3, r3, #8
 2878 0038 1940     		ands	r1, r3
 2879 003a 0791     		str	r1, [sp, #28]
 2880 003c 1A42     		tst	r2, r3
 2881 003e 34D1     		bne	.L411
 2882 0040 0300     		movs	r3, r0
 2883 0042 4033     		adds	r3, r3, #64
 2884 0044 1A78     		ldrb	r2, [r3]
 2885 0046 012A     		cmp	r2, #1
 2886 0048 2FD0     		beq	.L411
 2887 004a 0122     		movs	r2, #1
 2888 004c 1A70     		strb	r2, [r3]
 2889 004e FFF7FEFF 		bl	HAL_GetTick
 2890 0052 2123     		movs	r3, #33
 2891 0054 3370     		strb	r3, [r6]
 2892 0056 2300     		movs	r3, r4
 2893 0058 4022     		movs	r2, #64
 2894 005a 4233     		adds	r3, r3, #66
 2895 005c 1A70     		strb	r2, [r3]
 2896 005e 079B     		ldr	r3, [sp, #28]
 2897 0060 6762     		str	r7, [r4, #36]
 2898 0062 6364     		str	r3, [r4, #68]
 2899 0064 049B     		ldr	r3, [sp, #16]
 2900 0066 6385     		strh	r3, [r4, #42]
 2901 0068 1A4B     		ldr	r3, .L421
 2902 006a E362     		str	r3, [r4, #44]
 2903 006c 1A4B     		ldr	r3, .L421+4
 2904 006e 6363     		str	r3, [r4, #52]
 2905 0070 638D     		ldrh	r3, [r4, #42]
 2906 0072 FF2B     		cmp	r3, #255
 2907 0074 1CD8     		bhi	.L420
 2908 0076 8027     		movs	r7, #128
 2909 0078 638D     		ldrh	r3, [r4, #42]
 2910 007a BF04     		lsls	r7, r7, #18
 2911 007c 9BB2     		uxth	r3, r3
 2912              	.L412:
 2913 007e 2385     		strh	r3, [r4, #40]
 2914 0080 1923     		movs	r3, #25
 2915 0082 0190     		str	r0, [sp, #4]
 2916 0084 0093     		str	r3, [sp]
 2917 0086 2000     		movs	r0, r4
ARM GAS  /tmp/cchjT0Ct.s 			page 51


 2918 0088 069B     		ldr	r3, [sp, #24]
 2919 008a 059A     		ldr	r2, [sp, #20]
 2920 008c 0399     		ldr	r1, [sp, #12]
 2921 008e FFF7FEFF 		bl	I2C_RequestMemoryWrite
 2922 0092 2600     		movs	r6, r4
 2923 0094 0500     		movs	r5, r0
 2924 0096 4036     		adds	r6, r6, #64
 2925 0098 0028     		cmp	r0, #0
 2926 009a 0DD0     		beq	.L413
 2927 009c 0023     		movs	r3, #0
 2928 009e 626C     		ldr	r2, [r4, #68]
 2929 00a0 0125     		movs	r5, #1
 2930 00a2 3370     		strb	r3, [r6]
 2931 00a4 042A     		cmp	r2, #4
 2932 00a6 00D0     		beq	.L411
 2933 00a8 0325     		movs	r5, #3
 2934              	.L411:
 2935 00aa 2800     		movs	r0, r5
 2936 00ac 09B0     		add	sp, sp, #36
 2937              		@ sp needed
 2938 00ae F0BD     		pop	{r4, r5, r6, r7, pc}
 2939              	.L420:
 2940 00b0 8027     		movs	r7, #128
 2941 00b2 FF23     		movs	r3, #255
 2942 00b4 7F04     		lsls	r7, r7, #17
 2943 00b6 E2E7     		b	.L412
 2944              	.L413:
 2945 00b8 228D     		ldrh	r2, [r4, #40]
 2946 00ba 0399     		ldr	r1, [sp, #12]
 2947 00bc 0090     		str	r0, [sp]
 2948 00be 3B00     		movs	r3, r7
 2949 00c0 2000     		movs	r0, r4
 2950 00c2 D2B2     		uxtb	r2, r2
 2951 00c4 FFF7FEFF 		bl	I2C_TransferConfig
 2952 00c8 0121     		movs	r1, #1
 2953 00ca 2000     		movs	r0, r4
 2954 00cc 3570     		strb	r5, [r6]
 2955 00ce FFF7FEFF 		bl	I2C_Enable_IRQ.isra.0
 2956 00d2 EAE7     		b	.L411
 2957              	.L422:
 2958              		.align	2
 2959              	.L421:
 2960 00d4 0000FFFF 		.word	-65536
 2961 00d8 00000000 		.word	I2C_Master_ISR_IT
 2963              		.section	.text.HAL_I2C_Mem_Read_IT,"ax",%progbits
 2964              		.align	1
 2965              		.global	HAL_I2C_Mem_Read_IT
 2966              		.syntax unified
 2967              		.code	16
 2968              		.thumb_func
 2969              		.fpu softvfp
 2971              	HAL_I2C_Mem_Read_IT:
 2972              		@ args = 8, pretend = 0, frame = 24
 2973              		@ frame_needed = 0, uses_anonymous_args = 0
 2974 0000 F0B5     		push	{r4, r5, r6, r7, lr}
 2975 0002 0600     		movs	r6, r0
 2976 0004 89B0     		sub	sp, sp, #36
ARM GAS  /tmp/cchjT0Ct.s 			page 52


 2977 0006 0693     		str	r3, [sp, #24]
 2978 0008 0EAB     		add	r3, sp, #56
 2979 000a 80CB     		ldmia	r3!, {r7}
 2980 000c 0391     		str	r1, [sp, #12]
 2981 000e 1B88     		ldrh	r3, [r3]
 2982 0010 0592     		str	r2, [sp, #20]
 2983 0012 0493     		str	r3, [sp, #16]
 2984 0014 4136     		adds	r6, r6, #65
 2985 0016 3378     		ldrb	r3, [r6]
 2986 0018 0400     		movs	r4, r0
 2987 001a 0225     		movs	r5, #2
 2988 001c 202B     		cmp	r3, #32
 2989 001e 44D1     		bne	.L424
 2990 0020 013D     		subs	r5, r5, #1
 2991 0022 002F     		cmp	r7, #0
 2992 0024 41D0     		beq	.L424
 2993 0026 049B     		ldr	r3, [sp, #16]
 2994 0028 002B     		cmp	r3, #0
 2995 002a 3ED0     		beq	.L424
 2996 002c 0368     		ldr	r3, [r0]
 2997 002e 0135     		adds	r5, r5, #1
 2998 0030 9A69     		ldr	r2, [r3, #24]
 2999 0032 8023     		movs	r3, #128
 3000 0034 1100     		movs	r1, r2
 3001 0036 1B02     		lsls	r3, r3, #8
 3002 0038 1940     		ands	r1, r3
 3003 003a 0791     		str	r1, [sp, #28]
 3004 003c 1A42     		tst	r2, r3
 3005 003e 34D1     		bne	.L424
 3006 0040 0300     		movs	r3, r0
 3007 0042 4033     		adds	r3, r3, #64
 3008 0044 1A78     		ldrb	r2, [r3]
 3009 0046 012A     		cmp	r2, #1
 3010 0048 2FD0     		beq	.L424
 3011 004a 0122     		movs	r2, #1
 3012 004c 1A70     		strb	r2, [r3]
 3013 004e FFF7FEFF 		bl	HAL_GetTick
 3014 0052 2223     		movs	r3, #34
 3015 0054 3370     		strb	r3, [r6]
 3016 0056 2300     		movs	r3, r4
 3017 0058 4022     		movs	r2, #64
 3018 005a 4233     		adds	r3, r3, #66
 3019 005c 1A70     		strb	r2, [r3]
 3020 005e 079B     		ldr	r3, [sp, #28]
 3021 0060 6762     		str	r7, [r4, #36]
 3022 0062 6364     		str	r3, [r4, #68]
 3023 0064 049B     		ldr	r3, [sp, #16]
 3024 0066 6385     		strh	r3, [r4, #42]
 3025 0068 1B4B     		ldr	r3, .L434
 3026 006a E362     		str	r3, [r4, #44]
 3027 006c 1B4B     		ldr	r3, .L434+4
 3028 006e 6363     		str	r3, [r4, #52]
 3029 0070 638D     		ldrh	r3, [r4, #42]
 3030 0072 FF2B     		cmp	r3, #255
 3031 0074 1CD8     		bhi	.L433
 3032 0076 8027     		movs	r7, #128
 3033 0078 638D     		ldrh	r3, [r4, #42]
ARM GAS  /tmp/cchjT0Ct.s 			page 53


 3034 007a BF04     		lsls	r7, r7, #18
 3035 007c 9BB2     		uxth	r3, r3
 3036              	.L425:
 3037 007e 2385     		strh	r3, [r4, #40]
 3038 0080 1923     		movs	r3, #25
 3039 0082 0190     		str	r0, [sp, #4]
 3040 0084 0093     		str	r3, [sp]
 3041 0086 2000     		movs	r0, r4
 3042 0088 069B     		ldr	r3, [sp, #24]
 3043 008a 059A     		ldr	r2, [sp, #20]
 3044 008c 0399     		ldr	r1, [sp, #12]
 3045 008e FFF7FEFF 		bl	I2C_RequestMemoryRead
 3046 0092 2600     		movs	r6, r4
 3047 0094 0500     		movs	r5, r0
 3048 0096 4036     		adds	r6, r6, #64
 3049 0098 0028     		cmp	r0, #0
 3050 009a 0DD0     		beq	.L426
 3051 009c 0023     		movs	r3, #0
 3052 009e 626C     		ldr	r2, [r4, #68]
 3053 00a0 0125     		movs	r5, #1
 3054 00a2 3370     		strb	r3, [r6]
 3055 00a4 042A     		cmp	r2, #4
 3056 00a6 00D0     		beq	.L424
 3057 00a8 0325     		movs	r5, #3
 3058              	.L424:
 3059 00aa 2800     		movs	r0, r5
 3060 00ac 09B0     		add	sp, sp, #36
 3061              		@ sp needed
 3062 00ae F0BD     		pop	{r4, r5, r6, r7, pc}
 3063              	.L433:
 3064 00b0 8027     		movs	r7, #128
 3065 00b2 FF23     		movs	r3, #255
 3066 00b4 7F04     		lsls	r7, r7, #17
 3067 00b6 E2E7     		b	.L425
 3068              	.L426:
 3069 00b8 9023     		movs	r3, #144
 3070 00ba 228D     		ldrh	r2, [r4, #40]
 3071 00bc 9B01     		lsls	r3, r3, #6
 3072 00be 2000     		movs	r0, r4
 3073 00c0 0399     		ldr	r1, [sp, #12]
 3074 00c2 0093     		str	r3, [sp]
 3075 00c4 D2B2     		uxtb	r2, r2
 3076 00c6 3B00     		movs	r3, r7
 3077 00c8 FFF7FEFF 		bl	I2C_TransferConfig
 3078 00cc 0221     		movs	r1, #2
 3079 00ce 2000     		movs	r0, r4
 3080 00d0 3570     		strb	r5, [r6]
 3081 00d2 FFF7FEFF 		bl	I2C_Enable_IRQ.isra.0
 3082 00d6 E8E7     		b	.L424
 3083              	.L435:
 3084              		.align	2
 3085              	.L434:
 3086 00d8 0000FFFF 		.word	-65536
 3087 00dc 00000000 		.word	I2C_Master_ISR_IT
 3089              		.section	.text.HAL_I2C_Mem_Write_DMA,"ax",%progbits
 3090              		.align	1
 3091              		.global	HAL_I2C_Mem_Write_DMA
ARM GAS  /tmp/cchjT0Ct.s 			page 54


 3092              		.syntax unified
 3093              		.code	16
 3094              		.thumb_func
 3095              		.fpu softvfp
 3097              	HAL_I2C_Mem_Write_DMA:
 3098              		@ args = 8, pretend = 0, frame = 24
 3099              		@ frame_needed = 0, uses_anonymous_args = 0
 3100 0000 F0B5     		push	{r4, r5, r6, r7, lr}
 3101 0002 0700     		movs	r7, r0
 3102 0004 89B0     		sub	sp, sp, #36
 3103 0006 0693     		str	r3, [sp, #24]
 3104 0008 0EAB     		add	r3, sp, #56
 3105 000a 40CB     		ldmia	r3!, {r6}
 3106 000c 0391     		str	r1, [sp, #12]
 3107 000e 1B88     		ldrh	r3, [r3]
 3108 0010 0592     		str	r2, [sp, #20]
 3109 0012 0493     		str	r3, [sp, #16]
 3110 0014 4137     		adds	r7, r7, #65
 3111 0016 3B78     		ldrb	r3, [r7]
 3112 0018 0400     		movs	r4, r0
 3113 001a 0225     		movs	r5, #2
 3114 001c 202B     		cmp	r3, #32
 3115 001e 42D1     		bne	.L437
 3116 0020 013D     		subs	r5, r5, #1
 3117 0022 002E     		cmp	r6, #0
 3118 0024 3FD0     		beq	.L437
 3119 0026 049B     		ldr	r3, [sp, #16]
 3120 0028 002B     		cmp	r3, #0
 3121 002a 3CD0     		beq	.L437
 3122 002c 0368     		ldr	r3, [r0]
 3123 002e 0135     		adds	r5, r5, #1
 3124 0030 9A69     		ldr	r2, [r3, #24]
 3125 0032 8023     		movs	r3, #128
 3126 0034 1100     		movs	r1, r2
 3127 0036 1B02     		lsls	r3, r3, #8
 3128 0038 1940     		ands	r1, r3
 3129 003a 0791     		str	r1, [sp, #28]
 3130 003c 1A42     		tst	r2, r3
 3131 003e 32D1     		bne	.L437
 3132 0040 0300     		movs	r3, r0
 3133 0042 4033     		adds	r3, r3, #64
 3134 0044 1A78     		ldrb	r2, [r3]
 3135 0046 012A     		cmp	r2, #1
 3136 0048 2DD0     		beq	.L437
 3137 004a 0122     		movs	r2, #1
 3138 004c 1A70     		strb	r2, [r3]
 3139 004e FFF7FEFF 		bl	HAL_GetTick
 3140 0052 2123     		movs	r3, #33
 3141 0054 3B70     		strb	r3, [r7]
 3142 0056 2300     		movs	r3, r4
 3143 0058 4022     		movs	r2, #64
 3144 005a 4233     		adds	r3, r3, #66
 3145 005c 1A70     		strb	r2, [r3]
 3146 005e 079B     		ldr	r3, [sp, #28]
 3147 0060 6662     		str	r6, [r4, #36]
 3148 0062 6364     		str	r3, [r4, #68]
 3149 0064 049B     		ldr	r3, [sp, #16]
ARM GAS  /tmp/cchjT0Ct.s 			page 55


 3150 0066 6385     		strh	r3, [r4, #42]
 3151 0068 264B     		ldr	r3, .L447
 3152 006a E362     		str	r3, [r4, #44]
 3153 006c 264B     		ldr	r3, .L447+4
 3154 006e 6363     		str	r3, [r4, #52]
 3155 0070 638D     		ldrh	r3, [r4, #42]
 3156 0072 FF2B     		cmp	r3, #255
 3157 0074 1AD8     		bhi	.L446
 3158 0076 8027     		movs	r7, #128
 3159 0078 638D     		ldrh	r3, [r4, #42]
 3160 007a BF04     		lsls	r7, r7, #18
 3161 007c 9BB2     		uxth	r3, r3
 3162              	.L438:
 3163 007e 2385     		strh	r3, [r4, #40]
 3164 0080 1923     		movs	r3, #25
 3165 0082 0190     		str	r0, [sp, #4]
 3166 0084 0093     		str	r3, [sp]
 3167 0086 2000     		movs	r0, r4
 3168 0088 069B     		ldr	r3, [sp, #24]
 3169 008a 059A     		ldr	r2, [sp, #20]
 3170 008c 0399     		ldr	r1, [sp, #12]
 3171 008e FFF7FEFF 		bl	I2C_RequestMemoryWrite
 3172 0092 051E     		subs	r5, r0, #0
 3173 0094 0ED0     		beq	.L439
 3174 0096 0023     		movs	r3, #0
 3175 0098 626C     		ldr	r2, [r4, #68]
 3176 009a 4034     		adds	r4, r4, #64
 3177 009c 0125     		movs	r5, #1
 3178 009e 2370     		strb	r3, [r4]
 3179 00a0 042A     		cmp	r2, #4
 3180 00a2 00D0     		beq	.L437
 3181 00a4 0325     		movs	r5, #3
 3182              	.L437:
 3183 00a6 2800     		movs	r0, r5
 3184 00a8 09B0     		add	sp, sp, #36
 3185              		@ sp needed
 3186 00aa F0BD     		pop	{r4, r5, r6, r7, pc}
 3187              	.L446:
 3188 00ac 8027     		movs	r7, #128
 3189 00ae FF23     		movs	r3, #255
 3190 00b0 7F04     		lsls	r7, r7, #17
 3191 00b2 E4E7     		b	.L438
 3192              	.L439:
 3193 00b4 A06B     		ldr	r0, [r4, #56]
 3194 00b6 154B     		ldr	r3, .L447+8
 3195 00b8 2268     		ldr	r2, [r4]
 3196 00ba 8362     		str	r3, [r0, #40]
 3197 00bc 144B     		ldr	r3, .L447+12
 3198 00be C562     		str	r5, [r0, #44]
 3199 00c0 0363     		str	r3, [r0, #48]
 3200 00c2 4563     		str	r5, [r0, #52]
 3201 00c4 3100     		movs	r1, r6
 3202 00c6 238D     		ldrh	r3, [r4, #40]
 3203 00c8 2832     		adds	r2, r2, #40
 3204 00ca FFF7FEFF 		bl	HAL_DMA_Start_IT
 3205 00ce 228D     		ldrh	r2, [r4, #40]
 3206 00d0 3B00     		movs	r3, r7
ARM GAS  /tmp/cchjT0Ct.s 			page 56


 3207 00d2 2000     		movs	r0, r4
 3208 00d4 0399     		ldr	r1, [sp, #12]
 3209 00d6 D2B2     		uxtb	r2, r2
 3210 00d8 0095     		str	r5, [sp]
 3211 00da FFF7FEFF 		bl	I2C_TransferConfig
 3212 00de 638D     		ldrh	r3, [r4, #42]
 3213 00e0 228D     		ldrh	r2, [r4, #40]
 3214 00e2 1121     		movs	r1, #17
 3215 00e4 9B1A     		subs	r3, r3, r2
 3216 00e6 9BB2     		uxth	r3, r3
 3217 00e8 6385     		strh	r3, [r4, #42]
 3218 00ea 2300     		movs	r3, r4
 3219 00ec 4033     		adds	r3, r3, #64
 3220 00ee 1D70     		strb	r5, [r3]
 3221 00f0 2000     		movs	r0, r4
 3222 00f2 FFF7FEFF 		bl	I2C_Enable_IRQ.isra.0
 3223 00f6 8023     		movs	r3, #128
 3224 00f8 2268     		ldr	r2, [r4]
 3225 00fa DB01     		lsls	r3, r3, #7
 3226 00fc 1168     		ldr	r1, [r2]
 3227 00fe 0B43     		orrs	r3, r1
 3228 0100 1360     		str	r3, [r2]
 3229 0102 D0E7     		b	.L437
 3230              	.L448:
 3231              		.align	2
 3232              	.L447:
 3233 0104 0000FFFF 		.word	-65536
 3234 0108 00000000 		.word	I2C_Master_ISR_DMA
 3235 010c 00000000 		.word	I2C_DMAMasterTransmitCplt
 3236 0110 00000000 		.word	I2C_DMAError
 3238              		.section	.text.HAL_I2C_Mem_Read_DMA,"ax",%progbits
 3239              		.align	1
 3240              		.global	HAL_I2C_Mem_Read_DMA
 3241              		.syntax unified
 3242              		.code	16
 3243              		.thumb_func
 3244              		.fpu softvfp
 3246              	HAL_I2C_Mem_Read_DMA:
 3247              		@ args = 8, pretend = 0, frame = 24
 3248              		@ frame_needed = 0, uses_anonymous_args = 0
 3249 0000 F0B5     		push	{r4, r5, r6, r7, lr}
 3250 0002 0700     		movs	r7, r0
 3251 0004 89B0     		sub	sp, sp, #36
 3252 0006 0693     		str	r3, [sp, #24]
 3253 0008 0EAB     		add	r3, sp, #56
 3254 000a 40CB     		ldmia	r3!, {r6}
 3255 000c 0391     		str	r1, [sp, #12]
 3256 000e 1B88     		ldrh	r3, [r3]
 3257 0010 0592     		str	r2, [sp, #20]
 3258 0012 0493     		str	r3, [sp, #16]
 3259 0014 4137     		adds	r7, r7, #65
 3260 0016 3B78     		ldrb	r3, [r7]
 3261 0018 0400     		movs	r4, r0
 3262 001a 0225     		movs	r5, #2
 3263 001c 202B     		cmp	r3, #32
 3264 001e 42D1     		bne	.L450
 3265 0020 013D     		subs	r5, r5, #1
ARM GAS  /tmp/cchjT0Ct.s 			page 57


 3266 0022 002E     		cmp	r6, #0
 3267 0024 3FD0     		beq	.L450
 3268 0026 049B     		ldr	r3, [sp, #16]
 3269 0028 002B     		cmp	r3, #0
 3270 002a 3CD0     		beq	.L450
 3271 002c 0368     		ldr	r3, [r0]
 3272 002e 0135     		adds	r5, r5, #1
 3273 0030 9A69     		ldr	r2, [r3, #24]
 3274 0032 8023     		movs	r3, #128
 3275 0034 1100     		movs	r1, r2
 3276 0036 1B02     		lsls	r3, r3, #8
 3277 0038 1940     		ands	r1, r3
 3278 003a 0791     		str	r1, [sp, #28]
 3279 003c 1A42     		tst	r2, r3
 3280 003e 32D1     		bne	.L450
 3281 0040 0300     		movs	r3, r0
 3282 0042 4033     		adds	r3, r3, #64
 3283 0044 1A78     		ldrb	r2, [r3]
 3284 0046 012A     		cmp	r2, #1
 3285 0048 2DD0     		beq	.L450
 3286 004a 0122     		movs	r2, #1
 3287 004c 1A70     		strb	r2, [r3]
 3288 004e FFF7FEFF 		bl	HAL_GetTick
 3289 0052 2223     		movs	r3, #34
 3290 0054 3B70     		strb	r3, [r7]
 3291 0056 2300     		movs	r3, r4
 3292 0058 4022     		movs	r2, #64
 3293 005a 4233     		adds	r3, r3, #66
 3294 005c 1A70     		strb	r2, [r3]
 3295 005e 079B     		ldr	r3, [sp, #28]
 3296 0060 6662     		str	r6, [r4, #36]
 3297 0062 6364     		str	r3, [r4, #68]
 3298 0064 049B     		ldr	r3, [sp, #16]
 3299 0066 6385     		strh	r3, [r4, #42]
 3300 0068 274B     		ldr	r3, .L460
 3301 006a E362     		str	r3, [r4, #44]
 3302 006c 274B     		ldr	r3, .L460+4
 3303 006e 6363     		str	r3, [r4, #52]
 3304 0070 638D     		ldrh	r3, [r4, #42]
 3305 0072 FF2B     		cmp	r3, #255
 3306 0074 1AD8     		bhi	.L459
 3307 0076 8027     		movs	r7, #128
 3308 0078 638D     		ldrh	r3, [r4, #42]
 3309 007a BF04     		lsls	r7, r7, #18
 3310 007c 9BB2     		uxth	r3, r3
 3311              	.L451:
 3312 007e 2385     		strh	r3, [r4, #40]
 3313 0080 1923     		movs	r3, #25
 3314 0082 0190     		str	r0, [sp, #4]
 3315 0084 0093     		str	r3, [sp]
 3316 0086 2000     		movs	r0, r4
 3317 0088 069B     		ldr	r3, [sp, #24]
 3318 008a 059A     		ldr	r2, [sp, #20]
 3319 008c 0399     		ldr	r1, [sp, #12]
 3320 008e FFF7FEFF 		bl	I2C_RequestMemoryRead
 3321 0092 051E     		subs	r5, r0, #0
 3322 0094 0ED0     		beq	.L452
ARM GAS  /tmp/cchjT0Ct.s 			page 58


 3323 0096 0023     		movs	r3, #0
 3324 0098 626C     		ldr	r2, [r4, #68]
 3325 009a 4034     		adds	r4, r4, #64
 3326 009c 0125     		movs	r5, #1
 3327 009e 2370     		strb	r3, [r4]
 3328 00a0 042A     		cmp	r2, #4
 3329 00a2 00D0     		beq	.L450
 3330 00a4 0325     		movs	r5, #3
 3331              	.L450:
 3332 00a6 2800     		movs	r0, r5
 3333 00a8 09B0     		add	sp, sp, #36
 3334              		@ sp needed
 3335 00aa F0BD     		pop	{r4, r5, r6, r7, pc}
 3336              	.L459:
 3337 00ac 8027     		movs	r7, #128
 3338 00ae FF23     		movs	r3, #255
 3339 00b0 7F04     		lsls	r7, r7, #17
 3340 00b2 E4E7     		b	.L451
 3341              	.L452:
 3342 00b4 E06B     		ldr	r0, [r4, #60]
 3343 00b6 164B     		ldr	r3, .L460+8
 3344 00b8 2168     		ldr	r1, [r4]
 3345 00ba 8362     		str	r3, [r0, #40]
 3346 00bc 154B     		ldr	r3, .L460+12
 3347 00be C562     		str	r5, [r0, #44]
 3348 00c0 4563     		str	r5, [r0, #52]
 3349 00c2 0363     		str	r3, [r0, #48]
 3350 00c4 3200     		movs	r2, r6
 3351 00c6 238D     		ldrh	r3, [r4, #40]
 3352 00c8 2431     		adds	r1, r1, #36
 3353 00ca FFF7FEFF 		bl	HAL_DMA_Start_IT
 3354 00ce 9023     		movs	r3, #144
 3355 00d0 228D     		ldrh	r2, [r4, #40]
 3356 00d2 9B01     		lsls	r3, r3, #6
 3357 00d4 2000     		movs	r0, r4
 3358 00d6 0399     		ldr	r1, [sp, #12]
 3359 00d8 0093     		str	r3, [sp]
 3360 00da D2B2     		uxtb	r2, r2
 3361 00dc 3B00     		movs	r3, r7
 3362 00de FFF7FEFF 		bl	I2C_TransferConfig
 3363 00e2 638D     		ldrh	r3, [r4, #42]
 3364 00e4 228D     		ldrh	r2, [r4, #40]
 3365 00e6 2000     		movs	r0, r4
 3366 00e8 9B1A     		subs	r3, r3, r2
 3367 00ea 9BB2     		uxth	r3, r3
 3368 00ec 6385     		strh	r3, [r4, #42]
 3369 00ee 2300     		movs	r3, r4
 3370 00f0 4033     		adds	r3, r3, #64
 3371 00f2 1D70     		strb	r5, [r3]
 3372 00f4 8023     		movs	r3, #128
 3373 00f6 2268     		ldr	r2, [r4]
 3374 00f8 1B02     		lsls	r3, r3, #8
 3375 00fa 1168     		ldr	r1, [r2]
 3376 00fc 0B43     		orrs	r3, r1
 3377 00fe 1360     		str	r3, [r2]
 3378 0100 1121     		movs	r1, #17
 3379 0102 FFF7FEFF 		bl	I2C_Enable_IRQ.isra.0
ARM GAS  /tmp/cchjT0Ct.s 			page 59


 3380 0106 CEE7     		b	.L450
 3381              	.L461:
 3382              		.align	2
 3383              	.L460:
 3384 0108 0000FFFF 		.word	-65536
 3385 010c 00000000 		.word	I2C_Master_ISR_DMA
 3386 0110 00000000 		.word	I2C_DMAMasterReceiveCplt
 3387 0114 00000000 		.word	I2C_DMAError
 3389              		.section	.text.HAL_I2C_IsDeviceReady,"ax",%progbits
 3390              		.align	1
 3391              		.global	HAL_I2C_IsDeviceReady
 3392              		.syntax unified
 3393              		.code	16
 3394              		.thumb_func
 3395              		.fpu softvfp
 3397              	HAL_I2C_IsDeviceReady:
 3398              		@ args = 0, pretend = 0, frame = 16
 3399              		@ frame_needed = 0, uses_anonymous_args = 0
 3400 0000 F0B5     		push	{r4, r5, r6, r7, lr}
 3401 0002 1D00     		movs	r5, r3
 3402 0004 0023     		movs	r3, #0
 3403 0006 87B0     		sub	sp, sp, #28
 3404 0008 0593     		str	r3, [sp, #20]
 3405 000a 0300     		movs	r3, r0
 3406 000c 0392     		str	r2, [sp, #12]
 3407 000e 4133     		adds	r3, r3, #65
 3408 0010 1A78     		ldrb	r2, [r3]
 3409 0012 0400     		movs	r4, r0
 3410 0014 0220     		movs	r0, #2
 3411 0016 202A     		cmp	r2, #32
 3412 0018 59D1     		bne	.L463
 3413 001a 2268     		ldr	r2, [r4]
 3414 001c 9769     		ldr	r7, [r2, #24]
 3415 001e 8022     		movs	r2, #128
 3416 0020 3E00     		movs	r6, r7
 3417 0022 1202     		lsls	r2, r2, #8
 3418 0024 1640     		ands	r6, r2
 3419 0026 1742     		tst	r7, r2
 3420 0028 51D1     		bne	.L463
 3421 002a 2200     		movs	r2, r4
 3422 002c 4032     		adds	r2, r2, #64
 3423 002e 1778     		ldrb	r7, [r2]
 3424 0030 012F     		cmp	r7, #1
 3425 0032 4CD0     		beq	.L463
 3426 0034 0138     		subs	r0, r0, #1
 3427 0036 1070     		strb	r0, [r2]
 3428 0038 2422     		movs	r2, #36
 3429 003a 8905     		lsls	r1, r1, #22
 3430 003c 1A70     		strb	r2, [r3]
 3431 003e 8B0D     		lsrs	r3, r1, #22
 3432 0040 6664     		str	r6, [r4, #68]
 3433 0042 0293     		str	r3, [sp, #8]
 3434              	.L476:
 3435 0044 A023     		movs	r3, #160
 3436 0046 029A     		ldr	r2, [sp, #8]
 3437 0048 9B01     		lsls	r3, r3, #6
 3438 004a 1343     		orrs	r3, r2
ARM GAS  /tmp/cchjT0Ct.s 			page 60


 3439 004c E268     		ldr	r2, [r4, #12]
 3440 004e 012A     		cmp	r2, #1
 3441 0050 02D1     		bne	.L465
 3442 0052 354B     		ldr	r3, .L485
 3443 0054 029A     		ldr	r2, [sp, #8]
 3444 0056 1343     		orrs	r3, r2
 3445              	.L465:
 3446 0058 2268     		ldr	r2, [r4]
 3447 005a 5360     		str	r3, [r2, #4]
 3448 005c FFF7FEFF 		bl	HAL_GetTick
 3449 0060 0600     		movs	r6, r0
 3450              	.L466:
 3451 0062 2700     		movs	r7, r4
 3452 0064 2368     		ldr	r3, [r4]
 3453 0066 4137     		adds	r7, r7, #65
 3454              	.L467:
 3455 0068 2021     		movs	r1, #32
 3456 006a 9A69     		ldr	r2, [r3, #24]
 3457 006c 0A42     		tst	r2, r1
 3458 006e 06D1     		bne	.L470
 3459 0070 9A69     		ldr	r2, [r3, #24]
 3460 0072 1039     		subs	r1, r1, #16
 3461 0074 0A42     		tst	r2, r1
 3462 0076 02D1     		bne	.L470
 3463 0078 3A78     		ldrb	r2, [r7]
 3464 007a A02A     		cmp	r2, #160
 3465 007c 0FD1     		bne	.L471
 3466              	.L470:
 3467 007e 9B69     		ldr	r3, [r3, #24]
 3468 0080 1027     		movs	r7, #16
 3469 0082 1A00     		movs	r2, r3
 3470 0084 0096     		str	r6, [sp]
 3471 0086 3A40     		ands	r2, r7
 3472 0088 3B42     		tst	r3, r7
 3473 008a 22D1     		bne	.L472
 3474 008c 2B00     		movs	r3, r5
 3475 008e 2021     		movs	r1, #32
 3476 0090 2000     		movs	r0, r4
 3477 0092 FFF7FEFF 		bl	I2C_WaitOnFlagUntilTimeout
 3478 0096 0028     		cmp	r0, #0
 3479 0098 11D0     		beq	.L473
 3480              	.L484:
 3481 009a 0320     		movs	r0, #3
 3482 009c 17E0     		b	.L463
 3483              	.L471:
 3484 009e 6A1C     		adds	r2, r5, #1
 3485 00a0 E2D0     		beq	.L467
 3486 00a2 002D     		cmp	r5, #0
 3487 00a4 05D1     		bne	.L468
 3488              	.L469:
 3489 00a6 2023     		movs	r3, #32
 3490 00a8 3B70     		strb	r3, [r7]
 3491              	.L483:
 3492 00aa 0023     		movs	r3, #0
 3493 00ac 4034     		adds	r4, r4, #64
 3494 00ae 2370     		strb	r3, [r4]
 3495 00b0 F3E7     		b	.L484
ARM GAS  /tmp/cchjT0Ct.s 			page 61


 3496              	.L468:
 3497 00b2 FFF7FEFF 		bl	HAL_GetTick
 3498 00b6 801B     		subs	r0, r0, r6
 3499 00b8 A842     		cmp	r0, r5
 3500 00ba D2D9     		bls	.L466
 3501 00bc F3E7     		b	.L469
 3502              	.L473:
 3503 00be 2023     		movs	r3, #32
 3504 00c0 2268     		ldr	r2, [r4]
 3505 00c2 D361     		str	r3, [r2, #28]
 3506 00c4 2200     		movs	r2, r4
 3507 00c6 4034     		adds	r4, r4, #64
 3508 00c8 4132     		adds	r2, r2, #65
 3509 00ca 1370     		strb	r3, [r2]
 3510 00cc 2070     		strb	r0, [r4]
 3511              	.L463:
 3512 00ce 07B0     		add	sp, sp, #28
 3513              		@ sp needed
 3514 00d0 F0BD     		pop	{r4, r5, r6, r7, pc}
 3515              	.L472:
 3516 00d2 0022     		movs	r2, #0
 3517 00d4 2B00     		movs	r3, r5
 3518 00d6 2021     		movs	r1, #32
 3519 00d8 2000     		movs	r0, r4
 3520 00da FFF7FEFF 		bl	I2C_WaitOnFlagUntilTimeout
 3521 00de 021E     		subs	r2, r0, #0
 3522 00e0 DBD1     		bne	.L484
 3523 00e2 2368     		ldr	r3, [r4]
 3524 00e4 DF61     		str	r7, [r3, #28]
 3525 00e6 2027     		movs	r7, #32
 3526 00e8 DF61     		str	r7, [r3, #28]
 3527 00ea 0599     		ldr	r1, [sp, #20]
 3528 00ec 481C     		adds	r0, r1, #1
 3529 00ee 0590     		str	r0, [sp, #20]
 3530 00f0 0398     		ldr	r0, [sp, #12]
 3531 00f2 8142     		cmp	r1, r0
 3532 00f4 0ED1     		bne	.L475
 3533 00f6 8021     		movs	r1, #128
 3534 00f8 5868     		ldr	r0, [r3, #4]
 3535 00fa C901     		lsls	r1, r1, #7
 3536 00fc 0143     		orrs	r1, r0
 3537 00fe 5960     		str	r1, [r3, #4]
 3538 0100 2000     		movs	r0, r4
 3539 0102 2B00     		movs	r3, r5
 3540 0104 3900     		movs	r1, r7
 3541 0106 0096     		str	r6, [sp]
 3542 0108 FFF7FEFF 		bl	I2C_WaitOnFlagUntilTimeout
 3543 010c 0028     		cmp	r0, #0
 3544 010e C4D1     		bne	.L484
 3545 0110 2368     		ldr	r3, [r4]
 3546 0112 DF61     		str	r7, [r3, #28]
 3547              	.L475:
 3548 0114 059B     		ldr	r3, [sp, #20]
 3549 0116 039A     		ldr	r2, [sp, #12]
 3550 0118 9342     		cmp	r3, r2
 3551 011a 00D2     		bcs	.LCB3963
 3552 011c 92E7     		b	.L476	@long jump
ARM GAS  /tmp/cchjT0Ct.s 			page 62


 3553              	.LCB3963:
 3554 011e 2300     		movs	r3, r4
 3555 0120 2022     		movs	r2, #32
 3556 0122 4133     		adds	r3, r3, #65
 3557 0124 1A70     		strb	r2, [r3]
 3558 0126 C0E7     		b	.L483
 3559              	.L486:
 3560              		.align	2
 3561              	.L485:
 3562 0128 00200002 		.word	33562624
 3564              		.section	.text.HAL_I2C_Master_Sequential_Transmit_IT,"ax",%progbits
 3565              		.align	1
 3566              		.global	HAL_I2C_Master_Sequential_Transmit_IT
 3567              		.syntax unified
 3568              		.code	16
 3569              		.thumb_func
 3570              		.fpu softvfp
 3572              	HAL_I2C_Master_Sequential_Transmit_IT:
 3573              		@ args = 4, pretend = 0, frame = 0
 3574              		@ frame_needed = 0, uses_anonymous_args = 0
 3575 0000 F7B5     		push	{r0, r1, r2, r4, r5, r6, r7, lr}
 3576 0002 0600     		movs	r6, r0
 3577 0004 4136     		adds	r6, r6, #65
 3578 0006 3578     		ldrb	r5, [r6]
 3579 0008 0400     		movs	r4, r0
 3580 000a 0220     		movs	r0, #2
 3581 000c 202D     		cmp	r5, #32
 3582 000e 2DD1     		bne	.L488
 3583 0010 2500     		movs	r5, r4
 3584 0012 4035     		adds	r5, r5, #64
 3585 0014 2F78     		ldrb	r7, [r5]
 3586 0016 012F     		cmp	r7, #1
 3587 0018 28D0     		beq	.L488
 3588 001a 0138     		subs	r0, r0, #1
 3589 001c 2870     		strb	r0, [r5]
 3590 001e 2030     		adds	r0, r0, #32
 3591 0020 3070     		strb	r0, [r6]
 3592 0022 2000     		movs	r0, r4
 3593 0024 1026     		movs	r6, #16
 3594 0026 4230     		adds	r0, r0, #66
 3595 0028 0670     		strb	r6, [r0]
 3596 002a 0020     		movs	r0, #0
 3597 002c 6064     		str	r0, [r4, #68]
 3598 002e 6385     		strh	r3, [r4, #42]
 3599 0030 089B     		ldr	r3, [sp, #32]
 3600 0032 6262     		str	r2, [r4, #36]
 3601 0034 E362     		str	r3, [r4, #44]
 3602 0036 104B     		ldr	r3, .L495
 3603 0038 6363     		str	r3, [r4, #52]
 3604 003a 638D     		ldrh	r3, [r4, #42]
 3605 003c FF2B     		cmp	r3, #255
 3606 003e 16D9     		bls	.L489
 3607 0040 FF23     		movs	r3, #255
 3608 0042 2385     		strh	r3, [r4, #40]
 3609 0044 8023     		movs	r3, #128
 3610 0046 5B04     		lsls	r3, r3, #17
 3611              	.L490:
ARM GAS  /tmp/cchjT0Ct.s 			page 63


 3612 0048 206B     		ldr	r0, [r4, #48]
 3613 004a 0026     		movs	r6, #0
 3614 004c 1138     		subs	r0, r0, #17
 3615 004e 421E     		subs	r2, r0, #1
 3616 0050 9041     		sbcs	r0, r0, r2
 3617 0052 228D     		ldrh	r2, [r4, #40]
 3618 0054 4003     		lsls	r0, r0, #13
 3619 0056 D2B2     		uxtb	r2, r2
 3620 0058 0090     		str	r0, [sp]
 3621 005a 2000     		movs	r0, r4
 3622 005c FFF7FEFF 		bl	I2C_TransferConfig
 3623 0060 2000     		movs	r0, r4
 3624 0062 0121     		movs	r1, #1
 3625 0064 2E70     		strb	r6, [r5]
 3626 0066 FFF7FEFF 		bl	I2C_Enable_IRQ.isra.0
 3627 006a 3000     		movs	r0, r6
 3628              	.L488:
 3629              		@ sp needed
 3630 006c FEBD     		pop	{r1, r2, r3, r4, r5, r6, r7, pc}
 3631              	.L489:
 3632 006e 638D     		ldrh	r3, [r4, #42]
 3633 0070 2385     		strh	r3, [r4, #40]
 3634 0072 E36A     		ldr	r3, [r4, #44]
 3635 0074 E8E7     		b	.L490
 3636              	.L496:
 3637 0076 C046     		.align	2
 3638              	.L495:
 3639 0078 00000000 		.word	I2C_Master_ISR_IT
 3641              		.section	.text.HAL_I2C_Master_Sequential_Receive_IT,"ax",%progbits
 3642              		.align	1
 3643              		.global	HAL_I2C_Master_Sequential_Receive_IT
 3644              		.syntax unified
 3645              		.code	16
 3646              		.thumb_func
 3647              		.fpu softvfp
 3649              	HAL_I2C_Master_Sequential_Receive_IT:
 3650              		@ args = 4, pretend = 0, frame = 0
 3651              		@ frame_needed = 0, uses_anonymous_args = 0
 3652 0000 F7B5     		push	{r0, r1, r2, r4, r5, r6, r7, lr}
 3653 0002 0500     		movs	r5, r0
 3654 0004 4135     		adds	r5, r5, #65
 3655 0006 2E78     		ldrb	r6, [r5]
 3656 0008 0400     		movs	r4, r0
 3657 000a 0220     		movs	r0, #2
 3658 000c 202E     		cmp	r6, #32
 3659 000e 2ED1     		bne	.L498
 3660 0010 2600     		movs	r6, r4
 3661 0012 4036     		adds	r6, r6, #64
 3662 0014 3778     		ldrb	r7, [r6]
 3663 0016 012F     		cmp	r7, #1
 3664 0018 29D0     		beq	.L498
 3665 001a 0138     		subs	r0, r0, #1
 3666 001c 3070     		strb	r0, [r6]
 3667 001e 2130     		adds	r0, r0, #33
 3668 0020 2870     		strb	r0, [r5]
 3669 0022 2000     		movs	r0, r4
 3670 0024 1025     		movs	r5, #16
ARM GAS  /tmp/cchjT0Ct.s 			page 64


 3671 0026 4230     		adds	r0, r0, #66
 3672 0028 0570     		strb	r5, [r0]
 3673 002a 0020     		movs	r0, #0
 3674 002c 6064     		str	r0, [r4, #68]
 3675 002e 6385     		strh	r3, [r4, #42]
 3676 0030 089B     		ldr	r3, [sp, #32]
 3677 0032 6262     		str	r2, [r4, #36]
 3678 0034 E362     		str	r3, [r4, #44]
 3679 0036 104B     		ldr	r3, .L505
 3680 0038 6363     		str	r3, [r4, #52]
 3681 003a 638D     		ldrh	r3, [r4, #42]
 3682 003c FF2B     		cmp	r3, #255
 3683 003e 17D9     		bls	.L499
 3684 0040 FF23     		movs	r3, #255
 3685 0042 2385     		strh	r3, [r4, #40]
 3686 0044 8023     		movs	r3, #128
 3687 0046 5B04     		lsls	r3, r3, #17
 3688              	.L500:
 3689 0048 226B     		ldr	r2, [r4, #48]
 3690 004a 0020     		movs	r0, #0
 3691 004c 122A     		cmp	r2, #18
 3692 004e 01D0     		beq	.L501
 3693 0050 9020     		movs	r0, #144
 3694 0052 8001     		lsls	r0, r0, #6
 3695              	.L501:
 3696 0054 0025     		movs	r5, #0
 3697 0056 228D     		ldrh	r2, [r4, #40]
 3698 0058 0090     		str	r0, [sp]
 3699 005a D2B2     		uxtb	r2, r2
 3700 005c 2000     		movs	r0, r4
 3701 005e FFF7FEFF 		bl	I2C_TransferConfig
 3702 0062 2000     		movs	r0, r4
 3703 0064 0221     		movs	r1, #2
 3704 0066 3570     		strb	r5, [r6]
 3705 0068 FFF7FEFF 		bl	I2C_Enable_IRQ.isra.0
 3706 006c 2800     		movs	r0, r5
 3707              	.L498:
 3708              		@ sp needed
 3709 006e FEBD     		pop	{r1, r2, r3, r4, r5, r6, r7, pc}
 3710              	.L499:
 3711 0070 638D     		ldrh	r3, [r4, #42]
 3712 0072 2385     		strh	r3, [r4, #40]
 3713 0074 E36A     		ldr	r3, [r4, #44]
 3714 0076 E7E7     		b	.L500
 3715              	.L506:
 3716              		.align	2
 3717              	.L505:
 3718 0078 00000000 		.word	I2C_Master_ISR_IT
 3720              		.section	.text.HAL_I2C_Slave_Sequential_Transmit_IT,"ax",%progbits
 3721              		.align	1
 3722              		.global	HAL_I2C_Slave_Sequential_Transmit_IT
 3723              		.syntax unified
 3724              		.code	16
 3725              		.thumb_func
 3726              		.fpu softvfp
 3728              	HAL_I2C_Slave_Sequential_Transmit_IT:
 3729              		@ args = 0, pretend = 0, frame = 16
ARM GAS  /tmp/cchjT0Ct.s 			page 65


 3730              		@ frame_needed = 0, uses_anonymous_args = 0
 3731 0000 F0B5     		push	{r4, r5, r6, r7, lr}
 3732 0002 0700     		movs	r7, r0
 3733 0004 85B0     		sub	sp, sp, #20
 3734 0006 0292     		str	r2, [sp, #8]
 3735 0008 2822     		movs	r2, #40
 3736 000a 0191     		str	r1, [sp, #4]
 3737 000c 0393     		str	r3, [sp, #12]
 3738 000e 4137     		adds	r7, r7, #65
 3739 0010 3B78     		ldrb	r3, [r7]
 3740 0012 0400     		movs	r4, r0
 3741 0014 0125     		movs	r5, #1
 3742 0016 1340     		ands	r3, r2
 3743 0018 9342     		cmp	r3, r2
 3744 001a 36D1     		bne	.L508
 3745 001c 0029     		cmp	r1, #0
 3746 001e 34D0     		beq	.L508
 3747 0020 029B     		ldr	r3, [sp, #8]
 3748 0022 002B     		cmp	r3, #0
 3749 0024 31D0     		beq	.L508
 3750 0026 2600     		movs	r6, r4
 3751 0028 0521     		movs	r1, #5
 3752 002a 4036     		adds	r6, r6, #64
 3753 002c FFF7FEFF 		bl	I2C_Disable_IRQ.isra.0
 3754 0030 3378     		ldrb	r3, [r6]
 3755 0032 AB42     		cmp	r3, r5
 3756 0034 2CD0     		beq	.L514
 3757 0036 3570     		strb	r5, [r6]
 3758 0038 3B78     		ldrb	r3, [r7]
 3759 003a 2A2B     		cmp	r3, #42
 3760 003c 03D1     		bne	.L509
 3761 003e 0221     		movs	r1, #2
 3762 0040 2000     		movs	r0, r4
 3763 0042 FFF7FEFF 		bl	I2C_Disable_IRQ.isra.0
 3764              	.L509:
 3765 0046 2923     		movs	r3, #41
 3766 0048 3B70     		strb	r3, [r7]
 3767 004a 2300     		movs	r3, r4
 3768 004c 2022     		movs	r2, #32
 3769 004e 0021     		movs	r1, #0
 3770 0050 4233     		adds	r3, r3, #66
 3771 0052 1A70     		strb	r2, [r3]
 3772 0054 2368     		ldr	r3, [r4]
 3773 0056 6164     		str	r1, [r4, #68]
 3774 0058 5A68     		ldr	r2, [r3, #4]
 3775 005a 0E48     		ldr	r0, .L519
 3776 005c 0240     		ands	r2, r0
 3777 005e 5A60     		str	r2, [r3, #4]
 3778 0060 019A     		ldr	r2, [sp, #4]
 3779 0062 6262     		str	r2, [r4, #36]
 3780 0064 029A     		ldr	r2, [sp, #8]
 3781 0066 6285     		strh	r2, [r4, #42]
 3782 0068 628D     		ldrh	r2, [r4, #42]
 3783 006a 2285     		strh	r2, [r4, #40]
 3784 006c 039A     		ldr	r2, [sp, #12]
 3785 006e E262     		str	r2, [r4, #44]
 3786 0070 094A     		ldr	r2, .L519+4
ARM GAS  /tmp/cchjT0Ct.s 			page 66


 3787 0072 6263     		str	r2, [r4, #52]
 3788 0074 9A69     		ldr	r2, [r3, #24]
 3789 0076 D203     		lsls	r2, r2, #15
 3790 0078 01D5     		bpl	.L510
 3791 007a 0822     		movs	r2, #8
 3792 007c DA61     		str	r2, [r3, #28]
 3793              	.L510:
 3794 007e 3170     		strb	r1, [r6]
 3795 0080 2000     		movs	r0, r4
 3796 0082 0521     		movs	r1, #5
 3797 0084 FFF7FEFF 		bl	I2C_Enable_IRQ.isra.0
 3798 0088 0025     		movs	r5, #0
 3799              	.L508:
 3800 008a 2800     		movs	r0, r5
 3801 008c 05B0     		add	sp, sp, #20
 3802              		@ sp needed
 3803 008e F0BD     		pop	{r4, r5, r6, r7, pc}
 3804              	.L514:
 3805 0090 0225     		movs	r5, #2
 3806 0092 FAE7     		b	.L508
 3807              	.L520:
 3808              		.align	2
 3809              	.L519:
 3810 0094 FF7FFFFF 		.word	-32769
 3811 0098 00000000 		.word	I2C_Slave_ISR_IT
 3813              		.section	.text.HAL_I2C_Slave_Sequential_Receive_IT,"ax",%progbits
 3814              		.align	1
 3815              		.global	HAL_I2C_Slave_Sequential_Receive_IT
 3816              		.syntax unified
 3817              		.code	16
 3818              		.thumb_func
 3819              		.fpu softvfp
 3821              	HAL_I2C_Slave_Sequential_Receive_IT:
 3822              		@ args = 0, pretend = 0, frame = 16
 3823              		@ frame_needed = 0, uses_anonymous_args = 0
 3824 0000 F0B5     		push	{r4, r5, r6, r7, lr}
 3825 0002 0700     		movs	r7, r0
 3826 0004 85B0     		sub	sp, sp, #20
 3827 0006 0292     		str	r2, [sp, #8]
 3828 0008 2822     		movs	r2, #40
 3829 000a 0191     		str	r1, [sp, #4]
 3830 000c 0393     		str	r3, [sp, #12]
 3831 000e 4137     		adds	r7, r7, #65
 3832 0010 3B78     		ldrb	r3, [r7]
 3833 0012 0400     		movs	r4, r0
 3834 0014 0125     		movs	r5, #1
 3835 0016 1340     		ands	r3, r2
 3836 0018 9342     		cmp	r3, r2
 3837 001a 36D1     		bne	.L522
 3838 001c 0029     		cmp	r1, #0
 3839 001e 34D0     		beq	.L522
 3840 0020 029B     		ldr	r3, [sp, #8]
 3841 0022 002B     		cmp	r3, #0
 3842 0024 31D0     		beq	.L522
 3843 0026 2600     		movs	r6, r4
 3844 0028 0621     		movs	r1, #6
 3845 002a 4036     		adds	r6, r6, #64
ARM GAS  /tmp/cchjT0Ct.s 			page 67


 3846 002c FFF7FEFF 		bl	I2C_Disable_IRQ.isra.0
 3847 0030 3378     		ldrb	r3, [r6]
 3848 0032 AB42     		cmp	r3, r5
 3849 0034 2CD0     		beq	.L528
 3850 0036 3570     		strb	r5, [r6]
 3851 0038 3B78     		ldrb	r3, [r7]
 3852 003a 292B     		cmp	r3, #41
 3853 003c 03D1     		bne	.L523
 3854 003e 2900     		movs	r1, r5
 3855 0040 2000     		movs	r0, r4
 3856 0042 FFF7FEFF 		bl	I2C_Disable_IRQ.isra.0
 3857              	.L523:
 3858 0046 2A23     		movs	r3, #42
 3859 0048 3B70     		strb	r3, [r7]
 3860 004a 2300     		movs	r3, r4
 3861 004c 2022     		movs	r2, #32
 3862 004e 0021     		movs	r1, #0
 3863 0050 4233     		adds	r3, r3, #66
 3864 0052 1A70     		strb	r2, [r3]
 3865 0054 2368     		ldr	r3, [r4]
 3866 0056 6164     		str	r1, [r4, #68]
 3867 0058 5A68     		ldr	r2, [r3, #4]
 3868 005a 0E48     		ldr	r0, .L530
 3869 005c 0240     		ands	r2, r0
 3870 005e 5A60     		str	r2, [r3, #4]
 3871 0060 019A     		ldr	r2, [sp, #4]
 3872 0062 6262     		str	r2, [r4, #36]
 3873 0064 029A     		ldr	r2, [sp, #8]
 3874 0066 6285     		strh	r2, [r4, #42]
 3875 0068 628D     		ldrh	r2, [r4, #42]
 3876 006a 2285     		strh	r2, [r4, #40]
 3877 006c 039A     		ldr	r2, [sp, #12]
 3878 006e E262     		str	r2, [r4, #44]
 3879 0070 094A     		ldr	r2, .L530+4
 3880 0072 6263     		str	r2, [r4, #52]
 3881 0074 9A69     		ldr	r2, [r3, #24]
 3882 0076 D203     		lsls	r2, r2, #15
 3883 0078 01D4     		bmi	.L524
 3884 007a 0822     		movs	r2, #8
 3885 007c DA61     		str	r2, [r3, #28]
 3886              	.L524:
 3887 007e 3170     		strb	r1, [r6]
 3888 0080 2000     		movs	r0, r4
 3889 0082 0621     		movs	r1, #6
 3890 0084 FFF7FEFF 		bl	I2C_Enable_IRQ.isra.0
 3891 0088 0025     		movs	r5, #0
 3892              	.L522:
 3893 008a 2800     		movs	r0, r5
 3894 008c 05B0     		add	sp, sp, #20
 3895              		@ sp needed
 3896 008e F0BD     		pop	{r4, r5, r6, r7, pc}
 3897              	.L528:
 3898 0090 0225     		movs	r5, #2
 3899 0092 FAE7     		b	.L522
 3900              	.L531:
 3901              		.align	2
 3902              	.L530:
ARM GAS  /tmp/cchjT0Ct.s 			page 68


 3903 0094 FF7FFFFF 		.word	-32769
 3904 0098 00000000 		.word	I2C_Slave_ISR_IT
 3906              		.section	.text.HAL_I2C_EnableListen_IT,"ax",%progbits
 3907              		.align	1
 3908              		.global	HAL_I2C_EnableListen_IT
 3909              		.syntax unified
 3910              		.code	16
 3911              		.thumb_func
 3912              		.fpu softvfp
 3914              	HAL_I2C_EnableListen_IT:
 3915              		@ args = 0, pretend = 0, frame = 0
 3916              		@ frame_needed = 0, uses_anonymous_args = 0
 3917 0000 0200     		movs	r2, r0
 3918 0002 10B5     		push	{r4, lr}
 3919 0004 4132     		adds	r2, r2, #65
 3920 0006 1178     		ldrb	r1, [r2]
 3921 0008 0223     		movs	r3, #2
 3922 000a 2029     		cmp	r1, #32
 3923 000c 07D1     		bne	.L533
 3924 000e 2633     		adds	r3, r3, #38
 3925 0010 1370     		strb	r3, [r2]
 3926 0012 044B     		ldr	r3, .L535
 3927 0014 1C39     		subs	r1, r1, #28
 3928 0016 4363     		str	r3, [r0, #52]
 3929 0018 FFF7FEFF 		bl	I2C_Enable_IRQ.isra.0
 3930 001c 0023     		movs	r3, #0
 3931              	.L533:
 3932              		@ sp needed
 3933 001e 1800     		movs	r0, r3
 3934 0020 10BD     		pop	{r4, pc}
 3935              	.L536:
 3936 0022 C046     		.align	2
 3937              	.L535:
 3938 0024 00000000 		.word	I2C_Slave_ISR_IT
 3940              		.section	.text.HAL_I2C_DisableListen_IT,"ax",%progbits
 3941              		.align	1
 3942              		.global	HAL_I2C_DisableListen_IT
 3943              		.syntax unified
 3944              		.code	16
 3945              		.thumb_func
 3946              		.fpu softvfp
 3948              	HAL_I2C_DisableListen_IT:
 3949              		@ args = 0, pretend = 0, frame = 0
 3950              		@ frame_needed = 0, uses_anonymous_args = 0
 3951 0000 0300     		movs	r3, r0
 3952 0002 70B5     		push	{r4, r5, r6, lr}
 3953 0004 4133     		adds	r3, r3, #65
 3954 0006 1A78     		ldrb	r2, [r3]
 3955 0008 0224     		movs	r4, #2
 3956 000a 282A     		cmp	r2, #40
 3957 000c 0FD1     		bne	.L538
 3958 000e 0500     		movs	r5, r0
 3959 0010 1978     		ldrb	r1, [r3]
 3960 0012 4235     		adds	r5, r5, #66
 3961 0014 2A78     		ldrb	r2, [r5]
 3962 0016 0134     		adds	r4, r4, #1
 3963 0018 2140     		ands	r1, r4
ARM GAS  /tmp/cchjT0Ct.s 			page 69


 3964 001a 0A43     		orrs	r2, r1
 3965 001c 0263     		str	r2, [r0, #48]
 3966 001e 0024     		movs	r4, #0
 3967 0020 2022     		movs	r2, #32
 3968 0022 0421     		movs	r1, #4
 3969 0024 1A70     		strb	r2, [r3]
 3970 0026 2C70     		strb	r4, [r5]
 3971 0028 4463     		str	r4, [r0, #52]
 3972 002a FFF7FEFF 		bl	I2C_Disable_IRQ.isra.0
 3973              	.L538:
 3974              		@ sp needed
 3975 002e 2000     		movs	r0, r4
 3976 0030 70BD     		pop	{r4, r5, r6, pc}
 3978              		.section	.text.HAL_I2C_Master_Abort_IT,"ax",%progbits
 3979              		.align	1
 3980              		.global	HAL_I2C_Master_Abort_IT
 3981              		.syntax unified
 3982              		.code	16
 3983              		.thumb_func
 3984              		.fpu softvfp
 3986              	HAL_I2C_Master_Abort_IT:
 3987              		@ args = 0, pretend = 0, frame = 0
 3988              		@ frame_needed = 0, uses_anonymous_args = 0
 3989 0000 0300     		movs	r3, r0
 3990 0002 F7B5     		push	{r0, r1, r2, r4, r5, r6, r7, lr}
 3991 0004 4233     		adds	r3, r3, #66
 3992 0006 1B78     		ldrb	r3, [r3]
 3993 0008 0500     		movs	r5, r0
 3994 000a 0F00     		movs	r7, r1
 3995 000c 0124     		movs	r4, #1
 3996 000e 102B     		cmp	r3, #16
 3997 0010 20D1     		bne	.L541
 3998 0012 0600     		movs	r6, r0
 3999 0014 4036     		adds	r6, r6, #64
 4000 0016 3378     		ldrb	r3, [r6]
 4001 0018 A342     		cmp	r3, r4
 4002 001a 1DD0     		beq	.L543
 4003 001c 0221     		movs	r1, #2
 4004 001e 3470     		strb	r4, [r6]
 4005 0020 FFF7FEFF 		bl	I2C_Disable_IRQ.isra.0
 4006 0024 2100     		movs	r1, r4
 4007 0026 2800     		movs	r0, r5
 4008 0028 FFF7FEFF 		bl	I2C_Disable_IRQ.isra.0
 4009 002c 2B00     		movs	r3, r5
 4010 002e 6022     		movs	r2, #96
 4011 0030 4133     		adds	r3, r3, #65
 4012 0032 1A70     		strb	r2, [r3]
 4013 0034 8023     		movs	r3, #128
 4014 0036 DB01     		lsls	r3, r3, #7
 4015 0038 0093     		str	r3, [sp]
 4016 003a 8023     		movs	r3, #128
 4017 003c 2200     		movs	r2, r4
 4018 003e 0024     		movs	r4, #0
 4019 0040 3900     		movs	r1, r7
 4020 0042 2800     		movs	r0, r5
 4021 0044 9B04     		lsls	r3, r3, #18
 4022 0046 FFF7FEFF 		bl	I2C_TransferConfig
ARM GAS  /tmp/cchjT0Ct.s 			page 70


 4023 004a 1221     		movs	r1, #18
 4024 004c 2800     		movs	r0, r5
 4025 004e 3470     		strb	r4, [r6]
 4026 0050 FFF7FEFF 		bl	I2C_Enable_IRQ.isra.0
 4027              	.L541:
 4028              		@ sp needed
 4029 0054 2000     		movs	r0, r4
 4030 0056 FEBD     		pop	{r1, r2, r3, r4, r5, r6, r7, pc}
 4031              	.L543:
 4032 0058 0224     		movs	r4, #2
 4033 005a FBE7     		b	.L541
 4035              		.section	.text.HAL_I2C_EV_IRQHandler,"ax",%progbits
 4036              		.align	1
 4037              		.global	HAL_I2C_EV_IRQHandler
 4038              		.syntax unified
 4039              		.code	16
 4040              		.thumb_func
 4041              		.fpu softvfp
 4043              	HAL_I2C_EV_IRQHandler:
 4044              		@ args = 0, pretend = 0, frame = 0
 4045              		@ frame_needed = 0, uses_anonymous_args = 0
 4046 0000 0368     		ldr	r3, [r0]
 4047 0002 10B5     		push	{r4, lr}
 4048 0004 9969     		ldr	r1, [r3, #24]
 4049 0006 1A68     		ldr	r2, [r3]
 4050 0008 436B     		ldr	r3, [r0, #52]
 4051 000a 002B     		cmp	r3, #0
 4052 000c 00D0     		beq	.L544
 4053 000e 9847     		blx	r3
 4054              	.L544:
 4055              		@ sp needed
 4056 0010 10BD     		pop	{r4, pc}
 4058              		.section	.text.HAL_I2C_MasterTxCpltCallback,"ax",%progbits
 4059              		.align	1
 4060              		.weak	HAL_I2C_MasterTxCpltCallback
 4061              		.syntax unified
 4062              		.code	16
 4063              		.thumb_func
 4064              		.fpu softvfp
 4066              	HAL_I2C_MasterTxCpltCallback:
 4067              		@ args = 0, pretend = 0, frame = 0
 4068              		@ frame_needed = 0, uses_anonymous_args = 0
 4069              		@ link register save eliminated.
 4070              		@ sp needed
 4071 0000 7047     		bx	lr
 4073              		.section	.text.HAL_I2C_MasterRxCpltCallback,"ax",%progbits
 4074              		.align	1
 4075              		.weak	HAL_I2C_MasterRxCpltCallback
 4076              		.syntax unified
 4077              		.code	16
 4078              		.thumb_func
 4079              		.fpu softvfp
 4081              	HAL_I2C_MasterRxCpltCallback:
 4082              		@ args = 0, pretend = 0, frame = 0
 4083              		@ frame_needed = 0, uses_anonymous_args = 0
 4084              		@ link register save eliminated.
 4085              		@ sp needed
ARM GAS  /tmp/cchjT0Ct.s 			page 71


 4086 0000 7047     		bx	lr
 4088              		.section	.text.I2C_ITMasterSequentialCplt,"ax",%progbits
 4089              		.align	1
 4090              		.syntax unified
 4091              		.code	16
 4092              		.thumb_func
 4093              		.fpu softvfp
 4095              	I2C_ITMasterSequentialCplt:
 4096              		@ args = 0, pretend = 0, frame = 0
 4097              		@ frame_needed = 0, uses_anonymous_args = 0
 4098 0000 0300     		movs	r3, r0
 4099 0002 70B5     		push	{r4, r5, r6, lr}
 4100 0004 0025     		movs	r5, #0
 4101 0006 2022     		movs	r2, #32
 4102 0008 0600     		movs	r6, r0
 4103 000a 4233     		adds	r3, r3, #66
 4104 000c 1D70     		strb	r5, [r3]
 4105 000e 013B     		subs	r3, r3, #1
 4106 0010 1978     		ldrb	r1, [r3]
 4107 0012 0400     		movs	r4, r0
 4108 0014 4036     		adds	r6, r6, #64
 4109 0016 1A70     		strb	r2, [r3]
 4110 0018 2129     		cmp	r1, #33
 4111 001a 0AD1     		bne	.L552
 4112 001c 1123     		movs	r3, #17
 4113 001e 4563     		str	r5, [r0, #52]
 4114 0020 0363     		str	r3, [r0, #48]
 4115 0022 2039     		subs	r1, r1, #32
 4116 0024 FFF7FEFF 		bl	I2C_Disable_IRQ.isra.0
 4117 0028 2000     		movs	r0, r4
 4118 002a 3570     		strb	r5, [r6]
 4119 002c FFF7FEFF 		bl	HAL_I2C_MasterTxCpltCallback
 4120              	.L551:
 4121              		@ sp needed
 4122 0030 70BD     		pop	{r4, r5, r6, pc}
 4123              	.L552:
 4124 0032 1223     		movs	r3, #18
 4125 0034 4563     		str	r5, [r0, #52]
 4126 0036 0363     		str	r3, [r0, #48]
 4127 0038 0221     		movs	r1, #2
 4128 003a FFF7FEFF 		bl	I2C_Disable_IRQ.isra.0
 4129 003e 2000     		movs	r0, r4
 4130 0040 3570     		strb	r5, [r6]
 4131 0042 FFF7FEFF 		bl	HAL_I2C_MasterRxCpltCallback
 4132 0046 F3E7     		b	.L551
 4134              		.section	.text.HAL_I2C_SlaveTxCpltCallback,"ax",%progbits
 4135              		.align	1
 4136              		.weak	HAL_I2C_SlaveTxCpltCallback
 4137              		.syntax unified
 4138              		.code	16
 4139              		.thumb_func
 4140              		.fpu softvfp
 4142              	HAL_I2C_SlaveTxCpltCallback:
 4143              		@ args = 0, pretend = 0, frame = 0
 4144              		@ frame_needed = 0, uses_anonymous_args = 0
 4145              		@ link register save eliminated.
 4146              		@ sp needed
ARM GAS  /tmp/cchjT0Ct.s 			page 72


 4147 0000 7047     		bx	lr
 4149              		.section	.text.HAL_I2C_SlaveRxCpltCallback,"ax",%progbits
 4150              		.align	1
 4151              		.weak	HAL_I2C_SlaveRxCpltCallback
 4152              		.syntax unified
 4153              		.code	16
 4154              		.thumb_func
 4155              		.fpu softvfp
 4157              	HAL_I2C_SlaveRxCpltCallback:
 4158              		@ args = 0, pretend = 0, frame = 0
 4159              		@ frame_needed = 0, uses_anonymous_args = 0
 4160              		@ link register save eliminated.
 4161              		@ sp needed
 4162 0000 7047     		bx	lr
 4164              		.section	.text.I2C_ITSlaveSequentialCplt,"ax",%progbits
 4165              		.align	1
 4166              		.syntax unified
 4167              		.code	16
 4168              		.thumb_func
 4169              		.fpu softvfp
 4171              	I2C_ITSlaveSequentialCplt:
 4172              		@ args = 0, pretend = 0, frame = 0
 4173              		@ frame_needed = 0, uses_anonymous_args = 0
 4174 0000 0300     		movs	r3, r0
 4175 0002 70B5     		push	{r4, r5, r6, lr}
 4176 0004 0025     		movs	r5, #0
 4177 0006 4233     		adds	r3, r3, #66
 4178 0008 1D70     		strb	r5, [r3]
 4179 000a 013B     		subs	r3, r3, #1
 4180 000c 1A78     		ldrb	r2, [r3]
 4181 000e 0400     		movs	r4, r0
 4182 0010 292A     		cmp	r2, #41
 4183 0012 0DD1     		bne	.L557
 4184 0014 013A     		subs	r2, r2, #1
 4185 0016 1A70     		strb	r2, [r3]
 4186 0018 2123     		movs	r3, #33
 4187 001a 0121     		movs	r1, #1
 4188 001c 0363     		str	r3, [r0, #48]
 4189 001e FFF7FEFF 		bl	I2C_Disable_IRQ.isra.0
 4190 0022 2300     		movs	r3, r4
 4191 0024 4033     		adds	r3, r3, #64
 4192 0026 2000     		movs	r0, r4
 4193 0028 1D70     		strb	r5, [r3]
 4194 002a FFF7FEFF 		bl	HAL_I2C_SlaveTxCpltCallback
 4195              	.L556:
 4196              		@ sp needed
 4197 002e 70BD     		pop	{r4, r5, r6, pc}
 4198              	.L557:
 4199 0030 1A78     		ldrb	r2, [r3]
 4200 0032 2A2A     		cmp	r2, #42
 4201 0034 FBD1     		bne	.L556
 4202 0036 023A     		subs	r2, r2, #2
 4203 0038 1A70     		strb	r2, [r3]
 4204 003a 2223     		movs	r3, #34
 4205 003c 0221     		movs	r1, #2
 4206 003e 0363     		str	r3, [r0, #48]
 4207 0040 FFF7FEFF 		bl	I2C_Disable_IRQ.isra.0
ARM GAS  /tmp/cchjT0Ct.s 			page 73


 4208 0044 2300     		movs	r3, r4
 4209 0046 4033     		adds	r3, r3, #64
 4210 0048 2000     		movs	r0, r4
 4211 004a 1D70     		strb	r5, [r3]
 4212 004c FFF7FEFF 		bl	HAL_I2C_SlaveRxCpltCallback
 4213 0050 EDE7     		b	.L556
 4215              		.section	.text.HAL_I2C_AddrCallback,"ax",%progbits
 4216              		.align	1
 4217              		.weak	HAL_I2C_AddrCallback
 4218              		.syntax unified
 4219              		.code	16
 4220              		.thumb_func
 4221              		.fpu softvfp
 4223              	HAL_I2C_AddrCallback:
 4224              		@ args = 0, pretend = 0, frame = 0
 4225              		@ frame_needed = 0, uses_anonymous_args = 0
 4226              		@ link register save eliminated.
 4227              		@ sp needed
 4228 0000 7047     		bx	lr
 4230              		.section	.text.HAL_I2C_ListenCpltCallback,"ax",%progbits
 4231              		.align	1
 4232              		.weak	HAL_I2C_ListenCpltCallback
 4233              		.syntax unified
 4234              		.code	16
 4235              		.thumb_func
 4236              		.fpu softvfp
 4238              	HAL_I2C_ListenCpltCallback:
 4239              		@ args = 0, pretend = 0, frame = 0
 4240              		@ frame_needed = 0, uses_anonymous_args = 0
 4241              		@ link register save eliminated.
 4242              		@ sp needed
 4243 0000 7047     		bx	lr
 4245              		.section	.text.I2C_ITListenCplt,"ax",%progbits
 4246              		.align	1
 4247              		.syntax unified
 4248              		.code	16
 4249              		.thumb_func
 4250              		.fpu softvfp
 4252              	I2C_ITListenCplt:
 4253              		@ args = 0, pretend = 0, frame = 0
 4254              		@ frame_needed = 0, uses_anonymous_args = 0
 4255 0000 174B     		ldr	r3, .L568
 4256 0002 10B5     		push	{r4, lr}
 4257 0004 C362     		str	r3, [r0, #44]
 4258 0006 0023     		movs	r3, #0
 4259 0008 0200     		movs	r2, r0
 4260 000a 0363     		str	r3, [r0, #48]
 4261 000c 0400     		movs	r4, r0
 4262 000e 2020     		movs	r0, #32
 4263 0010 4132     		adds	r2, r2, #65
 4264 0012 1070     		strb	r0, [r2]
 4265 0014 5370     		strb	r3, [r2, #1]
 4266 0016 0422     		movs	r2, #4
 4267 0018 6363     		str	r3, [r4, #52]
 4268 001a 1142     		tst	r1, r2
 4269 001c 11D0     		beq	.L563
 4270 001e 2368     		ldr	r3, [r4]
ARM GAS  /tmp/cchjT0Ct.s 			page 74


 4271 0020 596A     		ldr	r1, [r3, #36]
 4272 0022 636A     		ldr	r3, [r4, #36]
 4273 0024 581C     		adds	r0, r3, #1
 4274 0026 6062     		str	r0, [r4, #36]
 4275 0028 1970     		strb	r1, [r3]
 4276 002a 238D     		ldrh	r3, [r4, #40]
 4277 002c 002B     		cmp	r3, #0
 4278 002e 08D0     		beq	.L563
 4279 0030 013B     		subs	r3, r3, #1
 4280 0032 2385     		strh	r3, [r4, #40]
 4281 0034 638D     		ldrh	r3, [r4, #42]
 4282 0036 013B     		subs	r3, r3, #1
 4283 0038 9BB2     		uxth	r3, r3
 4284 003a 6385     		strh	r3, [r4, #42]
 4285 003c 636C     		ldr	r3, [r4, #68]
 4286 003e 1A43     		orrs	r2, r3
 4287 0040 6264     		str	r2, [r4, #68]
 4288              	.L563:
 4289 0042 0721     		movs	r1, #7
 4290              		@ sp needed
 4291 0044 2000     		movs	r0, r4
 4292 0046 FFF7FEFF 		bl	I2C_Disable_IRQ.isra.0
 4293 004a 1022     		movs	r2, #16
 4294 004c 2368     		ldr	r3, [r4]
 4295 004e 2000     		movs	r0, r4
 4296 0050 DA61     		str	r2, [r3, #28]
 4297 0052 2300     		movs	r3, r4
 4298 0054 0022     		movs	r2, #0
 4299 0056 4033     		adds	r3, r3, #64
 4300 0058 1A70     		strb	r2, [r3]
 4301 005a FFF7FEFF 		bl	HAL_I2C_ListenCpltCallback
 4302 005e 10BD     		pop	{r4, pc}
 4303              	.L569:
 4304              		.align	2
 4305              	.L568:
 4306 0060 0000FFFF 		.word	-65536
 4308              		.section	.text.HAL_I2C_MemTxCpltCallback,"ax",%progbits
 4309              		.align	1
 4310              		.weak	HAL_I2C_MemTxCpltCallback
 4311              		.syntax unified
 4312              		.code	16
 4313              		.thumb_func
 4314              		.fpu softvfp
 4316              	HAL_I2C_MemTxCpltCallback:
 4317              		@ args = 0, pretend = 0, frame = 0
 4318              		@ frame_needed = 0, uses_anonymous_args = 0
 4319              		@ link register save eliminated.
 4320              		@ sp needed
 4321 0000 7047     		bx	lr
 4323              		.section	.text.HAL_I2C_MemRxCpltCallback,"ax",%progbits
 4324              		.align	1
 4325              		.weak	HAL_I2C_MemRxCpltCallback
 4326              		.syntax unified
 4327              		.code	16
 4328              		.thumb_func
 4329              		.fpu softvfp
 4331              	HAL_I2C_MemRxCpltCallback:
ARM GAS  /tmp/cchjT0Ct.s 			page 75


 4332              		@ args = 0, pretend = 0, frame = 0
 4333              		@ frame_needed = 0, uses_anonymous_args = 0
 4334              		@ link register save eliminated.
 4335              		@ sp needed
 4336 0000 7047     		bx	lr
 4338              		.section	.text.HAL_I2C_ErrorCallback,"ax",%progbits
 4339              		.align	1
 4340              		.weak	HAL_I2C_ErrorCallback
 4341              		.syntax unified
 4342              		.code	16
 4343              		.thumb_func
 4344              		.fpu softvfp
 4346              	HAL_I2C_ErrorCallback:
 4347              		@ args = 0, pretend = 0, frame = 0
 4348              		@ frame_needed = 0, uses_anonymous_args = 0
 4349              		@ link register save eliminated.
 4350              		@ sp needed
 4351 0000 7047     		bx	lr
 4353              		.section	.text.HAL_I2C_AbortCpltCallback,"ax",%progbits
 4354              		.align	1
 4355              		.weak	HAL_I2C_AbortCpltCallback
 4356              		.syntax unified
 4357              		.code	16
 4358              		.thumb_func
 4359              		.fpu softvfp
 4361              	HAL_I2C_AbortCpltCallback:
 4362              		@ args = 0, pretend = 0, frame = 0
 4363              		@ frame_needed = 0, uses_anonymous_args = 0
 4364              		@ link register save eliminated.
 4365              		@ sp needed
 4366 0000 7047     		bx	lr
 4368              		.section	.text.I2C_ITError,"ax",%progbits
 4369              		.align	1
 4370              		.syntax unified
 4371              		.code	16
 4372              		.thumb_func
 4373              		.fpu softvfp
 4375              	I2C_ITError:
 4376              		@ args = 0, pretend = 0, frame = 0
 4377              		@ frame_needed = 0, uses_anonymous_args = 0
 4378 0000 F8B5     		push	{r3, r4, r5, r6, r7, lr}
 4379 0002 0300     		movs	r3, r0
 4380 0004 0022     		movs	r2, #0
 4381 0006 0500     		movs	r5, r0
 4382 0008 4233     		adds	r3, r3, #66
 4383 000a 1A70     		strb	r2, [r3]
 4384 000c 324B     		ldr	r3, .L599
 4385 000e 4135     		adds	r5, r5, #65
 4386 0010 C362     		str	r3, [r0, #44]
 4387 0012 4285     		strh	r2, [r0, #42]
 4388 0014 436C     		ldr	r3, [r0, #68]
 4389 0016 0400     		movs	r4, r0
 4390 0018 0B43     		orrs	r3, r1
 4391 001a 4364     		str	r3, [r0, #68]
 4392 001c 2B78     		ldrb	r3, [r5]
 4393 001e 282B     		cmp	r3, #40
 4394 0020 05D0     		beq	.L575
ARM GAS  /tmp/cchjT0Ct.s 			page 76


 4395 0022 2B78     		ldrb	r3, [r5]
 4396 0024 292B     		cmp	r3, #41
 4397 0026 02D0     		beq	.L575
 4398 0028 2B78     		ldrb	r3, [r5]
 4399 002a 2A2B     		cmp	r3, #42
 4400 002c 24D1     		bne	.L576
 4401              	.L575:
 4402 002e 0321     		movs	r1, #3
 4403 0030 2000     		movs	r0, r4
 4404 0032 FFF7FEFF 		bl	I2C_Disable_IRQ.isra.0
 4405 0036 2823     		movs	r3, #40
 4406 0038 2B70     		strb	r3, [r5]
 4407 003a 0023     		movs	r3, #0
 4408 003c 2363     		str	r3, [r4, #48]
 4409 003e 274B     		ldr	r3, .L599+4
 4410              	.L597:
 4411 0040 6363     		str	r3, [r4, #52]
 4412 0042 2368     		ldr	r3, [r4]
 4413 0044 8021     		movs	r1, #128
 4414 0046 1868     		ldr	r0, [r3]
 4415 0048 2200     		movs	r2, r4
 4416 004a 0600     		movs	r6, r0
 4417 004c C901     		lsls	r1, r1, #7
 4418 004e 0E40     		ands	r6, r1
 4419 0050 4032     		adds	r2, r2, #64
 4420 0052 0842     		tst	r0, r1
 4421 0054 1BD0     		beq	.L579
 4422 0056 1968     		ldr	r1, [r3]
 4423 0058 2148     		ldr	r0, .L599+8
 4424 005a 0140     		ands	r1, r0
 4425 005c 1960     		str	r1, [r3]
 4426 005e A06B     		ldr	r0, [r4, #56]
 4427 0060 204B     		ldr	r3, .L599+12
 4428 0062 4363     		str	r3, [r0, #52]
 4429 0064 0023     		movs	r3, #0
 4430 0066 1370     		strb	r3, [r2]
 4431 0068 FFF7FEFF 		bl	HAL_DMA_Abort_IT
 4432 006c 0028     		cmp	r0, #0
 4433 006e 02D0     		beq	.L574
 4434 0070 A06B     		ldr	r0, [r4, #56]
 4435              	.L598:
 4436 0072 436B     		ldr	r3, [r0, #52]
 4437 0074 9847     		blx	r3
 4438              	.L574:
 4439              		@ sp needed
 4440 0076 F8BD     		pop	{r3, r4, r5, r6, r7, pc}
 4441              	.L576:
 4442 0078 0721     		movs	r1, #7
 4443 007a FFF7FEFF 		bl	I2C_Disable_IRQ.isra.0
 4444 007e 2B78     		ldrb	r3, [r5]
 4445 0080 602B     		cmp	r3, #96
 4446 0082 01D0     		beq	.L578
 4447 0084 2023     		movs	r3, #32
 4448 0086 2B70     		strb	r3, [r5]
 4449              	.L578:
 4450 0088 0023     		movs	r3, #0
 4451 008a 2363     		str	r3, [r4, #48]
ARM GAS  /tmp/cchjT0Ct.s 			page 77


 4452 008c D8E7     		b	.L597
 4453              	.L579:
 4454 008e 1F68     		ldr	r7, [r3]
 4455 0090 8020     		movs	r0, #128
 4456 0092 3900     		movs	r1, r7
 4457 0094 0002     		lsls	r0, r0, #8
 4458 0096 0140     		ands	r1, r0
 4459 0098 0742     		tst	r7, r0
 4460 009a 0DD0     		beq	.L582
 4461 009c 1968     		ldr	r1, [r3]
 4462 009e 1248     		ldr	r0, .L599+16
 4463 00a0 0140     		ands	r1, r0
 4464 00a2 1960     		str	r1, [r3]
 4465 00a4 E06B     		ldr	r0, [r4, #60]
 4466 00a6 0F4B     		ldr	r3, .L599+12
 4467 00a8 4363     		str	r3, [r0, #52]
 4468 00aa 1670     		strb	r6, [r2]
 4469 00ac FFF7FEFF 		bl	HAL_DMA_Abort_IT
 4470 00b0 0028     		cmp	r0, #0
 4471 00b2 E0D0     		beq	.L574
 4472 00b4 E06B     		ldr	r0, [r4, #60]
 4473 00b6 DCE7     		b	.L598
 4474              	.L582:
 4475 00b8 2B78     		ldrb	r3, [r5]
 4476 00ba 602B     		cmp	r3, #96
 4477 00bc 06D1     		bne	.L584
 4478 00be 403B     		subs	r3, r3, #64
 4479 00c0 2B70     		strb	r3, [r5]
 4480 00c2 2000     		movs	r0, r4
 4481 00c4 1170     		strb	r1, [r2]
 4482 00c6 FFF7FEFF 		bl	HAL_I2C_AbortCpltCallback
 4483 00ca D4E7     		b	.L574
 4484              	.L584:
 4485 00cc 2000     		movs	r0, r4
 4486 00ce 1170     		strb	r1, [r2]
 4487 00d0 FFF7FEFF 		bl	HAL_I2C_ErrorCallback
 4488 00d4 CFE7     		b	.L574
 4489              	.L600:
 4490 00d6 C046     		.align	2
 4491              	.L599:
 4492 00d8 0000FFFF 		.word	-65536
 4493 00dc 00000000 		.word	I2C_Slave_ISR_IT
 4494 00e0 FFBFFFFF 		.word	-16385
 4495 00e4 00000000 		.word	I2C_DMAAbort
 4496 00e8 FF7FFFFF 		.word	-32769
 4498              		.section	.text.I2C_ITSlaveCplt,"ax",%progbits
 4499              		.align	1
 4500              		.syntax unified
 4501              		.code	16
 4502              		.thumb_func
 4503              		.fpu softvfp
 4505              	I2C_ITSlaveCplt:
 4506              		@ args = 0, pretend = 0, frame = 0
 4507              		@ frame_needed = 0, uses_anonymous_args = 0
 4508 0000 F8B5     		push	{r3, r4, r5, r6, r7, lr}
 4509 0002 0400     		movs	r4, r0
 4510 0004 2022     		movs	r2, #32
ARM GAS  /tmp/cchjT0Ct.s 			page 78


 4511 0006 8027     		movs	r7, #128
 4512 0008 2500     		movs	r5, r4
 4513 000a 0368     		ldr	r3, [r0]
 4514 000c 0E00     		movs	r6, r1
 4515 000e DA61     		str	r2, [r3, #28]
 4516 0010 183A     		subs	r2, r2, #24
 4517 0012 DA61     		str	r2, [r3, #28]
 4518 0014 0721     		movs	r1, #7
 4519 0016 FFF7FEFF 		bl	I2C_Disable_IRQ.isra.0
 4520 001a 2368     		ldr	r3, [r4]
 4521 001c 3F02     		lsls	r7, r7, #8
 4522 001e 5A68     		ldr	r2, [r3, #4]
 4523 0020 3349     		ldr	r1, .L624
 4524 0022 3A43     		orrs	r2, r7
 4525 0024 5A60     		str	r2, [r3, #4]
 4526 0026 5A68     		ldr	r2, [r3, #4]
 4527 0028 2000     		movs	r0, r4
 4528 002a 0A40     		ands	r2, r1
 4529 002c 5A60     		str	r2, [r3, #4]
 4530 002e FFF7FEFF 		bl	I2C_Flush_TXDR
 4531 0032 2168     		ldr	r1, [r4]
 4532 0034 4135     		adds	r5, r5, #65
 4533 0036 0B68     		ldr	r3, [r1]
 4534 0038 5B04     		lsls	r3, r3, #17
 4535 003a 02D4     		bmi	.L602
 4536 003c 0B68     		ldr	r3, [r1]
 4537 003e 3B42     		tst	r3, r7
 4538 0040 07D0     		beq	.L603
 4539              	.L602:
 4540 0042 2B78     		ldrb	r3, [r5]
 4541 0044 212B     		cmp	r3, #33
 4542 0046 34D1     		bne	.L604
 4543 0048 A36B     		ldr	r3, [r4, #56]
 4544              	.L623:
 4545 004a 1B68     		ldr	r3, [r3]
 4546 004c 5B68     		ldr	r3, [r3, #4]
 4547 004e 9BB2     		uxth	r3, r3
 4548 0050 6385     		strh	r3, [r4, #42]
 4549              	.L603:
 4550 0052 638D     		ldrh	r3, [r4, #42]
 4551 0054 002B     		cmp	r3, #0
 4552 0056 03D0     		beq	.L606
 4553 0058 0423     		movs	r3, #4
 4554 005a 626C     		ldr	r2, [r4, #68]
 4555 005c 1343     		orrs	r3, r2
 4556 005e 6364     		str	r3, [r4, #68]
 4557              	.L606:
 4558 0060 0422     		movs	r2, #4
 4559 0062 1642     		tst	r6, r2
 4560 0064 10D0     		beq	.L608
 4561 0066 636A     		ldr	r3, [r4, #36]
 4562 0068 496A     		ldr	r1, [r1, #36]
 4563 006a 581C     		adds	r0, r3, #1
 4564 006c 6062     		str	r0, [r4, #36]
 4565 006e 1970     		strb	r1, [r3]
 4566 0070 238D     		ldrh	r3, [r4, #40]
 4567 0072 002B     		cmp	r3, #0
ARM GAS  /tmp/cchjT0Ct.s 			page 79


 4568 0074 08D0     		beq	.L608
 4569 0076 013B     		subs	r3, r3, #1
 4570 0078 2385     		strh	r3, [r4, #40]
 4571 007a 638D     		ldrh	r3, [r4, #42]
 4572 007c 013B     		subs	r3, r3, #1
 4573 007e 9BB2     		uxth	r3, r3
 4574 0080 6385     		strh	r3, [r4, #42]
 4575 0082 636C     		ldr	r3, [r4, #68]
 4576 0084 1A43     		orrs	r2, r3
 4577 0086 6264     		str	r2, [r4, #68]
 4578              	.L608:
 4579 0088 2200     		movs	r2, r4
 4580 008a 0023     		movs	r3, #0
 4581 008c 4232     		adds	r2, r2, #66
 4582 008e 2363     		str	r3, [r4, #48]
 4583 0090 1370     		strb	r3, [r2]
 4584 0092 6363     		str	r3, [r4, #52]
 4585 0094 636C     		ldr	r3, [r4, #68]
 4586 0096 002B     		cmp	r3, #0
 4587 0098 0DD0     		beq	.L610
 4588 009a 2000     		movs	r0, r4
 4589 009c 616C     		ldr	r1, [r4, #68]
 4590 009e FFF7FEFF 		bl	I2C_ITError
 4591 00a2 2B78     		ldrb	r3, [r5]
 4592 00a4 282B     		cmp	r3, #40
 4593 00a6 03D1     		bne	.L601
 4594 00a8 3100     		movs	r1, r6
 4595 00aa 2000     		movs	r0, r4
 4596 00ac FFF7FEFF 		bl	I2C_ITListenCplt
 4597              	.L601:
 4598              		@ sp needed
 4599 00b0 F8BD     		pop	{r3, r4, r5, r6, r7, pc}
 4600              	.L604:
 4601 00b2 E36B     		ldr	r3, [r4, #60]
 4602 00b4 C9E7     		b	.L623
 4603              	.L610:
 4604 00b6 2200     		movs	r2, r4
 4605 00b8 E06A     		ldr	r0, [r4, #44]
 4606 00ba 0E49     		ldr	r1, .L624+4
 4607 00bc 4032     		adds	r2, r2, #64
 4608 00be 8842     		cmp	r0, r1
 4609 00c0 07D0     		beq	.L612
 4610 00c2 E162     		str	r1, [r4, #44]
 4611 00c4 2021     		movs	r1, #32
 4612 00c6 2000     		movs	r0, r4
 4613 00c8 2970     		strb	r1, [r5]
 4614 00ca 1370     		strb	r3, [r2]
 4615 00cc FFF7FEFF 		bl	HAL_I2C_ListenCpltCallback
 4616 00d0 EEE7     		b	.L601
 4617              	.L612:
 4618 00d2 2021     		movs	r1, #32
 4619 00d4 2878     		ldrb	r0, [r5]
 4620 00d6 2970     		strb	r1, [r5]
 4621 00d8 1370     		strb	r3, [r2]
 4622 00da 2228     		cmp	r0, #34
 4623 00dc 03D1     		bne	.L613
 4624 00de 2000     		movs	r0, r4
ARM GAS  /tmp/cchjT0Ct.s 			page 80


 4625 00e0 FFF7FEFF 		bl	HAL_I2C_SlaveRxCpltCallback
 4626 00e4 E4E7     		b	.L601
 4627              	.L613:
 4628 00e6 2000     		movs	r0, r4
 4629 00e8 FFF7FEFF 		bl	HAL_I2C_SlaveTxCpltCallback
 4630 00ec E0E7     		b	.L601
 4631              	.L625:
 4632 00ee C046     		.align	2
 4633              	.L624:
 4634 00f0 00E800FE 		.word	-33495040
 4635 00f4 0000FFFF 		.word	-65536
 4637              		.section	.text.I2C_Slave_ISR_IT,"ax",%progbits
 4638              		.align	1
 4639              		.syntax unified
 4640              		.code	16
 4641              		.thumb_func
 4642              		.fpu softvfp
 4644              	I2C_Slave_ISR_IT:
 4645              		@ args = 0, pretend = 0, frame = 16
 4646              		@ frame_needed = 0, uses_anonymous_args = 0
 4647 0000 F0B5     		push	{r4, r5, r6, r7, lr}
 4648 0002 85B0     		sub	sp, sp, #20
 4649 0004 0192     		str	r2, [sp, #4]
 4650 0006 0200     		movs	r2, r0
 4651 0008 4032     		adds	r2, r2, #64
 4652 000a 1378     		ldrb	r3, [r2]
 4653 000c 0400     		movs	r4, r0
 4654 000e 0D00     		movs	r5, r1
 4655 0010 0220     		movs	r0, #2
 4656 0012 012B     		cmp	r3, #1
 4657 0014 28D0     		beq	.L627
 4658 0016 0123     		movs	r3, #1
 4659 0018 1370     		strb	r3, [r2]
 4660 001a 0F33     		adds	r3, r3, #15
 4661 001c 1942     		tst	r1, r3
 4662 001e 42D0     		beq	.L628
 4663 0020 0199     		ldr	r1, [sp, #4]
 4664 0022 1942     		tst	r1, r3
 4665 0024 3FD0     		beq	.L628
 4666 0026 628D     		ldrh	r2, [r4, #42]
 4667 0028 002A     		cmp	r2, #0
 4668 002a 35D1     		bne	.L629
 4669 002c 8023     		movs	r3, #128
 4670 002e E26A     		ldr	r2, [r4, #44]
 4671 0030 9B04     		lsls	r3, r3, #18
 4672 0032 9A42     		cmp	r2, r3
 4673 0034 02D0     		beq	.L630
 4674 0036 E26A     		ldr	r2, [r4, #44]
 4675 0038 9A42     		cmp	r2, r3
 4676 003a 17D1     		bne	.L631
 4677              	.L630:
 4678 003c 2300     		movs	r3, r4
 4679 003e 4133     		adds	r3, r3, #65
 4680 0040 1B78     		ldrb	r3, [r3]
 4681 0042 282B     		cmp	r3, #40
 4682 0044 12D1     		bne	.L631
 4683 0046 2900     		movs	r1, r5
ARM GAS  /tmp/cchjT0Ct.s 			page 81


 4684 0048 2000     		movs	r0, r4
 4685 004a FFF7FEFF 		bl	I2C_ITListenCplt
 4686              	.L632:
 4687 004e 2023     		movs	r3, #32
 4688 0050 1D42     		tst	r5, r3
 4689 0052 06D0     		beq	.L644
 4690 0054 019A     		ldr	r2, [sp, #4]
 4691 0056 1A42     		tst	r2, r3
 4692 0058 03D0     		beq	.L644
 4693 005a 2900     		movs	r1, r5
 4694 005c 2000     		movs	r0, r4
 4695 005e FFF7FEFF 		bl	I2C_ITSlaveCplt
 4696              	.L644:
 4697 0062 0020     		movs	r0, #0
 4698 0064 4034     		adds	r4, r4, #64
 4699 0066 2070     		strb	r0, [r4]
 4700              	.L627:
 4701 0068 05B0     		add	sp, sp, #20
 4702              		@ sp needed
 4703 006a F0BD     		pop	{r4, r5, r6, r7, pc}
 4704              	.L631:
 4705 006c E16A     		ldr	r1, [r4, #44]
 4706 006e 584A     		ldr	r2, .L683
 4707 0070 2368     		ldr	r3, [r4]
 4708 0072 9142     		cmp	r1, r2
 4709 0074 0DD0     		beq	.L633
 4710 0076 2200     		movs	r2, r4
 4711 0078 4132     		adds	r2, r2, #65
 4712 007a 1278     		ldrb	r2, [r2]
 4713 007c 292A     		cmp	r2, #41
 4714 007e 08D1     		bne	.L633
 4715 0080 193A     		subs	r2, r2, #25
 4716 0082 2000     		movs	r0, r4
 4717 0084 DA61     		str	r2, [r3, #28]
 4718 0086 FFF7FEFF 		bl	I2C_Flush_TXDR
 4719              	.L643:
 4720 008a 2000     		movs	r0, r4
 4721 008c FFF7FEFF 		bl	I2C_ITSlaveSequentialCplt
 4722 0090 DDE7     		b	.L632
 4723              	.L633:
 4724 0092 1022     		movs	r2, #16
 4725 0094 DA61     		str	r2, [r3, #28]
 4726 0096 DAE7     		b	.L632
 4727              	.L629:
 4728 0098 2268     		ldr	r2, [r4]
 4729 009a D361     		str	r3, [r2, #28]
 4730 009c 0423     		movs	r3, #4
 4731 009e 626C     		ldr	r2, [r4, #68]
 4732 00a0 1343     		orrs	r3, r2
 4733 00a2 6364     		str	r3, [r4, #68]
 4734 00a4 D3E7     		b	.L632
 4735              	.L628:
 4736 00a6 0423     		movs	r3, #4
 4737 00a8 1D42     		tst	r5, r3
 4738 00aa 1AD0     		beq	.L634
 4739 00ac 0199     		ldr	r1, [sp, #4]
 4740 00ae 1942     		tst	r1, r3
ARM GAS  /tmp/cchjT0Ct.s 			page 82


 4741 00b0 17D0     		beq	.L634
 4742 00b2 638D     		ldrh	r3, [r4, #42]
 4743 00b4 002B     		cmp	r3, #0
 4744 00b6 0CD0     		beq	.L635
 4745 00b8 2368     		ldr	r3, [r4]
 4746 00ba 5A6A     		ldr	r2, [r3, #36]
 4747 00bc 636A     		ldr	r3, [r4, #36]
 4748 00be 591C     		adds	r1, r3, #1
 4749 00c0 6162     		str	r1, [r4, #36]
 4750 00c2 1A70     		strb	r2, [r3]
 4751 00c4 238D     		ldrh	r3, [r4, #40]
 4752 00c6 013B     		subs	r3, r3, #1
 4753 00c8 2385     		strh	r3, [r4, #40]
 4754 00ca 638D     		ldrh	r3, [r4, #42]
 4755 00cc 013B     		subs	r3, r3, #1
 4756 00ce 9BB2     		uxth	r3, r3
 4757 00d0 6385     		strh	r3, [r4, #42]
 4758              	.L635:
 4759 00d2 638D     		ldrh	r3, [r4, #42]
 4760 00d4 002B     		cmp	r3, #0
 4761 00d6 BAD1     		bne	.L632
 4762 00d8 E26A     		ldr	r2, [r4, #44]
 4763 00da 3D4B     		ldr	r3, .L683
 4764 00dc 9A42     		cmp	r2, r3
 4765 00de B6D0     		beq	.L632
 4766 00e0 D3E7     		b	.L643
 4767              	.L634:
 4768 00e2 0823     		movs	r3, #8
 4769 00e4 9C46     		mov	ip, r3
 4770 00e6 1D42     		tst	r5, r3
 4771 00e8 4ED0     		beq	.L638
 4772 00ea 6146     		mov	r1, ip
 4773 00ec 019B     		ldr	r3, [sp, #4]
 4774 00ee 0B42     		tst	r3, r1
 4775 00f0 4AD0     		beq	.L638
 4776 00f2 2300     		movs	r3, r4
 4777 00f4 2820     		movs	r0, #40
 4778 00f6 4133     		adds	r3, r3, #65
 4779 00f8 1978     		ldrb	r1, [r3]
 4780 00fa 2368     		ldr	r3, [r4]
 4781 00fc 0140     		ands	r1, r0
 4782 00fe 8142     		cmp	r1, r0
 4783 0100 3DD1     		bne	.L639
 4784 0102 FE22     		movs	r2, #254
 4785 0104 9E69     		ldr	r6, [r3, #24]
 4786 0106 9F69     		ldr	r7, [r3, #24]
 4787 0108 9968     		ldr	r1, [r3, #8]
 4788 010a 3F0C     		lsrs	r7, r7, #16
 4789 010c 1740     		ands	r7, r2
 4790 010e DA68     		ldr	r2, [r3, #12]
 4791 0110 F603     		lsls	r6, r6, #15
 4792 0112 0392     		str	r2, [sp, #12]
 4793 0114 2200     		movs	r2, r4
 4794 0116 4032     		adds	r2, r2, #64
 4795 0118 0292     		str	r2, [sp, #8]
 4796 011a E268     		ldr	r2, [r4, #12]
 4797 011c F60F     		lsrs	r6, r6, #31
ARM GAS  /tmp/cchjT0Ct.s 			page 83


 4798 011e 022A     		cmp	r2, #2
 4799 0120 24D1     		bne	.L640
 4800 0122 8905     		lsls	r1, r1, #22
 4801 0124 8A0D     		lsrs	r2, r1, #22
 4802 0126 490F     		lsrs	r1, r1, #29
 4803 0128 4F40     		eors	r7, r1
 4804 012a 3900     		movs	r1, r7
 4805 012c 2238     		subs	r0, r0, #34
 4806 012e 0140     		ands	r1, r0
 4807 0130 0742     		tst	r7, r0
 4808 0132 10D1     		bne	.L641
 4809 0134 A06C     		ldr	r0, [r4, #72]
 4810 0136 0130     		adds	r0, r0, #1
 4811 0138 A064     		str	r0, [r4, #72]
 4812 013a A06C     		ldr	r0, [r4, #72]
 4813 013c 0228     		cmp	r0, #2
 4814 013e 00D0     		beq	.LCB5323
 4815 0140 85E7     		b	.L632	@long jump
 4816              	.LCB5323:
 4817 0142 6046     		mov	r0, ip
 4818 0144 A164     		str	r1, [r4, #72]
 4819 0146 D861     		str	r0, [r3, #28]
 4820 0148 029B     		ldr	r3, [sp, #8]
 4821 014a 1970     		strb	r1, [r3]
 4822              	.L682:
 4823 014c 3100     		movs	r1, r6
 4824 014e 2000     		movs	r0, r4
 4825 0150 FFF7FEFF 		bl	HAL_I2C_AddrCallback
 4826 0154 7BE7     		b	.L632
 4827              	.L641:
 4828 0156 0421     		movs	r1, #4
 4829 0158 2000     		movs	r0, r4
 4830 015a FFF7FEFF 		bl	I2C_Disable_IRQ.isra.0
 4831 015e 0023     		movs	r3, #0
 4832 0160 029A     		ldr	r2, [sp, #8]
 4833 0162 1370     		strb	r3, [r2]
 4834 0164 039A     		ldr	r2, [sp, #12]
 4835 0166 FE33     		adds	r3, r3, #254
 4836 0168 1A40     		ands	r2, r3
 4837 016a EFE7     		b	.L682
 4838              	.L640:
 4839 016c 0421     		movs	r1, #4
 4840 016e 2000     		movs	r0, r4
 4841 0170 FFF7FEFF 		bl	I2C_Disable_IRQ.isra.0
 4842 0174 0023     		movs	r3, #0
 4843 0176 029A     		ldr	r2, [sp, #8]
 4844 0178 1370     		strb	r3, [r2]
 4845 017a 3A00     		movs	r2, r7
 4846 017c E6E7     		b	.L682
 4847              	.L639:
 4848 017e 6146     		mov	r1, ip
 4849 0180 D961     		str	r1, [r3, #28]
 4850 0182 0023     		movs	r3, #0
 4851 0184 1370     		strb	r3, [r2]
 4852 0186 62E7     		b	.L632
 4853              	.L638:
 4854 0188 0223     		movs	r3, #2
ARM GAS  /tmp/cchjT0Ct.s 			page 84


 4855 018a 1D42     		tst	r5, r3
 4856 018c 00D1     		bne	.LCB5374
 4857 018e 5EE7     		b	.L632	@long jump
 4858              	.LCB5374:
 4859 0190 019A     		ldr	r2, [sp, #4]
 4860 0192 1A42     		tst	r2, r3
 4861 0194 00D1     		bne	.LCB5378
 4862 0196 5AE7     		b	.L632	@long jump
 4863              	.LCB5378:
 4864 0198 638D     		ldrh	r3, [r4, #42]
 4865 019a 002B     		cmp	r3, #0
 4866 019c 0DD0     		beq	.L642
 4867 019e 636A     		ldr	r3, [r4, #36]
 4868 01a0 5A1C     		adds	r2, r3, #1
 4869 01a2 6262     		str	r2, [r4, #36]
 4870 01a4 1B78     		ldrb	r3, [r3]
 4871 01a6 2268     		ldr	r2, [r4]
 4872 01a8 9362     		str	r3, [r2, #40]
 4873 01aa 638D     		ldrh	r3, [r4, #42]
 4874 01ac 013B     		subs	r3, r3, #1
 4875 01ae 9BB2     		uxth	r3, r3
 4876 01b0 6385     		strh	r3, [r4, #42]
 4877 01b2 238D     		ldrh	r3, [r4, #40]
 4878 01b4 013B     		subs	r3, r3, #1
 4879 01b6 2385     		strh	r3, [r4, #40]
 4880 01b8 49E7     		b	.L632
 4881              	.L642:
 4882 01ba 8023     		movs	r3, #128
 4883 01bc E26A     		ldr	r2, [r4, #44]
 4884 01be 5B04     		lsls	r3, r3, #17
 4885 01c0 9A42     		cmp	r2, r3
 4886 01c2 00D1     		bne	.LCB5405
 4887 01c4 61E7     		b	.L643	@long jump
 4888              	.LCB5405:
 4889 01c6 E36A     		ldr	r3, [r4, #44]
 4890 01c8 002B     		cmp	r3, #0
 4891 01ca 00D1     		bne	.LCB5408
 4892 01cc 5DE7     		b	.L643	@long jump
 4893              	.LCB5408:
 4894 01ce 3EE7     		b	.L632
 4895              	.L684:
 4896              		.align	2
 4897              	.L683:
 4898 01d0 0000FFFF 		.word	-65536
 4900              		.section	.text.I2C_Slave_ISR_DMA,"ax",%progbits
 4901              		.align	1
 4902              		.syntax unified
 4903              		.code	16
 4904              		.thumb_func
 4905              		.fpu softvfp
 4907              	I2C_Slave_ISR_DMA:
 4908              		@ args = 0, pretend = 0, frame = 0
 4909              		@ frame_needed = 0, uses_anonymous_args = 0
 4910 0000 70B5     		push	{r4, r5, r6, lr}
 4911 0002 0400     		movs	r4, r0
 4912 0004 4034     		adds	r4, r4, #64
 4913 0006 2578     		ldrb	r5, [r4]
ARM GAS  /tmp/cchjT0Ct.s 			page 85


 4914 0008 0223     		movs	r3, #2
 4915 000a 012D     		cmp	r5, #1
 4916 000c 15D0     		beq	.L686
 4917 000e 013B     		subs	r3, r3, #1
 4918 0010 2370     		strb	r3, [r4]
 4919 0012 0F33     		adds	r3, r3, #15
 4920 0014 1942     		tst	r1, r3
 4921 0016 1BD0     		beq	.L687
 4922 0018 1A42     		tst	r2, r3
 4923 001a 19D0     		beq	.L687
 4924 001c 0300     		movs	r3, r0
 4925 001e 4133     		adds	r3, r3, #65
 4926 0020 1A78     		ldrb	r2, [r3]
 4927 0022 0368     		ldr	r3, [r0]
 4928 0024 212A     		cmp	r2, #33
 4929 0026 0AD1     		bne	.L688
 4930 0028 826B     		ldr	r2, [r0, #56]
 4931              	.L715:
 4932 002a 1268     		ldr	r2, [r2]
 4933 002c 5268     		ldr	r2, [r2, #4]
 4934 002e 002A     		cmp	r2, #0
 4935 0030 07D1     		bne	.L690
 4936 0032 1022     		movs	r2, #16
 4937 0034 DA61     		str	r2, [r3, #28]
 4938              	.L691:
 4939 0036 0023     		movs	r3, #0
 4940 0038 2370     		strb	r3, [r4]
 4941              	.L686:
 4942 003a 1800     		movs	r0, r3
 4943              		@ sp needed
 4944 003c 70BD     		pop	{r4, r5, r6, pc}
 4945              	.L688:
 4946 003e C26B     		ldr	r2, [r0, #60]
 4947 0040 F3E7     		b	.L715
 4948              	.L690:
 4949 0042 1022     		movs	r2, #16
 4950 0044 DA61     		str	r2, [r3, #28]
 4951 0046 0423     		movs	r3, #4
 4952 0048 426C     		ldr	r2, [r0, #68]
 4953 004a 1343     		orrs	r3, r2
 4954 004c 4364     		str	r3, [r0, #68]
 4955 004e F2E7     		b	.L691
 4956              	.L687:
 4957 0050 0823     		movs	r3, #8
 4958 0052 1942     		tst	r1, r3
 4959 0054 04D0     		beq	.L692
 4960 0056 1A42     		tst	r2, r3
 4961 0058 02D0     		beq	.L692
 4962 005a 0268     		ldr	r2, [r0]
 4963 005c D361     		str	r3, [r2, #28]
 4964 005e EAE7     		b	.L691
 4965              	.L692:
 4966 0060 2023     		movs	r3, #32
 4967 0062 1942     		tst	r1, r3
 4968 0064 E7D0     		beq	.L691
 4969 0066 1A42     		tst	r2, r3
 4970 0068 E5D0     		beq	.L691
ARM GAS  /tmp/cchjT0Ct.s 			page 86


 4971 006a FFF7FEFF 		bl	I2C_ITSlaveCplt
 4972 006e E2E7     		b	.L691
 4974              		.section	.text.I2C_ITMasterCplt,"ax",%progbits
 4975              		.align	1
 4976              		.syntax unified
 4977              		.code	16
 4978              		.thumb_func
 4979              		.fpu softvfp
 4981              	I2C_ITMasterCplt:
 4982              		@ args = 0, pretend = 0, frame = 0
 4983              		@ frame_needed = 0, uses_anonymous_args = 0
 4984 0000 2022     		movs	r2, #32
 4985 0002 0368     		ldr	r3, [r0]
 4986 0004 10B5     		push	{r4, lr}
 4987 0006 DA61     		str	r2, [r3, #28]
 4988 0008 5A68     		ldr	r2, [r3, #4]
 4989 000a 0400     		movs	r4, r0
 4990 000c 2748     		ldr	r0, .L727
 4991 000e 0240     		ands	r2, r0
 4992 0010 5A60     		str	r2, [r3, #4]
 4993 0012 0022     		movs	r2, #0
 4994 0014 2263     		str	r2, [r4, #48]
 4995 0016 6263     		str	r2, [r4, #52]
 4996 0018 254A     		ldr	r2, .L727+4
 4997 001a E262     		str	r2, [r4, #44]
 4998 001c 1022     		movs	r2, #16
 4999 001e 1142     		tst	r1, r2
 5000 0020 04D0     		beq	.L717
 5001 0022 DA61     		str	r2, [r3, #28]
 5002 0024 0423     		movs	r3, #4
 5003 0026 626C     		ldr	r2, [r4, #68]
 5004 0028 1343     		orrs	r3, r2
 5005 002a 6364     		str	r3, [r4, #68]
 5006              	.L717:
 5007 002c 2000     		movs	r0, r4
 5008 002e FFF7FEFF 		bl	I2C_Flush_TXDR
 5009 0032 0321     		movs	r1, #3
 5010 0034 2000     		movs	r0, r4
 5011 0036 FFF7FEFF 		bl	I2C_Disable_IRQ.isra.0
 5012 003a 636C     		ldr	r3, [r4, #68]
 5013 003c 002B     		cmp	r3, #0
 5014 003e 04D1     		bne	.L718
 5015 0040 2200     		movs	r2, r4
 5016 0042 4132     		adds	r2, r2, #65
 5017 0044 1178     		ldrb	r1, [r2]
 5018 0046 6029     		cmp	r1, #96
 5019 0048 04D1     		bne	.L719
 5020              	.L718:
 5021 004a 2000     		movs	r0, r4
 5022 004c 616C     		ldr	r1, [r4, #68]
 5023 004e FFF7FEFF 		bl	I2C_ITError
 5024              	.L716:
 5025              		@ sp needed
 5026 0052 10BD     		pop	{r4, pc}
 5027              	.L719:
 5028 0054 1178     		ldrb	r1, [r2]
 5029 0056 2129     		cmp	r1, #33
ARM GAS  /tmp/cchjT0Ct.s 			page 87


 5030 0058 12D1     		bne	.L721
 5031 005a 0139     		subs	r1, r1, #1
 5032 005c 1170     		strb	r1, [r2]
 5033 005e 2200     		movs	r2, r4
 5034 0060 2100     		movs	r1, r4
 5035 0062 4232     		adds	r2, r2, #66
 5036 0064 1078     		ldrb	r0, [r2]
 5037 0066 4031     		adds	r1, r1, #64
 5038 0068 1370     		strb	r3, [r2]
 5039 006a 0B70     		strb	r3, [r1]
 5040 006c 4028     		cmp	r0, #64
 5041 006e 03D1     		bne	.L722
 5042 0070 2000     		movs	r0, r4
 5043 0072 FFF7FEFF 		bl	HAL_I2C_MemTxCpltCallback
 5044 0076 ECE7     		b	.L716
 5045              	.L722:
 5046 0078 2000     		movs	r0, r4
 5047 007a FFF7FEFF 		bl	HAL_I2C_MasterTxCpltCallback
 5048 007e E8E7     		b	.L716
 5049              	.L721:
 5050 0080 1178     		ldrb	r1, [r2]
 5051 0082 2229     		cmp	r1, #34
 5052 0084 E5D1     		bne	.L716
 5053 0086 0239     		subs	r1, r1, #2
 5054 0088 1170     		strb	r1, [r2]
 5055 008a 2200     		movs	r2, r4
 5056 008c 2100     		movs	r1, r4
 5057 008e 4232     		adds	r2, r2, #66
 5058 0090 1078     		ldrb	r0, [r2]
 5059 0092 4031     		adds	r1, r1, #64
 5060 0094 1370     		strb	r3, [r2]
 5061 0096 0B70     		strb	r3, [r1]
 5062 0098 4028     		cmp	r0, #64
 5063 009a 03D1     		bne	.L723
 5064 009c 2000     		movs	r0, r4
 5065 009e FFF7FEFF 		bl	HAL_I2C_MemRxCpltCallback
 5066 00a2 D6E7     		b	.L716
 5067              	.L723:
 5068 00a4 2000     		movs	r0, r4
 5069 00a6 FFF7FEFF 		bl	HAL_I2C_MasterRxCpltCallback
 5070 00aa D2E7     		b	.L716
 5071              	.L728:
 5072              		.align	2
 5073              	.L727:
 5074 00ac 00E800FE 		.word	-33495040
 5075 00b0 0000FFFF 		.word	-65536
 5077              		.section	.text.I2C_Master_ISR_IT,"ax",%progbits
 5078              		.align	1
 5079              		.syntax unified
 5080              		.code	16
 5081              		.thumb_func
 5082              		.fpu softvfp
 5084              	I2C_Master_ISR_IT:
 5085              		@ args = 0, pretend = 0, frame = 0
 5086              		@ frame_needed = 0, uses_anonymous_args = 0
 5087 0000 F7B5     		push	{r0, r1, r2, r4, r5, r6, r7, lr}
 5088 0002 0700     		movs	r7, r0
ARM GAS  /tmp/cchjT0Ct.s 			page 88


 5089 0004 4037     		adds	r7, r7, #64
 5090 0006 3B78     		ldrb	r3, [r7]
 5091 0008 0400     		movs	r4, r0
 5092 000a 0D00     		movs	r5, r1
 5093 000c 1600     		movs	r6, r2
 5094 000e 0220     		movs	r0, #2
 5095 0010 012B     		cmp	r3, #1
 5096 0012 1AD0     		beq	.L730
 5097 0014 0123     		movs	r3, #1
 5098 0016 3B70     		strb	r3, [r7]
 5099 0018 0F33     		adds	r3, r3, #15
 5100 001a 1942     		tst	r1, r3
 5101 001c 16D0     		beq	.L731
 5102 001e 1A42     		tst	r2, r3
 5103 0020 14D0     		beq	.L731
 5104 0022 2268     		ldr	r2, [r4]
 5105 0024 2000     		movs	r0, r4
 5106 0026 D361     		str	r3, [r2, #28]
 5107 0028 626C     		ldr	r2, [r4, #68]
 5108 002a 0C3B     		subs	r3, r3, #12
 5109 002c 1343     		orrs	r3, r2
 5110 002e 6364     		str	r3, [r4, #68]
 5111 0030 FFF7FEFF 		bl	I2C_Flush_TXDR
 5112              	.L732:
 5113 0034 2023     		movs	r3, #32
 5114 0036 1D42     		tst	r5, r3
 5115 0038 05D0     		beq	.L741
 5116 003a 1E42     		tst	r6, r3
 5117 003c 03D0     		beq	.L741
 5118 003e 2900     		movs	r1, r5
 5119 0040 2000     		movs	r0, r4
 5120 0042 FFF7FEFF 		bl	I2C_ITMasterCplt
 5121              	.L741:
 5122 0046 0020     		movs	r0, #0
 5123 0048 3870     		strb	r0, [r7]
 5124              	.L730:
 5125              		@ sp needed
 5126 004a FEBD     		pop	{r1, r2, r3, r4, r5, r6, r7, pc}
 5127              	.L731:
 5128 004c 0423     		movs	r3, #4
 5129 004e 1D42     		tst	r5, r3
 5130 0050 0FD0     		beq	.L733
 5131 0052 1E42     		tst	r6, r3
 5132 0054 0DD0     		beq	.L733
 5133 0056 2368     		ldr	r3, [r4]
 5134 0058 5A6A     		ldr	r2, [r3, #36]
 5135 005a 636A     		ldr	r3, [r4, #36]
 5136 005c 591C     		adds	r1, r3, #1
 5137 005e 6162     		str	r1, [r4, #36]
 5138 0060 1A70     		strb	r2, [r3]
 5139              	.L782:
 5140 0062 238D     		ldrh	r3, [r4, #40]
 5141 0064 013B     		subs	r3, r3, #1
 5142 0066 2385     		strh	r3, [r4, #40]
 5143 0068 638D     		ldrh	r3, [r4, #42]
 5144 006a 013B     		subs	r3, r3, #1
 5145 006c 9BB2     		uxth	r3, r3
ARM GAS  /tmp/cchjT0Ct.s 			page 89


 5146 006e 6385     		strh	r3, [r4, #42]
 5147 0070 E0E7     		b	.L732
 5148              	.L733:
 5149 0072 0223     		movs	r3, #2
 5150 0074 1D42     		tst	r5, r3
 5151 0076 08D0     		beq	.L734
 5152 0078 1E42     		tst	r6, r3
 5153 007a 06D0     		beq	.L734
 5154 007c 636A     		ldr	r3, [r4, #36]
 5155 007e 5A1C     		adds	r2, r3, #1
 5156 0080 6262     		str	r2, [r4, #36]
 5157 0082 1B78     		ldrb	r3, [r3]
 5158 0084 2268     		ldr	r2, [r4]
 5159 0086 9362     		str	r3, [r2, #40]
 5160 0088 EBE7     		b	.L782
 5161              	.L734:
 5162 008a 4023     		movs	r3, #64
 5163 008c 2A06     		lsls	r2, r5, #24
 5164 008e 33D5     		bpl	.L735
 5165 0090 1E42     		tst	r6, r3
 5166 0092 31D0     		beq	.L735
 5167 0094 208D     		ldrh	r0, [r4, #40]
 5168 0096 2368     		ldr	r3, [r4]
 5169 0098 0028     		cmp	r0, #0
 5170 009a 21D1     		bne	.L736
 5171 009c 628D     		ldrh	r2, [r4, #42]
 5172 009e 002A     		cmp	r2, #0
 5173 00a0 1ED0     		beq	.L736
 5174 00a2 5968     		ldr	r1, [r3, #4]
 5175 00a4 638D     		ldrh	r3, [r4, #42]
 5176 00a6 8905     		lsls	r1, r1, #22
 5177 00a8 890D     		lsrs	r1, r1, #22
 5178 00aa FF2B     		cmp	r3, #255
 5179 00ac 08D9     		bls	.L737
 5180 00ae FF22     		movs	r2, #255
 5181 00b0 8023     		movs	r3, #128
 5182 00b2 2285     		strh	r2, [r4, #40]
 5183 00b4 0090     		str	r0, [sp]
 5184 00b6 5B04     		lsls	r3, r3, #17
 5185              	.L783:
 5186 00b8 2000     		movs	r0, r4
 5187 00ba FFF7FEFF 		bl	I2C_TransferConfig
 5188 00be B9E7     		b	.L732
 5189              	.L737:
 5190 00c0 628D     		ldrh	r2, [r4, #42]
 5191 00c2 E36A     		ldr	r3, [r4, #44]
 5192 00c4 92B2     		uxth	r2, r2
 5193 00c6 9C46     		mov	ip, r3
 5194 00c8 174B     		ldr	r3, .L784
 5195 00ca 2285     		strh	r2, [r4, #40]
 5196 00cc D2B2     		uxtb	r2, r2
 5197 00ce 9C45     		cmp	ip, r3
 5198 00d0 02D0     		beq	.L738
 5199 00d2 E36A     		ldr	r3, [r4, #44]
 5200 00d4 0090     		str	r0, [sp]
 5201 00d6 EFE7     		b	.L783
 5202              	.L738:
ARM GAS  /tmp/cchjT0Ct.s 			page 90


 5203 00d8 8023     		movs	r3, #128
 5204 00da 0090     		str	r0, [sp]
 5205 00dc 9B04     		lsls	r3, r3, #18
 5206 00de EBE7     		b	.L783
 5207              	.L736:
 5208 00e0 5B68     		ldr	r3, [r3, #4]
 5209 00e2 9B01     		lsls	r3, r3, #6
 5210 00e4 03D4     		bmi	.L739
 5211              	.L740:
 5212 00e6 2000     		movs	r0, r4
 5213 00e8 FFF7FEFF 		bl	I2C_ITMasterSequentialCplt
 5214 00ec A2E7     		b	.L732
 5215              	.L739:
 5216 00ee 4021     		movs	r1, #64
 5217 00f0 2000     		movs	r0, r4
 5218 00f2 FFF7FEFF 		bl	I2C_ITError
 5219 00f6 9DE7     		b	.L732
 5220              	.L735:
 5221 00f8 1D42     		tst	r5, r3
 5222 00fa 9BD0     		beq	.L732
 5223 00fc 1E42     		tst	r6, r3
 5224 00fe 00D1     		bne	.LCB5815
 5225 0100 98E7     		b	.L732	@long jump
 5226              	.LCB5815:
 5227 0102 638D     		ldrh	r3, [r4, #42]
 5228 0104 002B     		cmp	r3, #0
 5229 0106 F2D1     		bne	.L739
 5230 0108 2368     		ldr	r3, [r4]
 5231 010a 5A68     		ldr	r2, [r3, #4]
 5232 010c 9201     		lsls	r2, r2, #6
 5233 010e 00D5     		bpl	.LCB5825
 5234 0110 90E7     		b	.L732	@long jump
 5235              	.LCB5825:
 5236 0112 E16A     		ldr	r1, [r4, #44]
 5237 0114 044A     		ldr	r2, .L784
 5238 0116 9142     		cmp	r1, r2
 5239 0118 E5D1     		bne	.L740
 5240 011a 8022     		movs	r2, #128
 5241 011c 5968     		ldr	r1, [r3, #4]
 5242 011e D201     		lsls	r2, r2, #7
 5243 0120 0A43     		orrs	r2, r1
 5244 0122 5A60     		str	r2, [r3, #4]
 5245 0124 86E7     		b	.L732
 5246              	.L785:
 5247 0126 C046     		.align	2
 5248              	.L784:
 5249 0128 0000FFFF 		.word	-65536
 5251              		.section	.text.I2C_Master_ISR_DMA,"ax",%progbits
 5252              		.align	1
 5253              		.syntax unified
 5254              		.code	16
 5255              		.thumb_func
 5256              		.fpu softvfp
 5258              	I2C_Master_ISR_DMA:
 5259              		@ args = 0, pretend = 0, frame = 0
 5260              		@ frame_needed = 0, uses_anonymous_args = 0
 5261 0000 37B5     		push	{r0, r1, r2, r4, r5, lr}
ARM GAS  /tmp/cchjT0Ct.s 			page 91


 5262 0002 0500     		movs	r5, r0
 5263 0004 4035     		adds	r5, r5, #64
 5264 0006 2B78     		ldrb	r3, [r5]
 5265 0008 0400     		movs	r4, r0
 5266 000a 0220     		movs	r0, #2
 5267 000c 012B     		cmp	r3, #1
 5268 000e 15D0     		beq	.L787
 5269 0010 0123     		movs	r3, #1
 5270 0012 2B70     		strb	r3, [r5]
 5271 0014 0F33     		adds	r3, r3, #15
 5272 0016 1942     		tst	r1, r3
 5273 0018 11D0     		beq	.L788
 5274 001a 1A42     		tst	r2, r3
 5275 001c 0FD0     		beq	.L788
 5276 001e 2268     		ldr	r2, [r4]
 5277 0020 2000     		movs	r0, r4
 5278 0022 D361     		str	r3, [r2, #28]
 5279 0024 626C     		ldr	r2, [r4, #68]
 5280 0026 0C3B     		subs	r3, r3, #12
 5281 0028 1343     		orrs	r3, r2
 5282 002a 1221     		movs	r1, #18
 5283 002c 6364     		str	r3, [r4, #68]
 5284 002e FFF7FEFF 		bl	I2C_Enable_IRQ.isra.0
 5285 0032 2000     		movs	r0, r4
 5286 0034 FFF7FEFF 		bl	I2C_Flush_TXDR
 5287              	.L789:
 5288 0038 0020     		movs	r0, #0
 5289 003a 2870     		strb	r0, [r5]
 5290              	.L787:
 5291              		@ sp needed
 5292 003c 3EBD     		pop	{r1, r2, r3, r4, r5, pc}
 5293              	.L788:
 5294 003e 0B06     		lsls	r3, r1, #24
 5295 0040 37D5     		bpl	.L790
 5296 0042 4023     		movs	r3, #64
 5297 0044 1A42     		tst	r2, r3
 5298 0046 34D0     		beq	.L790
 5299 0048 2268     		ldr	r2, [r4]
 5300 004a 1168     		ldr	r1, [r2]
 5301 004c 9943     		bics	r1, r3
 5302 004e 1160     		str	r1, [r2]
 5303 0050 618D     		ldrh	r1, [r4, #42]
 5304 0052 0029     		cmp	r1, #0
 5305 0054 28D0     		beq	.L791
 5306 0056 5168     		ldr	r1, [r2, #4]
 5307 0058 638D     		ldrh	r3, [r4, #42]
 5308 005a 8905     		lsls	r1, r1, #22
 5309 005c 890D     		lsrs	r1, r1, #22
 5310 005e FF2B     		cmp	r3, #255
 5311 0060 1BD8     		bhi	.L795
 5312 0062 8023     		movs	r3, #128
 5313 0064 628D     		ldrh	r2, [r4, #42]
 5314 0066 9B04     		lsls	r3, r3, #18
 5315 0068 92B2     		uxth	r2, r2
 5316              	.L792:
 5317 006a 0020     		movs	r0, #0
 5318 006c 2285     		strh	r2, [r4, #40]
ARM GAS  /tmp/cchjT0Ct.s 			page 92


 5319 006e 0090     		str	r0, [sp]
 5320 0070 D2B2     		uxtb	r2, r2
 5321 0072 2000     		movs	r0, r4
 5322 0074 FFF7FEFF 		bl	I2C_TransferConfig
 5323 0078 638D     		ldrh	r3, [r4, #42]
 5324 007a 228D     		ldrh	r2, [r4, #40]
 5325 007c 9B1A     		subs	r3, r3, r2
 5326 007e 9BB2     		uxth	r3, r3
 5327 0080 6385     		strh	r3, [r4, #42]
 5328 0082 2300     		movs	r3, r4
 5329 0084 4133     		adds	r3, r3, #65
 5330 0086 1A78     		ldrb	r2, [r3]
 5331 0088 2368     		ldr	r3, [r4]
 5332 008a 1968     		ldr	r1, [r3]
 5333 008c 222A     		cmp	r2, #34
 5334 008e 08D1     		bne	.L793
 5335 0090 8022     		movs	r2, #128
 5336 0092 1202     		lsls	r2, r2, #8
 5337              	.L814:
 5338 0094 0A43     		orrs	r2, r1
 5339 0096 1A60     		str	r2, [r3]
 5340 0098 CEE7     		b	.L789
 5341              	.L795:
 5342 009a 8023     		movs	r3, #128
 5343 009c FF22     		movs	r2, #255
 5344 009e 5B04     		lsls	r3, r3, #17
 5345 00a0 E3E7     		b	.L792
 5346              	.L793:
 5347 00a2 8022     		movs	r2, #128
 5348 00a4 D201     		lsls	r2, r2, #7
 5349 00a6 F5E7     		b	.L814
 5350              	.L791:
 5351 00a8 1900     		movs	r1, r3
 5352 00aa 2000     		movs	r0, r4
 5353 00ac FFF7FEFF 		bl	I2C_ITError
 5354 00b0 C2E7     		b	.L789
 5355              	.L790:
 5356 00b2 2023     		movs	r3, #32
 5357 00b4 1942     		tst	r1, r3
 5358 00b6 BFD0     		beq	.L789
 5359 00b8 1A42     		tst	r2, r3
 5360 00ba BDD0     		beq	.L789
 5361 00bc 2000     		movs	r0, r4
 5362 00be FFF7FEFF 		bl	I2C_ITMasterCplt
 5363 00c2 B9E7     		b	.L789
 5365              		.section	.text.I2C_DMAError,"ax",%progbits
 5366              		.align	1
 5367              		.syntax unified
 5368              		.code	16
 5369              		.thumb_func
 5370              		.fpu softvfp
 5372              	I2C_DMAError:
 5373              		@ args = 0, pretend = 0, frame = 0
 5374              		@ frame_needed = 0, uses_anonymous_args = 0
 5375 0000 8023     		movs	r3, #128
 5376 0002 406A     		ldr	r0, [r0, #36]
 5377 0004 10B5     		push	{r4, lr}
ARM GAS  /tmp/cchjT0Ct.s 			page 93


 5378 0006 0268     		ldr	r2, [r0]
 5379 0008 1B02     		lsls	r3, r3, #8
 5380 000a 5168     		ldr	r1, [r2, #4]
 5381              		@ sp needed
 5382 000c 0B43     		orrs	r3, r1
 5383 000e 5360     		str	r3, [r2, #4]
 5384 0010 1021     		movs	r1, #16
 5385 0012 FFF7FEFF 		bl	I2C_ITError
 5386 0016 10BD     		pop	{r4, pc}
 5388              		.section	.text.HAL_I2C_ER_IRQHandler,"ax",%progbits
 5389              		.align	1
 5390              		.global	HAL_I2C_ER_IRQHandler
 5391              		.syntax unified
 5392              		.code	16
 5393              		.thumb_func
 5394              		.fpu softvfp
 5396              	HAL_I2C_ER_IRQHandler:
 5397              		@ args = 0, pretend = 0, frame = 0
 5398              		@ frame_needed = 0, uses_anonymous_args = 0
 5399 0000 70B5     		push	{r4, r5, r6, lr}
 5400 0002 8025     		movs	r5, #128
 5401 0004 0368     		ldr	r3, [r0]
 5402 0006 6D00     		lsls	r5, r5, #1
 5403 0008 9969     		ldr	r1, [r3, #24]
 5404 000a 1A68     		ldr	r2, [r3]
 5405 000c 2942     		tst	r1, r5
 5406 000e 06D0     		beq	.L817
 5407 0010 1406     		lsls	r4, r2, #24
 5408 0012 04D5     		bpl	.L817
 5409 0014 0124     		movs	r4, #1
 5410 0016 466C     		ldr	r6, [r0, #68]
 5411 0018 3443     		orrs	r4, r6
 5412 001a 4464     		str	r4, [r0, #68]
 5413 001c DD61     		str	r5, [r3, #28]
 5414              	.L817:
 5415 001e 8025     		movs	r5, #128
 5416 0020 ED00     		lsls	r5, r5, #3
 5417 0022 2942     		tst	r1, r5
 5418 0024 06D0     		beq	.L818
 5419 0026 1406     		lsls	r4, r2, #24
 5420 0028 04D5     		bpl	.L818
 5421 002a 0824     		movs	r4, #8
 5422 002c 466C     		ldr	r6, [r0, #68]
 5423 002e 3443     		orrs	r4, r6
 5424 0030 4464     		str	r4, [r0, #68]
 5425 0032 DD61     		str	r5, [r3, #28]
 5426              	.L818:
 5427 0034 8024     		movs	r4, #128
 5428 0036 A400     		lsls	r4, r4, #2
 5429 0038 2142     		tst	r1, r4
 5430 003a 06D0     		beq	.L819
 5431 003c 1206     		lsls	r2, r2, #24
 5432 003e 04D5     		bpl	.L819
 5433 0040 0222     		movs	r2, #2
 5434 0042 416C     		ldr	r1, [r0, #68]
 5435 0044 0A43     		orrs	r2, r1
 5436 0046 4264     		str	r2, [r0, #68]
ARM GAS  /tmp/cchjT0Ct.s 			page 94


 5437 0048 DC61     		str	r4, [r3, #28]
 5438              	.L819:
 5439 004a 0B23     		movs	r3, #11
 5440 004c 426C     		ldr	r2, [r0, #68]
 5441 004e 1A42     		tst	r2, r3
 5442 0050 02D0     		beq	.L816
 5443 0052 416C     		ldr	r1, [r0, #68]
 5444 0054 FFF7FEFF 		bl	I2C_ITError
 5445              	.L816:
 5446              		@ sp needed
 5447 0058 70BD     		pop	{r4, r5, r6, pc}
 5449              		.section	.text.I2C_DMAAbort,"ax",%progbits
 5450              		.align	1
 5451              		.syntax unified
 5452              		.code	16
 5453              		.thumb_func
 5454              		.fpu softvfp
 5456              	I2C_DMAAbort:
 5457              		@ args = 0, pretend = 0, frame = 0
 5458              		@ frame_needed = 0, uses_anonymous_args = 0
 5459 0000 8023     		movs	r3, #128
 5460 0002 406A     		ldr	r0, [r0, #36]
 5461 0004 1B02     		lsls	r3, r3, #8
 5462 0006 0268     		ldr	r2, [r0]
 5463 0008 10B5     		push	{r4, lr}
 5464 000a 5168     		ldr	r1, [r2, #4]
 5465 000c 0B43     		orrs	r3, r1
 5466 000e 5360     		str	r3, [r2, #4]
 5467 0010 0023     		movs	r3, #0
 5468 0012 826B     		ldr	r2, [r0, #56]
 5469 0014 5363     		str	r3, [r2, #52]
 5470 0016 C26B     		ldr	r2, [r0, #60]
 5471 0018 5363     		str	r3, [r2, #52]
 5472 001a 0300     		movs	r3, r0
 5473 001c 4133     		adds	r3, r3, #65
 5474 001e 1A78     		ldrb	r2, [r3]
 5475 0020 602A     		cmp	r2, #96
 5476 0022 04D1     		bne	.L843
 5477 0024 403A     		subs	r2, r2, #64
 5478 0026 1A70     		strb	r2, [r3]
 5479 0028 FFF7FEFF 		bl	HAL_I2C_AbortCpltCallback
 5480              	.L842:
 5481              		@ sp needed
 5482 002c 10BD     		pop	{r4, pc}
 5483              	.L843:
 5484 002e FFF7FEFF 		bl	HAL_I2C_ErrorCallback
 5485 0032 FBE7     		b	.L842
 5487              		.section	.text.HAL_I2C_GetState,"ax",%progbits
 5488              		.align	1
 5489              		.global	HAL_I2C_GetState
 5490              		.syntax unified
 5491              		.code	16
 5492              		.thumb_func
 5493              		.fpu softvfp
 5495              	HAL_I2C_GetState:
 5496              		@ args = 0, pretend = 0, frame = 0
 5497              		@ frame_needed = 0, uses_anonymous_args = 0
ARM GAS  /tmp/cchjT0Ct.s 			page 95


 5498              		@ link register save eliminated.
 5499 0000 4130     		adds	r0, r0, #65
 5500 0002 0078     		ldrb	r0, [r0]
 5501              		@ sp needed
 5502 0004 C0B2     		uxtb	r0, r0
 5503 0006 7047     		bx	lr
 5505              		.section	.text.HAL_I2C_GetMode,"ax",%progbits
 5506              		.align	1
 5507              		.global	HAL_I2C_GetMode
 5508              		.syntax unified
 5509              		.code	16
 5510              		.thumb_func
 5511              		.fpu softvfp
 5513              	HAL_I2C_GetMode:
 5514              		@ args = 0, pretend = 0, frame = 0
 5515              		@ frame_needed = 0, uses_anonymous_args = 0
 5516              		@ link register save eliminated.
 5517 0000 4230     		adds	r0, r0, #66
 5518 0002 0078     		ldrb	r0, [r0]
 5519              		@ sp needed
 5520 0004 C0B2     		uxtb	r0, r0
 5521 0006 7047     		bx	lr
 5523              		.section	.text.HAL_I2C_GetError,"ax",%progbits
 5524              		.align	1
 5525              		.global	HAL_I2C_GetError
 5526              		.syntax unified
 5527              		.code	16
 5528              		.thumb_func
 5529              		.fpu softvfp
 5531              	HAL_I2C_GetError:
 5532              		@ args = 0, pretend = 0, frame = 0
 5533              		@ frame_needed = 0, uses_anonymous_args = 0
 5534              		@ link register save eliminated.
 5535 0000 406C     		ldr	r0, [r0, #68]
 5536              		@ sp needed
 5537 0002 7047     		bx	lr
 5539              		.ident	"GCC: (Arch Repository) 10.1.0"
ARM GAS  /tmp/cchjT0Ct.s 			page 96

