ARM GAS  /tmp/ccoyYj8E.s 			page 1


   1              		.cpu cortex-m0
   2              		.eabi_attribute 20, 1
   3              		.eabi_attribute 21, 1
   4              		.eabi_attribute 23, 3
   5              		.eabi_attribute 24, 1
   6              		.eabi_attribute 25, 1
   7              		.eabi_attribute 26, 1
   8              		.eabi_attribute 30, 4
   9              		.eabi_attribute 34, 0
  10              		.eabi_attribute 18, 4
  11              		.file	"system_stm32f0xx.c"
  12              		.text
  13              		.section	.text.SystemInit,"ax",%progbits
  14              		.align	1
  15              		.global	SystemInit
  16              		.arch armv6s-m
  17              		.syntax unified
  18              		.code	16
  19              		.thumb_func
  20              		.fpu softvfp
  22              	SystemInit:
  23              		@ args = 0, pretend = 0, frame = 0
  24              		@ frame_needed = 1, uses_anonymous_args = 0
  25 0000 80B5     		push	{r7, lr}
  26 0002 1A4B     		ldr	r3, .L4
  27 0004 1A4A     		ldr	r2, .L4+4
  28 0006 1968     		ldr	r1, [r3]
  29 0008 00AF     		add	r7, sp, #0
  30 000a 9142     		cmp	r1, r2
  31 000c 0AD1     		bne	.L2
  32 000e 194A     		ldr	r2, .L4+8
  33 0010 1A60     		str	r2, [r3]
  34 0012 194B     		ldr	r3, .L4+12
  35              		.syntax divided
  36              	@ 190 "Drivers/CMSIS/Include/cmsis_gcc.h" 1
  37 0014 83F30888 		MSR msp, r3
  38              	
  39              	@ 0 "" 2
  40              		.thumb
  41              		.syntax unified
  42 0018 184B     		ldr	r3, .L4+16
  43 001a 194A     		ldr	r2, .L4+20
  44 001c 1B68     		ldr	r3, [r3]
  45 001e 1360     		str	r3, [r2]
  46 0020 9847     		blx	r3
  47              	.L3:
  48 0022 FEE7     		b	.L3
  49              	.L2:
  50 0024 0121     		movs	r1, #1
  51 0026 174B     		ldr	r3, .L4+24
  52 0028 1748     		ldr	r0, .L4+28
  53 002a 1A68     		ldr	r2, [r3]
  54 002c BD46     		mov	sp, r7
  55 002e 0A43     		orrs	r2, r1
  56 0030 1A60     		str	r2, [r3]
  57 0032 5A68     		ldr	r2, [r3, #4]
  58              		@ sp needed
ARM GAS  /tmp/ccoyYj8E.s 			page 2


  59 0034 0240     		ands	r2, r0
  60 0036 5A60     		str	r2, [r3, #4]
  61 0038 1A68     		ldr	r2, [r3]
  62 003a 1448     		ldr	r0, .L4+32
  63 003c 0240     		ands	r2, r0
  64 003e 1A60     		str	r2, [r3]
  65 0040 1A68     		ldr	r2, [r3]
  66 0042 1348     		ldr	r0, .L4+36
  67 0044 0240     		ands	r2, r0
  68 0046 1A60     		str	r2, [r3]
  69 0048 5A68     		ldr	r2, [r3, #4]
  70 004a 1248     		ldr	r0, .L4+40
  71 004c 0240     		ands	r2, r0
  72 004e 0F20     		movs	r0, #15
  73 0050 5A60     		str	r2, [r3, #4]
  74 0052 DA6A     		ldr	r2, [r3, #44]
  75 0054 8243     		bics	r2, r0
  76 0056 DA62     		str	r2, [r3, #44]
  77 0058 1A6B     		ldr	r2, [r3, #48]
  78 005a 0F48     		ldr	r0, .L4+44
  79 005c 0240     		ands	r2, r0
  80 005e 1A63     		str	r2, [r3, #48]
  81 0060 5A6B     		ldr	r2, [r3, #52]
  82 0062 8A43     		bics	r2, r1
  83 0064 5A63     		str	r2, [r3, #52]
  84 0066 0022     		movs	r2, #0
  85 0068 9A60     		str	r2, [r3, #8]
  86 006a 80BD     		pop	{r7, pc}
  87              	.L5:
  88              		.align	2
  89              	.L4:
  90 006c F03F0020 		.word	536887280
  91 0070 EFBEADDE 		.word	-559038737
  92 0074 EDFEFECA 		.word	-889258259
  93 0078 50220020 		.word	536879696
  94 007c 04C8FF1F 		.word	536856580
  95 0080 00000000 		.word	.LANCHOR0
  96 0084 00100240 		.word	1073876992
  97 0088 0CB8FF08 		.word	150976524
  98 008c FFFFF6FE 		.word	-17367041
  99 0090 FFFFFBFF 		.word	-262145
 100 0094 FFFFC0FF 		.word	-4128769
 101 0098 2CFEFCFF 		.word	-197076
 103              		.global	__aeabi_uidiv
 104              		.global	__aeabi_idiv
 105              		.section	.text.SystemCoreClockUpdate,"ax",%progbits
 106              		.align	1
 107              		.global	SystemCoreClockUpdate
 108              		.syntax unified
 109              		.code	16
 110              		.thumb_func
 111              		.fpu softvfp
 113              	SystemCoreClockUpdate:
 114              		@ args = 0, pretend = 0, frame = 0
 115              		@ frame_needed = 0, uses_anonymous_args = 0
 116 0000 0C22     		movs	r2, #12
 117 0002 70B5     		push	{r4, r5, r6, lr}
ARM GAS  /tmp/ccoyYj8E.s 			page 3


 118 0004 154E     		ldr	r6, .L12
 119 0006 164D     		ldr	r5, .L12+4
 120 0008 7368     		ldr	r3, [r6, #4]
 121 000a 1340     		ands	r3, r2
 122 000c 082B     		cmp	r3, #8
 123 000e 0AD0     		beq	.L7
 124 0010 144B     		ldr	r3, .L12+8
 125 0012 2B60     		str	r3, [r5]
 126              	.L8:
 127 0014 7368     		ldr	r3, [r6, #4]
 128 0016 144A     		ldr	r2, .L12+12
 129 0018 1B06     		lsls	r3, r3, #24
 130 001a 1B0F     		lsrs	r3, r3, #28
 131 001c D35C     		ldrb	r3, [r2, r3]
 132 001e 2A68     		ldr	r2, [r5]
 133              		@ sp needed
 134 0020 DA40     		lsrs	r2, r2, r3
 135 0022 2A60     		str	r2, [r5]
 136 0024 70BD     		pop	{r4, r5, r6, pc}
 137              	.L7:
 138 0026 0F20     		movs	r0, #15
 139 0028 7468     		ldr	r4, [r6, #4]
 140 002a 7368     		ldr	r3, [r6, #4]
 141 002c F16A     		ldr	r1, [r6, #44]
 142 002e C022     		movs	r2, #192
 143 0030 A40C     		lsrs	r4, r4, #18
 144 0032 0440     		ands	r4, r0
 145 0034 0140     		ands	r1, r0
 146 0036 8020     		movs	r0, #128
 147 0038 5202     		lsls	r2, r2, #9
 148 003a 1340     		ands	r3, r2
 149 003c 0234     		adds	r4, r4, #2
 150 003e 0131     		adds	r1, r1, #1
 151 0040 4002     		lsls	r0, r0, #9
 152 0042 8342     		cmp	r3, r0
 153 0044 01D1     		bne	.L9
 154              	.L10:
 155 0046 0748     		ldr	r0, .L12+8
 156 0048 02E0     		b	.L11
 157              	.L9:
 158 004a 9342     		cmp	r3, r2
 159 004c FBD1     		bne	.L10
 160 004e 0748     		ldr	r0, .L12+16
 161              	.L11:
 162 0050 FFF7FEFF 		bl	__aeabi_uidiv
 163 0054 4443     		muls	r4, r0
 164 0056 2C60     		str	r4, [r5]
 165 0058 DCE7     		b	.L8
 166              	.L13:
 167 005a C046     		.align	2
 168              	.L12:
 169 005c 00100240 		.word	1073876992
 170 0060 00000000 		.word	.LANCHOR1
 171 0064 00127A00 		.word	8000000
 172 0068 00000000 		.word	.LANCHOR2
 173 006c 006CDC02 		.word	48000000
 175              		.global	SysMemBootJump
ARM GAS  /tmp/ccoyYj8E.s 			page 4


 176              		.global	APBPrescTable
 177              		.global	AHBPrescTable
 178              		.global	SystemCoreClock
 179              		.section	.bss.SysMemBootJump,"aw",%nobits
 180              		.align	2
 181              		.set	.LANCHOR0,. + 0
 184              	SysMemBootJump:
 185 0000 00000000 		.space	4
 186              		.section	.data.SystemCoreClock,"aw"
 187              		.align	2
 188              		.set	.LANCHOR1,. + 0
 191              	SystemCoreClock:
 192 0000 00127A00 		.word	8000000
 193              		.section	.rodata.AHBPrescTable,"a"
 194              		.set	.LANCHOR2,. + 0
 197              	AHBPrescTable:
 198 0000 00000000 		.ascii	"\000\000\000\000\000\000\000\000\001\002\003\004\006"
 198      00000000 
 198      01020304 
 198      06
 199 000d 070809   		.ascii	"\007\010\011"
 200              		.section	.rodata.APBPrescTable,"a"
 203              	APBPrescTable:
 204 0000 00000000 		.ascii	"\000\000\000\000\001\002\003\004"
 204      01020304 
 205              		.ident	"GCC: (Arch Repository) 10.1.0"
ARM GAS  /tmp/ccoyYj8E.s 			page 5


DEFINED SYMBOLS
                            *ABS*:0000000000000000 system_stm32f0xx.c
     /tmp/ccoyYj8E.s:14     .text.SystemInit:0000000000000000 $t
     /tmp/ccoyYj8E.s:22     .text.SystemInit:0000000000000000 SystemInit
     /tmp/ccoyYj8E.s:90     .text.SystemInit:000000000000006c $d
     /tmp/ccoyYj8E.s:106    .text.SystemCoreClockUpdate:0000000000000000 $t
     /tmp/ccoyYj8E.s:113    .text.SystemCoreClockUpdate:0000000000000000 SystemCoreClockUpdate
     /tmp/ccoyYj8E.s:169    .text.SystemCoreClockUpdate:000000000000005c $d
     /tmp/ccoyYj8E.s:184    .bss.SysMemBootJump:0000000000000000 SysMemBootJump
     /tmp/ccoyYj8E.s:203    .rodata.APBPrescTable:0000000000000000 APBPrescTable
     /tmp/ccoyYj8E.s:197    .rodata.AHBPrescTable:0000000000000000 AHBPrescTable
     /tmp/ccoyYj8E.s:191    .data.SystemCoreClock:0000000000000000 SystemCoreClock
     /tmp/ccoyYj8E.s:180    .bss.SysMemBootJump:0000000000000000 $d
     /tmp/ccoyYj8E.s:187    .data.SystemCoreClock:0000000000000000 $d

UNDEFINED SYMBOLS
__aeabi_uidiv
__aeabi_idiv
