ARM GAS  /tmp/ccUy0jHA.s 			page 1


   1              		.cpu cortex-m0
   2              		.eabi_attribute 20, 1
   3              		.eabi_attribute 21, 1
   4              		.eabi_attribute 23, 3
   5              		.eabi_attribute 24, 1
   6              		.eabi_attribute 25, 1
   7              		.eabi_attribute 26, 1
   8              		.eabi_attribute 30, 4
   9              		.eabi_attribute 34, 0
  10              		.eabi_attribute 18, 4
  11              		.file	"usbd_cdc.c"
  12              		.text
  13              		.section	.text.USBD_CDC_DataIn,"ax",%progbits
  14              		.align	1
  15              		.arch armv6s-m
  16              		.syntax unified
  17              		.code	16
  18              		.thumb_func
  19              		.fpu softvfp
  21              	USBD_CDC_DataIn:
  22              		@ args = 0, pretend = 0, frame = 0
  23              		@ frame_needed = 0, uses_anonymous_args = 0
  24              		@ link register save eliminated.
  25 0000 8623     		movs	r3, #134
  26 0002 9B00     		lsls	r3, r3, #2
  27 0004 C358     		ldr	r3, [r0, r3]
  28 0006 0220     		movs	r0, #2
  29 0008 002B     		cmp	r3, #0
  30 000a 03D0     		beq	.L2
  31 000c 8522     		movs	r2, #133
  32 000e 0020     		movs	r0, #0
  33 0010 9200     		lsls	r2, r2, #2
  34 0012 9850     		str	r0, [r3, r2]
  35              	.L2:
  36              		@ sp needed
  37 0014 7047     		bx	lr
  39              		.section	.text.USBD_CDC_EP0_RxReady,"ax",%progbits
  40              		.align	1
  41              		.syntax unified
  42              		.code	16
  43              		.thumb_func
  44              		.fpu softvfp
  46              	USBD_CDC_EP0_RxReady:
  47              		@ args = 0, pretend = 0, frame = 0
  48              		@ frame_needed = 0, uses_anonymous_args = 0
  49 0000 8723     		movs	r3, #135
  50 0002 9B00     		lsls	r3, r3, #2
  51 0004 C358     		ldr	r3, [r0, r3]
  52 0006 70B5     		push	{r4, r5, r6, lr}
  53 0008 002B     		cmp	r3, #0
  54 000a 0ED0     		beq	.L5
  55 000c 8622     		movs	r2, #134
  56 000e 8025     		movs	r5, #128
  57 0010 9200     		lsls	r2, r2, #2
  58 0012 8458     		ldr	r4, [r0, r2]
  59 0014 AD00     		lsls	r5, r5, #2
  60 0016 605D     		ldrb	r0, [r4, r5]
ARM GAS  /tmp/ccUy0jHA.s 			page 2


  61 0018 FF28     		cmp	r0, #255
  62 001a 06D0     		beq	.L5
  63 001c 044A     		ldr	r2, .L12
  64 001e 9B68     		ldr	r3, [r3, #8]
  65 0020 2100     		movs	r1, r4
  66 0022 A25C     		ldrb	r2, [r4, r2]
  67 0024 9847     		blx	r3
  68 0026 FF23     		movs	r3, #255
  69 0028 6355     		strb	r3, [r4, r5]
  70              	.L5:
  71 002a 0020     		movs	r0, #0
  72              		@ sp needed
  73 002c 70BD     		pop	{r4, r5, r6, pc}
  74              	.L13:
  75 002e C046     		.align	2
  76              	.L12:
  77 0030 01020000 		.word	513
  79              		.section	.text.USBD_CDC_GetFSCfgDesc,"ax",%progbits
  80              		.align	1
  81              		.syntax unified
  82              		.code	16
  83              		.thumb_func
  84              		.fpu softvfp
  86              	USBD_CDC_GetFSCfgDesc:
  87              		@ args = 0, pretend = 0, frame = 0
  88              		@ frame_needed = 0, uses_anonymous_args = 0
  89              		@ link register save eliminated.
  90 0000 4323     		movs	r3, #67
  91              		@ sp needed
  92 0002 0380     		strh	r3, [r0]
  93 0004 0048     		ldr	r0, .L15
  94 0006 7047     		bx	lr
  95              	.L16:
  96              		.align	2
  97              	.L15:
  98 0008 00000000 		.word	.LANCHOR0
 100              		.section	.text.USBD_CDC_GetHSCfgDesc,"ax",%progbits
 101              		.align	1
 102              		.syntax unified
 103              		.code	16
 104              		.thumb_func
 105              		.fpu softvfp
 107              	USBD_CDC_GetHSCfgDesc:
 108              		@ args = 0, pretend = 0, frame = 0
 109              		@ frame_needed = 0, uses_anonymous_args = 0
 110              		@ link register save eliminated.
 111 0000 4323     		movs	r3, #67
 112              		@ sp needed
 113 0002 0380     		strh	r3, [r0]
 114 0004 0048     		ldr	r0, .L18
 115 0006 7047     		bx	lr
 116              	.L19:
 117              		.align	2
 118              	.L18:
 119 0008 00000000 		.word	.LANCHOR1
 121              		.section	.text.USBD_CDC_GetOtherSpeedCfgDesc,"ax",%progbits
 122              		.align	1
ARM GAS  /tmp/ccUy0jHA.s 			page 3


 123              		.syntax unified
 124              		.code	16
 125              		.thumb_func
 126              		.fpu softvfp
 128              	USBD_CDC_GetOtherSpeedCfgDesc:
 129              		@ args = 0, pretend = 0, frame = 0
 130              		@ frame_needed = 0, uses_anonymous_args = 0
 131              		@ link register save eliminated.
 132 0000 4323     		movs	r3, #67
 133              		@ sp needed
 134 0002 0380     		strh	r3, [r0]
 135 0004 0048     		ldr	r0, .L21
 136 0006 7047     		bx	lr
 137              	.L22:
 138              		.align	2
 139              	.L21:
 140 0008 00000000 		.word	.LANCHOR2
 142              		.section	.text.USBD_CDC_GetDeviceQualifierDescriptor,"ax",%progbits
 143              		.align	1
 144              		.global	USBD_CDC_GetDeviceQualifierDescriptor
 145              		.syntax unified
 146              		.code	16
 147              		.thumb_func
 148              		.fpu softvfp
 150              	USBD_CDC_GetDeviceQualifierDescriptor:
 151              		@ args = 0, pretend = 0, frame = 0
 152              		@ frame_needed = 0, uses_anonymous_args = 0
 153              		@ link register save eliminated.
 154 0000 0A23     		movs	r3, #10
 155              		@ sp needed
 156 0002 0380     		strh	r3, [r0]
 157 0004 0048     		ldr	r0, .L24
 158 0006 7047     		bx	lr
 159              	.L25:
 160              		.align	2
 161              	.L24:
 162 0008 00000000 		.word	.LANCHOR3
 164              		.section	.text.USBD_CDC_DataOut,"ax",%progbits
 165              		.align	1
 166              		.syntax unified
 167              		.code	16
 168              		.thumb_func
 169              		.fpu softvfp
 171              	USBD_CDC_DataOut:
 172              		@ args = 0, pretend = 0, frame = 0
 173              		@ frame_needed = 0, uses_anonymous_args = 0
 174 0000 70B5     		push	{r4, r5, r6, lr}
 175 0002 8626     		movs	r6, #134
 176 0004 B600     		lsls	r6, r6, #2
 177 0006 0400     		movs	r4, r0
 178 0008 8559     		ldr	r5, [r0, r6]
 179 000a FFF7FEFF 		bl	USBD_LL_GetRxDataSize
 180 000e 8323     		movs	r3, #131
 181 0010 9B00     		lsls	r3, r3, #2
 182 0012 E850     		str	r0, [r5, r3]
 183 0014 A359     		ldr	r3, [r4, r6]
 184 0016 0220     		movs	r0, #2
ARM GAS  /tmp/ccUy0jHA.s 			page 4


 185 0018 002B     		cmp	r3, #0
 186 001a 0AD0     		beq	.L27
 187 001c 8323     		movs	r3, #131
 188 001e 8122     		movs	r2, #129
 189 0020 9B00     		lsls	r3, r3, #2
 190 0022 E918     		adds	r1, r5, r3
 191 0024 1033     		adds	r3, r3, #16
 192 0026 E358     		ldr	r3, [r4, r3]
 193 0028 9200     		lsls	r2, r2, #2
 194 002a DB68     		ldr	r3, [r3, #12]
 195 002c A858     		ldr	r0, [r5, r2]
 196 002e 9847     		blx	r3
 197 0030 0020     		movs	r0, #0
 198              	.L27:
 199              		@ sp needed
 200 0032 70BD     		pop	{r4, r5, r6, pc}
 202              		.section	.text.USBD_CDC_Setup,"ax",%progbits
 203              		.align	1
 204              		.syntax unified
 205              		.code	16
 206              		.thumb_func
 207              		.fpu softvfp
 209              	USBD_CDC_Setup:
 210              		@ args = 0, pretend = 0, frame = 0
 211              		@ frame_needed = 0, uses_anonymous_args = 0
 212 0000 0B78     		ldrb	r3, [r1]
 213 0002 70B5     		push	{r4, r5, r6, lr}
 214 0004 6022     		movs	r2, #96
 215 0006 0D00     		movs	r5, r1
 216 0008 1900     		movs	r1, r3
 217 000a 0400     		movs	r4, r0
 218 000c 1140     		ands	r1, r2
 219 000e 1342     		tst	r3, r2
 220 0010 29D0     		beq	.L30
 221 0012 2029     		cmp	r1, #32
 222 0014 1ED1     		bne	.L31
 223 0016 EA88     		ldrh	r2, [r5, #6]
 224 0018 6878     		ldrb	r0, [r5, #1]
 225 001a 002A     		cmp	r2, #0
 226 001c 1CD0     		beq	.L32
 227 001e F931     		adds	r1, r1, #249
 228 0020 FF31     		adds	r1, r1, #255
 229 0022 5BB2     		sxtb	r3, r3
 230 0024 6658     		ldr	r6, [r4, r1]
 231 0026 002B     		cmp	r3, #0
 232 0028 0BDA     		bge	.L33
 233 002a 8723     		movs	r3, #135
 234 002c 9B00     		lsls	r3, r3, #2
 235 002e E358     		ldr	r3, [r4, r3]
 236 0030 3100     		movs	r1, r6
 237 0032 9B68     		ldr	r3, [r3, #8]
 238 0034 9847     		blx	r3
 239 0036 3100     		movs	r1, r6
 240 0038 EA88     		ldrh	r2, [r5, #6]
 241              	.L34:
 242 003a 2000     		movs	r0, r4
 243 003c FFF7FEFF 		bl	USBD_CtlSendData
ARM GAS  /tmp/ccUy0jHA.s 			page 5


 244 0040 08E0     		b	.L31
 245              	.L33:
 246 0042 8023     		movs	r3, #128
 247 0044 9B00     		lsls	r3, r3, #2
 248 0046 F054     		strb	r0, [r6, r3]
 249 0048 0A4B     		ldr	r3, .L35
 250 004a 3100     		movs	r1, r6
 251 004c 2000     		movs	r0, r4
 252 004e F254     		strb	r2, [r6, r3]
 253 0050 FFF7FEFF 		bl	USBD_CtlPrepareRx
 254              	.L31:
 255              		@ sp needed
 256 0054 0020     		movs	r0, #0
 257 0056 70BD     		pop	{r4, r5, r6, pc}
 258              	.L32:
 259 0058 8723     		movs	r3, #135
 260 005a 9B00     		lsls	r3, r3, #2
 261 005c E358     		ldr	r3, [r4, r3]
 262 005e 2900     		movs	r1, r5
 263 0060 9B68     		ldr	r3, [r3, #8]
 264 0062 9847     		blx	r3
 265 0064 F6E7     		b	.L31
 266              	.L30:
 267 0066 6B78     		ldrb	r3, [r5, #1]
 268 0068 0A2B     		cmp	r3, #10
 269 006a F3D1     		bne	.L31
 270 006c 0122     		movs	r2, #1
 271 006e 0249     		ldr	r1, .L35+4
 272 0070 E3E7     		b	.L34
 273              	.L36:
 274 0072 C046     		.align	2
 275              	.L35:
 276 0074 01020000 		.word	513
 277 0078 00000000 		.word	.LANCHOR4
 279              		.section	.text.USBD_CDC_DeInit,"ax",%progbits
 280              		.align	1
 281              		.syntax unified
 282              		.code	16
 283              		.thumb_func
 284              		.fpu softvfp
 286              	USBD_CDC_DeInit:
 287              		@ args = 0, pretend = 0, frame = 0
 288              		@ frame_needed = 0, uses_anonymous_args = 0
 289 0000 70B5     		push	{r4, r5, r6, lr}
 290 0002 0400     		movs	r4, r0
 291 0004 8625     		movs	r5, #134
 292 0006 8121     		movs	r1, #129
 293 0008 FFF7FEFF 		bl	USBD_LL_CloseEP
 294 000c 0121     		movs	r1, #1
 295 000e 2000     		movs	r0, r4
 296 0010 FFF7FEFF 		bl	USBD_LL_CloseEP
 297 0014 AD00     		lsls	r5, r5, #2
 298 0016 8221     		movs	r1, #130
 299 0018 2000     		movs	r0, r4
 300 001a FFF7FEFF 		bl	USBD_LL_CloseEP
 301 001e 6359     		ldr	r3, [r4, r5]
 302 0020 002B     		cmp	r3, #0
ARM GAS  /tmp/ccUy0jHA.s 			page 6


 303 0022 09D0     		beq	.L38
 304 0024 8723     		movs	r3, #135
 305 0026 9B00     		lsls	r3, r3, #2
 306 0028 E358     		ldr	r3, [r4, r3]
 307 002a 5B68     		ldr	r3, [r3, #4]
 308 002c 9847     		blx	r3
 309 002e 6059     		ldr	r0, [r4, r5]
 310 0030 FFF7FEFF 		bl	USBD_static_free
 311 0034 0023     		movs	r3, #0
 312 0036 6351     		str	r3, [r4, r5]
 313              	.L38:
 314 0038 0020     		movs	r0, #0
 315              		@ sp needed
 316 003a 70BD     		pop	{r4, r5, r6, pc}
 318              		.section	.text.USBD_CDC_Init,"ax",%progbits
 319              		.align	1
 320              		.syntax unified
 321              		.code	16
 322              		.thumb_func
 323              		.fpu softvfp
 325              	USBD_CDC_Init:
 326              		@ args = 0, pretend = 0, frame = 0
 327              		@ frame_needed = 0, uses_anonymous_args = 0
 328 0000 F8B5     		push	{r3, r4, r5, r6, r7, lr}
 329 0002 037C     		ldrb	r3, [r0, #16]
 330 0004 0400     		movs	r4, r0
 331 0006 002B     		cmp	r3, #0
 332 0008 34D1     		bne	.L43
 333 000a 8023     		movs	r3, #128
 334 000c 0222     		movs	r2, #2
 335 000e 9B00     		lsls	r3, r3, #2
 336 0010 8121     		movs	r1, #129
 337 0012 FFF7FEFF 		bl	USBD_LL_OpenEP
 338 0016 8023     		movs	r3, #128
 339 0018 9B00     		lsls	r3, r3, #2
 340              	.L48:
 341 001a 8727     		movs	r7, #135
 342 001c 0222     		movs	r2, #2
 343 001e 0121     		movs	r1, #1
 344 0020 2000     		movs	r0, r4
 345 0022 FFF7FEFF 		bl	USBD_LL_OpenEP
 346 0026 BF00     		lsls	r7, r7, #2
 347 0028 0823     		movs	r3, #8
 348 002a 0322     		movs	r2, #3
 349 002c 8221     		movs	r1, #130
 350 002e 2000     		movs	r0, r4
 351 0030 FFF7FEFF 		bl	USBD_LL_OpenEP
 352 0034 3800     		movs	r0, r7
 353 0036 FFF7FEFF 		bl	USBD_static_malloc
 354 003a 8623     		movs	r3, #134
 355 003c 9B00     		lsls	r3, r3, #2
 356 003e 0500     		movs	r5, r0
 357 0040 0126     		movs	r6, #1
 358 0042 E050     		str	r0, [r4, r3]
 359 0044 0028     		cmp	r0, #0
 360 0046 13D0     		beq	.L45
 361 0048 E359     		ldr	r3, [r4, r7]
ARM GAS  /tmp/ccUy0jHA.s 			page 7


 362 004a 0027     		movs	r7, #0
 363 004c 1B68     		ldr	r3, [r3]
 364 004e 9847     		blx	r3
 365 0050 8523     		movs	r3, #133
 366 0052 8122     		movs	r2, #129
 367 0054 9B00     		lsls	r3, r3, #2
 368 0056 EF50     		str	r7, [r5, r3]
 369 0058 0433     		adds	r3, r3, #4
 370 005a EF50     		str	r7, [r5, r3]
 371 005c 267C     		ldrb	r6, [r4, #16]
 372 005e 9200     		lsls	r2, r2, #2
 373 0060 BE42     		cmp	r6, r7
 374 0062 0ED1     		bne	.L46
 375 0064 0121     		movs	r1, #1
 376 0066 2000     		movs	r0, r4
 377 0068 AA58     		ldr	r2, [r5, r2]
 378 006a 183B     		subs	r3, r3, #24
 379 006c FFF7FEFF 		bl	USBD_LL_PrepareReceive
 380              	.L45:
 381              		@ sp needed
 382 0070 3000     		movs	r0, r6
 383 0072 F8BD     		pop	{r3, r4, r5, r6, r7, pc}
 384              	.L43:
 385 0074 4023     		movs	r3, #64
 386 0076 0222     		movs	r2, #2
 387 0078 8121     		movs	r1, #129
 388 007a FFF7FEFF 		bl	USBD_LL_OpenEP
 389 007e 4023     		movs	r3, #64
 390 0080 CBE7     		b	.L48
 391              	.L46:
 392 0082 4023     		movs	r3, #64
 393 0084 0121     		movs	r1, #1
 394 0086 2000     		movs	r0, r4
 395 0088 AA58     		ldr	r2, [r5, r2]
 396 008a FFF7FEFF 		bl	USBD_LL_PrepareReceive
 397 008e 3E00     		movs	r6, r7
 398 0090 EEE7     		b	.L45
 400              		.section	.text.USBD_CDC_RegisterInterface,"ax",%progbits
 401              		.align	1
 402              		.global	USBD_CDC_RegisterInterface
 403              		.syntax unified
 404              		.code	16
 405              		.thumb_func
 406              		.fpu softvfp
 408              	USBD_CDC_RegisterInterface:
 409              		@ args = 0, pretend = 0, frame = 0
 410              		@ frame_needed = 0, uses_anonymous_args = 0
 411              		@ link register save eliminated.
 412 0000 0300     		movs	r3, r0
 413 0002 0220     		movs	r0, #2
 414 0004 0029     		cmp	r1, #0
 415 0006 03D0     		beq	.L50
 416 0008 8722     		movs	r2, #135
 417 000a 0020     		movs	r0, #0
 418 000c 9200     		lsls	r2, r2, #2
 419 000e 9950     		str	r1, [r3, r2]
 420              	.L50:
ARM GAS  /tmp/ccUy0jHA.s 			page 8


 421              		@ sp needed
 422 0010 7047     		bx	lr
 424              		.section	.text.USBD_CDC_SetTxBuffer,"ax",%progbits
 425              		.align	1
 426              		.global	USBD_CDC_SetTxBuffer
 427              		.syntax unified
 428              		.code	16
 429              		.thumb_func
 430              		.fpu softvfp
 432              	USBD_CDC_SetTxBuffer:
 433              		@ args = 0, pretend = 0, frame = 0
 434              		@ frame_needed = 0, uses_anonymous_args = 0
 435              		@ link register save eliminated.
 436 0000 8623     		movs	r3, #134
 437              		@ sp needed
 438 0002 9B00     		lsls	r3, r3, #2
 439 0004 C358     		ldr	r3, [r0, r3]
 440 0006 8220     		movs	r0, #130
 441 0008 8000     		lsls	r0, r0, #2
 442 000a 1950     		str	r1, [r3, r0]
 443 000c 8421     		movs	r1, #132
 444 000e 8900     		lsls	r1, r1, #2
 445 0010 0020     		movs	r0, #0
 446 0012 5A50     		str	r2, [r3, r1]
 447 0014 7047     		bx	lr
 449              		.section	.text.USBD_CDC_SetRxBuffer,"ax",%progbits
 450              		.align	1
 451              		.global	USBD_CDC_SetRxBuffer
 452              		.syntax unified
 453              		.code	16
 454              		.thumb_func
 455              		.fpu softvfp
 457              	USBD_CDC_SetRxBuffer:
 458              		@ args = 0, pretend = 0, frame = 0
 459              		@ frame_needed = 0, uses_anonymous_args = 0
 460              		@ link register save eliminated.
 461 0000 8623     		movs	r3, #134
 462              		@ sp needed
 463 0002 9B00     		lsls	r3, r3, #2
 464 0004 C258     		ldr	r2, [r0, r3]
 465 0006 143B     		subs	r3, r3, #20
 466 0008 0020     		movs	r0, #0
 467 000a D150     		str	r1, [r2, r3]
 468 000c 7047     		bx	lr
 470              		.section	.text.USBD_CDC_TransmitPacket,"ax",%progbits
 471              		.align	1
 472              		.global	USBD_CDC_TransmitPacket
 473              		.syntax unified
 474              		.code	16
 475              		.thumb_func
 476              		.fpu softvfp
 478              	USBD_CDC_TransmitPacket:
 479              		@ args = 0, pretend = 0, frame = 0
 480              		@ frame_needed = 0, uses_anonymous_args = 0
 481 0000 8623     		movs	r3, #134
 482 0002 9B00     		lsls	r3, r3, #2
 483 0004 C258     		ldr	r2, [r0, r3]
ARM GAS  /tmp/ccUy0jHA.s 			page 9


 484 0006 10B5     		push	{r4, lr}
 485 0008 0223     		movs	r3, #2
 486 000a 002A     		cmp	r2, #0
 487 000c 11D0     		beq	.L55
 488 000e 8521     		movs	r1, #133
 489 0010 8900     		lsls	r1, r1, #2
 490 0012 5458     		ldr	r4, [r2, r1]
 491 0014 013B     		subs	r3, r3, #1
 492 0016 002C     		cmp	r4, #0
 493 0018 0BD1     		bne	.L55
 494 001a 5350     		str	r3, [r2, r1]
 495 001c 8423     		movs	r3, #132
 496 001e 9B00     		lsls	r3, r3, #2
 497 0020 D358     		ldr	r3, [r2, r3]
 498 0022 0C39     		subs	r1, r1, #12
 499 0024 5258     		ldr	r2, [r2, r1]
 500 0026 8839     		subs	r1, r1, #136
 501 0028 9BB2     		uxth	r3, r3
 502 002a FF39     		subs	r1, r1, #255
 503 002c FFF7FEFF 		bl	USBD_LL_Transmit
 504 0030 2300     		movs	r3, r4
 505              	.L55:
 506              		@ sp needed
 507 0032 1800     		movs	r0, r3
 508 0034 10BD     		pop	{r4, pc}
 510              		.section	.text.USBD_CDC_ReceivePacket,"ax",%progbits
 511              		.align	1
 512              		.global	USBD_CDC_ReceivePacket
 513              		.syntax unified
 514              		.code	16
 515              		.thumb_func
 516              		.fpu softvfp
 518              	USBD_CDC_ReceivePacket:
 519              		@ args = 0, pretend = 0, frame = 0
 520              		@ frame_needed = 0, uses_anonymous_args = 0
 521 0000 8623     		movs	r3, #134
 522 0002 9B00     		lsls	r3, r3, #2
 523 0004 C358     		ldr	r3, [r0, r3]
 524 0006 10B5     		push	{r4, lr}
 525 0008 0224     		movs	r4, #2
 526 000a 002B     		cmp	r3, #0
 527 000c 0AD0     		beq	.L59
 528 000e 8122     		movs	r2, #129
 529 0010 047C     		ldrb	r4, [r0, #16]
 530 0012 9200     		lsls	r2, r2, #2
 531 0014 9A58     		ldr	r2, [r3, r2]
 532 0016 002C     		cmp	r4, #0
 533 0018 06D1     		bne	.L60
 534 001a 8023     		movs	r3, #128
 535 001c 0121     		movs	r1, #1
 536 001e 9B00     		lsls	r3, r3, #2
 537 0020 FFF7FEFF 		bl	USBD_LL_PrepareReceive
 538              	.L59:
 539              		@ sp needed
 540 0024 2000     		movs	r0, r4
 541 0026 10BD     		pop	{r4, pc}
 542              	.L60:
ARM GAS  /tmp/ccUy0jHA.s 			page 10


 543 0028 4023     		movs	r3, #64
 544 002a 0121     		movs	r1, #1
 545 002c FFF7FEFF 		bl	USBD_LL_PrepareReceive
 546 0030 0024     		movs	r4, #0
 547 0032 F7E7     		b	.L59
 549              		.global	USBD_CDC_OtherSpeedCfgDesc
 550              		.global	USBD_CDC_CfgFSDesc
 551              		.global	USBD_CDC_CfgHSDesc
 552              		.global	USBD_CDC
 553              		.section	.bss.ifalt.0,"aw",%nobits
 554              		.set	.LANCHOR4,. + 0
 557              	ifalt.0:
 558 0000 00       		.space	1
 559              		.section	.data.USBD_CDC,"aw"
 560              		.align	2
 563              	USBD_CDC:
 564 0000 00000000 		.word	USBD_CDC_Init
 565 0004 00000000 		.word	USBD_CDC_DeInit
 566 0008 00000000 		.word	USBD_CDC_Setup
 567 000c 00000000 		.word	0
 568 0010 00000000 		.word	USBD_CDC_EP0_RxReady
 569 0014 00000000 		.word	USBD_CDC_DataIn
 570 0018 00000000 		.word	USBD_CDC_DataOut
 571 001c 00000000 		.word	0
 572 0020 00000000 		.word	0
 573 0024 00000000 		.word	0
 574 0028 00000000 		.word	USBD_CDC_GetHSCfgDesc
 575 002c 00000000 		.word	USBD_CDC_GetFSCfgDesc
 576 0030 00000000 		.word	USBD_CDC_GetOtherSpeedCfgDesc
 577 0034 00000000 		.word	USBD_CDC_GetDeviceQualifierDescriptor
 578              		.section	.data.USBD_CDC_CfgFSDesc,"aw"
 579              		.align	2
 580              		.set	.LANCHOR0,. + 0
 583              	USBD_CDC_CfgFSDesc:
 584 0000 09024300 		.ascii	"\011\002C\000\002\001\000\3002\011\004\000\000\001\002"
 584      020100C0 
 584      32090400 
 584      000102
 585 000f 02010005 		.ascii	"\002\001\000\005$\000\020\001\005$\001\000\001\004$"
 585      24001001 
 585      05240100 
 585      010424
 586 001e 02020524 		.ascii	"\002\002\005$\006\000\001\007\005\202\003\010\000\020"
 586      06000107 
 586      05820308 
 586      0010
 587 002c 09040100 		.ascii	"\011\004\001\000\002\012\000\000\000\007\005\001\002"
 587      020A0000 
 587      00070501 
 587      02
 588 0039 40000007 		.ascii	"@\000\000\007\005\201\002@\000\000"
 588      05810240 
 588      0000
 589              		.section	.data.USBD_CDC_CfgHSDesc,"aw"
 590              		.align	2
 591              		.set	.LANCHOR1,. + 0
 594              	USBD_CDC_CfgHSDesc:
ARM GAS  /tmp/ccUy0jHA.s 			page 11


 595 0000 09024300 		.ascii	"\011\002C\000\002\001\000\3002\011\004\000\000\001\002"
 595      020100C0 
 595      32090400 
 595      000102
 596 000f 02010005 		.ascii	"\002\001\000\005$\000\020\001\005$\001\000\001\004$"
 596      24001001 
 596      05240100 
 596      010424
 597 001e 02020524 		.ascii	"\002\002\005$\006\000\001\007\005\202\003\010\000\020"
 597      06000107 
 597      05820308 
 597      0010
 598 002c 09040100 		.ascii	"\011\004\001\000\002\012\000\000\000\007\005\001\002"
 598      020A0000 
 598      00070501 
 598      02
 599 0039 00020007 		.ascii	"\000\002\000\007\005\201\002\000\002\000"
 599      05810200 
 599      0200
 600              		.section	.data.USBD_CDC_DeviceQualifierDesc,"aw"
 601              		.align	2
 602              		.set	.LANCHOR3,. + 0
 605              	USBD_CDC_DeviceQualifierDesc:
 606 0000 0A060002 		.ascii	"\012\006\000\002\000\000\000@\001\000"
 606      00000040 
 606      0100
 607              		.section	.data.USBD_CDC_OtherSpeedCfgDesc,"aw"
 608              		.align	2
 609              		.set	.LANCHOR2,. + 0
 612              	USBD_CDC_OtherSpeedCfgDesc:
 613 0000 09074300 		.ascii	"\011\007C\000\002\001\004\3002\011\004\000\000\001\002"
 613      020104C0 
 613      32090400 
 613      000102
 614 000f 02010005 		.ascii	"\002\001\000\005$\000\020\001\005$\001\000\001\004$"
 614      24001001 
 614      05240100 
 614      010424
 615 001e 02020524 		.ascii	"\002\002\005$\006\000\001\007\005\202\003\010\000\377"
 615      06000107 
 615      05820308 
 615      00FF
 616 002c 09040100 		.ascii	"\011\004\001\000\002\012\000\000\000\007\005\001\002"
 616      020A0000 
 616      00070501 
 616      02
 617 0039 40000007 		.ascii	"@\000\000\007\005\201\002@\000\000"
 617      05810240 
 617      0000
 618              		.ident	"GCC: (Arch Repository) 10.1.0"
ARM GAS  /tmp/ccUy0jHA.s 			page 12

