ARM GAS  /tmp/ccY44bpE.s 			page 1


   1              		.cpu cortex-m0
   2              		.eabi_attribute 20, 1
   3              		.eabi_attribute 21, 1
   4              		.eabi_attribute 23, 3
   5              		.eabi_attribute 24, 1
   6              		.eabi_attribute 25, 1
   7              		.eabi_attribute 26, 1
   8              		.eabi_attribute 30, 4
   9              		.eabi_attribute 34, 0
  10              		.eabi_attribute 18, 4
  11              		.file	"usbd_cdc_interface.c"
  12              		.text
  13              		.section	.text.CDC_Itf_DeInit,"ax",%progbits
  14              		.align	1
  15              		.arch armv6s-m
  16              		.syntax unified
  17              		.code	16
  18              		.thumb_func
  19              		.fpu softvfp
  21              	CDC_Itf_DeInit:
  22              		@ args = 0, pretend = 0, frame = 0
  23              		@ frame_needed = 0, uses_anonymous_args = 0
  24              		@ link register save eliminated.
  25              		@ sp needed
  26 0000 7047     		bx	lr
  28              		.section	.text.CDC_Itf_Control,"ax",%progbits
  29              		.align	1
  30              		.syntax unified
  31              		.code	16
  32              		.thumb_func
  33              		.fpu softvfp
  35              	CDC_Itf_Control:
  36              		@ args = 0, pretend = 0, frame = 0
  37              		@ frame_needed = 0, uses_anonymous_args = 0
  38              		@ link register save eliminated.
  39              		@ sp needed
  40 0000 7047     		bx	lr
  42              		.section	.text.CDC_Itf_Receive,"ax",%progbits
  43              		.align	1
  44              		.syntax unified
  45              		.code	16
  46              		.thumb_func
  47              		.fpu softvfp
  49              	CDC_Itf_Receive:
  50              		@ args = 0, pretend = 0, frame = 0
  51              		@ frame_needed = 0, uses_anonymous_args = 0
  52              		@ link register save eliminated.
  53              		@ sp needed
  54 0000 7047     		bx	lr
  56              		.section	.text.CDC_Itf_Init,"ax",%progbits
  57              		.align	1
  58              		.syntax unified
  59              		.code	16
  60              		.thumb_func
  61              		.fpu softvfp
  63              	CDC_Itf_Init:
  64              		@ args = 0, pretend = 0, frame = 0
ARM GAS  /tmp/ccY44bpE.s 			page 2


  65              		@ frame_needed = 0, uses_anonymous_args = 0
  66 0000 10B5     		push	{r4, lr}
  67 0002 064C     		ldr	r4, .L5
  68 0004 0022     		movs	r2, #0
  69              		@ sp needed
  70 0006 2000     		movs	r0, r4
  71 0008 0549     		ldr	r1, .L5+4
  72 000a FFF7FEFF 		bl	USBD_CDC_SetTxBuffer
  73 000e 2000     		movs	r0, r4
  74 0010 0449     		ldr	r1, .L5+8
  75 0012 FFF7FEFF 		bl	USBD_CDC_SetRxBuffer
  76 0016 0020     		movs	r0, #0
  77 0018 10BD     		pop	{r4, pc}
  78              	.L6:
  79 001a C046     		.align	2
  80              	.L5:
  81 001c 00000000 		.word	USBD_Device
  82 0020 00000000 		.word	UserTxBuffer
  83 0024 00000000 		.word	UserRxBuffer
  85              		.global	USBD_CDC_fops
  86              		.global	LineCoding
  87              		.global	UserTxBuffer
  88              		.global	UserRxBuffer
  89              		.section	.bss.UserRxBuffer,"aw",%nobits
  92              	UserRxBuffer:
  93 0000 00000000 		.space	512
  93      00000000 
  93      00000000 
  93      00000000 
  93      00000000 
  94              		.section	.bss.UserTxBuffer,"aw",%nobits
  97              	UserTxBuffer:
  98 0000 00000000 		.space	512
  98      00000000 
  98      00000000 
  98      00000000 
  98      00000000 
  99              		.section	.data.LineCoding,"aw"
 100              		.align	2
 103              	LineCoding:
 104 0000 00C20100 		.word	115200
 105 0004 00       		.byte	0
 106 0005 00       		.byte	0
 107 0006 08       		.byte	8
 108 0007 00       		.space	1
 109              		.section	.data.USBD_CDC_fops,"aw"
 110              		.align	2
 113              	USBD_CDC_fops:
 114 0000 00000000 		.word	CDC_Itf_Init
 115 0004 00000000 		.word	CDC_Itf_DeInit
 116 0008 00000000 		.word	CDC_Itf_Control
 117 000c 00000000 		.word	CDC_Itf_Receive
 118              		.ident	"GCC: (Arch Repository) 10.1.0"
ARM GAS  /tmp/ccY44bpE.s 			page 3


DEFINED SYMBOLS
                            *ABS*:0000000000000000 usbd_cdc_interface.c
     /tmp/ccY44bpE.s:14     .text.CDC_Itf_DeInit:0000000000000000 $t
     /tmp/ccY44bpE.s:21     .text.CDC_Itf_DeInit:0000000000000000 CDC_Itf_DeInit
     /tmp/ccY44bpE.s:29     .text.CDC_Itf_Control:0000000000000000 $t
     /tmp/ccY44bpE.s:35     .text.CDC_Itf_Control:0000000000000000 CDC_Itf_Control
     /tmp/ccY44bpE.s:43     .text.CDC_Itf_Receive:0000000000000000 $t
     /tmp/ccY44bpE.s:49     .text.CDC_Itf_Receive:0000000000000000 CDC_Itf_Receive
     /tmp/ccY44bpE.s:57     .text.CDC_Itf_Init:0000000000000000 $t
     /tmp/ccY44bpE.s:63     .text.CDC_Itf_Init:0000000000000000 CDC_Itf_Init
     /tmp/ccY44bpE.s:81     .text.CDC_Itf_Init:000000000000001c $d
     /tmp/ccY44bpE.s:97     .bss.UserTxBuffer:0000000000000000 UserTxBuffer
     /tmp/ccY44bpE.s:92     .bss.UserRxBuffer:0000000000000000 UserRxBuffer
     /tmp/ccY44bpE.s:113    .data.USBD_CDC_fops:0000000000000000 USBD_CDC_fops
     /tmp/ccY44bpE.s:103    .data.LineCoding:0000000000000000 LineCoding
     /tmp/ccY44bpE.s:93     .bss.UserRxBuffer:0000000000000000 $d
     /tmp/ccY44bpE.s:98     .bss.UserTxBuffer:0000000000000000 $d
     /tmp/ccY44bpE.s:100    .data.LineCoding:0000000000000000 $d
     /tmp/ccY44bpE.s:110    .data.USBD_CDC_fops:0000000000000000 $d

UNDEFINED SYMBOLS
USBD_CDC_SetTxBuffer
USBD_CDC_SetRxBuffer
USBD_Device
