ARM GAS  /tmp/ccC5FbcU.s 			page 1


   1              		.cpu cortex-m0
   2              		.eabi_attribute 20, 1
   3              		.eabi_attribute 21, 1
   4              		.eabi_attribute 23, 3
   5              		.eabi_attribute 24, 1
   6              		.eabi_attribute 25, 1
   7              		.eabi_attribute 26, 1
   8              		.eabi_attribute 30, 4
   9              		.eabi_attribute 34, 0
  10              		.eabi_attribute 18, 4
  11              		.file	"usbd_core.c"
  12              		.text
  13              		.section	.text.USBD_Init,"ax",%progbits
  14              		.align	1
  15              		.global	USBD_Init
  16              		.arch armv6s-m
  17              		.syntax unified
  18              		.code	16
  19              		.thumb_func
  20              		.fpu softvfp
  22              	USBD_Init:
  23              		@ args = 0, pretend = 0, frame = 0
  24              		@ frame_needed = 0, uses_anonymous_args = 0
  25 0000 0223     		movs	r3, #2
  26 0002 10B5     		push	{r4, lr}
  27 0004 0028     		cmp	r0, #0
  28 0006 13D0     		beq	.L2
  29 0008 8523     		movs	r3, #133
  30 000a 9B00     		lsls	r3, r3, #2
  31 000c C458     		ldr	r4, [r0, r3]
  32 000e 002C     		cmp	r4, #0
  33 0010 01D0     		beq	.L3
  34 0012 0024     		movs	r4, #0
  35 0014 C450     		str	r4, [r0, r3]
  36              	.L3:
  37 0016 0029     		cmp	r1, #0
  38 0018 02D0     		beq	.L4
  39 001a 8423     		movs	r3, #132
  40 001c 9B00     		lsls	r3, r3, #2
  41 001e C150     		str	r1, [r0, r3]
  42              	.L4:
  43 0020 FE23     		movs	r3, #254
  44 0022 0121     		movs	r1, #1
  45 0024 5B00     		lsls	r3, r3, #1
  46 0026 C154     		strb	r1, [r0, r3]
  47 0028 0270     		strb	r2, [r0]
  48 002a FFF7FEFF 		bl	USBD_LL_Init
  49 002e 0023     		movs	r3, #0
  50              	.L2:
  51              		@ sp needed
  52 0030 1800     		movs	r0, r3
  53 0032 10BD     		pop	{r4, pc}
  55              		.section	.text.USBD_DeInit,"ax",%progbits
  56              		.align	1
  57              		.global	USBD_DeInit
  58              		.syntax unified
  59              		.code	16
ARM GAS  /tmp/ccC5FbcU.s 			page 2


  60              		.thumb_func
  61              		.fpu softvfp
  63              	USBD_DeInit:
  64              		@ args = 0, pretend = 0, frame = 0
  65              		@ frame_needed = 0, uses_anonymous_args = 0
  66 0000 FE23     		movs	r3, #254
  67 0002 0122     		movs	r2, #1
  68 0004 5B00     		lsls	r3, r3, #1
  69 0006 10B5     		push	{r4, lr}
  70 0008 C254     		strb	r2, [r0, r3]
  71 000a 4368     		ldr	r3, [r0, #4]
  72 000c 0400     		movs	r4, r0
  73              		@ sp needed
  74 000e D9B2     		uxtb	r1, r3
  75 0010 8523     		movs	r3, #133
  76 0012 9B00     		lsls	r3, r3, #2
  77 0014 C358     		ldr	r3, [r0, r3]
  78 0016 5B68     		ldr	r3, [r3, #4]
  79 0018 9847     		blx	r3
  80 001a 2000     		movs	r0, r4
  81 001c FFF7FEFF 		bl	USBD_LL_Stop
  82 0020 2000     		movs	r0, r4
  83 0022 FFF7FEFF 		bl	USBD_LL_DeInit
  84 0026 0020     		movs	r0, #0
  85 0028 10BD     		pop	{r4, pc}
  87              		.section	.text.USBD_RegisterClass,"ax",%progbits
  88              		.align	1
  89              		.global	USBD_RegisterClass
  90              		.syntax unified
  91              		.code	16
  92              		.thumb_func
  93              		.fpu softvfp
  95              	USBD_RegisterClass:
  96              		@ args = 0, pretend = 0, frame = 0
  97              		@ frame_needed = 0, uses_anonymous_args = 0
  98              		@ link register save eliminated.
  99 0000 0300     		movs	r3, r0
 100 0002 0220     		movs	r0, #2
 101 0004 0029     		cmp	r1, #0
 102 0006 03D0     		beq	.L14
 103 0008 8522     		movs	r2, #133
 104 000a 0020     		movs	r0, #0
 105 000c 9200     		lsls	r2, r2, #2
 106 000e 9950     		str	r1, [r3, r2]
 107              	.L14:
 108              		@ sp needed
 109 0010 7047     		bx	lr
 111              		.section	.text.USBD_Start,"ax",%progbits
 112              		.align	1
 113              		.global	USBD_Start
 114              		.syntax unified
 115              		.code	16
 116              		.thumb_func
 117              		.fpu softvfp
 119              	USBD_Start:
 120              		@ args = 0, pretend = 0, frame = 0
 121              		@ frame_needed = 0, uses_anonymous_args = 0
ARM GAS  /tmp/ccC5FbcU.s 			page 3


 122 0000 10B5     		push	{r4, lr}
 123 0002 FFF7FEFF 		bl	USBD_LL_Start
 124              		@ sp needed
 125 0006 0020     		movs	r0, #0
 126 0008 10BD     		pop	{r4, pc}
 128              		.section	.text.USBD_Stop,"ax",%progbits
 129              		.align	1
 130              		.global	USBD_Stop
 131              		.syntax unified
 132              		.code	16
 133              		.thumb_func
 134              		.fpu softvfp
 136              	USBD_Stop:
 137              		@ args = 0, pretend = 0, frame = 0
 138              		@ frame_needed = 0, uses_anonymous_args = 0
 139 0000 4368     		ldr	r3, [r0, #4]
 140 0002 10B5     		push	{r4, lr}
 141 0004 D9B2     		uxtb	r1, r3
 142 0006 8523     		movs	r3, #133
 143              		@ sp needed
 144 0008 0400     		movs	r4, r0
 145 000a 9B00     		lsls	r3, r3, #2
 146 000c C358     		ldr	r3, [r0, r3]
 147 000e 5B68     		ldr	r3, [r3, #4]
 148 0010 9847     		blx	r3
 149 0012 2000     		movs	r0, r4
 150 0014 FFF7FEFF 		bl	USBD_LL_Stop
 151 0018 0020     		movs	r0, #0
 152 001a 10BD     		pop	{r4, pc}
 154              		.section	.text.USBD_RunTestMode,"ax",%progbits
 155              		.align	1
 156              		.global	USBD_RunTestMode
 157              		.syntax unified
 158              		.code	16
 159              		.thumb_func
 160              		.fpu softvfp
 162              	USBD_RunTestMode:
 163              		@ args = 0, pretend = 0, frame = 0
 164              		@ frame_needed = 0, uses_anonymous_args = 0
 165              		@ link register save eliminated.
 166 0000 0020     		movs	r0, #0
 167              		@ sp needed
 168 0002 7047     		bx	lr
 170              		.section	.text.USBD_SetClassConfig,"ax",%progbits
 171              		.align	1
 172              		.global	USBD_SetClassConfig
 173              		.syntax unified
 174              		.code	16
 175              		.thumb_func
 176              		.fpu softvfp
 178              	USBD_SetClassConfig:
 179              		@ args = 0, pretend = 0, frame = 0
 180              		@ frame_needed = 0, uses_anonymous_args = 0
 181 0000 8523     		movs	r3, #133
 182 0002 9B00     		lsls	r3, r3, #2
 183 0004 C358     		ldr	r3, [r0, r3]
 184 0006 10B5     		push	{r4, lr}
ARM GAS  /tmp/ccC5FbcU.s 			page 4


 185 0008 002B     		cmp	r3, #0
 186 000a 01D1     		bne	.L20
 187              	.L22:
 188 000c 0220     		movs	r0, #2
 189              	.L21:
 190              		@ sp needed
 191 000e 10BD     		pop	{r4, pc}
 192              	.L20:
 193 0010 1B68     		ldr	r3, [r3]
 194 0012 9847     		blx	r3
 195 0014 0028     		cmp	r0, #0
 196 0016 FAD0     		beq	.L21
 197 0018 F8E7     		b	.L22
 199              		.section	.text.USBD_ClrClassConfig,"ax",%progbits
 200              		.align	1
 201              		.global	USBD_ClrClassConfig
 202              		.syntax unified
 203              		.code	16
 204              		.thumb_func
 205              		.fpu softvfp
 207              	USBD_ClrClassConfig:
 208              		@ args = 0, pretend = 0, frame = 0
 209              		@ frame_needed = 0, uses_anonymous_args = 0
 210 0000 8523     		movs	r3, #133
 211 0002 10B5     		push	{r4, lr}
 212 0004 9B00     		lsls	r3, r3, #2
 213 0006 C358     		ldr	r3, [r0, r3]
 214              		@ sp needed
 215 0008 5B68     		ldr	r3, [r3, #4]
 216 000a 9847     		blx	r3
 217 000c 0020     		movs	r0, #0
 218 000e 10BD     		pop	{r4, pc}
 220              		.section	.text.USBD_LL_SetupStage,"ax",%progbits
 221              		.align	1
 222              		.global	USBD_LL_SetupStage
 223              		.syntax unified
 224              		.code	16
 225              		.thumb_func
 226              		.fpu softvfp
 228              	USBD_LL_SetupStage:
 229              		@ args = 0, pretend = 0, frame = 0
 230              		@ frame_needed = 0, uses_anonymous_args = 0
 231 0000 8223     		movs	r3, #130
 232 0002 9B00     		lsls	r3, r3, #2
 233 0004 70B5     		push	{r4, r5, r6, lr}
 234 0006 C518     		adds	r5, r0, r3
 235 0008 0400     		movs	r4, r0
 236 000a 2800     		movs	r0, r5
 237 000c FFF7FEFF 		bl	USBD_ParseSetupRequest
 238 0010 FA23     		movs	r3, #250
 239 0012 0122     		movs	r2, #1
 240 0014 5B00     		lsls	r3, r3, #1
 241 0016 E250     		str	r2, [r4, r3]
 242 0018 124B     		ldr	r3, .L29
 243 001a E25A     		ldrh	r2, [r4, r3]
 244 001c 163B     		subs	r3, r3, #22
 245 001e E250     		str	r2, [r4, r3]
ARM GAS  /tmp/ccC5FbcU.s 			page 5


 246 0020 1033     		adds	r3, r3, #16
 247 0022 E15C     		ldrb	r1, [r4, r3]
 248 0024 EA3B     		subs	r3, r3, #234
 249 0026 FF3B     		subs	r3, r3, #255
 250 0028 0B40     		ands	r3, r1
 251 002a 012B     		cmp	r3, #1
 252 002c 09D0     		beq	.L25
 253 002e 022B     		cmp	r3, #2
 254 0030 0CD0     		beq	.L26
 255 0032 002B     		cmp	r3, #0
 256 0034 0FD1     		bne	.L27
 257 0036 2900     		movs	r1, r5
 258 0038 2000     		movs	r0, r4
 259 003a FFF7FEFF 		bl	USBD_StdDevReq
 260              	.L28:
 261              		@ sp needed
 262 003e 0020     		movs	r0, #0
 263 0040 70BD     		pop	{r4, r5, r6, pc}
 264              	.L25:
 265 0042 2900     		movs	r1, r5
 266 0044 2000     		movs	r0, r4
 267 0046 FFF7FEFF 		bl	USBD_StdItfReq
 268 004a F8E7     		b	.L28
 269              	.L26:
 270 004c 2900     		movs	r1, r5
 271 004e 2000     		movs	r0, r4
 272 0050 FFF7FEFF 		bl	USBD_StdEPReq
 273 0054 F3E7     		b	.L28
 274              	.L27:
 275 0056 7F23     		movs	r3, #127
 276 0058 2000     		movs	r0, r4
 277 005a 9943     		bics	r1, r3
 278 005c FFF7FEFF 		bl	USBD_LL_StallEP
 279 0060 EDE7     		b	.L28
 280              	.L30:
 281 0062 C046     		.align	2
 282              	.L29:
 283 0064 0E020000 		.word	526
 285              		.section	.text.USBD_LL_DataOutStage,"ax",%progbits
 286              		.align	1
 287              		.global	USBD_LL_DataOutStage
 288              		.syntax unified
 289              		.code	16
 290              		.thumb_func
 291              		.fpu softvfp
 293              	USBD_LL_DataOutStage:
 294              		@ args = 0, pretend = 0, frame = 0
 295              		@ frame_needed = 0, uses_anonymous_args = 0
 296 0000 70B5     		push	{r4, r5, r6, lr}
 297 0002 0400     		movs	r4, r0
 298 0004 1500     		movs	r5, r2
 299 0006 0029     		cmp	r1, #0
 300 0008 27D1     		bne	.L32
 301 000a FA23     		movs	r3, #250
 302 000c 5B00     		lsls	r3, r3, #1
 303 000e C358     		ldr	r3, [r0, r3]
 304 0010 032B     		cmp	r3, #3
ARM GAS  /tmp/ccC5FbcU.s 			page 6


 305 0012 0FD1     		bne	.L33
 306 0014 421D     		adds	r2, r0, #5
 307 0016 FF32     		adds	r2, r2, #255
 308 0018 9068     		ldr	r0, [r2, #8]
 309 001a D368     		ldr	r3, [r2, #12]
 310 001c 9842     		cmp	r0, r3
 311 001e 0BD9     		bls	.L34
 312 0020 C01A     		subs	r0, r0, r3
 313 0022 9060     		str	r0, [r2, #8]
 314 0024 8342     		cmp	r3, r0
 315 0026 00D9     		bls	.L35
 316 0028 0300     		movs	r3, r0
 317              	.L35:
 318 002a 2900     		movs	r1, r5
 319 002c 2000     		movs	r0, r4
 320 002e 9AB2     		uxth	r2, r3
 321 0030 FFF7FEFF 		bl	USBD_CtlContinueRx
 322              	.L33:
 323              		@ sp needed
 324 0034 0020     		movs	r0, #0
 325 0036 70BD     		pop	{r4, r5, r6, pc}
 326              	.L34:
 327 0038 8523     		movs	r3, #133
 328 003a 9B00     		lsls	r3, r3, #2
 329 003c E358     		ldr	r3, [r4, r3]
 330 003e 1B69     		ldr	r3, [r3, #16]
 331 0040 002B     		cmp	r3, #0
 332 0042 06D0     		beq	.L36
 333 0044 FE22     		movs	r2, #254
 334 0046 5200     		lsls	r2, r2, #1
 335 0048 A25C     		ldrb	r2, [r4, r2]
 336 004a 032A     		cmp	r2, #3
 337 004c 01D1     		bne	.L36
 338 004e 2000     		movs	r0, r4
 339 0050 9847     		blx	r3
 340              	.L36:
 341 0052 2000     		movs	r0, r4
 342 0054 FFF7FEFF 		bl	USBD_CtlSendStatus
 343 0058 ECE7     		b	.L33
 344              	.L32:
 345 005a 8523     		movs	r3, #133
 346 005c 9B00     		lsls	r3, r3, #2
 347 005e C358     		ldr	r3, [r0, r3]
 348 0060 9B69     		ldr	r3, [r3, #24]
 349 0062 002B     		cmp	r3, #0
 350 0064 E6D0     		beq	.L33
 351 0066 FE22     		movs	r2, #254
 352 0068 5200     		lsls	r2, r2, #1
 353 006a 825C     		ldrb	r2, [r0, r2]
 354 006c 032A     		cmp	r2, #3
 355 006e E1D1     		bne	.L33
 356 0070 9847     		blx	r3
 357 0072 DFE7     		b	.L33
 359              		.global	__aeabi_uidivmod
 360              		.section	.text.USBD_LL_DataInStage,"ax",%progbits
 361              		.align	1
 362              		.global	USBD_LL_DataInStage
ARM GAS  /tmp/ccC5FbcU.s 			page 7


 363              		.syntax unified
 364              		.code	16
 365              		.thumb_func
 366              		.fpu softvfp
 368              	USBD_LL_DataInStage:
 369              		@ args = 0, pretend = 0, frame = 0
 370              		@ frame_needed = 0, uses_anonymous_args = 0
 371 0000 F8B5     		push	{r3, r4, r5, r6, r7, lr}
 372 0002 0D00     		movs	r5, r1
 373 0004 0400     		movs	r4, r0
 374 0006 1100     		movs	r1, r2
 375 0008 002D     		cmp	r5, #0
 376 000a 41D1     		bne	.L44
 377 000c FA23     		movs	r3, #250
 378 000e 5B00     		lsls	r3, r3, #1
 379 0010 C358     		ldr	r3, [r0, r3]
 380 0012 022B     		cmp	r3, #2
 381 0014 0ED1     		bne	.L45
 382 0016 C369     		ldr	r3, [r0, #28]
 383 0018 066A     		ldr	r6, [r0, #32]
 384 001a B342     		cmp	r3, r6
 385 001c 13D9     		bls	.L46
 386 001e 9B1B     		subs	r3, r3, r6
 387 0020 C361     		str	r3, [r0, #28]
 388 0022 9AB2     		uxth	r2, r3
 389 0024 FFF7FEFF 		bl	USBD_CtlContinueSendData
 390              	.L58:
 391 0028 2B00     		movs	r3, r5
 392 002a 2A00     		movs	r2, r5
 393 002c 2900     		movs	r1, r5
 394 002e 2000     		movs	r0, r4
 395 0030 FFF7FEFF 		bl	USBD_LL_PrepareReceive
 396              	.L45:
 397 0034 8023     		movs	r3, #128
 398 0036 9B00     		lsls	r3, r3, #2
 399 0038 E25C     		ldrb	r2, [r4, r3]
 400 003a 012A     		cmp	r2, #1
 401 003c 01D1     		bne	.L50
 402 003e 0022     		movs	r2, #0
 403 0040 E254     		strb	r2, [r4, r3]
 404              	.L50:
 405 0042 0020     		movs	r0, #0
 406              		@ sp needed
 407 0044 F8BD     		pop	{r3, r4, r5, r6, r7, pc}
 408              	.L46:
 409 0046 8769     		ldr	r7, [r0, #24]
 410 0048 3100     		movs	r1, r6
 411 004a 3800     		movs	r0, r7
 412 004c FFF7FEFF 		bl	__aeabi_uidivmod
 413 0050 0D1E     		subs	r5, r1, #0
 414 0052 0CD1     		bne	.L47
 415 0054 BE42     		cmp	r6, r7
 416 0056 0AD8     		bhi	.L47
 417 0058 FC26     		movs	r6, #252
 418 005a 7600     		lsls	r6, r6, #1
 419 005c A359     		ldr	r3, [r4, r6]
 420 005e 9F42     		cmp	r7, r3
ARM GAS  /tmp/ccC5FbcU.s 			page 8


 421 0060 05D2     		bcs	.L47
 422 0062 0A00     		movs	r2, r1
 423 0064 2000     		movs	r0, r4
 424 0066 FFF7FEFF 		bl	USBD_CtlContinueSendData
 425 006a A551     		str	r5, [r4, r6]
 426 006c DCE7     		b	.L58
 427              	.L47:
 428 006e 8523     		movs	r3, #133
 429 0070 9B00     		lsls	r3, r3, #2
 430 0072 E358     		ldr	r3, [r4, r3]
 431 0074 DB68     		ldr	r3, [r3, #12]
 432 0076 002B     		cmp	r3, #0
 433 0078 06D0     		beq	.L48
 434 007a FE22     		movs	r2, #254
 435 007c 5200     		lsls	r2, r2, #1
 436 007e A25C     		ldrb	r2, [r4, r2]
 437 0080 032A     		cmp	r2, #3
 438 0082 01D1     		bne	.L48
 439 0084 2000     		movs	r0, r4
 440 0086 9847     		blx	r3
 441              	.L48:
 442 0088 2000     		movs	r0, r4
 443 008a FFF7FEFF 		bl	USBD_CtlReceiveStatus
 444 008e D1E7     		b	.L45
 445              	.L44:
 446 0090 8523     		movs	r3, #133
 447 0092 9B00     		lsls	r3, r3, #2
 448 0094 C358     		ldr	r3, [r0, r3]
 449 0096 5B69     		ldr	r3, [r3, #20]
 450 0098 002B     		cmp	r3, #0
 451 009a D2D0     		beq	.L50
 452 009c FE22     		movs	r2, #254
 453 009e 5200     		lsls	r2, r2, #1
 454 00a0 825C     		ldrb	r2, [r0, r2]
 455 00a2 032A     		cmp	r2, #3
 456 00a4 CDD1     		bne	.L50
 457 00a6 2900     		movs	r1, r5
 458 00a8 9847     		blx	r3
 459 00aa CAE7     		b	.L50
 461              		.section	.text.USBD_LL_Reset,"ax",%progbits
 462              		.align	1
 463              		.global	USBD_LL_Reset
 464              		.syntax unified
 465              		.code	16
 466              		.thumb_func
 467              		.fpu softvfp
 469              	USBD_LL_Reset:
 470              		@ args = 0, pretend = 0, frame = 0
 471              		@ frame_needed = 0, uses_anonymous_args = 0
 472 0000 0022     		movs	r2, #0
 473 0002 70B5     		push	{r4, r5, r6, lr}
 474 0004 0400     		movs	r4, r0
 475 0006 1100     		movs	r1, r2
 476 0008 4023     		movs	r3, #64
 477 000a FFF7FEFF 		bl	USBD_LL_OpenEP
 478 000e 2300     		movs	r3, r4
 479 0010 4025     		movs	r5, #64
ARM GAS  /tmp/ccC5FbcU.s 			page 9


 480 0012 FC33     		adds	r3, r3, #252
 481 0014 0022     		movs	r2, #0
 482 0016 5D61     		str	r5, [r3, #20]
 483 0018 8021     		movs	r1, #128
 484 001a 2B00     		movs	r3, r5
 485 001c 2000     		movs	r0, r4
 486 001e FFF7FEFF 		bl	USBD_LL_OpenEP
 487 0022 FE23     		movs	r3, #254
 488 0024 0122     		movs	r2, #1
 489 0026 5B00     		lsls	r3, r3, #1
 490 0028 2562     		str	r5, [r4, #32]
 491 002a E254     		strb	r2, [r4, r3]
 492 002c 1C33     		adds	r3, r3, #28
 493 002e E358     		ldr	r3, [r4, r3]
 494 0030 002B     		cmp	r3, #0
 495 0032 07D0     		beq	.L60
 496 0034 6368     		ldr	r3, [r4, #4]
 497 0036 2000     		movs	r0, r4
 498 0038 D9B2     		uxtb	r1, r3
 499 003a 8523     		movs	r3, #133
 500 003c 9B00     		lsls	r3, r3, #2
 501 003e E358     		ldr	r3, [r4, r3]
 502 0040 5B68     		ldr	r3, [r3, #4]
 503 0042 9847     		blx	r3
 504              	.L60:
 505              		@ sp needed
 506 0044 0020     		movs	r0, #0
 507 0046 70BD     		pop	{r4, r5, r6, pc}
 509              		.section	.text.USBD_LL_SetSpeed,"ax",%progbits
 510              		.align	1
 511              		.global	USBD_LL_SetSpeed
 512              		.syntax unified
 513              		.code	16
 514              		.thumb_func
 515              		.fpu softvfp
 517              	USBD_LL_SetSpeed:
 518              		@ args = 0, pretend = 0, frame = 0
 519              		@ frame_needed = 0, uses_anonymous_args = 0
 520              		@ link register save eliminated.
 521 0000 0174     		strb	r1, [r0, #16]
 522              		@ sp needed
 523 0002 0020     		movs	r0, #0
 524 0004 7047     		bx	lr
 526              		.section	.text.USBD_LL_Suspend,"ax",%progbits
 527              		.align	1
 528              		.global	USBD_LL_Suspend
 529              		.syntax unified
 530              		.code	16
 531              		.thumb_func
 532              		.fpu softvfp
 534              	USBD_LL_Suspend:
 535              		@ args = 0, pretend = 0, frame = 0
 536              		@ frame_needed = 0, uses_anonymous_args = 0
 537              		@ link register save eliminated.
 538 0000 FE23     		movs	r3, #254
 539              		@ sp needed
 540 0002 FE22     		movs	r2, #254
ARM GAS  /tmp/ccC5FbcU.s 			page 10


 541 0004 5B00     		lsls	r3, r3, #1
 542 0006 C15C     		ldrb	r1, [r0, r3]
 543 0008 FF32     		adds	r2, r2, #255
 544 000a 8154     		strb	r1, [r0, r2]
 545 000c FA3A     		subs	r2, r2, #250
 546 000e FF3A     		subs	r2, r2, #255
 547 0010 C254     		strb	r2, [r0, r3]
 548 0012 0020     		movs	r0, #0
 549 0014 7047     		bx	lr
 551              		.section	.text.USBD_LL_Resume,"ax",%progbits
 552              		.align	1
 553              		.global	USBD_LL_Resume
 554              		.syntax unified
 555              		.code	16
 556              		.thumb_func
 557              		.fpu softvfp
 559              	USBD_LL_Resume:
 560              		@ args = 0, pretend = 0, frame = 0
 561              		@ frame_needed = 0, uses_anonymous_args = 0
 562              		@ link register save eliminated.
 563 0000 FE23     		movs	r3, #254
 564              		@ sp needed
 565 0002 FF33     		adds	r3, r3, #255
 566 0004 C25C     		ldrb	r2, [r0, r3]
 567 0006 013B     		subs	r3, r3, #1
 568 0008 C254     		strb	r2, [r0, r3]
 569 000a 0020     		movs	r0, #0
 570 000c 7047     		bx	lr
 572              		.section	.text.USBD_LL_SOF,"ax",%progbits
 573              		.align	1
 574              		.global	USBD_LL_SOF
 575              		.syntax unified
 576              		.code	16
 577              		.thumb_func
 578              		.fpu softvfp
 580              	USBD_LL_SOF:
 581              		@ args = 0, pretend = 0, frame = 0
 582              		@ frame_needed = 0, uses_anonymous_args = 0
 583 0000 FE23     		movs	r3, #254
 584 0002 10B5     		push	{r4, lr}
 585 0004 5B00     		lsls	r3, r3, #1
 586 0006 C35C     		ldrb	r3, [r0, r3]
 587 0008 032B     		cmp	r3, #3
 588 000a 06D1     		bne	.L68
 589 000c 8523     		movs	r3, #133
 590 000e 9B00     		lsls	r3, r3, #2
 591 0010 C358     		ldr	r3, [r0, r3]
 592 0012 DB69     		ldr	r3, [r3, #28]
 593 0014 002B     		cmp	r3, #0
 594 0016 00D0     		beq	.L68
 595 0018 9847     		blx	r3
 596              	.L68:
 597              		@ sp needed
 598 001a 0020     		movs	r0, #0
 599 001c 10BD     		pop	{r4, pc}
 601              		.section	.text.USBD_LL_IsoINIncomplete,"ax",%progbits
 602              		.align	1
ARM GAS  /tmp/ccC5FbcU.s 			page 11


 603              		.global	USBD_LL_IsoINIncomplete
 604              		.syntax unified
 605              		.code	16
 606              		.thumb_func
 607              		.fpu softvfp
 609              	USBD_LL_IsoINIncomplete:
 610              		@ args = 0, pretend = 0, frame = 0
 611              		@ frame_needed = 0, uses_anonymous_args = 0
 612              		@ link register save eliminated.
 613 0000 0020     		movs	r0, #0
 614              		@ sp needed
 615 0002 7047     		bx	lr
 617              		.section	.text.USBD_LL_IsoOUTIncomplete,"ax",%progbits
 618              		.align	1
 619              		.global	USBD_LL_IsoOUTIncomplete
 620              		.syntax unified
 621              		.code	16
 622              		.thumb_func
 623              		.fpu softvfp
 625              	USBD_LL_IsoOUTIncomplete:
 626              		@ args = 0, pretend = 0, frame = 0
 627              		@ frame_needed = 0, uses_anonymous_args = 0
 628              		@ link register save eliminated.
 629 0000 0020     		movs	r0, #0
 630              		@ sp needed
 631 0002 7047     		bx	lr
 633              		.section	.text.USBD_LL_DevConnected,"ax",%progbits
 634              		.align	1
 635              		.global	USBD_LL_DevConnected
 636              		.syntax unified
 637              		.code	16
 638              		.thumb_func
 639              		.fpu softvfp
 641              	USBD_LL_DevConnected:
 642              		@ args = 0, pretend = 0, frame = 0
 643              		@ frame_needed = 0, uses_anonymous_args = 0
 644              		@ link register save eliminated.
 645 0000 0020     		movs	r0, #0
 646              		@ sp needed
 647 0002 7047     		bx	lr
 649              		.section	.text.USBD_LL_DevDisconnected,"ax",%progbits
 650              		.align	1
 651              		.global	USBD_LL_DevDisconnected
 652              		.syntax unified
 653              		.code	16
 654              		.thumb_func
 655              		.fpu softvfp
 657              	USBD_LL_DevDisconnected:
 658              		@ args = 0, pretend = 0, frame = 0
 659              		@ frame_needed = 0, uses_anonymous_args = 0
 660 0000 FE23     		movs	r3, #254
 661 0002 0122     		movs	r2, #1
 662 0004 5B00     		lsls	r3, r3, #1
 663 0006 10B5     		push	{r4, lr}
 664 0008 C254     		strb	r2, [r0, r3]
 665 000a 4368     		ldr	r3, [r0, #4]
 666              		@ sp needed
ARM GAS  /tmp/ccC5FbcU.s 			page 12


 667 000c D9B2     		uxtb	r1, r3
 668 000e 8523     		movs	r3, #133
 669 0010 9B00     		lsls	r3, r3, #2
 670 0012 C358     		ldr	r3, [r0, r3]
 671 0014 5B68     		ldr	r3, [r3, #4]
 672 0016 9847     		blx	r3
 673 0018 0020     		movs	r0, #0
 674 001a 10BD     		pop	{r4, pc}
 676              		.ident	"GCC: (Arch Repository) 10.1.0"
ARM GAS  /tmp/ccC5FbcU.s 			page 13


DEFINED SYMBOLS
                            *ABS*:0000000000000000 usbd_core.c
     /tmp/ccC5FbcU.s:14     .text.USBD_Init:0000000000000000 $t
     /tmp/ccC5FbcU.s:22     .text.USBD_Init:0000000000000000 USBD_Init
     /tmp/ccC5FbcU.s:56     .text.USBD_DeInit:0000000000000000 $t
     /tmp/ccC5FbcU.s:63     .text.USBD_DeInit:0000000000000000 USBD_DeInit
     /tmp/ccC5FbcU.s:88     .text.USBD_RegisterClass:0000000000000000 $t
     /tmp/ccC5FbcU.s:95     .text.USBD_RegisterClass:0000000000000000 USBD_RegisterClass
     /tmp/ccC5FbcU.s:112    .text.USBD_Start:0000000000000000 $t
     /tmp/ccC5FbcU.s:119    .text.USBD_Start:0000000000000000 USBD_Start
     /tmp/ccC5FbcU.s:129    .text.USBD_Stop:0000000000000000 $t
     /tmp/ccC5FbcU.s:136    .text.USBD_Stop:0000000000000000 USBD_Stop
     /tmp/ccC5FbcU.s:155    .text.USBD_RunTestMode:0000000000000000 $t
     /tmp/ccC5FbcU.s:162    .text.USBD_RunTestMode:0000000000000000 USBD_RunTestMode
     /tmp/ccC5FbcU.s:171    .text.USBD_SetClassConfig:0000000000000000 $t
     /tmp/ccC5FbcU.s:178    .text.USBD_SetClassConfig:0000000000000000 USBD_SetClassConfig
     /tmp/ccC5FbcU.s:200    .text.USBD_ClrClassConfig:0000000000000000 $t
     /tmp/ccC5FbcU.s:207    .text.USBD_ClrClassConfig:0000000000000000 USBD_ClrClassConfig
     /tmp/ccC5FbcU.s:221    .text.USBD_LL_SetupStage:0000000000000000 $t
     /tmp/ccC5FbcU.s:228    .text.USBD_LL_SetupStage:0000000000000000 USBD_LL_SetupStage
     /tmp/ccC5FbcU.s:283    .text.USBD_LL_SetupStage:0000000000000064 $d
     /tmp/ccC5FbcU.s:286    .text.USBD_LL_DataOutStage:0000000000000000 $t
     /tmp/ccC5FbcU.s:293    .text.USBD_LL_DataOutStage:0000000000000000 USBD_LL_DataOutStage
     /tmp/ccC5FbcU.s:361    .text.USBD_LL_DataInStage:0000000000000000 $t
     /tmp/ccC5FbcU.s:368    .text.USBD_LL_DataInStage:0000000000000000 USBD_LL_DataInStage
     /tmp/ccC5FbcU.s:462    .text.USBD_LL_Reset:0000000000000000 $t
     /tmp/ccC5FbcU.s:469    .text.USBD_LL_Reset:0000000000000000 USBD_LL_Reset
     /tmp/ccC5FbcU.s:510    .text.USBD_LL_SetSpeed:0000000000000000 $t
     /tmp/ccC5FbcU.s:517    .text.USBD_LL_SetSpeed:0000000000000000 USBD_LL_SetSpeed
     /tmp/ccC5FbcU.s:527    .text.USBD_LL_Suspend:0000000000000000 $t
     /tmp/ccC5FbcU.s:534    .text.USBD_LL_Suspend:0000000000000000 USBD_LL_Suspend
     /tmp/ccC5FbcU.s:552    .text.USBD_LL_Resume:0000000000000000 $t
     /tmp/ccC5FbcU.s:559    .text.USBD_LL_Resume:0000000000000000 USBD_LL_Resume
     /tmp/ccC5FbcU.s:573    .text.USBD_LL_SOF:0000000000000000 $t
     /tmp/ccC5FbcU.s:580    .text.USBD_LL_SOF:0000000000000000 USBD_LL_SOF
     /tmp/ccC5FbcU.s:602    .text.USBD_LL_IsoINIncomplete:0000000000000000 $t
     /tmp/ccC5FbcU.s:609    .text.USBD_LL_IsoINIncomplete:0000000000000000 USBD_LL_IsoINIncomplete
     /tmp/ccC5FbcU.s:618    .text.USBD_LL_IsoOUTIncomplete:0000000000000000 $t
     /tmp/ccC5FbcU.s:625    .text.USBD_LL_IsoOUTIncomplete:0000000000000000 USBD_LL_IsoOUTIncomplete
     /tmp/ccC5FbcU.s:634    .text.USBD_LL_DevConnected:0000000000000000 $t
     /tmp/ccC5FbcU.s:641    .text.USBD_LL_DevConnected:0000000000000000 USBD_LL_DevConnected
     /tmp/ccC5FbcU.s:650    .text.USBD_LL_DevDisconnected:0000000000000000 $t
     /tmp/ccC5FbcU.s:657    .text.USBD_LL_DevDisconnected:0000000000000000 USBD_LL_DevDisconnected

UNDEFINED SYMBOLS
USBD_LL_Init
USBD_LL_Stop
USBD_LL_DeInit
USBD_LL_Start
USBD_ParseSetupRequest
USBD_StdDevReq
USBD_StdItfReq
USBD_StdEPReq
USBD_LL_StallEP
USBD_CtlContinueRx
USBD_CtlSendStatus
__aeabi_uidivmod
ARM GAS  /tmp/ccC5FbcU.s 			page 14


USBD_CtlContinueSendData
USBD_LL_PrepareReceive
USBD_CtlReceiveStatus
USBD_LL_OpenEP
