ARM GAS  /tmp/ccbX86Ns.s 			page 1


   1              		.cpu cortex-m0
   2              		.eabi_attribute 20, 1
   3              		.eabi_attribute 21, 1
   4              		.eabi_attribute 23, 3
   5              		.eabi_attribute 24, 1
   6              		.eabi_attribute 25, 1
   7              		.eabi_attribute 26, 1
   8              		.eabi_attribute 30, 1
   9              		.eabi_attribute 34, 0
  10              		.eabi_attribute 18, 4
  11              		.file	"usbd_cdc_interface.c"
  12              		.text
  13              	.Ltext0:
  14              		.cfi_sections	.debug_frame
  15              		.section	.text.CDC_Itf_DeInit,"ax",%progbits
  16              		.align	1
  17              		.arch armv6s-m
  18              		.syntax unified
  19              		.code	16
  20              		.thumb_func
  21              		.fpu softvfp
  23              	CDC_Itf_DeInit:
  24              	.LFB38:
  25              		.file 1 "Src/usbd_cdc_interface.c"
   1:Src/usbd_cdc_interface.c **** #include "main.h"
   2:Src/usbd_cdc_interface.c **** 
   3:Src/usbd_cdc_interface.c **** uint8_t UserRxBuffer[APP_RX_DATA_SIZE];
   4:Src/usbd_cdc_interface.c **** uint8_t UserTxBuffer[APP_TX_DATA_SIZE];
   5:Src/usbd_cdc_interface.c **** 
   6:Src/usbd_cdc_interface.c **** USBD_CDC_LineCodingTypeDef LineCoding =
   7:Src/usbd_cdc_interface.c ****   {
   8:Src/usbd_cdc_interface.c ****     115200, /* baud rate*/
   9:Src/usbd_cdc_interface.c ****     0x00,   /* stop bits-1*/
  10:Src/usbd_cdc_interface.c ****     0x00,   /* parity - none*/
  11:Src/usbd_cdc_interface.c ****     0x08    /* nb. of bits 8*/
  12:Src/usbd_cdc_interface.c ****   };
  13:Src/usbd_cdc_interface.c **** 
  14:Src/usbd_cdc_interface.c **** extern USBD_HandleTypeDef  USBD_Device;
  15:Src/usbd_cdc_interface.c **** 
  16:Src/usbd_cdc_interface.c **** static int8_t CDC_Itf_Init     (void);
  17:Src/usbd_cdc_interface.c **** static int8_t CDC_Itf_DeInit   (void);
  18:Src/usbd_cdc_interface.c **** static int8_t CDC_Itf_Control  (uint8_t cmd, uint8_t* pbuf, uint16_t length);
  19:Src/usbd_cdc_interface.c **** static int8_t CDC_Itf_Receive  (uint8_t* pbuf, uint32_t *Len);
  20:Src/usbd_cdc_interface.c **** 
  21:Src/usbd_cdc_interface.c **** static void ComPort_Config(void);
  22:Src/usbd_cdc_interface.c **** 
  23:Src/usbd_cdc_interface.c **** USBD_CDC_ItfTypeDef USBD_CDC_fops =
  24:Src/usbd_cdc_interface.c **** {
  25:Src/usbd_cdc_interface.c ****   CDC_Itf_Init,
  26:Src/usbd_cdc_interface.c ****   CDC_Itf_DeInit,
  27:Src/usbd_cdc_interface.c ****   CDC_Itf_Control,
  28:Src/usbd_cdc_interface.c ****   CDC_Itf_Receive
  29:Src/usbd_cdc_interface.c **** };
  30:Src/usbd_cdc_interface.c **** 
  31:Src/usbd_cdc_interface.c **** static int8_t CDC_Itf_Init(void)
  32:Src/usbd_cdc_interface.c **** {
  33:Src/usbd_cdc_interface.c ****   USBD_CDC_SetTxBuffer(&USBD_Device, UserTxBuffer, 0);
ARM GAS  /tmp/ccbX86Ns.s 			page 2


  34:Src/usbd_cdc_interface.c ****   USBD_CDC_SetRxBuffer(&USBD_Device, UserRxBuffer);
  35:Src/usbd_cdc_interface.c **** 
  36:Src/usbd_cdc_interface.c ****   return (USBD_OK);
  37:Src/usbd_cdc_interface.c **** }
  38:Src/usbd_cdc_interface.c **** 
  39:Src/usbd_cdc_interface.c **** static int8_t CDC_Itf_DeInit   (void){
  26              		.loc 1 39 38 view -0
  27              		.cfi_startproc
  28              		@ args = 0, pretend = 0, frame = 0
  29              		@ frame_needed = 0, uses_anonymous_args = 0
  30              		@ link register save eliminated.
  40:Src/usbd_cdc_interface.c **** 
  41:Src/usbd_cdc_interface.c **** }
  31              		.loc 1 41 1 view .LVU1
  32              		@ sp needed
  33 0000 7047     		bx	lr
  34              		.cfi_endproc
  35              	.LFE38:
  37              		.section	.text.CDC_Itf_Control,"ax",%progbits
  38              		.align	1
  39              		.syntax unified
  40              		.code	16
  41              		.thumb_func
  42              		.fpu softvfp
  44              	CDC_Itf_Control:
  45              	.LVL0:
  46              	.LFB39:
  42:Src/usbd_cdc_interface.c **** 
  43:Src/usbd_cdc_interface.c **** static int8_t CDC_Itf_Control  (uint8_t cmd, uint8_t* pbuf, uint16_t length){
  47              		.loc 1 43 77 view -0
  48              		.cfi_startproc
  49              		@ args = 0, pretend = 0, frame = 0
  50              		@ frame_needed = 0, uses_anonymous_args = 0
  51              		@ link register save eliminated.
  44:Src/usbd_cdc_interface.c **** 
  45:Src/usbd_cdc_interface.c **** }
  52              		.loc 1 45 1 view .LVU3
  53              	.LVL1:
  54              		.loc 1 45 1 is_stmt 0 view .LVU4
  55              		@ sp needed
  56 0000 7047     		bx	lr
  57              		.cfi_endproc
  58              	.LFE39:
  60              		.section	.text.CDC_Itf_Receive,"ax",%progbits
  61              		.align	1
  62              		.syntax unified
  63              		.code	16
  64              		.thumb_func
  65              		.fpu softvfp
  67              	CDC_Itf_Receive:
  68              	.LVL2:
  69              	.LFB40:
  46:Src/usbd_cdc_interface.c **** 
  47:Src/usbd_cdc_interface.c **** static int8_t CDC_Itf_Receive  (uint8_t* pbuf, uint32_t *Len){
  70              		.loc 1 47 62 is_stmt 1 view -0
  71              		.cfi_startproc
  72              		@ args = 0, pretend = 0, frame = 0
ARM GAS  /tmp/ccbX86Ns.s 			page 3


  73              		@ frame_needed = 0, uses_anonymous_args = 0
  74              		@ link register save eliminated.
  48:Src/usbd_cdc_interface.c **** 
  49:Src/usbd_cdc_interface.c **** }
  75              		.loc 1 49 1 view .LVU6
  76              	.LVL3:
  77              		.loc 1 49 1 is_stmt 0 view .LVU7
  78              		@ sp needed
  79 0000 7047     		bx	lr
  80              		.cfi_endproc
  81              	.LFE40:
  83              		.section	.text.CDC_Itf_Init,"ax",%progbits
  84              		.align	1
  85              		.syntax unified
  86              		.code	16
  87              		.thumb_func
  88              		.fpu softvfp
  90              	CDC_Itf_Init:
  91              	.LFB37:
  32:Src/usbd_cdc_interface.c ****   USBD_CDC_SetTxBuffer(&USBD_Device, UserTxBuffer, 0);
  92              		.loc 1 32 1 is_stmt 1 view -0
  93              		.cfi_startproc
  94              		@ args = 0, pretend = 0, frame = 0
  95              		@ frame_needed = 0, uses_anonymous_args = 0
  96 0000 10B5     		push	{r4, lr}
  97              	.LCFI0:
  98              		.cfi_def_cfa_offset 8
  99              		.cfi_offset 4, -8
 100              		.cfi_offset 14, -4
  33:Src/usbd_cdc_interface.c ****   USBD_CDC_SetRxBuffer(&USBD_Device, UserRxBuffer);
 101              		.loc 1 33 3 view .LVU9
 102 0002 064C     		ldr	r4, .L5
 103 0004 0022     		movs	r2, #0
 104 0006 0649     		ldr	r1, .L5+4
 105 0008 2000     		movs	r0, r4
 106 000a FFF7FEFF 		bl	USBD_CDC_SetTxBuffer
 107              	.LVL4:
  34:Src/usbd_cdc_interface.c **** 
 108              		.loc 1 34 3 view .LVU10
 109 000e 0549     		ldr	r1, .L5+8
 110 0010 2000     		movs	r0, r4
 111 0012 FFF7FEFF 		bl	USBD_CDC_SetRxBuffer
 112              	.LVL5:
  36:Src/usbd_cdc_interface.c **** }
 113              		.loc 1 36 3 view .LVU11
  37:Src/usbd_cdc_interface.c **** 
 114              		.loc 1 37 1 is_stmt 0 view .LVU12
 115 0016 0020     		movs	r0, #0
 116              		@ sp needed
 117 0018 10BD     		pop	{r4, pc}
 118              	.L6:
 119 001a C046     		.align	2
 120              	.L5:
 121 001c 00000000 		.word	USBD_Device
 122 0020 00000000 		.word	UserTxBuffer
 123 0024 00000000 		.word	UserRxBuffer
 124              		.cfi_endproc
ARM GAS  /tmp/ccbX86Ns.s 			page 4


 125              	.LFE37:
 127              		.global	USBD_CDC_fops
 128              		.global	LineCoding
 129              		.global	UserTxBuffer
 130              		.global	UserRxBuffer
 131              		.section	.bss.UserRxBuffer,"aw",%nobits
 132              		.align	2
 135              	UserRxBuffer:
 136 0000 00000000 		.space	512
 136      00000000 
 136      00000000 
 136      00000000 
 136      00000000 
 137              		.section	.bss.UserTxBuffer,"aw",%nobits
 138              		.align	2
 141              	UserTxBuffer:
 142 0000 00000000 		.space	512
 142      00000000 
 142      00000000 
 142      00000000 
 142      00000000 
 143              		.section	.data.LineCoding,"aw"
 144              		.align	2
 147              	LineCoding:
 148 0000 00C20100 		.word	115200
 149 0004 00       		.byte	0
 150 0005 00       		.byte	0
 151 0006 08       		.byte	8
 152 0007 00       		.space	1
 153              		.section	.data.USBD_CDC_fops,"aw"
 154              		.align	2
 157              	USBD_CDC_fops:
 158 0000 00000000 		.word	CDC_Itf_Init
 159 0004 00000000 		.word	CDC_Itf_DeInit
 160 0008 00000000 		.word	CDC_Itf_Control
 161 000c 00000000 		.word	CDC_Itf_Receive
 162              		.text
 163              	.Letext0:
 164              		.file 2 "/usr/arm-none-eabi/include/machine/_default_types.h"
 165              		.file 3 "/usr/arm-none-eabi/include/sys/_stdint.h"
 166              		.file 4 "Middlewares/ST/STM32_USB_Device_Library/Core/Inc/usbd_def.h"
 167              		.file 5 "Middlewares/ST/STM32_USB_Device_Library/Class/CDC/Inc/usbd_cdc.h"
 168              		.file 6 "Inc/usbd_cdc_interface.h"
ARM GAS  /tmp/ccbX86Ns.s 			page 5

