ARM GAS  /tmp/ccnK68gy.s 			page 1


   1              		.cpu cortex-m0
   2              		.eabi_attribute 20, 1
   3              		.eabi_attribute 21, 1
   4              		.eabi_attribute 23, 3
   5              		.eabi_attribute 24, 1
   6              		.eabi_attribute 25, 1
   7              		.eabi_attribute 26, 1
   8              		.eabi_attribute 30, 4
   9              		.eabi_attribute 34, 0
  10              		.eabi_attribute 18, 4
  11              		.file	"usbd_ctlreq.c"
  12              		.text
  13              		.section	.text.USBD_CtlError.constprop.0,"ax",%progbits
  14              		.align	1
  15              		.arch armv6s-m
  16              		.syntax unified
  17              		.code	16
  18              		.thumb_func
  19              		.fpu softvfp
  21              	USBD_CtlError.constprop.0:
  22              		@ args = 0, pretend = 0, frame = 0
  23              		@ frame_needed = 0, uses_anonymous_args = 0
  24 0000 10B5     		push	{r4, lr}
  25 0002 0400     		movs	r4, r0
  26              		@ sp needed
  27 0004 8021     		movs	r1, #128
  28 0006 FFF7FEFF 		bl	USBD_LL_StallEP
  29 000a 0021     		movs	r1, #0
  30 000c 2000     		movs	r0, r4
  31 000e FFF7FEFF 		bl	USBD_LL_StallEP
  32 0012 10BD     		pop	{r4, pc}
  34              		.section	.text.USBD_StdDevReq,"ax",%progbits
  35              		.align	1
  36              		.global	USBD_StdDevReq
  37              		.syntax unified
  38              		.code	16
  39              		.thumb_func
  40              		.fpu softvfp
  42              	USBD_StdDevReq:
  43              		@ args = 0, pretend = 0, frame = 8
  44              		@ frame_needed = 0, uses_anonymous_args = 0
  45 0000 73B5     		push	{r0, r1, r4, r5, r6, lr}
  46 0002 0400     		movs	r4, r0
  47 0004 4878     		ldrb	r0, [r1, #1]
  48 0006 0D00     		movs	r5, r1
  49 0008 0928     		cmp	r0, #9
  50 000a 00D9     		bls	.LCB26
  51 000c 7EE0     		b	.L3	@long jump
  52              	.LCB26:
  53 000e FFF7FEFF 		bl	__gnu_thumb1_case_uhi
  54              	.L5:
  55 0012 D400     		.2byte	(.L11-.L5)/2
  56 0014 F500     		.2byte	(.L10-.L5)/2
  57 0016 7D00     		.2byte	(.L3-.L5)/2
  58 0018 E700     		.2byte	(.L9-.L5)/2
  59 001a 7D00     		.2byte	(.L3-.L5)/2
  60 001c 7200     		.2byte	(.L8-.L5)/2
ARM GAS  /tmp/ccnK68gy.s 			page 2


  61 001e 0A00     		.2byte	(.L7-.L5)/2
  62 0020 7D00     		.2byte	(.L3-.L5)/2
  63 0022 C300     		.2byte	(.L6-.L5)/2
  64 0024 9500     		.2byte	(.L4-.L5)/2
  65              		.p2align 1
  66              	.L7:
  67 0026 4B88     		ldrh	r3, [r1, #2]
  68 0028 180A     		lsrs	r0, r3, #8
  69 002a 0138     		subs	r0, r0, #1
  70 002c 0628     		cmp	r0, #6
  71 002e 6DD8     		bhi	.L3
  72 0030 FFF7FEFF 		bl	__gnu_thumb1_case_uqi
  73              	.L14:
  74 0034 04       		.byte	(.L18-.L14)/2
  75 0035 1F       		.byte	(.L17-.L14)/2
  76 0036 2E       		.byte	(.L16-.L14)/2
  77 0037 6C       		.byte	(.L3-.L14)/2
  78 0038 6C       		.byte	(.L3-.L14)/2
  79 0039 4A       		.byte	(.L15-.L14)/2
  80 003a 55       		.byte	(.L13-.L14)/2
  81 003b 00       		.p2align 1
  82              	.L18:
  83 003c 8423     		movs	r3, #132
  84 003e 6A46     		mov	r2, sp
  85 0040 9B00     		lsls	r3, r3, #2
  86 0042 E358     		ldr	r3, [r4, r3]
  87 0044 207C     		ldrb	r0, [r4, #16]
  88 0046 1B68     		ldr	r3, [r3]
  89 0048 911D     		adds	r1, r2, #6
  90 004a 9847     		blx	r3
  91              	.L19:
  92 004c 6B46     		mov	r3, sp
  93 004e D988     		ldrh	r1, [r3, #6]
  94 0050 9E1D     		adds	r6, r3, #6
  95 0052 0029     		cmp	r1, #0
  96 0054 70D0     		beq	.L31
  97 0056 EA88     		ldrh	r2, [r5, #6]
  98 0058 002A     		cmp	r2, #0
  99 005a 6DD0     		beq	.L31
 100 005c 0B1C     		adds	r3, r1, #0
 101 005e 9142     		cmp	r1, r2
 102 0060 00D9     		bls	.L30
 103 0062 131C     		adds	r3, r2, #0
 104              	.L30:
 105 0064 0100     		movs	r1, r0
 106 0066 9AB2     		uxth	r2, r3
 107 0068 3380     		strh	r3, [r6]
 108              	.L69:
 109 006a 2000     		movs	r0, r4
 110 006c FFF7FEFF 		bl	USBD_CtlSendData
 111 0070 62E0     		b	.L31
 112              	.L17:
 113 0072 8523     		movs	r3, #133
 114 0074 227C     		ldrb	r2, [r4, #16]
 115 0076 9B00     		lsls	r3, r3, #2
 116 0078 E358     		ldr	r3, [r4, r3]
 117 007a 002A     		cmp	r2, #0
ARM GAS  /tmp/ccnK68gy.s 			page 3


 118 007c 06D1     		bne	.L20
 119 007e 9B6A     		ldr	r3, [r3, #40]
 120              	.L70:
 121 0080 6A46     		mov	r2, sp
 122 0082 901D     		adds	r0, r2, #6
 123 0084 9847     		blx	r3
 124 0086 0223     		movs	r3, #2
 125              	.L63:
 126 0088 4370     		strb	r3, [r0, #1]
 127 008a DFE7     		b	.L19
 128              	.L20:
 129 008c DB6A     		ldr	r3, [r3, #44]
 130 008e F7E7     		b	.L70
 131              	.L16:
 132 0090 D8B2     		uxtb	r0, r3
 133 0092 0528     		cmp	r0, #5
 134 0094 3AD8     		bhi	.L3
 135 0096 8422     		movs	r2, #132
 136 0098 9200     		lsls	r2, r2, #2
 137 009a 237C     		ldrb	r3, [r4, #16]
 138 009c A258     		ldr	r2, [r4, r2]
 139 009e FFF7FEFF 		bl	__gnu_thumb1_case_uqi
 140              	.L22:
 141 00a2 03       		.byte	(.L27-.L22)/2
 142 00a3 09       		.byte	(.L26-.L22)/2
 143 00a4 0B       		.byte	(.L25-.L22)/2
 144 00a5 0D       		.byte	(.L24-.L22)/2
 145 00a6 0F       		.byte	(.L23-.L22)/2
 146 00a7 11       		.byte	(.L21-.L22)/2
 147              		.p2align 1
 148              	.L27:
 149 00a8 5268     		ldr	r2, [r2, #4]
 150              	.L64:
 151 00aa 6946     		mov	r1, sp
 152 00ac 1800     		movs	r0, r3
 153 00ae 0631     		adds	r1, r1, #6
 154 00b0 9047     		blx	r2
 155 00b2 CBE7     		b	.L19
 156              	.L26:
 157 00b4 9268     		ldr	r2, [r2, #8]
 158 00b6 F8E7     		b	.L64
 159              	.L25:
 160 00b8 D268     		ldr	r2, [r2, #12]
 161 00ba F6E7     		b	.L64
 162              	.L24:
 163 00bc 1269     		ldr	r2, [r2, #16]
 164 00be F4E7     		b	.L64
 165              	.L23:
 166 00c0 5269     		ldr	r2, [r2, #20]
 167 00c2 F2E7     		b	.L64
 168              	.L21:
 169 00c4 9269     		ldr	r2, [r2, #24]
 170 00c6 F0E7     		b	.L64
 171              	.L15:
 172 00c8 237C     		ldrb	r3, [r4, #16]
 173 00ca 002B     		cmp	r3, #0
 174 00cc 1ED1     		bne	.L3
ARM GAS  /tmp/ccnK68gy.s 			page 4


 175 00ce 8523     		movs	r3, #133
 176 00d0 6A46     		mov	r2, sp
 177 00d2 9B00     		lsls	r3, r3, #2
 178 00d4 E358     		ldr	r3, [r4, r3]
 179 00d6 901D     		adds	r0, r2, #6
 180 00d8 5B6B     		ldr	r3, [r3, #52]
 181 00da 9847     		blx	r3
 182 00dc B6E7     		b	.L19
 183              	.L13:
 184 00de 237C     		ldrb	r3, [r4, #16]
 185 00e0 002B     		cmp	r3, #0
 186 00e2 13D1     		bne	.L3
 187 00e4 8523     		movs	r3, #133
 188 00e6 6A46     		mov	r2, sp
 189 00e8 9B00     		lsls	r3, r3, #2
 190 00ea E358     		ldr	r3, [r4, r3]
 191 00ec 901D     		adds	r0, r2, #6
 192 00ee 1B6B     		ldr	r3, [r3, #48]
 193 00f0 9847     		blx	r3
 194 00f2 0723     		movs	r3, #7
 195 00f4 C8E7     		b	.L63
 196              	.L8:
 197 00f6 8B88     		ldrh	r3, [r1, #4]
 198 00f8 002B     		cmp	r3, #0
 199 00fa 07D1     		bne	.L3
 200 00fc CB88     		ldrh	r3, [r1, #6]
 201 00fe 002B     		cmp	r3, #0
 202 0100 04D1     		bne	.L3
 203 0102 FE26     		movs	r6, #254
 204 0104 7600     		lsls	r6, r6, #1
 205 0106 A35D     		ldrb	r3, [r4, r6]
 206 0108 032B     		cmp	r3, #3
 207 010a 03D1     		bne	.L33
 208              	.L3:
 209 010c 2000     		movs	r0, r4
 210 010e FFF7FEFF 		bl	USBD_CtlError.constprop.0
 211 0112 11E0     		b	.L31
 212              	.L33:
 213 0114 7F23     		movs	r3, #127
 214 0116 4D88     		ldrh	r5, [r1, #2]
 215 0118 2000     		movs	r0, r4
 216 011a 1D40     		ands	r5, r3
 217 011c 8033     		adds	r3, r3, #128
 218 011e FF33     		adds	r3, r3, #255
 219 0120 E554     		strb	r5, [r4, r3]
 220 0122 2900     		movs	r1, r5
 221 0124 FFF7FEFF 		bl	USBD_LL_SetUSBAddress
 222 0128 2000     		movs	r0, r4
 223 012a FFF7FEFF 		bl	USBD_CtlSendStatus
 224 012e 0223     		movs	r3, #2
 225 0130 002D     		cmp	r5, #0
 226 0132 00D1     		bne	.L66
 227 0134 0123     		movs	r3, #1
 228              	.L66:
 229 0136 A355     		strb	r3, [r4, r6]
 230              	.L31:
 231 0138 0020     		movs	r0, #0
ARM GAS  /tmp/ccnK68gy.s 			page 5


 232              		@ sp needed
 233 013a 76BD     		pop	{r1, r2, r4, r5, r6, pc}
 234              	.L4:
 235 013c 8978     		ldrb	r1, [r1, #2]
 236 013e 384D     		ldr	r5, .L71
 237 0140 2970     		strb	r1, [r5]
 238 0142 0129     		cmp	r1, #1
 239 0144 E2D8     		bhi	.L3
 240 0146 FE23     		movs	r3, #254
 241 0148 5B00     		lsls	r3, r3, #1
 242 014a E25C     		ldrb	r2, [r4, r3]
 243 014c 022A     		cmp	r2, #2
 244 014e 0DD0     		beq	.L35
 245 0150 032A     		cmp	r2, #3
 246 0152 DBD1     		bne	.L3
 247 0154 0029     		cmp	r1, #0
 248 0156 15D1     		bne	.L38
 249 0158 0222     		movs	r2, #2
 250 015a 2000     		movs	r0, r4
 251 015c E254     		strb	r2, [r4, r3]
 252 015e 6160     		str	r1, [r4, #4]
 253 0160 FFF7FEFF 		bl	USBD_ClrClassConfig
 254              	.L68:
 255 0164 2000     		movs	r0, r4
 256 0166 FFF7FEFF 		bl	USBD_CtlSendStatus
 257 016a E5E7     		b	.L31
 258              	.L35:
 259 016c 0029     		cmp	r1, #0
 260 016e F9D0     		beq	.L68
 261 0170 0121     		movs	r1, #1
 262 0172 0322     		movs	r2, #3
 263 0174 6160     		str	r1, [r4, #4]
 264 0176 E254     		strb	r2, [r4, r3]
 265              	.L65:
 266 0178 2000     		movs	r0, r4
 267 017a FFF7FEFF 		bl	USBD_SetClassConfig
 268 017e 0228     		cmp	r0, #2
 269 0180 F0D1     		bne	.L68
 270 0182 C3E7     		b	.L3
 271              	.L38:
 272 0184 6168     		ldr	r1, [r4, #4]
 273 0186 0129     		cmp	r1, #1
 274 0188 ECD0     		beq	.L68
 275 018a C9B2     		uxtb	r1, r1
 276 018c 2000     		movs	r0, r4
 277 018e FFF7FEFF 		bl	USBD_ClrClassConfig
 278 0192 2978     		ldrb	r1, [r5]
 279 0194 6160     		str	r1, [r4, #4]
 280 0196 EFE7     		b	.L65
 281              	.L6:
 282 0198 CA88     		ldrh	r2, [r1, #6]
 283 019a 012A     		cmp	r2, #1
 284 019c B6D1     		bne	.L3
 285 019e FE23     		movs	r3, #254
 286 01a0 5B00     		lsls	r3, r3, #1
 287 01a2 E35C     		ldrb	r3, [r4, r3]
 288 01a4 022B     		cmp	r3, #2
ARM GAS  /tmp/ccnK68gy.s 			page 6


 289 01a6 03D0     		beq	.L39
 290 01a8 032B     		cmp	r3, #3
 291 01aa AFD1     		bne	.L3
 292 01ac 211D     		adds	r1, r4, #4
 293 01ae 5CE7     		b	.L69
 294              	.L39:
 295 01b0 0023     		movs	r3, #0
 296 01b2 2100     		movs	r1, r4
 297 01b4 A360     		str	r3, [r4, #8]
 298 01b6 0831     		adds	r1, r1, #8
 299 01b8 57E7     		b	.L69
 300              	.L11:
 301 01ba FE23     		movs	r3, #254
 302 01bc 5B00     		lsls	r3, r3, #1
 303 01be E35C     		ldrb	r3, [r4, r3]
 304 01c0 023B     		subs	r3, r3, #2
 305 01c2 012B     		cmp	r3, #1
 306 01c4 A2D8     		bhi	.L3
 307 01c6 0123     		movs	r3, #1
 308 01c8 E360     		str	r3, [r4, #12]
 309 01ca 8123     		movs	r3, #129
 310 01cc 9B00     		lsls	r3, r3, #2
 311 01ce E358     		ldr	r3, [r4, r3]
 312 01d0 002B     		cmp	r3, #0
 313 01d2 01D0     		beq	.L41
 314 01d4 0323     		movs	r3, #3
 315 01d6 E360     		str	r3, [r4, #12]
 316              	.L41:
 317 01d8 2100     		movs	r1, r4
 318 01da 0222     		movs	r2, #2
 319 01dc 0C31     		adds	r1, r1, #12
 320 01de 44E7     		b	.L69
 321              	.L9:
 322 01e0 4B88     		ldrh	r3, [r1, #2]
 323 01e2 012B     		cmp	r3, #1
 324 01e4 A8D1     		bne	.L31
 325 01e6 8122     		movs	r2, #129
 326 01e8 9200     		lsls	r2, r2, #2
 327 01ea A350     		str	r3, [r4, r2]
 328 01ec 8523     		movs	r3, #133
 329 01ee 9B00     		lsls	r3, r3, #2
 330              	.L67:
 331 01f0 E358     		ldr	r3, [r4, r3]
 332 01f2 2900     		movs	r1, r5
 333 01f4 2000     		movs	r0, r4
 334 01f6 9B68     		ldr	r3, [r3, #8]
 335 01f8 9847     		blx	r3
 336 01fa B3E7     		b	.L68
 337              	.L10:
 338 01fc FE23     		movs	r3, #254
 339 01fe 5B00     		lsls	r3, r3, #1
 340 0200 E35C     		ldrb	r3, [r4, r3]
 341 0202 023B     		subs	r3, r3, #2
 342 0204 012B     		cmp	r3, #1
 343 0206 00D9     		bls	.LCB363
 344 0208 80E7     		b	.L3	@long jump
 345              	.LCB363:
ARM GAS  /tmp/ccnK68gy.s 			page 7


 346 020a 4B88     		ldrh	r3, [r1, #2]
 347 020c 012B     		cmp	r3, #1
 348 020e 00D0     		beq	.LCB366
 349 0210 92E7     		b	.L31	@long jump
 350              	.LCB366:
 351 0212 8123     		movs	r3, #129
 352 0214 0022     		movs	r2, #0
 353 0216 9B00     		lsls	r3, r3, #2
 354 0218 E250     		str	r2, [r4, r3]
 355 021a 1033     		adds	r3, r3, #16
 356 021c E8E7     		b	.L67
 357              	.L72:
 358 021e C046     		.align	2
 359              	.L71:
 360 0220 00000000 		.word	.LANCHOR0
 362              		.section	.text.USBD_StdItfReq,"ax",%progbits
 363              		.align	1
 364              		.global	USBD_StdItfReq
 365              		.syntax unified
 366              		.code	16
 367              		.thumb_func
 368              		.fpu softvfp
 370              	USBD_StdItfReq:
 371              		@ args = 0, pretend = 0, frame = 0
 372              		@ frame_needed = 0, uses_anonymous_args = 0
 373 0000 FE23     		movs	r3, #254
 374 0002 70B5     		push	{r4, r5, r6, lr}
 375 0004 5B00     		lsls	r3, r3, #1
 376 0006 C35C     		ldrb	r3, [r0, r3]
 377 0008 0400     		movs	r4, r0
 378 000a 0D00     		movs	r5, r1
 379 000c 032B     		cmp	r3, #3
 380 000e 0FD1     		bne	.L74
 381 0010 0B79     		ldrb	r3, [r1, #4]
 382 0012 012B     		cmp	r3, #1
 383 0014 0CD8     		bhi	.L74
 384 0016 8523     		movs	r3, #133
 385 0018 9B00     		lsls	r3, r3, #2
 386 001a C358     		ldr	r3, [r0, r3]
 387 001c 9B68     		ldr	r3, [r3, #8]
 388 001e 9847     		blx	r3
 389 0020 EB88     		ldrh	r3, [r5, #6]
 390 0022 002B     		cmp	r3, #0
 391 0024 02D1     		bne	.L76
 392 0026 2000     		movs	r0, r4
 393 0028 FFF7FEFF 		bl	USBD_CtlSendStatus
 394              	.L76:
 395              		@ sp needed
 396 002c 0020     		movs	r0, #0
 397 002e 70BD     		pop	{r4, r5, r6, pc}
 398              	.L74:
 399 0030 2000     		movs	r0, r4
 400 0032 FFF7FEFF 		bl	USBD_CtlError.constprop.0
 401 0036 F9E7     		b	.L76
 403              		.section	.text.USBD_StdEPReq,"ax",%progbits
 404              		.align	1
 405              		.global	USBD_StdEPReq
ARM GAS  /tmp/ccnK68gy.s 			page 8


 406              		.syntax unified
 407              		.code	16
 408              		.thumb_func
 409              		.fpu softvfp
 411              	USBD_StdEPReq:
 412              		@ args = 0, pretend = 0, frame = 0
 413              		@ frame_needed = 0, uses_anonymous_args = 0
 414 0000 70B5     		push	{r4, r5, r6, lr}
 415 0002 0D00     		movs	r5, r1
 416 0004 0400     		movs	r4, r0
 417 0006 6020     		movs	r0, #96
 418 0008 8A88     		ldrh	r2, [r1, #4]
 419 000a 2B78     		ldrb	r3, [r5]
 420 000c D1B2     		uxtb	r1, r2
 421 000e 0340     		ands	r3, r0
 422 0010 202B     		cmp	r3, #32
 423 0012 08D1     		bne	.L78
 424 0014 F533     		adds	r3, r3, #245
 425 0016 FF33     		adds	r3, r3, #255
 426 0018 E358     		ldr	r3, [r4, r3]
 427 001a 2900     		movs	r1, r5
 428 001c 2000     		movs	r0, r4
 429 001e 9B68     		ldr	r3, [r3, #8]
 430 0020 9847     		blx	r3
 431              	.L79:
 432              		@ sp needed
 433 0022 0020     		movs	r0, #0
 434 0024 70BD     		pop	{r4, r5, r6, pc}
 435              	.L78:
 436 0026 6B78     		ldrb	r3, [r5, #1]
 437 0028 012B     		cmp	r3, #1
 438 002a 3BD0     		beq	.L80
 439 002c 032B     		cmp	r3, #3
 440 002e 1BD0     		beq	.L81
 441 0030 002B     		cmp	r3, #0
 442 0032 F6D1     		bne	.L79
 443 0034 FE23     		movs	r3, #254
 444 0036 5B00     		lsls	r3, r3, #1
 445 0038 E35C     		ldrb	r3, [r4, r3]
 446 003a 022B     		cmp	r3, #2
 447 003c 42D0     		beq	.L90
 448 003e 032B     		cmp	r3, #3
 449 0040 19D1     		bne	.L85
 450 0042 7F25     		movs	r5, #127
 451 0044 0D40     		ands	r5, r1
 452 0046 2D01     		lsls	r5, r5, #4
 453 0048 1306     		lsls	r3, r2, #24
 454 004a 41D5     		bpl	.L92
 455 004c 1435     		adds	r5, r5, #20
 456              	.L109:
 457 004e 2000     		movs	r0, r4
 458 0050 FFF7FEFF 		bl	USBD_LL_IsStallEP
 459 0054 431E     		subs	r3, r0, #1
 460 0056 9841     		sbcs	r0, r0, r3
 461 0058 6519     		adds	r5, r4, r5
 462 005a 2860     		str	r0, [r5]
 463 005c 0222     		movs	r2, #2
ARM GAS  /tmp/ccnK68gy.s 			page 9


 464 005e 2900     		movs	r1, r5
 465 0060 2000     		movs	r0, r4
 466 0062 FFF7FEFF 		bl	USBD_CtlSendData
 467 0066 DCE7     		b	.L79
 468              	.L81:
 469 0068 FE23     		movs	r3, #254
 470 006a 5B00     		lsls	r3, r3, #1
 471 006c E35C     		ldrb	r3, [r4, r3]
 472 006e 022B     		cmp	r3, #2
 473 0070 28D0     		beq	.L90
 474 0072 032B     		cmp	r3, #3
 475 0074 03D0     		beq	.L84
 476              	.L85:
 477 0076 2000     		movs	r0, r4
 478 0078 FFF7FEFF 		bl	USBD_CtlError.constprop.0
 479 007c D1E7     		b	.L79
 480              	.L84:
 481 007e 6B88     		ldrh	r3, [r5, #2]
 482 0080 002B     		cmp	r3, #0
 483 0082 04D1     		bne	.L111
 484 0084 4B06     		lsls	r3, r1, #25
 485 0086 02D0     		beq	.L111
 486 0088 2000     		movs	r0, r4
 487 008a FFF7FEFF 		bl	USBD_LL_StallEP
 488              	.L111:
 489 008e 8523     		movs	r3, #133
 490 0090 9B00     		lsls	r3, r3, #2
 491 0092 E358     		ldr	r3, [r4, r3]
 492 0094 2900     		movs	r1, r5
 493 0096 2000     		movs	r0, r4
 494 0098 9B68     		ldr	r3, [r3, #8]
 495 009a 9847     		blx	r3
 496              	.L89:
 497 009c 2000     		movs	r0, r4
 498 009e FFF7FEFF 		bl	USBD_CtlSendStatus
 499 00a2 BEE7     		b	.L79
 500              	.L80:
 501 00a4 FE23     		movs	r3, #254
 502 00a6 5B00     		lsls	r3, r3, #1
 503 00a8 E35C     		ldrb	r3, [r4, r3]
 504 00aa 022B     		cmp	r3, #2
 505 00ac 0AD0     		beq	.L90
 506 00ae 032B     		cmp	r3, #3
 507 00b0 E1D1     		bne	.L85
 508 00b2 6B88     		ldrh	r3, [r5, #2]
 509 00b4 002B     		cmp	r3, #0
 510 00b6 B4D1     		bne	.L79
 511 00b8 4B06     		lsls	r3, r1, #25
 512 00ba EFD0     		beq	.L89
 513 00bc 2000     		movs	r0, r4
 514 00be FFF7FEFF 		bl	USBD_LL_ClearStallEP
 515 00c2 E4E7     		b	.L111
 516              	.L90:
 517 00c4 4B06     		lsls	r3, r1, #25
 518 00c6 ACD0     		beq	.L79
 519 00c8 2000     		movs	r0, r4
 520 00ca FFF7FEFF 		bl	USBD_LL_StallEP
ARM GAS  /tmp/ccnK68gy.s 			page 10


 521 00ce A8E7     		b	.L79
 522              	.L92:
 523 00d0 0535     		adds	r5, r5, #5
 524 00d2 FF35     		adds	r5, r5, #255
 525 00d4 BBE7     		b	.L109
 527              		.section	.text.USBD_ParseSetupRequest,"ax",%progbits
 528              		.align	1
 529              		.global	USBD_ParseSetupRequest
 530              		.syntax unified
 531              		.code	16
 532              		.thumb_func
 533              		.fpu softvfp
 535              	USBD_ParseSetupRequest:
 536              		@ args = 0, pretend = 0, frame = 0
 537              		@ frame_needed = 0, uses_anonymous_args = 0
 538              		@ link register save eliminated.
 539 0000 0B78     		ldrb	r3, [r1]
 540              		@ sp needed
 541 0002 0370     		strb	r3, [r0]
 542 0004 4B78     		ldrb	r3, [r1, #1]
 543 0006 4370     		strb	r3, [r0, #1]
 544 0008 CA78     		ldrb	r2, [r1, #3]
 545 000a 8B78     		ldrb	r3, [r1, #2]
 546 000c 1202     		lsls	r2, r2, #8
 547 000e 9B18     		adds	r3, r3, r2
 548 0010 4380     		strh	r3, [r0, #2]
 549 0012 4A79     		ldrb	r2, [r1, #5]
 550 0014 0B79     		ldrb	r3, [r1, #4]
 551 0016 1202     		lsls	r2, r2, #8
 552 0018 9B18     		adds	r3, r3, r2
 553 001a 8380     		strh	r3, [r0, #4]
 554 001c CA79     		ldrb	r2, [r1, #7]
 555 001e 8B79     		ldrb	r3, [r1, #6]
 556 0020 1202     		lsls	r2, r2, #8
 557 0022 9B18     		adds	r3, r3, r2
 558 0024 C380     		strh	r3, [r0, #6]
 559 0026 7047     		bx	lr
 561              		.section	.text.USBD_CtlError,"ax",%progbits
 562              		.align	1
 563              		.global	USBD_CtlError
 564              		.syntax unified
 565              		.code	16
 566              		.thumb_func
 567              		.fpu softvfp
 569              	USBD_CtlError:
 570              		@ args = 0, pretend = 0, frame = 0
 571              		@ frame_needed = 0, uses_anonymous_args = 0
 572 0000 10B5     		push	{r4, lr}
 573 0002 0400     		movs	r4, r0
 574              		@ sp needed
 575 0004 8021     		movs	r1, #128
 576 0006 FFF7FEFF 		bl	USBD_LL_StallEP
 577 000a 0021     		movs	r1, #0
 578 000c 2000     		movs	r0, r4
 579 000e FFF7FEFF 		bl	USBD_LL_StallEP
 580 0012 10BD     		pop	{r4, pc}
 582              		.section	.text.USBD_GetString,"ax",%progbits
ARM GAS  /tmp/ccnK68gy.s 			page 11


 583              		.align	1
 584              		.global	USBD_GetString
 585              		.syntax unified
 586              		.code	16
 587              		.thumb_func
 588              		.fpu softvfp
 590              	USBD_GetString:
 591              		@ args = 0, pretend = 0, frame = 0
 592              		@ frame_needed = 0, uses_anonymous_args = 0
 593 0000 70B5     		push	{r4, r5, r6, lr}
 594 0002 0025     		movs	r5, #0
 595 0004 461E     		subs	r6, r0, #1
 596 0006 A842     		cmp	r0, r5
 597 0008 0FD0     		beq	.L116
 598              	.L117:
 599 000a 2B00     		movs	r3, r5
 600 000c 0135     		adds	r5, r5, #1
 601 000e 745D     		ldrb	r4, [r6, r5]
 602 0010 002C     		cmp	r4, #0
 603 0012 FAD1     		bne	.L117
 604 0014 DBB2     		uxtb	r3, r3
 605 0016 0133     		adds	r3, r3, #1
 606 0018 5B00     		lsls	r3, r3, #1
 607 001a 1380     		strh	r3, [r2]
 608 001c 0B70     		strb	r3, [r1]
 609 001e 0323     		movs	r3, #3
 610 0020 4B70     		strb	r3, [r1, #1]
 611 0022 013B     		subs	r3, r3, #1
 612              	.L118:
 613 0024 0578     		ldrb	r5, [r0]
 614 0026 002D     		cmp	r5, #0
 615 0028 00D1     		bne	.L119
 616              	.L116:
 617              		@ sp needed
 618 002a 70BD     		pop	{r4, r5, r6, pc}
 619              	.L119:
 620 002c 5A1C     		adds	r2, r3, #1
 621 002e CD54     		strb	r5, [r1, r3]
 622 0030 D2B2     		uxtb	r2, r2
 623 0032 0233     		adds	r3, r3, #2
 624 0034 0130     		adds	r0, r0, #1
 625 0036 DBB2     		uxtb	r3, r3
 626 0038 8C54     		strb	r4, [r1, r2]
 627 003a F3E7     		b	.L118
 629              		.section	.bss.cfgidx.0,"aw",%nobits
 630              		.set	.LANCHOR0,. + 0
 633              	cfgidx.0:
 634 0000 00       		.space	1
 635              		.ident	"GCC: (Arch Repository) 10.1.0"
ARM GAS  /tmp/ccnK68gy.s 			page 12


DEFINED SYMBOLS
                            *ABS*:0000000000000000 usbd_ctlreq.c
     /tmp/ccnK68gy.s:14     .text.USBD_CtlError.constprop.0:0000000000000000 $t
     /tmp/ccnK68gy.s:21     .text.USBD_CtlError.constprop.0:0000000000000000 USBD_CtlError.constprop.0
     /tmp/ccnK68gy.s:35     .text.USBD_StdDevReq:0000000000000000 $t
     /tmp/ccnK68gy.s:42     .text.USBD_StdDevReq:0000000000000000 USBD_StdDevReq
     /tmp/ccnK68gy.s:55     .text.USBD_StdDevReq:0000000000000012 $d
     /tmp/ccnK68gy.s:65     .text.USBD_StdDevReq:0000000000000026 $t
     /tmp/ccnK68gy.s:74     .text.USBD_StdDevReq:0000000000000034 $d
     /tmp/ccnK68gy.s:141    .text.USBD_StdDevReq:00000000000000a2 $d
     /tmp/ccnK68gy.s:147    .text.USBD_StdDevReq:00000000000000a8 $t
     /tmp/ccnK68gy.s:360    .text.USBD_StdDevReq:0000000000000220 $d
     /tmp/ccnK68gy.s:363    .text.USBD_StdItfReq:0000000000000000 $t
     /tmp/ccnK68gy.s:370    .text.USBD_StdItfReq:0000000000000000 USBD_StdItfReq
     /tmp/ccnK68gy.s:404    .text.USBD_StdEPReq:0000000000000000 $t
     /tmp/ccnK68gy.s:411    .text.USBD_StdEPReq:0000000000000000 USBD_StdEPReq
     /tmp/ccnK68gy.s:528    .text.USBD_ParseSetupRequest:0000000000000000 $t
     /tmp/ccnK68gy.s:535    .text.USBD_ParseSetupRequest:0000000000000000 USBD_ParseSetupRequest
     /tmp/ccnK68gy.s:562    .text.USBD_CtlError:0000000000000000 $t
     /tmp/ccnK68gy.s:569    .text.USBD_CtlError:0000000000000000 USBD_CtlError
     /tmp/ccnK68gy.s:583    .text.USBD_GetString:0000000000000000 $t
     /tmp/ccnK68gy.s:590    .text.USBD_GetString:0000000000000000 USBD_GetString
     /tmp/ccnK68gy.s:633    .bss.cfgidx.0:0000000000000000 cfgidx.0
     /tmp/ccnK68gy.s:634    .bss.cfgidx.0:0000000000000000 $d
     /tmp/ccnK68gy.s:81     .text.USBD_StdDevReq:000000000000003b $d
     /tmp/ccnK68gy.s:81     .text.USBD_StdDevReq:000000000000003c $t

UNDEFINED SYMBOLS
USBD_LL_StallEP
__gnu_thumb1_case_uhi
__gnu_thumb1_case_uqi
USBD_CtlSendData
USBD_LL_SetUSBAddress
USBD_CtlSendStatus
USBD_ClrClassConfig
USBD_SetClassConfig
USBD_LL_IsStallEP
USBD_LL_ClearStallEP
