ARM GAS  /tmp/ccd08JOO.s 			page 1


   1              		.cpu cortex-m0
   2              		.eabi_attribute 20, 1
   3              		.eabi_attribute 21, 1
   4              		.eabi_attribute 23, 3
   5              		.eabi_attribute 24, 1
   6              		.eabi_attribute 25, 1
   7              		.eabi_attribute 26, 1
   8              		.eabi_attribute 30, 4
   9              		.eabi_attribute 34, 0
  10              		.eabi_attribute 18, 4
  11              		.file	"usbd_desc.c"
  12              		.text
  13              		.section	.text.USBD_VCP_DeviceDescriptor,"ax",%progbits
  14              		.align	1
  15              		.global	USBD_VCP_DeviceDescriptor
  16              		.arch armv6s-m
  17              		.syntax unified
  18              		.code	16
  19              		.thumb_func
  20              		.fpu softvfp
  22              	USBD_VCP_DeviceDescriptor:
  23              		@ args = 0, pretend = 0, frame = 0
  24              		@ frame_needed = 0, uses_anonymous_args = 0
  25              		@ link register save eliminated.
  26 0000 1223     		movs	r3, #18
  27              		@ sp needed
  28 0002 0148     		ldr	r0, .L2
  29 0004 0B80     		strh	r3, [r1]
  30 0006 7047     		bx	lr
  31              	.L3:
  32              		.align	2
  33              	.L2:
  34 0008 00000000 		.word	.LANCHOR0
  36              		.section	.text.USBD_VCP_LangIDStrDescriptor,"ax",%progbits
  37              		.align	1
  38              		.global	USBD_VCP_LangIDStrDescriptor
  39              		.syntax unified
  40              		.code	16
  41              		.thumb_func
  42              		.fpu softvfp
  44              	USBD_VCP_LangIDStrDescriptor:
  45              		@ args = 0, pretend = 0, frame = 0
  46              		@ frame_needed = 0, uses_anonymous_args = 0
  47              		@ link register save eliminated.
  48 0000 0423     		movs	r3, #4
  49              		@ sp needed
  50 0002 0148     		ldr	r0, .L5
  51 0004 0B80     		strh	r3, [r1]
  52 0006 7047     		bx	lr
  53              	.L6:
  54              		.align	2
  55              	.L5:
  56 0008 00000000 		.word	.LANCHOR1
  58              		.section	.text.IntToUnicode,"ax",%progbits
  59              		.align	1
  60              		.syntax unified
  61              		.code	16
ARM GAS  /tmp/ccd08JOO.s 			page 2


  62              		.thumb_func
  63              		.fpu softvfp
  65              	IntToUnicode:
  66              		@ args = 0, pretend = 0, frame = 0
  67              		@ frame_needed = 0, uses_anonymous_args = 0
  68 0000 30B5     		push	{r4, r5, lr}
  69 0002 0025     		movs	r5, #0
  70 0004 5200     		lsls	r2, r2, #1
  71 0006 8A18     		adds	r2, r1, r2
  72              	.L10:
  73 0008 040F     		lsrs	r4, r0, #28
  74 000a E3B2     		uxtb	r3, r4
  75 000c 092C     		cmp	r4, #9
  76 000e 07D8     		bhi	.L8
  77 0010 3033     		adds	r3, r3, #48
  78              	.L12:
  79 0012 0B70     		strb	r3, [r1]
  80 0014 4D70     		strb	r5, [r1, #1]
  81 0016 0231     		adds	r1, r1, #2
  82 0018 0001     		lsls	r0, r0, #4
  83 001a 8A42     		cmp	r2, r1
  84 001c F4D1     		bne	.L10
  85              		@ sp needed
  86 001e 30BD     		pop	{r4, r5, pc}
  87              	.L8:
  88 0020 3733     		adds	r3, r3, #55
  89 0022 F6E7     		b	.L12
  91              		.section	.text.USBD_VCP_SerialStrDescriptor,"ax",%progbits
  92              		.align	1
  93              		.global	USBD_VCP_SerialStrDescriptor
  94              		.syntax unified
  95              		.code	16
  96              		.thumb_func
  97              		.fpu softvfp
  99              	USBD_VCP_SerialStrDescriptor:
 100              		@ args = 0, pretend = 0, frame = 0
 101              		@ frame_needed = 0, uses_anonymous_args = 0
 102 0000 1A23     		movs	r3, #26
 103 0002 70B5     		push	{r4, r5, r6, lr}
 104 0004 0B80     		strh	r3, [r1]
 105 0006 0B4B     		ldr	r3, .L18
 106 0008 0B4C     		ldr	r4, .L18+4
 107 000a 1868     		ldr	r0, [r3]
 108 000c 0B4B     		ldr	r3, .L18+8
 109 000e 1B68     		ldr	r3, [r3]
 110 0010 C018     		adds	r0, r0, r3
 111 0012 0028     		cmp	r0, #0
 112 0014 0BD0     		beq	.L14
 113 0016 0A4B     		ldr	r3, .L18+12
 114 0018 0822     		movs	r2, #8
 115 001a A11C     		adds	r1, r4, #2
 116 001c 1D68     		ldr	r5, [r3]
 117 001e FFF7FEFF 		bl	IntToUnicode
 118 0022 2100     		movs	r1, r4
 119 0024 0422     		movs	r2, #4
 120 0026 2800     		movs	r0, r5
 121 0028 1231     		adds	r1, r1, #18
ARM GAS  /tmp/ccd08JOO.s 			page 3


 122 002a FFF7FEFF 		bl	IntToUnicode
 123              	.L14:
 124              		@ sp needed
 125 002e 2000     		movs	r0, r4
 126 0030 70BD     		pop	{r4, r5, r6, pc}
 127              	.L19:
 128 0032 C046     		.align	2
 129              	.L18:
 130 0034 ACF7FF1F 		.word	536868780
 131 0038 00000000 		.word	.LANCHOR2
 132 003c B4F7FF1F 		.word	536868788
 133 0040 B0F7FF1F 		.word	536868784
 135              		.section	.rodata.USBD_VCP_ProductStrDescriptor.str1.1,"aMS",%progbits,1
 136              	.LC6:
 137 0000 63686972 		.ascii	"chirp :3\000"
 137      70203A33 
 137      00
 138              		.section	.text.USBD_VCP_ProductStrDescriptor,"ax",%progbits
 139              		.align	1
 140              		.global	USBD_VCP_ProductStrDescriptor
 141              		.syntax unified
 142              		.code	16
 143              		.thumb_func
 144              		.fpu softvfp
 146              	USBD_VCP_ProductStrDescriptor:
 147              		@ args = 0, pretend = 0, frame = 0
 148              		@ frame_needed = 0, uses_anonymous_args = 0
 149 0000 10B5     		push	{r4, lr}
 150 0002 044C     		ldr	r4, .L21
 151 0004 0A00     		movs	r2, r1
 152              		@ sp needed
 153 0006 2100     		movs	r1, r4
 154 0008 0348     		ldr	r0, .L21+4
 155 000a FFF7FEFF 		bl	USBD_GetString
 156 000e 2000     		movs	r0, r4
 157 0010 10BD     		pop	{r4, pc}
 158              	.L22:
 159 0012 C046     		.align	2
 160              	.L21:
 161 0014 00000000 		.word	USBD_StrDesc
 162 0018 00000000 		.word	.LC6
 164              		.section	.rodata.USBD_VCP_ManufacturerStrDescriptor.str1.1,"aMS",%progbits,1
 165              	.LC9:
 166 0000 4F747465 		.ascii	"Otter-Iron\000"
 166      722D4972 
 166      6F6E00
 167              		.section	.text.USBD_VCP_ManufacturerStrDescriptor,"ax",%progbits
 168              		.align	1
 169              		.global	USBD_VCP_ManufacturerStrDescriptor
 170              		.syntax unified
 171              		.code	16
 172              		.thumb_func
 173              		.fpu softvfp
 175              	USBD_VCP_ManufacturerStrDescriptor:
 176              		@ args = 0, pretend = 0, frame = 0
 177              		@ frame_needed = 0, uses_anonymous_args = 0
 178 0000 10B5     		push	{r4, lr}
ARM GAS  /tmp/ccd08JOO.s 			page 4


 179 0002 044C     		ldr	r4, .L24
 180 0004 0A00     		movs	r2, r1
 181              		@ sp needed
 182 0006 2100     		movs	r1, r4
 183 0008 0348     		ldr	r0, .L24+4
 184 000a FFF7FEFF 		bl	USBD_GetString
 185 000e 2000     		movs	r0, r4
 186 0010 10BD     		pop	{r4, pc}
 187              	.L25:
 188 0012 C046     		.align	2
 189              	.L24:
 190 0014 00000000 		.word	USBD_StrDesc
 191 0018 00000000 		.word	.LC9
 193              		.section	.rodata.USBD_VCP_ConfigStrDescriptor.str1.1,"aMS",%progbits,1
 194              	.LC12:
 195 0000 6D617500 		.ascii	"mau\000"
 196              		.section	.text.USBD_VCP_ConfigStrDescriptor,"ax",%progbits
 197              		.align	1
 198              		.global	USBD_VCP_ConfigStrDescriptor
 199              		.syntax unified
 200              		.code	16
 201              		.thumb_func
 202              		.fpu softvfp
 204              	USBD_VCP_ConfigStrDescriptor:
 205              		@ args = 0, pretend = 0, frame = 0
 206              		@ frame_needed = 0, uses_anonymous_args = 0
 207 0000 10B5     		push	{r4, lr}
 208 0002 044C     		ldr	r4, .L27
 209 0004 0A00     		movs	r2, r1
 210              		@ sp needed
 211 0006 2100     		movs	r1, r4
 212 0008 0348     		ldr	r0, .L27+4
 213 000a FFF7FEFF 		bl	USBD_GetString
 214 000e 2000     		movs	r0, r4
 215 0010 10BD     		pop	{r4, pc}
 216              	.L28:
 217 0012 C046     		.align	2
 218              	.L27:
 219 0014 00000000 		.word	USBD_StrDesc
 220 0018 00000000 		.word	.LC12
 222              		.section	.rodata.USBD_VCP_InterfaceStrDescriptor.str1.1,"aMS",%progbits,1
 223              	.LC15:
 224 0000 3A6F00   		.ascii	":o\000"
 225              		.section	.text.USBD_VCP_InterfaceStrDescriptor,"ax",%progbits
 226              		.align	1
 227              		.global	USBD_VCP_InterfaceStrDescriptor
 228              		.syntax unified
 229              		.code	16
 230              		.thumb_func
 231              		.fpu softvfp
 233              	USBD_VCP_InterfaceStrDescriptor:
 234              		@ args = 0, pretend = 0, frame = 0
 235              		@ frame_needed = 0, uses_anonymous_args = 0
 236 0000 10B5     		push	{r4, lr}
 237 0002 044C     		ldr	r4, .L30
 238 0004 0A00     		movs	r2, r1
 239              		@ sp needed
ARM GAS  /tmp/ccd08JOO.s 			page 5


 240 0006 2100     		movs	r1, r4
 241 0008 0348     		ldr	r0, .L30+4
 242 000a FFF7FEFF 		bl	USBD_GetString
 243 000e 2000     		movs	r0, r4
 244 0010 10BD     		pop	{r4, pc}
 245              	.L31:
 246 0012 C046     		.align	2
 247              	.L30:
 248 0014 00000000 		.word	USBD_StrDesc
 249 0018 00000000 		.word	.LC15
 251              		.global	USBD_StrDesc
 252              		.global	USBD_StringSerial
 253              		.global	USBD_LangIDDesc
 254              		.global	hUSBDDeviceDesc
 255              		.global	VCP_Desc
 256              		.section	.bss.USBD_StrDesc,"aw",%nobits
 259              	USBD_StrDesc:
 260 0000 00000000 		.space	256
 260      00000000 
 260      00000000 
 260      00000000 
 260      00000000 
 261              		.section	.data.USBD_StringSerial,"aw"
 262              		.set	.LANCHOR2,. + 0
 265              	USBD_StringSerial:
 266 0000 1A0300   		.ascii	"\032\003\000"
 267 0003 00000000 		.space	23
 267      00000000 
 267      00000000 
 267      00000000 
 267      00000000 
 268              		.section	.data.VCP_Desc,"aw"
 269              		.align	2
 272              	VCP_Desc:
 273 0000 00000000 		.word	USBD_VCP_DeviceDescriptor
 274 0004 00000000 		.word	USBD_VCP_LangIDStrDescriptor
 275 0008 00000000 		.word	USBD_VCP_ManufacturerStrDescriptor
 276 000c 00000000 		.word	USBD_VCP_ProductStrDescriptor
 277 0010 00000000 		.word	USBD_VCP_SerialStrDescriptor
 278 0014 00000000 		.word	USBD_VCP_ConfigStrDescriptor
 279 0018 00000000 		.word	USBD_VCP_InterfaceStrDescriptor
 280              		.section	.rodata.USBD_LangIDDesc,"a"
 281              		.set	.LANCHOR1,. + 0
 284              	USBD_LangIDDesc:
 285 0000 04030904 		.ascii	"\004\003\011\004"
 286              		.section	.rodata.hUSBDDeviceDesc,"a"
 287              		.set	.LANCHOR0,. + 0
 290              	hUSBDDeviceDesc:
 291 0000 12010002 		.ascii	"\022\001\000\002\000\000\000@\203\004@W\000\002\001"
 291      00000040 
 291      83044057 
 291      000201
 292 000f 020301   		.ascii	"\002\003\001"
 293              		.ident	"GCC: (Arch Repository) 10.1.0"
ARM GAS  /tmp/ccd08JOO.s 			page 6


DEFINED SYMBOLS
                            *ABS*:0000000000000000 usbd_desc.c
     /tmp/ccd08JOO.s:14     .text.USBD_VCP_DeviceDescriptor:0000000000000000 $t
     /tmp/ccd08JOO.s:22     .text.USBD_VCP_DeviceDescriptor:0000000000000000 USBD_VCP_DeviceDescriptor
     /tmp/ccd08JOO.s:34     .text.USBD_VCP_DeviceDescriptor:0000000000000008 $d
     /tmp/ccd08JOO.s:37     .text.USBD_VCP_LangIDStrDescriptor:0000000000000000 $t
     /tmp/ccd08JOO.s:44     .text.USBD_VCP_LangIDStrDescriptor:0000000000000000 USBD_VCP_LangIDStrDescriptor
     /tmp/ccd08JOO.s:56     .text.USBD_VCP_LangIDStrDescriptor:0000000000000008 $d
     /tmp/ccd08JOO.s:59     .text.IntToUnicode:0000000000000000 $t
     /tmp/ccd08JOO.s:65     .text.IntToUnicode:0000000000000000 IntToUnicode
     /tmp/ccd08JOO.s:92     .text.USBD_VCP_SerialStrDescriptor:0000000000000000 $t
     /tmp/ccd08JOO.s:99     .text.USBD_VCP_SerialStrDescriptor:0000000000000000 USBD_VCP_SerialStrDescriptor
     /tmp/ccd08JOO.s:130    .text.USBD_VCP_SerialStrDescriptor:0000000000000034 $d
     /tmp/ccd08JOO.s:139    .text.USBD_VCP_ProductStrDescriptor:0000000000000000 $t
     /tmp/ccd08JOO.s:146    .text.USBD_VCP_ProductStrDescriptor:0000000000000000 USBD_VCP_ProductStrDescriptor
     /tmp/ccd08JOO.s:161    .text.USBD_VCP_ProductStrDescriptor:0000000000000014 $d
     /tmp/ccd08JOO.s:259    .bss.USBD_StrDesc:0000000000000000 USBD_StrDesc
     /tmp/ccd08JOO.s:168    .text.USBD_VCP_ManufacturerStrDescriptor:0000000000000000 $t
     /tmp/ccd08JOO.s:175    .text.USBD_VCP_ManufacturerStrDescriptor:0000000000000000 USBD_VCP_ManufacturerStrDescriptor
     /tmp/ccd08JOO.s:190    .text.USBD_VCP_ManufacturerStrDescriptor:0000000000000014 $d
     /tmp/ccd08JOO.s:197    .text.USBD_VCP_ConfigStrDescriptor:0000000000000000 $t
     /tmp/ccd08JOO.s:204    .text.USBD_VCP_ConfigStrDescriptor:0000000000000000 USBD_VCP_ConfigStrDescriptor
     /tmp/ccd08JOO.s:219    .text.USBD_VCP_ConfigStrDescriptor:0000000000000014 $d
     /tmp/ccd08JOO.s:226    .text.USBD_VCP_InterfaceStrDescriptor:0000000000000000 $t
     /tmp/ccd08JOO.s:233    .text.USBD_VCP_InterfaceStrDescriptor:0000000000000000 USBD_VCP_InterfaceStrDescriptor
     /tmp/ccd08JOO.s:248    .text.USBD_VCP_InterfaceStrDescriptor:0000000000000014 $d
     /tmp/ccd08JOO.s:265    .data.USBD_StringSerial:0000000000000000 USBD_StringSerial
     /tmp/ccd08JOO.s:284    .rodata.USBD_LangIDDesc:0000000000000000 USBD_LangIDDesc
     /tmp/ccd08JOO.s:290    .rodata.hUSBDDeviceDesc:0000000000000000 hUSBDDeviceDesc
     /tmp/ccd08JOO.s:272    .data.VCP_Desc:0000000000000000 VCP_Desc
     /tmp/ccd08JOO.s:260    .bss.USBD_StrDesc:0000000000000000 $d
     /tmp/ccd08JOO.s:267    .data.USBD_StringSerial:0000000000000003 $d
     /tmp/ccd08JOO.s:269    .data.VCP_Desc:0000000000000000 $d

UNDEFINED SYMBOLS
USBD_GetString
