ARM GAS  /tmp/ccM99OFZ.s 			page 1


   1              		.cpu cortex-m0
   2              		.eabi_attribute 20, 1
   3              		.eabi_attribute 21, 1
   4              		.eabi_attribute 23, 3
   5              		.eabi_attribute 24, 1
   6              		.eabi_attribute 25, 1
   7              		.eabi_attribute 26, 1
   8              		.eabi_attribute 30, 4
   9              		.eabi_attribute 34, 0
  10              		.eabi_attribute 18, 4
  11              		.file	"usbd_conf.c"
  12              		.text
  13              		.section	.text.HAL_PCD_MspInit,"ax",%progbits
  14              		.align	1
  15              		.global	HAL_PCD_MspInit
  16              		.arch armv6s-m
  17              		.syntax unified
  18              		.code	16
  19              		.thumb_func
  20              		.fpu softvfp
  22              	HAL_PCD_MspInit:
  23              		@ args = 0, pretend = 0, frame = 32
  24              		@ frame_needed = 0, uses_anonymous_args = 0
  25 0000 8021     		movs	r1, #128
  26 0002 70B5     		push	{r4, r5, r6, lr}
  27 0004 154C     		ldr	r4, .L2
  28 0006 8902     		lsls	r1, r1, #10
  29 0008 6269     		ldr	r2, [r4, #20]
  30 000a 88B0     		sub	sp, sp, #32
  31 000c 0A43     		orrs	r2, r1
  32 000e 6261     		str	r2, [r4, #20]
  33 0010 6369     		ldr	r3, [r4, #20]
  34 0012 9020     		movs	r0, #144
  35 0014 0B40     		ands	r3, r1
  36 0016 0193     		str	r3, [sp, #4]
  37 0018 019B     		ldr	r3, [sp, #4]
  38 001a C023     		movs	r3, #192
  39 001c 5B01     		lsls	r3, r3, #5
  40 001e 0026     		movs	r6, #0
  41 0020 0325     		movs	r5, #3
  42 0022 0393     		str	r3, [sp, #12]
  43 0024 0223     		movs	r3, #2
  44 0026 03A9     		add	r1, sp, #12
  45 0028 C005     		lsls	r0, r0, #23
  46 002a 0493     		str	r3, [sp, #16]
  47 002c 0793     		str	r3, [sp, #28]
  48 002e 0596     		str	r6, [sp, #20]
  49 0030 0695     		str	r5, [sp, #24]
  50 0032 FFF7FEFF 		bl	HAL_GPIO_Init
  51 0036 8021     		movs	r1, #128
  52 0038 E269     		ldr	r2, [r4, #28]
  53 003a 0904     		lsls	r1, r1, #16
  54 003c 0A43     		orrs	r2, r1
  55 003e E261     		str	r2, [r4, #28]
  56 0040 E369     		ldr	r3, [r4, #28]
  57 0042 3200     		movs	r2, r6
  58 0044 0B40     		ands	r3, r1
ARM GAS  /tmp/ccM99OFZ.s 			page 2


  59 0046 0293     		str	r3, [sp, #8]
  60 0048 2900     		movs	r1, r5
  61 004a 1F20     		movs	r0, #31
  62 004c 029B     		ldr	r3, [sp, #8]
  63 004e FFF7FEFF 		bl	HAL_NVIC_SetPriority
  64 0052 1F20     		movs	r0, #31
  65 0054 FFF7FEFF 		bl	HAL_NVIC_EnableIRQ
  66 0058 08B0     		add	sp, sp, #32
  67              		@ sp needed
  68 005a 70BD     		pop	{r4, r5, r6, pc}
  69              	.L3:
  70              		.align	2
  71              	.L2:
  72 005c 00100240 		.word	1073876992
  74              		.section	.text.HAL_PCD_MspDeInit,"ax",%progbits
  75              		.align	1
  76              		.global	HAL_PCD_MspDeInit
  77              		.syntax unified
  78              		.code	16
  79              		.thumb_func
  80              		.fpu softvfp
  82              	HAL_PCD_MspDeInit:
  83              		@ args = 0, pretend = 0, frame = 0
  84              		@ frame_needed = 0, uses_anonymous_args = 0
  85              		@ link register save eliminated.
  86 0000 024A     		ldr	r2, .L5
  87 0002 0349     		ldr	r1, .L5+4
  88 0004 D369     		ldr	r3, [r2, #28]
  89              		@ sp needed
  90 0006 0B40     		ands	r3, r1
  91 0008 D361     		str	r3, [r2, #28]
  92 000a 7047     		bx	lr
  93              	.L6:
  94              		.align	2
  95              	.L5:
  96 000c 00100240 		.word	1073876992
  97 0010 FFFF7FFF 		.word	-8388609
  99              		.section	.text.HAL_PCD_SetupStageCallback,"ax",%progbits
 100              		.align	1
 101              		.global	HAL_PCD_SetupStageCallback
 102              		.syntax unified
 103              		.code	16
 104              		.thumb_func
 105              		.fpu softvfp
 107              	HAL_PCD_SetupStageCallback:
 108              		@ args = 0, pretend = 0, frame = 0
 109              		@ frame_needed = 0, uses_anonymous_args = 0
 110 0000 0100     		movs	r1, r0
 111 0002 8723     		movs	r3, #135
 112 0004 10B5     		push	{r4, lr}
 113 0006 9B00     		lsls	r3, r3, #2
 114 0008 ED31     		adds	r1, r1, #237
 115 000a C058     		ldr	r0, [r0, r3]
 116 000c FF31     		adds	r1, r1, #255
 117 000e FFF7FEFF 		bl	USBD_LL_SetupStage
 118              		@ sp needed
 119 0012 10BD     		pop	{r4, pc}
ARM GAS  /tmp/ccM99OFZ.s 			page 3


 121              		.section	.text.HAL_PCD_DataOutStageCallback,"ax",%progbits
 122              		.align	1
 123              		.global	HAL_PCD_DataOutStageCallback
 124              		.syntax unified
 125              		.code	16
 126              		.thumb_func
 127              		.fpu softvfp
 129              	HAL_PCD_DataOutStageCallback:
 130              		@ args = 0, pretend = 0, frame = 0
 131              		@ frame_needed = 0, uses_anonymous_args = 0
 132 0000 1C23     		movs	r3, #28
 133 0002 4B43     		muls	r3, r1
 134 0004 C318     		adds	r3, r0, r3
 135 0006 FC33     		adds	r3, r3, #252
 136 0008 DA69     		ldr	r2, [r3, #28]
 137 000a 8723     		movs	r3, #135
 138 000c 10B5     		push	{r4, lr}
 139 000e 9B00     		lsls	r3, r3, #2
 140 0010 C058     		ldr	r0, [r0, r3]
 141 0012 FFF7FEFF 		bl	USBD_LL_DataOutStage
 142              		@ sp needed
 143 0016 10BD     		pop	{r4, pc}
 145              		.section	.text.HAL_PCD_DataInStageCallback,"ax",%progbits
 146              		.align	1
 147              		.global	HAL_PCD_DataInStageCallback
 148              		.syntax unified
 149              		.code	16
 150              		.thumb_func
 151              		.fpu softvfp
 153              	HAL_PCD_DataInStageCallback:
 154              		@ args = 0, pretend = 0, frame = 0
 155              		@ frame_needed = 0, uses_anonymous_args = 0
 156 0000 1C23     		movs	r3, #28
 157 0002 4B43     		muls	r3, r1
 158 0004 C318     		adds	r3, r0, r3
 159 0006 9A6B     		ldr	r2, [r3, #56]
 160 0008 8723     		movs	r3, #135
 161 000a 10B5     		push	{r4, lr}
 162 000c 9B00     		lsls	r3, r3, #2
 163 000e C058     		ldr	r0, [r0, r3]
 164 0010 FFF7FEFF 		bl	USBD_LL_DataInStage
 165              		@ sp needed
 166 0014 10BD     		pop	{r4, pc}
 168              		.section	.text.HAL_PCD_SOFCallback,"ax",%progbits
 169              		.align	1
 170              		.global	HAL_PCD_SOFCallback
 171              		.syntax unified
 172              		.code	16
 173              		.thumb_func
 174              		.fpu softvfp
 176              	HAL_PCD_SOFCallback:
 177              		@ args = 0, pretend = 0, frame = 0
 178              		@ frame_needed = 0, uses_anonymous_args = 0
 179 0000 8723     		movs	r3, #135
 180 0002 10B5     		push	{r4, lr}
 181 0004 9B00     		lsls	r3, r3, #2
 182 0006 C058     		ldr	r0, [r0, r3]
ARM GAS  /tmp/ccM99OFZ.s 			page 4


 183 0008 FFF7FEFF 		bl	USBD_LL_SOF
 184              		@ sp needed
 185 000c 10BD     		pop	{r4, pc}
 187              		.section	.text.HAL_PCD_ResetCallback,"ax",%progbits
 188              		.align	1
 189              		.global	HAL_PCD_ResetCallback
 190              		.syntax unified
 191              		.code	16
 192              		.thumb_func
 193              		.fpu softvfp
 195              	HAL_PCD_ResetCallback:
 196              		@ args = 0, pretend = 0, frame = 0
 197              		@ frame_needed = 0, uses_anonymous_args = 0
 198 0000 70B5     		push	{r4, r5, r6, lr}
 199 0002 8725     		movs	r5, #135
 200              		@ sp needed
 201 0004 0400     		movs	r4, r0
 202 0006 AD00     		lsls	r5, r5, #2
 203 0008 0121     		movs	r1, #1
 204 000a 4059     		ldr	r0, [r0, r5]
 205 000c FFF7FEFF 		bl	USBD_LL_SetSpeed
 206 0010 6059     		ldr	r0, [r4, r5]
 207 0012 FFF7FEFF 		bl	USBD_LL_Reset
 208 0016 70BD     		pop	{r4, r5, r6, pc}
 210              		.section	.text.HAL_PCD_SuspendCallback,"ax",%progbits
 211              		.align	1
 212              		.global	HAL_PCD_SuspendCallback
 213              		.syntax unified
 214              		.code	16
 215              		.thumb_func
 216              		.fpu softvfp
 218              	HAL_PCD_SuspendCallback:
 219              		@ args = 0, pretend = 0, frame = 0
 220              		@ frame_needed = 0, uses_anonymous_args = 0
 221              		@ link register save eliminated.
 222              		@ sp needed
 223 0000 7047     		bx	lr
 225              		.section	.text.HAL_PCD_ResumeCallback,"ax",%progbits
 226              		.align	1
 227              		.global	HAL_PCD_ResumeCallback
 228              		.syntax unified
 229              		.code	16
 230              		.thumb_func
 231              		.fpu softvfp
 233              	HAL_PCD_ResumeCallback:
 234              		@ args = 0, pretend = 0, frame = 0
 235              		@ frame_needed = 0, uses_anonymous_args = 0
 236              		@ link register save eliminated.
 237              		@ sp needed
 238 0000 7047     		bx	lr
 240              		.section	.text.HAL_PCD_ISOOUTIncompleteCallback,"ax",%progbits
 241              		.align	1
 242              		.global	HAL_PCD_ISOOUTIncompleteCallback
 243              		.syntax unified
 244              		.code	16
 245              		.thumb_func
 246              		.fpu softvfp
ARM GAS  /tmp/ccM99OFZ.s 			page 5


 248              	HAL_PCD_ISOOUTIncompleteCallback:
 249              		@ args = 0, pretend = 0, frame = 0
 250              		@ frame_needed = 0, uses_anonymous_args = 0
 251 0000 8723     		movs	r3, #135
 252 0002 10B5     		push	{r4, lr}
 253 0004 9B00     		lsls	r3, r3, #2
 254 0006 C058     		ldr	r0, [r0, r3]
 255 0008 FFF7FEFF 		bl	USBD_LL_IsoOUTIncomplete
 256              		@ sp needed
 257 000c 10BD     		pop	{r4, pc}
 259              		.section	.text.HAL_PCD_ISOINIncompleteCallback,"ax",%progbits
 260              		.align	1
 261              		.global	HAL_PCD_ISOINIncompleteCallback
 262              		.syntax unified
 263              		.code	16
 264              		.thumb_func
 265              		.fpu softvfp
 267              	HAL_PCD_ISOINIncompleteCallback:
 268              		@ args = 0, pretend = 0, frame = 0
 269              		@ frame_needed = 0, uses_anonymous_args = 0
 270 0000 8723     		movs	r3, #135
 271 0002 10B5     		push	{r4, lr}
 272 0004 9B00     		lsls	r3, r3, #2
 273 0006 C058     		ldr	r0, [r0, r3]
 274 0008 FFF7FEFF 		bl	USBD_LL_IsoINIncomplete
 275              		@ sp needed
 276 000c 10BD     		pop	{r4, pc}
 278              		.section	.text.HAL_PCD_ConnectCallback,"ax",%progbits
 279              		.align	1
 280              		.global	HAL_PCD_ConnectCallback
 281              		.syntax unified
 282              		.code	16
 283              		.thumb_func
 284              		.fpu softvfp
 286              	HAL_PCD_ConnectCallback:
 287              		@ args = 0, pretend = 0, frame = 0
 288              		@ frame_needed = 0, uses_anonymous_args = 0
 289 0000 8723     		movs	r3, #135
 290 0002 10B5     		push	{r4, lr}
 291 0004 9B00     		lsls	r3, r3, #2
 292 0006 C058     		ldr	r0, [r0, r3]
 293 0008 FFF7FEFF 		bl	USBD_LL_DevConnected
 294              		@ sp needed
 295 000c 10BD     		pop	{r4, pc}
 297              		.section	.text.HAL_PCD_DisconnectCallback,"ax",%progbits
 298              		.align	1
 299              		.global	HAL_PCD_DisconnectCallback
 300              		.syntax unified
 301              		.code	16
 302              		.thumb_func
 303              		.fpu softvfp
 305              	HAL_PCD_DisconnectCallback:
 306              		@ args = 0, pretend = 0, frame = 0
 307              		@ frame_needed = 0, uses_anonymous_args = 0
 308 0000 8723     		movs	r3, #135
 309 0002 10B5     		push	{r4, lr}
 310 0004 9B00     		lsls	r3, r3, #2
ARM GAS  /tmp/ccM99OFZ.s 			page 6


 311 0006 C058     		ldr	r0, [r0, r3]
 312 0008 FFF7FEFF 		bl	USBD_LL_DevDisconnected
 313              		@ sp needed
 314 000c 10BD     		pop	{r4, pc}
 316              		.section	.text.USBD_LL_Init,"ax",%progbits
 317              		.align	1
 318              		.global	USBD_LL_Init
 319              		.syntax unified
 320              		.code	16
 321              		.thumb_func
 322              		.fpu softvfp
 324              	USBD_LL_Init:
 325              		@ args = 0, pretend = 0, frame = 0
 326              		@ frame_needed = 0, uses_anonymous_args = 0
 327 0000 70B5     		push	{r4, r5, r6, lr}
 328 0002 1A4B     		ldr	r3, .L19
 329 0004 1A4C     		ldr	r4, .L19+4
 330 0006 4025     		movs	r5, #64
 331              		@ sp needed
 332 0008 2360     		str	r3, [r4]
 333 000a 0823     		movs	r3, #8
 334 000c 6360     		str	r3, [r4, #4]
 335 000e 063B     		subs	r3, r3, #6
 336 0010 2361     		str	r3, [r4, #16]
 337 0012 A360     		str	r3, [r4, #8]
 338 0014 8723     		movs	r3, #135
 339 0016 9B00     		lsls	r3, r3, #2
 340 0018 E050     		str	r0, [r4, r3]
 341 001a 0433     		adds	r3, r3, #4
 342 001c C450     		str	r4, [r0, r3]
 343 001e 2000     		movs	r0, r4
 344 0020 E560     		str	r5, [r4, #12]
 345 0022 FFF7FEFF 		bl	HAL_PCD_Init
 346 0026 0022     		movs	r2, #0
 347 0028 2B00     		movs	r3, r5
 348 002a 1100     		movs	r1, r2
 349 002c 2000     		movs	r0, r4
 350 002e FFF7FEFF 		bl	HAL_PCDEx_PMAConfig
 351 0032 8023     		movs	r3, #128
 352 0034 0022     		movs	r2, #0
 353 0036 1900     		movs	r1, r3
 354 0038 2000     		movs	r0, r4
 355 003a FFF7FEFF 		bl	HAL_PCDEx_PMAConfig
 356 003e C023     		movs	r3, #192
 357 0040 0022     		movs	r2, #0
 358 0042 8121     		movs	r1, #129
 359 0044 2000     		movs	r0, r4
 360 0046 FFF7FEFF 		bl	HAL_PCDEx_PMAConfig
 361 004a 8823     		movs	r3, #136
 362 004c 0022     		movs	r2, #0
 363 004e 0121     		movs	r1, #1
 364 0050 2000     		movs	r0, r4
 365 0052 5B00     		lsls	r3, r3, #1
 366 0054 FFF7FEFF 		bl	HAL_PCDEx_PMAConfig
 367 0058 8023     		movs	r3, #128
 368 005a 0022     		movs	r2, #0
 369 005c 8221     		movs	r1, #130
ARM GAS  /tmp/ccM99OFZ.s 			page 7


 370 005e 2000     		movs	r0, r4
 371 0060 5B00     		lsls	r3, r3, #1
 372 0062 FFF7FEFF 		bl	HAL_PCDEx_PMAConfig
 373 0066 0020     		movs	r0, #0
 374 0068 70BD     		pop	{r4, r5, r6, pc}
 375              	.L20:
 376 006a C046     		.align	2
 377              	.L19:
 378 006c 005C0040 		.word	1073765376
 379 0070 00000000 		.word	hpcd
 381              		.section	.text.USBD_LL_DeInit,"ax",%progbits
 382              		.align	1
 383              		.global	USBD_LL_DeInit
 384              		.syntax unified
 385              		.code	16
 386              		.thumb_func
 387              		.fpu softvfp
 389              	USBD_LL_DeInit:
 390              		@ args = 0, pretend = 0, frame = 0
 391              		@ frame_needed = 0, uses_anonymous_args = 0
 392 0000 8823     		movs	r3, #136
 393 0002 10B5     		push	{r4, lr}
 394 0004 9B00     		lsls	r3, r3, #2
 395 0006 C058     		ldr	r0, [r0, r3]
 396 0008 FFF7FEFF 		bl	HAL_PCD_DeInit
 397              		@ sp needed
 398 000c 0020     		movs	r0, #0
 399 000e 10BD     		pop	{r4, pc}
 401              		.section	.text.USBD_LL_Start,"ax",%progbits
 402              		.align	1
 403              		.global	USBD_LL_Start
 404              		.syntax unified
 405              		.code	16
 406              		.thumb_func
 407              		.fpu softvfp
 409              	USBD_LL_Start:
 410              		@ args = 0, pretend = 0, frame = 0
 411              		@ frame_needed = 0, uses_anonymous_args = 0
 412 0000 8823     		movs	r3, #136
 413 0002 10B5     		push	{r4, lr}
 414 0004 9B00     		lsls	r3, r3, #2
 415 0006 C058     		ldr	r0, [r0, r3]
 416 0008 FFF7FEFF 		bl	HAL_PCD_Start
 417              		@ sp needed
 418 000c 0020     		movs	r0, #0
 419 000e 10BD     		pop	{r4, pc}
 421              		.section	.text.USBD_LL_Stop,"ax",%progbits
 422              		.align	1
 423              		.global	USBD_LL_Stop
 424              		.syntax unified
 425              		.code	16
 426              		.thumb_func
 427              		.fpu softvfp
 429              	USBD_LL_Stop:
 430              		@ args = 0, pretend = 0, frame = 0
 431              		@ frame_needed = 0, uses_anonymous_args = 0
 432 0000 8823     		movs	r3, #136
ARM GAS  /tmp/ccM99OFZ.s 			page 8


 433 0002 10B5     		push	{r4, lr}
 434 0004 9B00     		lsls	r3, r3, #2
 435 0006 C058     		ldr	r0, [r0, r3]
 436 0008 FFF7FEFF 		bl	HAL_PCD_Stop
 437              		@ sp needed
 438 000c 0020     		movs	r0, #0
 439 000e 10BD     		pop	{r4, pc}
 441              		.section	.text.USBD_LL_OpenEP,"ax",%progbits
 442              		.align	1
 443              		.global	USBD_LL_OpenEP
 444              		.syntax unified
 445              		.code	16
 446              		.thumb_func
 447              		.fpu softvfp
 449              	USBD_LL_OpenEP:
 450              		@ args = 0, pretend = 0, frame = 0
 451              		@ frame_needed = 0, uses_anonymous_args = 0
 452 0000 10B5     		push	{r4, lr}
 453 0002 1400     		movs	r4, r2
 454              		@ sp needed
 455 0004 1A00     		movs	r2, r3
 456 0006 2300     		movs	r3, r4
 457 0008 8824     		movs	r4, #136
 458 000a A400     		lsls	r4, r4, #2
 459 000c 0059     		ldr	r0, [r0, r4]
 460 000e FFF7FEFF 		bl	HAL_PCD_EP_Open
 461 0012 0020     		movs	r0, #0
 462 0014 10BD     		pop	{r4, pc}
 464              		.section	.text.USBD_LL_CloseEP,"ax",%progbits
 465              		.align	1
 466              		.global	USBD_LL_CloseEP
 467              		.syntax unified
 468              		.code	16
 469              		.thumb_func
 470              		.fpu softvfp
 472              	USBD_LL_CloseEP:
 473              		@ args = 0, pretend = 0, frame = 0
 474              		@ frame_needed = 0, uses_anonymous_args = 0
 475 0000 8823     		movs	r3, #136
 476 0002 10B5     		push	{r4, lr}
 477 0004 9B00     		lsls	r3, r3, #2
 478 0006 C058     		ldr	r0, [r0, r3]
 479 0008 FFF7FEFF 		bl	HAL_PCD_EP_Close
 480              		@ sp needed
 481 000c 0020     		movs	r0, #0
 482 000e 10BD     		pop	{r4, pc}
 484              		.section	.text.USBD_LL_FlushEP,"ax",%progbits
 485              		.align	1
 486              		.global	USBD_LL_FlushEP
 487              		.syntax unified
 488              		.code	16
 489              		.thumb_func
 490              		.fpu softvfp
 492              	USBD_LL_FlushEP:
 493              		@ args = 0, pretend = 0, frame = 0
 494              		@ frame_needed = 0, uses_anonymous_args = 0
 495 0000 8823     		movs	r3, #136
ARM GAS  /tmp/ccM99OFZ.s 			page 9


 496 0002 10B5     		push	{r4, lr}
 497 0004 9B00     		lsls	r3, r3, #2
 498 0006 C058     		ldr	r0, [r0, r3]
 499 0008 FFF7FEFF 		bl	HAL_PCD_EP_Flush
 500              		@ sp needed
 501 000c 0020     		movs	r0, #0
 502 000e 10BD     		pop	{r4, pc}
 504              		.section	.text.USBD_LL_StallEP,"ax",%progbits
 505              		.align	1
 506              		.global	USBD_LL_StallEP
 507              		.syntax unified
 508              		.code	16
 509              		.thumb_func
 510              		.fpu softvfp
 512              	USBD_LL_StallEP:
 513              		@ args = 0, pretend = 0, frame = 0
 514              		@ frame_needed = 0, uses_anonymous_args = 0
 515 0000 8823     		movs	r3, #136
 516 0002 10B5     		push	{r4, lr}
 517 0004 9B00     		lsls	r3, r3, #2
 518 0006 C058     		ldr	r0, [r0, r3]
 519 0008 FFF7FEFF 		bl	HAL_PCD_EP_SetStall
 520              		@ sp needed
 521 000c 0020     		movs	r0, #0
 522 000e 10BD     		pop	{r4, pc}
 524              		.section	.text.USBD_LL_ClearStallEP,"ax",%progbits
 525              		.align	1
 526              		.global	USBD_LL_ClearStallEP
 527              		.syntax unified
 528              		.code	16
 529              		.thumb_func
 530              		.fpu softvfp
 532              	USBD_LL_ClearStallEP:
 533              		@ args = 0, pretend = 0, frame = 0
 534              		@ frame_needed = 0, uses_anonymous_args = 0
 535 0000 8823     		movs	r3, #136
 536 0002 10B5     		push	{r4, lr}
 537 0004 9B00     		lsls	r3, r3, #2
 538 0006 C058     		ldr	r0, [r0, r3]
 539 0008 FFF7FEFF 		bl	HAL_PCD_EP_ClrStall
 540              		@ sp needed
 541 000c 0020     		movs	r0, #0
 542 000e 10BD     		pop	{r4, pc}
 544              		.section	.text.USBD_LL_IsStallEP,"ax",%progbits
 545              		.align	1
 546              		.global	USBD_LL_IsStallEP
 547              		.syntax unified
 548              		.code	16
 549              		.thumb_func
 550              		.fpu softvfp
 552              	USBD_LL_IsStallEP:
 553              		@ args = 0, pretend = 0, frame = 0
 554              		@ frame_needed = 0, uses_anonymous_args = 0
 555              		@ link register save eliminated.
 556 0000 8823     		movs	r3, #136
 557 0002 9B00     		lsls	r3, r3, #2
 558 0004 C358     		ldr	r3, [r0, r3]
ARM GAS  /tmp/ccM99OFZ.s 			page 10


 559 0006 48B2     		sxtb	r0, r1
 560 0008 1C22     		movs	r2, #28
 561 000a 0028     		cmp	r0, #0
 562 000c 06DA     		bge	.L30
 563 000e 7F20     		movs	r0, #127
 564 0010 0140     		ands	r1, r0
 565 0012 5143     		muls	r1, r2
 566 0014 5B18     		adds	r3, r3, r1
 567 0016 2A33     		adds	r3, r3, #42
 568 0018 1878     		ldrb	r0, [r3]
 569              	.L31:
 570              		@ sp needed
 571 001a 7047     		bx	lr
 572              	.L30:
 573 001c 5143     		muls	r1, r2
 574 001e 5B18     		adds	r3, r3, r1
 575 0020 FF33     		adds	r3, r3, #255
 576 0022 D87A     		ldrb	r0, [r3, #11]
 577 0024 F9E7     		b	.L31
 579              		.section	.text.USBD_LL_SetUSBAddress,"ax",%progbits
 580              		.align	1
 581              		.global	USBD_LL_SetUSBAddress
 582              		.syntax unified
 583              		.code	16
 584              		.thumb_func
 585              		.fpu softvfp
 587              	USBD_LL_SetUSBAddress:
 588              		@ args = 0, pretend = 0, frame = 0
 589              		@ frame_needed = 0, uses_anonymous_args = 0
 590 0000 8823     		movs	r3, #136
 591 0002 10B5     		push	{r4, lr}
 592 0004 9B00     		lsls	r3, r3, #2
 593 0006 C058     		ldr	r0, [r0, r3]
 594 0008 FFF7FEFF 		bl	HAL_PCD_SetAddress
 595              		@ sp needed
 596 000c 0020     		movs	r0, #0
 597 000e 10BD     		pop	{r4, pc}
 599              		.section	.text.USBD_LL_Transmit,"ax",%progbits
 600              		.align	1
 601              		.global	USBD_LL_Transmit
 602              		.syntax unified
 603              		.code	16
 604              		.thumb_func
 605              		.fpu softvfp
 607              	USBD_LL_Transmit:
 608              		@ args = 0, pretend = 0, frame = 0
 609              		@ frame_needed = 0, uses_anonymous_args = 0
 610 0000 10B5     		push	{r4, lr}
 611 0002 8824     		movs	r4, #136
 612              		@ sp needed
 613 0004 A400     		lsls	r4, r4, #2
 614 0006 0059     		ldr	r0, [r0, r4]
 615 0008 FFF7FEFF 		bl	HAL_PCD_EP_Transmit
 616 000c 0020     		movs	r0, #0
 617 000e 10BD     		pop	{r4, pc}
 619              		.section	.text.USBD_LL_PrepareReceive,"ax",%progbits
 620              		.align	1
ARM GAS  /tmp/ccM99OFZ.s 			page 11


 621              		.global	USBD_LL_PrepareReceive
 622              		.syntax unified
 623              		.code	16
 624              		.thumb_func
 625              		.fpu softvfp
 627              	USBD_LL_PrepareReceive:
 628              		@ args = 0, pretend = 0, frame = 0
 629              		@ frame_needed = 0, uses_anonymous_args = 0
 630 0000 10B5     		push	{r4, lr}
 631 0002 8824     		movs	r4, #136
 632              		@ sp needed
 633 0004 A400     		lsls	r4, r4, #2
 634 0006 0059     		ldr	r0, [r0, r4]
 635 0008 FFF7FEFF 		bl	HAL_PCD_EP_Receive
 636 000c 0020     		movs	r0, #0
 637 000e 10BD     		pop	{r4, pc}
 639              		.section	.text.USBD_LL_GetRxDataSize,"ax",%progbits
 640              		.align	1
 641              		.global	USBD_LL_GetRxDataSize
 642              		.syntax unified
 643              		.code	16
 644              		.thumb_func
 645              		.fpu softvfp
 647              	USBD_LL_GetRxDataSize:
 648              		@ args = 0, pretend = 0, frame = 0
 649              		@ frame_needed = 0, uses_anonymous_args = 0
 650 0000 8823     		movs	r3, #136
 651 0002 10B5     		push	{r4, lr}
 652 0004 9B00     		lsls	r3, r3, #2
 653 0006 C058     		ldr	r0, [r0, r3]
 654 0008 FFF7FEFF 		bl	HAL_PCD_EP_GetRxCount
 655              		@ sp needed
 656 000c 10BD     		pop	{r4, pc}
 658              		.section	.text.USBD_LL_Delay,"ax",%progbits
 659              		.align	1
 660              		.global	USBD_LL_Delay
 661              		.syntax unified
 662              		.code	16
 663              		.thumb_func
 664              		.fpu softvfp
 666              	USBD_LL_Delay:
 667              		@ args = 0, pretend = 0, frame = 0
 668              		@ frame_needed = 0, uses_anonymous_args = 0
 669 0000 10B5     		push	{r4, lr}
 670 0002 FFF7FEFF 		bl	HAL_Delay
 671              		@ sp needed
 672 0006 10BD     		pop	{r4, pc}
 674              		.section	.text.USBD_static_malloc,"ax",%progbits
 675              		.align	1
 676              		.global	USBD_static_malloc
 677              		.syntax unified
 678              		.code	16
 679              		.thumb_func
 680              		.fpu softvfp
 682              	USBD_static_malloc:
 683              		@ args = 0, pretend = 0, frame = 0
 684              		@ frame_needed = 0, uses_anonymous_args = 0
ARM GAS  /tmp/ccM99OFZ.s 			page 12


 685              		@ link register save eliminated.
 686 0000 0048     		ldr	r0, .L38
 687              		@ sp needed
 688 0002 7047     		bx	lr
 689              	.L39:
 690              		.align	2
 691              	.L38:
 692 0004 00000000 		.word	mem.0
 694              		.section	.text.USBD_static_free,"ax",%progbits
 695              		.align	1
 696              		.global	USBD_static_free
 697              		.syntax unified
 698              		.code	16
 699              		.thumb_func
 700              		.fpu softvfp
 702              	USBD_static_free:
 703              		@ args = 0, pretend = 0, frame = 0
 704              		@ frame_needed = 0, uses_anonymous_args = 0
 705              		@ link register save eliminated.
 706              		@ sp needed
 707 0000 7047     		bx	lr
 709              		.global	hpcd
 710              		.section	.bss.hpcd,"aw",%nobits
 711              		.align	2
 714              	hpcd:
 715 0000 00000000 		.space	544
 715      00000000 
 715      00000000 
 715      00000000 
 715      00000000 
 716              		.section	.bss.mem.0,"aw",%nobits
 717              		.align	2
 720              	mem.0:
 721 0000 00000000 		.space	560
 721      00000000 
 721      00000000 
 721      00000000 
 721      00000000 
 722              		.ident	"GCC: (Arch Repository) 10.1.0"
ARM GAS  /tmp/ccM99OFZ.s 			page 13


DEFINED SYMBOLS
                            *ABS*:0000000000000000 usbd_conf.c
     /tmp/ccM99OFZ.s:14     .text.HAL_PCD_MspInit:0000000000000000 $t
     /tmp/ccM99OFZ.s:22     .text.HAL_PCD_MspInit:0000000000000000 HAL_PCD_MspInit
     /tmp/ccM99OFZ.s:72     .text.HAL_PCD_MspInit:000000000000005c $d
     /tmp/ccM99OFZ.s:75     .text.HAL_PCD_MspDeInit:0000000000000000 $t
     /tmp/ccM99OFZ.s:82     .text.HAL_PCD_MspDeInit:0000000000000000 HAL_PCD_MspDeInit
     /tmp/ccM99OFZ.s:96     .text.HAL_PCD_MspDeInit:000000000000000c $d
     /tmp/ccM99OFZ.s:100    .text.HAL_PCD_SetupStageCallback:0000000000000000 $t
     /tmp/ccM99OFZ.s:107    .text.HAL_PCD_SetupStageCallback:0000000000000000 HAL_PCD_SetupStageCallback
     /tmp/ccM99OFZ.s:122    .text.HAL_PCD_DataOutStageCallback:0000000000000000 $t
     /tmp/ccM99OFZ.s:129    .text.HAL_PCD_DataOutStageCallback:0000000000000000 HAL_PCD_DataOutStageCallback
     /tmp/ccM99OFZ.s:146    .text.HAL_PCD_DataInStageCallback:0000000000000000 $t
     /tmp/ccM99OFZ.s:153    .text.HAL_PCD_DataInStageCallback:0000000000000000 HAL_PCD_DataInStageCallback
     /tmp/ccM99OFZ.s:169    .text.HAL_PCD_SOFCallback:0000000000000000 $t
     /tmp/ccM99OFZ.s:176    .text.HAL_PCD_SOFCallback:0000000000000000 HAL_PCD_SOFCallback
     /tmp/ccM99OFZ.s:188    .text.HAL_PCD_ResetCallback:0000000000000000 $t
     /tmp/ccM99OFZ.s:195    .text.HAL_PCD_ResetCallback:0000000000000000 HAL_PCD_ResetCallback
     /tmp/ccM99OFZ.s:211    .text.HAL_PCD_SuspendCallback:0000000000000000 $t
     /tmp/ccM99OFZ.s:218    .text.HAL_PCD_SuspendCallback:0000000000000000 HAL_PCD_SuspendCallback
     /tmp/ccM99OFZ.s:226    .text.HAL_PCD_ResumeCallback:0000000000000000 $t
     /tmp/ccM99OFZ.s:233    .text.HAL_PCD_ResumeCallback:0000000000000000 HAL_PCD_ResumeCallback
     /tmp/ccM99OFZ.s:241    .text.HAL_PCD_ISOOUTIncompleteCallback:0000000000000000 $t
     /tmp/ccM99OFZ.s:248    .text.HAL_PCD_ISOOUTIncompleteCallback:0000000000000000 HAL_PCD_ISOOUTIncompleteCallback
     /tmp/ccM99OFZ.s:260    .text.HAL_PCD_ISOINIncompleteCallback:0000000000000000 $t
     /tmp/ccM99OFZ.s:267    .text.HAL_PCD_ISOINIncompleteCallback:0000000000000000 HAL_PCD_ISOINIncompleteCallback
     /tmp/ccM99OFZ.s:279    .text.HAL_PCD_ConnectCallback:0000000000000000 $t
     /tmp/ccM99OFZ.s:286    .text.HAL_PCD_ConnectCallback:0000000000000000 HAL_PCD_ConnectCallback
     /tmp/ccM99OFZ.s:298    .text.HAL_PCD_DisconnectCallback:0000000000000000 $t
     /tmp/ccM99OFZ.s:305    .text.HAL_PCD_DisconnectCallback:0000000000000000 HAL_PCD_DisconnectCallback
     /tmp/ccM99OFZ.s:317    .text.USBD_LL_Init:0000000000000000 $t
     /tmp/ccM99OFZ.s:324    .text.USBD_LL_Init:0000000000000000 USBD_LL_Init
     /tmp/ccM99OFZ.s:378    .text.USBD_LL_Init:000000000000006c $d
     /tmp/ccM99OFZ.s:714    .bss.hpcd:0000000000000000 hpcd
     /tmp/ccM99OFZ.s:382    .text.USBD_LL_DeInit:0000000000000000 $t
     /tmp/ccM99OFZ.s:389    .text.USBD_LL_DeInit:0000000000000000 USBD_LL_DeInit
     /tmp/ccM99OFZ.s:402    .text.USBD_LL_Start:0000000000000000 $t
     /tmp/ccM99OFZ.s:409    .text.USBD_LL_Start:0000000000000000 USBD_LL_Start
     /tmp/ccM99OFZ.s:422    .text.USBD_LL_Stop:0000000000000000 $t
     /tmp/ccM99OFZ.s:429    .text.USBD_LL_Stop:0000000000000000 USBD_LL_Stop
     /tmp/ccM99OFZ.s:442    .text.USBD_LL_OpenEP:0000000000000000 $t
     /tmp/ccM99OFZ.s:449    .text.USBD_LL_OpenEP:0000000000000000 USBD_LL_OpenEP
     /tmp/ccM99OFZ.s:465    .text.USBD_LL_CloseEP:0000000000000000 $t
     /tmp/ccM99OFZ.s:472    .text.USBD_LL_CloseEP:0000000000000000 USBD_LL_CloseEP
     /tmp/ccM99OFZ.s:485    .text.USBD_LL_FlushEP:0000000000000000 $t
     /tmp/ccM99OFZ.s:492    .text.USBD_LL_FlushEP:0000000000000000 USBD_LL_FlushEP
     /tmp/ccM99OFZ.s:505    .text.USBD_LL_StallEP:0000000000000000 $t
     /tmp/ccM99OFZ.s:512    .text.USBD_LL_StallEP:0000000000000000 USBD_LL_StallEP
     /tmp/ccM99OFZ.s:525    .text.USBD_LL_ClearStallEP:0000000000000000 $t
     /tmp/ccM99OFZ.s:532    .text.USBD_LL_ClearStallEP:0000000000000000 USBD_LL_ClearStallEP
     /tmp/ccM99OFZ.s:545    .text.USBD_LL_IsStallEP:0000000000000000 $t
     /tmp/ccM99OFZ.s:552    .text.USBD_LL_IsStallEP:0000000000000000 USBD_LL_IsStallEP
     /tmp/ccM99OFZ.s:580    .text.USBD_LL_SetUSBAddress:0000000000000000 $t
     /tmp/ccM99OFZ.s:587    .text.USBD_LL_SetUSBAddress:0000000000000000 USBD_LL_SetUSBAddress
     /tmp/ccM99OFZ.s:600    .text.USBD_LL_Transmit:0000000000000000 $t
     /tmp/ccM99OFZ.s:607    .text.USBD_LL_Transmit:0000000000000000 USBD_LL_Transmit
     /tmp/ccM99OFZ.s:620    .text.USBD_LL_PrepareReceive:0000000000000000 $t
ARM GAS  /tmp/ccM99OFZ.s 			page 14


     /tmp/ccM99OFZ.s:627    .text.USBD_LL_PrepareReceive:0000000000000000 USBD_LL_PrepareReceive
     /tmp/ccM99OFZ.s:640    .text.USBD_LL_GetRxDataSize:0000000000000000 $t
     /tmp/ccM99OFZ.s:647    .text.USBD_LL_GetRxDataSize:0000000000000000 USBD_LL_GetRxDataSize
     /tmp/ccM99OFZ.s:659    .text.USBD_LL_Delay:0000000000000000 $t
     /tmp/ccM99OFZ.s:666    .text.USBD_LL_Delay:0000000000000000 USBD_LL_Delay
     /tmp/ccM99OFZ.s:675    .text.USBD_static_malloc:0000000000000000 $t
     /tmp/ccM99OFZ.s:682    .text.USBD_static_malloc:0000000000000000 USBD_static_malloc
     /tmp/ccM99OFZ.s:692    .text.USBD_static_malloc:0000000000000004 $d
     /tmp/ccM99OFZ.s:720    .bss.mem.0:0000000000000000 mem.0
     /tmp/ccM99OFZ.s:695    .text.USBD_static_free:0000000000000000 $t
     /tmp/ccM99OFZ.s:702    .text.USBD_static_free:0000000000000000 USBD_static_free
     /tmp/ccM99OFZ.s:711    .bss.hpcd:0000000000000000 $d
     /tmp/ccM99OFZ.s:717    .bss.mem.0:0000000000000000 $d

UNDEFINED SYMBOLS
HAL_GPIO_Init
HAL_NVIC_SetPriority
HAL_NVIC_EnableIRQ
USBD_LL_SetupStage
USBD_LL_DataOutStage
USBD_LL_DataInStage
USBD_LL_SOF
USBD_LL_SetSpeed
USBD_LL_Reset
USBD_LL_IsoOUTIncomplete
USBD_LL_IsoINIncomplete
USBD_LL_DevConnected
USBD_LL_DevDisconnected
HAL_PCD_Init
HAL_PCDEx_PMAConfig
HAL_PCD_DeInit
HAL_PCD_Start
HAL_PCD_Stop
HAL_PCD_EP_Open
HAL_PCD_EP_Close
HAL_PCD_EP_Flush
HAL_PCD_EP_SetStall
HAL_PCD_EP_ClrStall
HAL_PCD_SetAddress
HAL_PCD_EP_Transmit
HAL_PCD_EP_Receive
HAL_PCD_EP_GetRxCount
HAL_Delay
